ARM GAS  D:\Dev\msys64\tmp\ccwKvaRW.s 			page 1


   1              		.cpu cortex-m7
   2              		.eabi_attribute 27, 1
   3              		.eabi_attribute 28, 1
   4              		.eabi_attribute 20, 1
   5              		.eabi_attribute 21, 1
   6              		.eabi_attribute 23, 3
   7              		.eabi_attribute 24, 1
   8              		.eabi_attribute 25, 1
   9              		.eabi_attribute 26, 1
  10              		.eabi_attribute 30, 1
  11              		.eabi_attribute 34, 1
  12              		.eabi_attribute 18, 4
  13              		.file	"etharp.c"
  14              		.text
  15              	.Ltext0:
  16              		.cfi_sections	.debug_frame
  17              		.section	.text.etharp_free_entry,"ax",%progbits
  18              		.align	1
  19              		.arch armv7e-m
  20              		.syntax unified
  21              		.thumb
  22              		.thumb_func
  23              		.fpu fpv5-sp-d16
  25              	etharp_free_entry:
  26              	.LVL0:
  27              	.LFB25:
  28              		.file 1 "Middlewares/Third_Party/LwIP/src/core/ipv4/etharp.c"
   1:Middlewares/Third_Party/LwIP/src/core/ipv4/etharp.c **** /**
   2:Middlewares/Third_Party/LwIP/src/core/ipv4/etharp.c ****  * @file
   3:Middlewares/Third_Party/LwIP/src/core/ipv4/etharp.c ****  * Address Resolution Protocol module for IP over Ethernet
   4:Middlewares/Third_Party/LwIP/src/core/ipv4/etharp.c ****  *
   5:Middlewares/Third_Party/LwIP/src/core/ipv4/etharp.c ****  * Functionally, ARP is divided into two parts. The first maps an IP address
   6:Middlewares/Third_Party/LwIP/src/core/ipv4/etharp.c ****  * to a physical address when sending a packet, and the second part answers
   7:Middlewares/Third_Party/LwIP/src/core/ipv4/etharp.c ****  * requests from other machines for our physical address.
   8:Middlewares/Third_Party/LwIP/src/core/ipv4/etharp.c ****  *
   9:Middlewares/Third_Party/LwIP/src/core/ipv4/etharp.c ****  * This implementation complies with RFC 826 (Ethernet ARP). It supports
  10:Middlewares/Third_Party/LwIP/src/core/ipv4/etharp.c ****  * Gratuitious ARP from RFC3220 (IP Mobility Support for IPv4) section 4.6
  11:Middlewares/Third_Party/LwIP/src/core/ipv4/etharp.c ****  * if an interface calls etharp_gratuitous(our_netif) upon address change.
  12:Middlewares/Third_Party/LwIP/src/core/ipv4/etharp.c ****  */
  13:Middlewares/Third_Party/LwIP/src/core/ipv4/etharp.c **** 
  14:Middlewares/Third_Party/LwIP/src/core/ipv4/etharp.c **** /*
  15:Middlewares/Third_Party/LwIP/src/core/ipv4/etharp.c ****  * Copyright (c) 2001-2003 Swedish Institute of Computer Science.
  16:Middlewares/Third_Party/LwIP/src/core/ipv4/etharp.c ****  * Copyright (c) 2003-2004 Leon Woestenberg <leon.woestenberg@axon.tv>
  17:Middlewares/Third_Party/LwIP/src/core/ipv4/etharp.c ****  * Copyright (c) 2003-2004 Axon Digital Design B.V., The Netherlands.
  18:Middlewares/Third_Party/LwIP/src/core/ipv4/etharp.c ****  * All rights reserved.
  19:Middlewares/Third_Party/LwIP/src/core/ipv4/etharp.c ****  *
  20:Middlewares/Third_Party/LwIP/src/core/ipv4/etharp.c ****  * Redistribution and use in source and binary forms, with or without modification,
  21:Middlewares/Third_Party/LwIP/src/core/ipv4/etharp.c ****  * are permitted provided that the following conditions are met:
  22:Middlewares/Third_Party/LwIP/src/core/ipv4/etharp.c ****  *
  23:Middlewares/Third_Party/LwIP/src/core/ipv4/etharp.c ****  * 1. Redistributions of source code must retain the above copyright notice,
  24:Middlewares/Third_Party/LwIP/src/core/ipv4/etharp.c ****  *    this list of conditions and the following disclaimer.
  25:Middlewares/Third_Party/LwIP/src/core/ipv4/etharp.c ****  * 2. Redistributions in binary form must reproduce the above copyright notice,
  26:Middlewares/Third_Party/LwIP/src/core/ipv4/etharp.c ****  *    this list of conditions and the following disclaimer in the documentation
  27:Middlewares/Third_Party/LwIP/src/core/ipv4/etharp.c ****  *    and/or other materials provided with the distribution.
  28:Middlewares/Third_Party/LwIP/src/core/ipv4/etharp.c ****  * 3. The name of the author may not be used to endorse or promote products
  29:Middlewares/Third_Party/LwIP/src/core/ipv4/etharp.c ****  *    derived from this software without specific prior written permission.
  30:Middlewares/Third_Party/LwIP/src/core/ipv4/etharp.c ****  *
ARM GAS  D:\Dev\msys64\tmp\ccwKvaRW.s 			page 2


  31:Middlewares/Third_Party/LwIP/src/core/ipv4/etharp.c ****  * THIS SOFTWARE IS PROVIDED BY THE AUTHOR ``AS IS'' AND ANY EXPRESS OR IMPLIED
  32:Middlewares/Third_Party/LwIP/src/core/ipv4/etharp.c ****  * WARRANTIES, INCLUDING, BUT NOT LIMITED TO, THE IMPLIED WARRANTIES OF
  33:Middlewares/Third_Party/LwIP/src/core/ipv4/etharp.c ****  * MERCHANTABILITY AND FITNESS FOR A PARTICULAR PURPOSE ARE DISCLAIMED. IN NO EVENT
  34:Middlewares/Third_Party/LwIP/src/core/ipv4/etharp.c ****  * SHALL THE AUTHOR BE LIABLE FOR ANY DIRECT, INDIRECT, INCIDENTAL, SPECIAL,
  35:Middlewares/Third_Party/LwIP/src/core/ipv4/etharp.c ****  * EXEMPLARY, OR CONSEQUENTIAL DAMAGES (INCLUDING, BUT NOT LIMITED TO, PROCUREMENT
  36:Middlewares/Third_Party/LwIP/src/core/ipv4/etharp.c ****  * OF SUBSTITUTE GOODS OR SERVICES; LOSS OF USE, DATA, OR PROFITS; OR BUSINESS
  37:Middlewares/Third_Party/LwIP/src/core/ipv4/etharp.c ****  * INTERRUPTION) HOWEVER CAUSED AND ON ANY THEORY OF LIABILITY, WHETHER IN
  38:Middlewares/Third_Party/LwIP/src/core/ipv4/etharp.c ****  * CONTRACT, STRICT LIABILITY, OR TORT (INCLUDING NEGLIGENCE OR OTHERWISE) ARISING
  39:Middlewares/Third_Party/LwIP/src/core/ipv4/etharp.c ****  * IN ANY WAY OUT OF THE USE OF THIS SOFTWARE, EVEN IF ADVISED OF THE POSSIBILITY
  40:Middlewares/Third_Party/LwIP/src/core/ipv4/etharp.c ****  * OF SUCH DAMAGE.
  41:Middlewares/Third_Party/LwIP/src/core/ipv4/etharp.c ****  *
  42:Middlewares/Third_Party/LwIP/src/core/ipv4/etharp.c ****  * This file is part of the lwIP TCP/IP stack.
  43:Middlewares/Third_Party/LwIP/src/core/ipv4/etharp.c ****  *
  44:Middlewares/Third_Party/LwIP/src/core/ipv4/etharp.c ****  */
  45:Middlewares/Third_Party/LwIP/src/core/ipv4/etharp.c **** 
  46:Middlewares/Third_Party/LwIP/src/core/ipv4/etharp.c **** #include "lwip/opt.h"
  47:Middlewares/Third_Party/LwIP/src/core/ipv4/etharp.c **** 
  48:Middlewares/Third_Party/LwIP/src/core/ipv4/etharp.c **** #if LWIP_IPV4 && LWIP_ARP /* don't build if not configured for use in lwipopts.h */
  49:Middlewares/Third_Party/LwIP/src/core/ipv4/etharp.c **** 
  50:Middlewares/Third_Party/LwIP/src/core/ipv4/etharp.c **** #include "lwip/etharp.h"
  51:Middlewares/Third_Party/LwIP/src/core/ipv4/etharp.c **** #include "lwip/stats.h"
  52:Middlewares/Third_Party/LwIP/src/core/ipv4/etharp.c **** #include "lwip/snmp.h"
  53:Middlewares/Third_Party/LwIP/src/core/ipv4/etharp.c **** #include "lwip/dhcp.h"
  54:Middlewares/Third_Party/LwIP/src/core/ipv4/etharp.c **** #include "lwip/autoip.h"
  55:Middlewares/Third_Party/LwIP/src/core/ipv4/etharp.c **** #include "lwip/prot/iana.h"
  56:Middlewares/Third_Party/LwIP/src/core/ipv4/etharp.c **** #include "netif/ethernet.h"
  57:Middlewares/Third_Party/LwIP/src/core/ipv4/etharp.c **** 
  58:Middlewares/Third_Party/LwIP/src/core/ipv4/etharp.c **** #include <string.h>
  59:Middlewares/Third_Party/LwIP/src/core/ipv4/etharp.c **** 
  60:Middlewares/Third_Party/LwIP/src/core/ipv4/etharp.c **** #ifdef LWIP_HOOK_FILENAME
  61:Middlewares/Third_Party/LwIP/src/core/ipv4/etharp.c **** #include LWIP_HOOK_FILENAME
  62:Middlewares/Third_Party/LwIP/src/core/ipv4/etharp.c **** #endif
  63:Middlewares/Third_Party/LwIP/src/core/ipv4/etharp.c **** 
  64:Middlewares/Third_Party/LwIP/src/core/ipv4/etharp.c **** /** Re-request a used ARP entry 1 minute before it would expire to prevent
  65:Middlewares/Third_Party/LwIP/src/core/ipv4/etharp.c ****  *  breaking a steadily used connection because the ARP entry timed out. */
  66:Middlewares/Third_Party/LwIP/src/core/ipv4/etharp.c **** #define ARP_AGE_REREQUEST_USED_UNICAST   (ARP_MAXAGE - 30)
  67:Middlewares/Third_Party/LwIP/src/core/ipv4/etharp.c **** #define ARP_AGE_REREQUEST_USED_BROADCAST (ARP_MAXAGE - 15)
  68:Middlewares/Third_Party/LwIP/src/core/ipv4/etharp.c **** 
  69:Middlewares/Third_Party/LwIP/src/core/ipv4/etharp.c **** /** the time an ARP entry stays pending after first request,
  70:Middlewares/Third_Party/LwIP/src/core/ipv4/etharp.c ****  *  for ARP_TMR_INTERVAL = 1000, this is
  71:Middlewares/Third_Party/LwIP/src/core/ipv4/etharp.c ****  *  10 seconds.
  72:Middlewares/Third_Party/LwIP/src/core/ipv4/etharp.c ****  *
  73:Middlewares/Third_Party/LwIP/src/core/ipv4/etharp.c ****  *  @internal Keep this number at least 2, otherwise it might
  74:Middlewares/Third_Party/LwIP/src/core/ipv4/etharp.c ****  *  run out instantly if the timeout occurs directly after a request.
  75:Middlewares/Third_Party/LwIP/src/core/ipv4/etharp.c ****  */
  76:Middlewares/Third_Party/LwIP/src/core/ipv4/etharp.c **** #define ARP_MAXPENDING 5
  77:Middlewares/Third_Party/LwIP/src/core/ipv4/etharp.c **** 
  78:Middlewares/Third_Party/LwIP/src/core/ipv4/etharp.c **** /** ARP states */
  79:Middlewares/Third_Party/LwIP/src/core/ipv4/etharp.c **** enum etharp_state {
  80:Middlewares/Third_Party/LwIP/src/core/ipv4/etharp.c ****   ETHARP_STATE_EMPTY = 0,
  81:Middlewares/Third_Party/LwIP/src/core/ipv4/etharp.c ****   ETHARP_STATE_PENDING,
  82:Middlewares/Third_Party/LwIP/src/core/ipv4/etharp.c ****   ETHARP_STATE_STABLE,
  83:Middlewares/Third_Party/LwIP/src/core/ipv4/etharp.c ****   ETHARP_STATE_STABLE_REREQUESTING_1,
  84:Middlewares/Third_Party/LwIP/src/core/ipv4/etharp.c ****   ETHARP_STATE_STABLE_REREQUESTING_2
  85:Middlewares/Third_Party/LwIP/src/core/ipv4/etharp.c **** #if ETHARP_SUPPORT_STATIC_ENTRIES
  86:Middlewares/Third_Party/LwIP/src/core/ipv4/etharp.c ****   , ETHARP_STATE_STATIC
  87:Middlewares/Third_Party/LwIP/src/core/ipv4/etharp.c **** #endif /* ETHARP_SUPPORT_STATIC_ENTRIES */
ARM GAS  D:\Dev\msys64\tmp\ccwKvaRW.s 			page 3


  88:Middlewares/Third_Party/LwIP/src/core/ipv4/etharp.c **** };
  89:Middlewares/Third_Party/LwIP/src/core/ipv4/etharp.c **** 
  90:Middlewares/Third_Party/LwIP/src/core/ipv4/etharp.c **** struct etharp_entry {
  91:Middlewares/Third_Party/LwIP/src/core/ipv4/etharp.c **** #if ARP_QUEUEING
  92:Middlewares/Third_Party/LwIP/src/core/ipv4/etharp.c ****   /** Pointer to queue of pending outgoing packets on this ARP entry. */
  93:Middlewares/Third_Party/LwIP/src/core/ipv4/etharp.c ****   struct etharp_q_entry *q;
  94:Middlewares/Third_Party/LwIP/src/core/ipv4/etharp.c **** #else /* ARP_QUEUEING */
  95:Middlewares/Third_Party/LwIP/src/core/ipv4/etharp.c ****   /** Pointer to a single pending outgoing packet on this ARP entry. */
  96:Middlewares/Third_Party/LwIP/src/core/ipv4/etharp.c ****   struct pbuf *q;
  97:Middlewares/Third_Party/LwIP/src/core/ipv4/etharp.c **** #endif /* ARP_QUEUEING */
  98:Middlewares/Third_Party/LwIP/src/core/ipv4/etharp.c ****   ip4_addr_t ipaddr;
  99:Middlewares/Third_Party/LwIP/src/core/ipv4/etharp.c ****   struct netif *netif;
 100:Middlewares/Third_Party/LwIP/src/core/ipv4/etharp.c ****   struct eth_addr ethaddr;
 101:Middlewares/Third_Party/LwIP/src/core/ipv4/etharp.c ****   u16_t ctime;
 102:Middlewares/Third_Party/LwIP/src/core/ipv4/etharp.c ****   u8_t state;
 103:Middlewares/Third_Party/LwIP/src/core/ipv4/etharp.c **** };
 104:Middlewares/Third_Party/LwIP/src/core/ipv4/etharp.c **** 
 105:Middlewares/Third_Party/LwIP/src/core/ipv4/etharp.c **** static struct etharp_entry arp_table[ARP_TABLE_SIZE];
 106:Middlewares/Third_Party/LwIP/src/core/ipv4/etharp.c **** 
 107:Middlewares/Third_Party/LwIP/src/core/ipv4/etharp.c **** #if !LWIP_NETIF_HWADDRHINT
 108:Middlewares/Third_Party/LwIP/src/core/ipv4/etharp.c **** static netif_addr_idx_t etharp_cached_entry;
 109:Middlewares/Third_Party/LwIP/src/core/ipv4/etharp.c **** #endif /* !LWIP_NETIF_HWADDRHINT */
 110:Middlewares/Third_Party/LwIP/src/core/ipv4/etharp.c **** 
 111:Middlewares/Third_Party/LwIP/src/core/ipv4/etharp.c **** /** Try hard to create a new entry - we want the IP address to appear in
 112:Middlewares/Third_Party/LwIP/src/core/ipv4/etharp.c ****     the cache (even if this means removing an active entry or so). */
 113:Middlewares/Third_Party/LwIP/src/core/ipv4/etharp.c **** #define ETHARP_FLAG_TRY_HARD     1
 114:Middlewares/Third_Party/LwIP/src/core/ipv4/etharp.c **** #define ETHARP_FLAG_FIND_ONLY    2
 115:Middlewares/Third_Party/LwIP/src/core/ipv4/etharp.c **** #if ETHARP_SUPPORT_STATIC_ENTRIES
 116:Middlewares/Third_Party/LwIP/src/core/ipv4/etharp.c **** #define ETHARP_FLAG_STATIC_ENTRY 4
 117:Middlewares/Third_Party/LwIP/src/core/ipv4/etharp.c **** #endif /* ETHARP_SUPPORT_STATIC_ENTRIES */
 118:Middlewares/Third_Party/LwIP/src/core/ipv4/etharp.c **** 
 119:Middlewares/Third_Party/LwIP/src/core/ipv4/etharp.c **** #if LWIP_NETIF_HWADDRHINT
 120:Middlewares/Third_Party/LwIP/src/core/ipv4/etharp.c **** #define ETHARP_SET_ADDRHINT(netif, addrhint)  do { if (((netif) != NULL) && ((netif)->hints != NULL
 121:Middlewares/Third_Party/LwIP/src/core/ipv4/etharp.c ****                                               (netif)->hints->addr_hint = (addrhint); }} while(0)
 122:Middlewares/Third_Party/LwIP/src/core/ipv4/etharp.c **** #else /* LWIP_NETIF_HWADDRHINT */
 123:Middlewares/Third_Party/LwIP/src/core/ipv4/etharp.c **** #define ETHARP_SET_ADDRHINT(netif, addrhint)  (etharp_cached_entry = (addrhint))
 124:Middlewares/Third_Party/LwIP/src/core/ipv4/etharp.c **** #endif /* LWIP_NETIF_HWADDRHINT */
 125:Middlewares/Third_Party/LwIP/src/core/ipv4/etharp.c **** 
 126:Middlewares/Third_Party/LwIP/src/core/ipv4/etharp.c **** 
 127:Middlewares/Third_Party/LwIP/src/core/ipv4/etharp.c **** /* Check for maximum ARP_TABLE_SIZE */
 128:Middlewares/Third_Party/LwIP/src/core/ipv4/etharp.c **** #if (ARP_TABLE_SIZE > NETIF_ADDR_IDX_MAX)
 129:Middlewares/Third_Party/LwIP/src/core/ipv4/etharp.c **** #error "ARP_TABLE_SIZE must fit in an s16_t, you have to reduce it in your lwipopts.h"
 130:Middlewares/Third_Party/LwIP/src/core/ipv4/etharp.c **** #endif
 131:Middlewares/Third_Party/LwIP/src/core/ipv4/etharp.c **** 
 132:Middlewares/Third_Party/LwIP/src/core/ipv4/etharp.c **** 
 133:Middlewares/Third_Party/LwIP/src/core/ipv4/etharp.c **** static err_t etharp_request_dst(struct netif *netif, const ip4_addr_t *ipaddr, const struct eth_add
 134:Middlewares/Third_Party/LwIP/src/core/ipv4/etharp.c **** static err_t etharp_raw(struct netif *netif,
 135:Middlewares/Third_Party/LwIP/src/core/ipv4/etharp.c ****                         const struct eth_addr *ethsrc_addr, const struct eth_addr *ethdst_addr,
 136:Middlewares/Third_Party/LwIP/src/core/ipv4/etharp.c ****                         const struct eth_addr *hwsrc_addr, const ip4_addr_t *ipsrc_addr,
 137:Middlewares/Third_Party/LwIP/src/core/ipv4/etharp.c ****                         const struct eth_addr *hwdst_addr, const ip4_addr_t *ipdst_addr,
 138:Middlewares/Third_Party/LwIP/src/core/ipv4/etharp.c ****                         const u16_t opcode);
 139:Middlewares/Third_Party/LwIP/src/core/ipv4/etharp.c **** 
 140:Middlewares/Third_Party/LwIP/src/core/ipv4/etharp.c **** #if ARP_QUEUEING
 141:Middlewares/Third_Party/LwIP/src/core/ipv4/etharp.c **** /**
 142:Middlewares/Third_Party/LwIP/src/core/ipv4/etharp.c ****  * Free a complete queue of etharp entries
 143:Middlewares/Third_Party/LwIP/src/core/ipv4/etharp.c ****  *
 144:Middlewares/Third_Party/LwIP/src/core/ipv4/etharp.c ****  * @param q a qeueue of etharp_q_entry's to free
ARM GAS  D:\Dev\msys64\tmp\ccwKvaRW.s 			page 4


 145:Middlewares/Third_Party/LwIP/src/core/ipv4/etharp.c ****  */
 146:Middlewares/Third_Party/LwIP/src/core/ipv4/etharp.c **** static void
 147:Middlewares/Third_Party/LwIP/src/core/ipv4/etharp.c **** free_etharp_q(struct etharp_q_entry *q)
 148:Middlewares/Third_Party/LwIP/src/core/ipv4/etharp.c **** {
 149:Middlewares/Third_Party/LwIP/src/core/ipv4/etharp.c ****   struct etharp_q_entry *r;
 150:Middlewares/Third_Party/LwIP/src/core/ipv4/etharp.c ****   LWIP_ASSERT("q != NULL", q != NULL);
 151:Middlewares/Third_Party/LwIP/src/core/ipv4/etharp.c ****   while (q) {
 152:Middlewares/Third_Party/LwIP/src/core/ipv4/etharp.c ****     r = q;
 153:Middlewares/Third_Party/LwIP/src/core/ipv4/etharp.c ****     q = q->next;
 154:Middlewares/Third_Party/LwIP/src/core/ipv4/etharp.c ****     LWIP_ASSERT("r->p != NULL", (r->p != NULL));
 155:Middlewares/Third_Party/LwIP/src/core/ipv4/etharp.c ****     pbuf_free(r->p);
 156:Middlewares/Third_Party/LwIP/src/core/ipv4/etharp.c ****     memp_free(MEMP_ARP_QUEUE, r);
 157:Middlewares/Third_Party/LwIP/src/core/ipv4/etharp.c ****   }
 158:Middlewares/Third_Party/LwIP/src/core/ipv4/etharp.c **** }
 159:Middlewares/Third_Party/LwIP/src/core/ipv4/etharp.c **** #else /* ARP_QUEUEING */
 160:Middlewares/Third_Party/LwIP/src/core/ipv4/etharp.c **** 
 161:Middlewares/Third_Party/LwIP/src/core/ipv4/etharp.c **** /** Compatibility define: free the queued pbuf */
 162:Middlewares/Third_Party/LwIP/src/core/ipv4/etharp.c **** #define free_etharp_q(q) pbuf_free(q)
 163:Middlewares/Third_Party/LwIP/src/core/ipv4/etharp.c **** 
 164:Middlewares/Third_Party/LwIP/src/core/ipv4/etharp.c **** #endif /* ARP_QUEUEING */
 165:Middlewares/Third_Party/LwIP/src/core/ipv4/etharp.c **** 
 166:Middlewares/Third_Party/LwIP/src/core/ipv4/etharp.c **** /** Clean up ARP table entries */
 167:Middlewares/Third_Party/LwIP/src/core/ipv4/etharp.c **** static void
 168:Middlewares/Third_Party/LwIP/src/core/ipv4/etharp.c **** etharp_free_entry(int i)
 169:Middlewares/Third_Party/LwIP/src/core/ipv4/etharp.c **** {
  29              		.loc 1 169 1 view -0
  30              		.cfi_startproc
  31              		@ args = 0, pretend = 0, frame = 0
  32              		@ frame_needed = 0, uses_anonymous_args = 0
  33              		.loc 1 169 1 is_stmt 0 view .LVU1
  34 0000 10B5     		push	{r4, lr}
  35              	.LCFI0:
  36              		.cfi_def_cfa_offset 8
  37              		.cfi_offset 4, -8
  38              		.cfi_offset 14, -4
  39 0002 0446     		mov	r4, r0
 170:Middlewares/Third_Party/LwIP/src/core/ipv4/etharp.c ****   /* remove from SNMP ARP index tree */
 171:Middlewares/Third_Party/LwIP/src/core/ipv4/etharp.c ****   mib2_remove_arp_entry(arp_table[i].netif, &arp_table[i].ipaddr);
  40              		.loc 1 171 66 is_stmt 1 view .LVU2
 172:Middlewares/Third_Party/LwIP/src/core/ipv4/etharp.c ****   /* and empty packet queue */
 173:Middlewares/Third_Party/LwIP/src/core/ipv4/etharp.c ****   if (arp_table[i].q != NULL) {
  41              		.loc 1 173 3 view .LVU3
  42              		.loc 1 173 19 is_stmt 0 view .LVU4
  43 0004 00EB4002 		add	r2, r0, r0, lsl #1
  44 0008 094B     		ldr	r3, .L4
  45 000a 53F83200 		ldr	r0, [r3, r2, lsl #3]
  46              	.LVL1:
  47              		.loc 1 173 6 view .LVU5
  48 000e 38B1     		cbz	r0, .L2
 174:Middlewares/Third_Party/LwIP/src/core/ipv4/etharp.c ****     /* remove all queued packets */
 175:Middlewares/Third_Party/LwIP/src/core/ipv4/etharp.c ****     LWIP_DEBUGF(ETHARP_DEBUG, ("etharp_free_entry: freeing entry %"U16_F", packet queue %p.\n", (u1
  49              		.loc 1 175 133 is_stmt 1 view .LVU6
 176:Middlewares/Third_Party/LwIP/src/core/ipv4/etharp.c ****     free_etharp_q(arp_table[i].q);
  50              		.loc 1 176 5 view .LVU7
  51 0010 FFF7FEFF 		bl	pbuf_free
  52              	.LVL2:
 177:Middlewares/Third_Party/LwIP/src/core/ipv4/etharp.c ****     arp_table[i].q = NULL;
ARM GAS  D:\Dev\msys64\tmp\ccwKvaRW.s 			page 5


  53              		.loc 1 177 5 view .LVU8
  54              		.loc 1 177 20 is_stmt 0 view .LVU9
  55 0014 04EB4403 		add	r3, r4, r4, lsl #1
  56 0018 DB00     		lsls	r3, r3, #3
  57 001a 054A     		ldr	r2, .L4
  58 001c 0021     		movs	r1, #0
  59 001e D150     		str	r1, [r2, r3]
  60              	.L2:
 178:Middlewares/Third_Party/LwIP/src/core/ipv4/etharp.c ****   }
 179:Middlewares/Third_Party/LwIP/src/core/ipv4/etharp.c ****   /* recycle entry for re-use */
 180:Middlewares/Third_Party/LwIP/src/core/ipv4/etharp.c ****   arp_table[i].state = ETHARP_STATE_EMPTY;
  61              		.loc 1 180 3 is_stmt 1 view .LVU10
  62              		.loc 1 180 22 is_stmt 0 view .LVU11
  63 0020 04EB4404 		add	r4, r4, r4, lsl #1
  64              	.LVL3:
  65              		.loc 1 180 22 view .LVU12
  66 0024 0248     		ldr	r0, .L4
  67 0026 00EBC404 		add	r4, r0, r4, lsl #3
  68 002a 0023     		movs	r3, #0
  69 002c 2375     		strb	r3, [r4, #20]
 181:Middlewares/Third_Party/LwIP/src/core/ipv4/etharp.c **** #ifdef LWIP_DEBUG
 182:Middlewares/Third_Party/LwIP/src/core/ipv4/etharp.c ****   /* for debugging, clean out the complete entry */
 183:Middlewares/Third_Party/LwIP/src/core/ipv4/etharp.c ****   arp_table[i].ctime = 0;
 184:Middlewares/Third_Party/LwIP/src/core/ipv4/etharp.c ****   arp_table[i].netif = NULL;
 185:Middlewares/Third_Party/LwIP/src/core/ipv4/etharp.c ****   ip4_addr_set_zero(&arp_table[i].ipaddr);
 186:Middlewares/Third_Party/LwIP/src/core/ipv4/etharp.c ****   arp_table[i].ethaddr = ethzero;
 187:Middlewares/Third_Party/LwIP/src/core/ipv4/etharp.c **** #endif /* LWIP_DEBUG */
 188:Middlewares/Third_Party/LwIP/src/core/ipv4/etharp.c **** }
  70              		.loc 1 188 1 view .LVU13
  71 002e 10BD     		pop	{r4, pc}
  72              	.L5:
  73              		.align	2
  74              	.L4:
  75 0030 00000000 		.word	.LANCHOR0
  76              		.cfi_endproc
  77              	.LFE25:
  79              		.section	.rodata.etharp_find_entry.str1.4,"aMS",%progbits,1
  80              		.align	2
  81              	.LC0:
  82 0000 4D696464 		.ascii	"Middlewares/Third_Party/LwIP/src/core/ipv4/etharp.c"
  82      6C657761 
  82      7265732F 
  82      54686972 
  82      645F5061 
  83 0033 00       		.ascii	"\000"
  84              		.align	2
  85              	.LC1:
  86 0034 73746174 		.ascii	"state == ETHARP_STATE_PENDING || state >= ETHARP_ST"
  86      65203D3D 
  86      20455448 
  86      4152505F 
  86      53544154 
  87 0067 4154455F 		.ascii	"ATE_STABLE\000"
  87      53544142 
  87      4C4500
  88 0072 0000     		.align	2
  89              	.LC2:
ARM GAS  D:\Dev\msys64\tmp\ccwKvaRW.s 			page 6


  90 0074 41737365 		.ascii	"Assertion \"%s\" failed at line %d in %s\012\000"
  90      7274696F 
  90      6E202225 
  90      73222066 
  90      61696C65 
  91              		.align	2
  92              	.LC3:
  93 009c 6172705F 		.ascii	"arp_table[i].q == NULL\000"
  93      7461626C 
  93      655B695D 
  93      2E71203D 
  93      3D204E55 
  94 00b3 00       		.align	2
  95              	.LC4:
  96 00b4 69203C20 		.ascii	"i < ARP_TABLE_SIZE\000"
  96      4152505F 
  96      5441424C 
  96      455F5349 
  96      5A4500
  97 00c7 00       		.align	2
  98              	.LC5:
  99 00c8 6172705F 		.ascii	"arp_table[i].state == ETHARP_STATE_EMPTY\000"
  99      7461626C 
  99      655B695D 
  99      2E737461 
  99      7465203D 
 100              		.section	.text.etharp_find_entry,"ax",%progbits
 101              		.align	1
 102              		.syntax unified
 103              		.thumb
 104              		.thumb_func
 105              		.fpu fpv5-sp-d16
 107              	etharp_find_entry:
 108              	.LVL4:
 109              	.LFB27:
 189:Middlewares/Third_Party/LwIP/src/core/ipv4/etharp.c **** 
 190:Middlewares/Third_Party/LwIP/src/core/ipv4/etharp.c **** /**
 191:Middlewares/Third_Party/LwIP/src/core/ipv4/etharp.c ****  * Clears expired entries in the ARP table.
 192:Middlewares/Third_Party/LwIP/src/core/ipv4/etharp.c ****  *
 193:Middlewares/Third_Party/LwIP/src/core/ipv4/etharp.c ****  * This function should be called every ARP_TMR_INTERVAL milliseconds (1 second),
 194:Middlewares/Third_Party/LwIP/src/core/ipv4/etharp.c ****  * in order to expire entries in the ARP table.
 195:Middlewares/Third_Party/LwIP/src/core/ipv4/etharp.c ****  */
 196:Middlewares/Third_Party/LwIP/src/core/ipv4/etharp.c **** void
 197:Middlewares/Third_Party/LwIP/src/core/ipv4/etharp.c **** etharp_tmr(void)
 198:Middlewares/Third_Party/LwIP/src/core/ipv4/etharp.c **** {
 199:Middlewares/Third_Party/LwIP/src/core/ipv4/etharp.c ****   int i;
 200:Middlewares/Third_Party/LwIP/src/core/ipv4/etharp.c **** 
 201:Middlewares/Third_Party/LwIP/src/core/ipv4/etharp.c ****   LWIP_DEBUGF(ETHARP_DEBUG, ("etharp_timer\n"));
 202:Middlewares/Third_Party/LwIP/src/core/ipv4/etharp.c ****   /* remove expired entries from the ARP table */
 203:Middlewares/Third_Party/LwIP/src/core/ipv4/etharp.c ****   for (i = 0; i < ARP_TABLE_SIZE; ++i) {
 204:Middlewares/Third_Party/LwIP/src/core/ipv4/etharp.c ****     u8_t state = arp_table[i].state;
 205:Middlewares/Third_Party/LwIP/src/core/ipv4/etharp.c ****     if (state != ETHARP_STATE_EMPTY
 206:Middlewares/Third_Party/LwIP/src/core/ipv4/etharp.c **** #if ETHARP_SUPPORT_STATIC_ENTRIES
 207:Middlewares/Third_Party/LwIP/src/core/ipv4/etharp.c ****         && (state != ETHARP_STATE_STATIC)
 208:Middlewares/Third_Party/LwIP/src/core/ipv4/etharp.c **** #endif /* ETHARP_SUPPORT_STATIC_ENTRIES */
 209:Middlewares/Third_Party/LwIP/src/core/ipv4/etharp.c ****        ) {
 210:Middlewares/Third_Party/LwIP/src/core/ipv4/etharp.c ****       arp_table[i].ctime++;
ARM GAS  D:\Dev\msys64\tmp\ccwKvaRW.s 			page 7


 211:Middlewares/Third_Party/LwIP/src/core/ipv4/etharp.c ****       if ((arp_table[i].ctime >= ARP_MAXAGE) ||
 212:Middlewares/Third_Party/LwIP/src/core/ipv4/etharp.c ****           ((arp_table[i].state == ETHARP_STATE_PENDING)  &&
 213:Middlewares/Third_Party/LwIP/src/core/ipv4/etharp.c ****            (arp_table[i].ctime >= ARP_MAXPENDING))) {
 214:Middlewares/Third_Party/LwIP/src/core/ipv4/etharp.c ****         /* pending or stable entry has become old! */
 215:Middlewares/Third_Party/LwIP/src/core/ipv4/etharp.c ****         LWIP_DEBUGF(ETHARP_DEBUG, ("etharp_timer: expired %s entry %d.\n",
 216:Middlewares/Third_Party/LwIP/src/core/ipv4/etharp.c ****                                    arp_table[i].state >= ETHARP_STATE_STABLE ? "stable" : "pending"
 217:Middlewares/Third_Party/LwIP/src/core/ipv4/etharp.c ****         /* clean up entries that have just been expired */
 218:Middlewares/Third_Party/LwIP/src/core/ipv4/etharp.c ****         etharp_free_entry(i);
 219:Middlewares/Third_Party/LwIP/src/core/ipv4/etharp.c ****       } else if (arp_table[i].state == ETHARP_STATE_STABLE_REREQUESTING_1) {
 220:Middlewares/Third_Party/LwIP/src/core/ipv4/etharp.c ****         /* Don't send more than one request every 2 seconds. */
 221:Middlewares/Third_Party/LwIP/src/core/ipv4/etharp.c ****         arp_table[i].state = ETHARP_STATE_STABLE_REREQUESTING_2;
 222:Middlewares/Third_Party/LwIP/src/core/ipv4/etharp.c ****       } else if (arp_table[i].state == ETHARP_STATE_STABLE_REREQUESTING_2) {
 223:Middlewares/Third_Party/LwIP/src/core/ipv4/etharp.c ****         /* Reset state to stable, so that the next transmitted packet will
 224:Middlewares/Third_Party/LwIP/src/core/ipv4/etharp.c ****            re-send an ARP request. */
 225:Middlewares/Third_Party/LwIP/src/core/ipv4/etharp.c ****         arp_table[i].state = ETHARP_STATE_STABLE;
 226:Middlewares/Third_Party/LwIP/src/core/ipv4/etharp.c ****       } else if (arp_table[i].state == ETHARP_STATE_PENDING) {
 227:Middlewares/Third_Party/LwIP/src/core/ipv4/etharp.c ****         /* still pending, resend an ARP query */
 228:Middlewares/Third_Party/LwIP/src/core/ipv4/etharp.c ****         etharp_request(arp_table[i].netif, &arp_table[i].ipaddr);
 229:Middlewares/Third_Party/LwIP/src/core/ipv4/etharp.c ****       }
 230:Middlewares/Third_Party/LwIP/src/core/ipv4/etharp.c ****     }
 231:Middlewares/Third_Party/LwIP/src/core/ipv4/etharp.c ****   }
 232:Middlewares/Third_Party/LwIP/src/core/ipv4/etharp.c **** }
 233:Middlewares/Third_Party/LwIP/src/core/ipv4/etharp.c **** 
 234:Middlewares/Third_Party/LwIP/src/core/ipv4/etharp.c **** /**
 235:Middlewares/Third_Party/LwIP/src/core/ipv4/etharp.c ****  * Search the ARP table for a matching or new entry.
 236:Middlewares/Third_Party/LwIP/src/core/ipv4/etharp.c ****  *
 237:Middlewares/Third_Party/LwIP/src/core/ipv4/etharp.c ****  * If an IP address is given, return a pending or stable ARP entry that matches
 238:Middlewares/Third_Party/LwIP/src/core/ipv4/etharp.c ****  * the address. If no match is found, create a new entry with this address set,
 239:Middlewares/Third_Party/LwIP/src/core/ipv4/etharp.c ****  * but in state ETHARP_EMPTY. The caller must check and possibly change the
 240:Middlewares/Third_Party/LwIP/src/core/ipv4/etharp.c ****  * state of the returned entry.
 241:Middlewares/Third_Party/LwIP/src/core/ipv4/etharp.c ****  *
 242:Middlewares/Third_Party/LwIP/src/core/ipv4/etharp.c ****  * If ipaddr is NULL, return a initialized new entry in state ETHARP_EMPTY.
 243:Middlewares/Third_Party/LwIP/src/core/ipv4/etharp.c ****  *
 244:Middlewares/Third_Party/LwIP/src/core/ipv4/etharp.c ****  * In all cases, attempt to create new entries from an empty entry. If no
 245:Middlewares/Third_Party/LwIP/src/core/ipv4/etharp.c ****  * empty entries are available and ETHARP_FLAG_TRY_HARD flag is set, recycle
 246:Middlewares/Third_Party/LwIP/src/core/ipv4/etharp.c ****  * old entries. Heuristic choose the least important entry for recycling.
 247:Middlewares/Third_Party/LwIP/src/core/ipv4/etharp.c ****  *
 248:Middlewares/Third_Party/LwIP/src/core/ipv4/etharp.c ****  * @param ipaddr IP address to find in ARP cache, or to add if not found.
 249:Middlewares/Third_Party/LwIP/src/core/ipv4/etharp.c ****  * @param flags See @ref etharp_state
 250:Middlewares/Third_Party/LwIP/src/core/ipv4/etharp.c ****  * @param netif netif related to this address (used for NETIF_HWADDRHINT)
 251:Middlewares/Third_Party/LwIP/src/core/ipv4/etharp.c ****  *
 252:Middlewares/Third_Party/LwIP/src/core/ipv4/etharp.c ****  * @return The ARP entry index that matched or is created, ERR_MEM if no
 253:Middlewares/Third_Party/LwIP/src/core/ipv4/etharp.c ****  * entry is found or could be recycled.
 254:Middlewares/Third_Party/LwIP/src/core/ipv4/etharp.c ****  */
 255:Middlewares/Third_Party/LwIP/src/core/ipv4/etharp.c **** static s16_t
 256:Middlewares/Third_Party/LwIP/src/core/ipv4/etharp.c **** etharp_find_entry(const ip4_addr_t *ipaddr, u8_t flags, struct netif *netif)
 257:Middlewares/Third_Party/LwIP/src/core/ipv4/etharp.c **** {
 110              		.loc 1 257 1 is_stmt 1 view -0
 111              		.cfi_startproc
 112              		@ args = 0, pretend = 0, frame = 24
 113              		@ frame_needed = 0, uses_anonymous_args = 0
 114              		.loc 1 257 1 is_stmt 0 view .LVU15
 115 0000 2DE9F04F 		push	{r4, r5, r6, r7, r8, r9, r10, fp, lr}
 116              	.LCFI1:
 117              		.cfi_def_cfa_offset 36
 118              		.cfi_offset 4, -36
 119              		.cfi_offset 5, -32
ARM GAS  D:\Dev\msys64\tmp\ccwKvaRW.s 			page 8


 120              		.cfi_offset 6, -28
 121              		.cfi_offset 7, -24
 122              		.cfi_offset 8, -20
 123              		.cfi_offset 9, -16
 124              		.cfi_offset 10, -12
 125              		.cfi_offset 11, -8
 126              		.cfi_offset 14, -4
 127 0004 87B0     		sub	sp, sp, #28
 128              	.LCFI2:
 129              		.cfi_def_cfa_offset 64
 130 0006 8B46     		mov	fp, r1
 131 0008 9246     		mov	r10, r2
 258:Middlewares/Third_Party/LwIP/src/core/ipv4/etharp.c ****   s16_t old_pending = ARP_TABLE_SIZE, old_stable = ARP_TABLE_SIZE;
 132              		.loc 1 258 3 is_stmt 1 view .LVU16
 133              	.LVL5:
 259:Middlewares/Third_Party/LwIP/src/core/ipv4/etharp.c ****   s16_t empty = ARP_TABLE_SIZE;
 134              		.loc 1 259 3 view .LVU17
 260:Middlewares/Third_Party/LwIP/src/core/ipv4/etharp.c ****   s16_t i = 0;
 135              		.loc 1 260 3 view .LVU18
 261:Middlewares/Third_Party/LwIP/src/core/ipv4/etharp.c ****   /* oldest entry with packets on queue */
 262:Middlewares/Third_Party/LwIP/src/core/ipv4/etharp.c ****   s16_t old_queue = ARP_TABLE_SIZE;
 136              		.loc 1 262 3 view .LVU19
 263:Middlewares/Third_Party/LwIP/src/core/ipv4/etharp.c ****   /* its age */
 264:Middlewares/Third_Party/LwIP/src/core/ipv4/etharp.c ****   u16_t age_queue = 0, age_pending = 0, age_stable = 0;
 137              		.loc 1 264 3 view .LVU20
 265:Middlewares/Third_Party/LwIP/src/core/ipv4/etharp.c **** 
 266:Middlewares/Third_Party/LwIP/src/core/ipv4/etharp.c ****   LWIP_UNUSED_ARG(netif);
 138              		.loc 1 266 3 view .LVU21
 267:Middlewares/Third_Party/LwIP/src/core/ipv4/etharp.c **** 
 268:Middlewares/Third_Party/LwIP/src/core/ipv4/etharp.c ****   /**
 269:Middlewares/Third_Party/LwIP/src/core/ipv4/etharp.c ****    * a) do a search through the cache, remember candidates
 270:Middlewares/Third_Party/LwIP/src/core/ipv4/etharp.c ****    * b) select candidate entry
 271:Middlewares/Third_Party/LwIP/src/core/ipv4/etharp.c ****    * c) create new entry
 272:Middlewares/Third_Party/LwIP/src/core/ipv4/etharp.c ****    */
 273:Middlewares/Third_Party/LwIP/src/core/ipv4/etharp.c **** 
 274:Middlewares/Third_Party/LwIP/src/core/ipv4/etharp.c ****   /* a) in a single search sweep, do all of this
 275:Middlewares/Third_Party/LwIP/src/core/ipv4/etharp.c ****    * 1) remember the first empty entry (if any)
 276:Middlewares/Third_Party/LwIP/src/core/ipv4/etharp.c ****    * 2) remember the oldest stable entry (if any)
 277:Middlewares/Third_Party/LwIP/src/core/ipv4/etharp.c ****    * 3) remember the oldest pending entry without queued packets (if any)
 278:Middlewares/Third_Party/LwIP/src/core/ipv4/etharp.c ****    * 4) remember the oldest pending entry with queued packets (if any)
 279:Middlewares/Third_Party/LwIP/src/core/ipv4/etharp.c ****    * 5) search for a matching IP entry, either pending or stable
 280:Middlewares/Third_Party/LwIP/src/core/ipv4/etharp.c ****    *    until 5 matches, or all entries are searched for.
 281:Middlewares/Third_Party/LwIP/src/core/ipv4/etharp.c ****    */
 282:Middlewares/Third_Party/LwIP/src/core/ipv4/etharp.c **** 
 283:Middlewares/Third_Party/LwIP/src/core/ipv4/etharp.c ****   for (i = 0; i < ARP_TABLE_SIZE; ++i) {
 139              		.loc 1 283 3 view .LVU22
 264:Middlewares/Third_Party/LwIP/src/core/ipv4/etharp.c **** 
 140              		.loc 1 264 41 is_stmt 0 view .LVU23
 141 000a 4FF00009 		mov	r9, #0
 264:Middlewares/Third_Party/LwIP/src/core/ipv4/etharp.c **** 
 142              		.loc 1 264 24 view .LVU24
 143 000e CDF81490 		str	r9, [sp, #20]
 264:Middlewares/Third_Party/LwIP/src/core/ipv4/etharp.c **** 
 144              		.loc 1 264 9 view .LVU25
 145 0012 CDF80890 		str	r9, [sp, #8]
 262:Middlewares/Third_Party/LwIP/src/core/ipv4/etharp.c ****   /* its age */
 146              		.loc 1 262 9 view .LVU26
ARM GAS  D:\Dev\msys64\tmp\ccwKvaRW.s 			page 9


 147 0016 0A23     		movs	r3, #10
 148 0018 0493     		str	r3, [sp, #16]
 149              		.loc 1 283 10 view .LVU27
 150 001a 4C46     		mov	r4, r9
 259:Middlewares/Third_Party/LwIP/src/core/ipv4/etharp.c ****   s16_t i = 0;
 151              		.loc 1 259 9 view .LVU28
 152 001c 1E46     		mov	r6, r3
 258:Middlewares/Third_Party/LwIP/src/core/ipv4/etharp.c ****   s16_t empty = ARP_TABLE_SIZE;
 153              		.loc 1 258 39 view .LVU29
 154 001e 0193     		str	r3, [sp, #4]
 258:Middlewares/Third_Party/LwIP/src/core/ipv4/etharp.c ****   s16_t empty = ARP_TABLE_SIZE;
 155              		.loc 1 258 9 view .LVU30
 156 0020 0393     		str	r3, [sp, #12]
 157 0022 0746     		mov	r7, r0
 158              		.loc 1 283 3 view .LVU31
 159 0024 34E0     		b	.L7
 160              	.LVL6:
 161              	.L36:
 162              	.LBB2:
 284:Middlewares/Third_Party/LwIP/src/core/ipv4/etharp.c ****     u8_t state = arp_table[i].state;
 285:Middlewares/Third_Party/LwIP/src/core/ipv4/etharp.c ****     /* no empty entry found yet and now we do find one? */
 286:Middlewares/Third_Party/LwIP/src/core/ipv4/etharp.c ****     if ((empty == ARP_TABLE_SIZE) && (state == ETHARP_STATE_EMPTY)) {
 287:Middlewares/Third_Party/LwIP/src/core/ipv4/etharp.c ****       LWIP_DEBUGF(ETHARP_DEBUG, ("etharp_find_entry: found empty entry %d\n", (int)i));
 288:Middlewares/Third_Party/LwIP/src/core/ipv4/etharp.c ****       /* remember first empty entry */
 289:Middlewares/Third_Party/LwIP/src/core/ipv4/etharp.c ****       empty = i;
 290:Middlewares/Third_Party/LwIP/src/core/ipv4/etharp.c ****     } else if (state != ETHARP_STATE_EMPTY) {
 291:Middlewares/Third_Party/LwIP/src/core/ipv4/etharp.c ****       LWIP_ASSERT("state == ETHARP_STATE_PENDING || state >= ETHARP_STATE_STABLE",
 163              		.loc 1 291 7 is_stmt 1 discriminator 1 view .LVU32
 164              		.loc 1 291 7 discriminator 1 view .LVU33
 165 0026 6B4B     		ldr	r3, .L43
 166 0028 40F22312 		movw	r2, #291
 167 002c 6A49     		ldr	r1, .L43+4
 168 002e 6B48     		ldr	r0, .L43+8
 169 0030 FFF7FEFF 		bl	printf
 170              	.LVL7:
 171 0034 41E0     		b	.L9
 172              	.L37:
 292:Middlewares/Third_Party/LwIP/src/core/ipv4/etharp.c ****                   state == ETHARP_STATE_PENDING || state >= ETHARP_STATE_STABLE);
 293:Middlewares/Third_Party/LwIP/src/core/ipv4/etharp.c ****       /* if given, does IP address match IP address in ARP entry? */
 294:Middlewares/Third_Party/LwIP/src/core/ipv4/etharp.c ****       if (ipaddr && ip4_addr_cmp(ipaddr, &arp_table[i].ipaddr)
 295:Middlewares/Third_Party/LwIP/src/core/ipv4/etharp.c **** #if ETHARP_TABLE_MATCH_NETIF
 296:Middlewares/Third_Party/LwIP/src/core/ipv4/etharp.c ****           && ((netif == NULL) || (netif == arp_table[i].netif))
 173              		.loc 1 296 11 is_stmt 0 view .LVU34
 174 0036 BAF1000F 		cmp	r10, #0
 175 003a 00F0C580 		beq	.L24
 176              		.loc 1 296 56 discriminator 1 view .LVU35
 177 003e 05EB4503 		add	r3, r5, r5, lsl #1
 178 0042 02EBC303 		add	r3, r2, r3, lsl #3
 179 0046 9B68     		ldr	r3, [r3, #8]
 180              		.loc 1 296 31 discriminator 1 view .LVU36
 181 0048 5345     		cmp	r3, r10
 182 004a 40D1     		bne	.L10
 297:Middlewares/Third_Party/LwIP/src/core/ipv4/etharp.c **** #endif /* ETHARP_TABLE_MATCH_NETIF */
 298:Middlewares/Third_Party/LwIP/src/core/ipv4/etharp.c ****          ) {
 299:Middlewares/Third_Party/LwIP/src/core/ipv4/etharp.c ****         LWIP_DEBUGF(ETHARP_DEBUG | LWIP_DBG_TRACE, ("etharp_find_entry: found matching entry %d\n",
 300:Middlewares/Third_Party/LwIP/src/core/ipv4/etharp.c ****         /* found exact IP address match, simply bail out */
 301:Middlewares/Third_Party/LwIP/src/core/ipv4/etharp.c ****         return i;
ARM GAS  D:\Dev\msys64\tmp\ccwKvaRW.s 			page 10


 183              		.loc 1 301 16 view .LVU37
 184 004c 2646     		mov	r6, r4
 185              	.LVL8:
 186              		.loc 1 301 16 view .LVU38
 187 004e 8CE0     		b	.L11
 188              	.LVL9:
 189              	.L38:
 302:Middlewares/Third_Party/LwIP/src/core/ipv4/etharp.c ****       }
 303:Middlewares/Third_Party/LwIP/src/core/ipv4/etharp.c ****       /* pending entry? */
 304:Middlewares/Third_Party/LwIP/src/core/ipv4/etharp.c ****       if (state == ETHARP_STATE_PENDING) {
 305:Middlewares/Third_Party/LwIP/src/core/ipv4/etharp.c ****         /* pending with queued packets? */
 306:Middlewares/Third_Party/LwIP/src/core/ipv4/etharp.c ****         if (arp_table[i].q != NULL) {
 190              		.loc 1 306 9 is_stmt 1 view .LVU39
 191              		.loc 1 306 25 is_stmt 0 view .LVU40
 192 0050 05EB4503 		add	r3, r5, r5, lsl #1
 193 0054 624A     		ldr	r2, .L43+12
 194 0056 52F83330 		ldr	r3, [r2, r3, lsl #3]
 195              		.loc 1 306 12 view .LVU41
 196 005a 53B1     		cbz	r3, .L13
 307:Middlewares/Third_Party/LwIP/src/core/ipv4/etharp.c ****           if (arp_table[i].ctime >= age_queue) {
 197              		.loc 1 307 11 is_stmt 1 view .LVU42
 198              		.loc 1 307 27 is_stmt 0 view .LVU43
 199 005c 05EB4505 		add	r5, r5, r5, lsl #1
 200 0060 02EBC505 		add	r5, r2, r5, lsl #3
 201 0064 6B8A     		ldrh	r3, [r5, #18]
 202              		.loc 1 307 14 view .LVU44
 203 0066 029A     		ldr	r2, [sp, #8]
 204 0068 9342     		cmp	r3, r2
 205 006a 0FD3     		bcc	.L8
 308:Middlewares/Third_Party/LwIP/src/core/ipv4/etharp.c ****             old_queue = i;
 309:Middlewares/Third_Party/LwIP/src/core/ipv4/etharp.c ****             age_queue = arp_table[i].ctime;
 206              		.loc 1 309 23 view .LVU45
 207 006c 0293     		str	r3, [sp, #8]
 208              	.LVL10:
 308:Middlewares/Third_Party/LwIP/src/core/ipv4/etharp.c ****             old_queue = i;
 209              		.loc 1 308 23 view .LVU46
 210 006e 0494     		str	r4, [sp, #16]
 211              	.LVL11:
 308:Middlewares/Third_Party/LwIP/src/core/ipv4/etharp.c ****             old_queue = i;
 212              		.loc 1 308 23 view .LVU47
 213 0070 0CE0     		b	.L8
 214              	.LVL12:
 215              	.L13:
 310:Middlewares/Third_Party/LwIP/src/core/ipv4/etharp.c ****           }
 311:Middlewares/Third_Party/LwIP/src/core/ipv4/etharp.c ****         } else
 312:Middlewares/Third_Party/LwIP/src/core/ipv4/etharp.c ****           /* pending without queued packets? */
 313:Middlewares/Third_Party/LwIP/src/core/ipv4/etharp.c ****         {
 314:Middlewares/Third_Party/LwIP/src/core/ipv4/etharp.c ****           if (arp_table[i].ctime >= age_pending) {
 216              		.loc 1 314 11 is_stmt 1 view .LVU48
 217              		.loc 1 314 27 is_stmt 0 view .LVU49
 218 0072 05EB4505 		add	r5, r5, r5, lsl #1
 219 0076 5A4B     		ldr	r3, .L43+12
 220 0078 03EBC505 		add	r5, r3, r5, lsl #3
 221 007c 6B8A     		ldrh	r3, [r5, #18]
 222              		.loc 1 314 14 view .LVU50
 223 007e 059A     		ldr	r2, [sp, #20]
 224 0080 9342     		cmp	r3, r2
ARM GAS  D:\Dev\msys64\tmp\ccwKvaRW.s 			page 11


 225 0082 03D3     		bcc	.L8
 315:Middlewares/Third_Party/LwIP/src/core/ipv4/etharp.c ****             old_pending = i;
 316:Middlewares/Third_Party/LwIP/src/core/ipv4/etharp.c ****             age_pending = arp_table[i].ctime;
 226              		.loc 1 316 25 view .LVU51
 227 0084 0593     		str	r3, [sp, #20]
 228              	.LVL13:
 315:Middlewares/Third_Party/LwIP/src/core/ipv4/etharp.c ****             old_pending = i;
 229              		.loc 1 315 25 view .LVU52
 230 0086 0394     		str	r4, [sp, #12]
 231              	.LVL14:
 315:Middlewares/Third_Party/LwIP/src/core/ipv4/etharp.c ****             old_pending = i;
 232              		.loc 1 315 25 view .LVU53
 233 0088 00E0     		b	.L8
 234              	.LVL15:
 235              	.L23:
 289:Middlewares/Third_Party/LwIP/src/core/ipv4/etharp.c ****     } else if (state != ETHARP_STATE_EMPTY) {
 236              		.loc 1 289 13 view .LVU54
 237 008a 2646     		mov	r6, r4
 238              	.LVL16:
 239              	.L8:
 289:Middlewares/Third_Party/LwIP/src/core/ipv4/etharp.c ****     } else if (state != ETHARP_STATE_EMPTY) {
 240              		.loc 1 289 13 view .LVU55
 241              	.LBE2:
 283:Middlewares/Third_Party/LwIP/src/core/ipv4/etharp.c ****     u8_t state = arp_table[i].state;
 242              		.loc 1 283 35 is_stmt 1 discriminator 2 view .LVU56
 243 008c 0134     		adds	r4, r4, #1
 244              	.LVL17:
 283:Middlewares/Third_Party/LwIP/src/core/ipv4/etharp.c ****     u8_t state = arp_table[i].state;
 245              		.loc 1 283 35 is_stmt 0 discriminator 2 view .LVU57
 246 008e 24B2     		sxth	r4, r4
 247              	.LVL18:
 248              	.L7:
 283:Middlewares/Third_Party/LwIP/src/core/ipv4/etharp.c ****     u8_t state = arp_table[i].state;
 249              		.loc 1 283 15 is_stmt 1 discriminator 1 view .LVU58
 283:Middlewares/Third_Party/LwIP/src/core/ipv4/etharp.c ****     u8_t state = arp_table[i].state;
 250              		.loc 1 283 3 is_stmt 0 discriminator 1 view .LVU59
 251 0090 092C     		cmp	r4, #9
 252 0092 2DDC     		bgt	.L35
 253              	.LBB3:
 284:Middlewares/Third_Party/LwIP/src/core/ipv4/etharp.c ****     /* no empty entry found yet and now we do find one? */
 254              		.loc 1 284 5 is_stmt 1 view .LVU60
 284:Middlewares/Third_Party/LwIP/src/core/ipv4/etharp.c ****     /* no empty entry found yet and now we do find one? */
 255              		.loc 1 284 30 is_stmt 0 view .LVU61
 256 0094 2546     		mov	r5, r4
 284:Middlewares/Third_Party/LwIP/src/core/ipv4/etharp.c ****     /* no empty entry found yet and now we do find one? */
 257              		.loc 1 284 10 view .LVU62
 258 0096 04EB4403 		add	r3, r4, r4, lsl #1
 259 009a 514A     		ldr	r2, .L43+12
 260 009c 02EBC303 		add	r3, r2, r3, lsl #3
 261 00a0 93F81480 		ldrb	r8, [r3, #20]	@ zero_extendqisi2
 262              	.LVL19:
 286:Middlewares/Third_Party/LwIP/src/core/ipv4/etharp.c ****       LWIP_DEBUGF(ETHARP_DEBUG, ("etharp_find_entry: found empty entry %d\n", (int)i));
 263              		.loc 1 286 5 is_stmt 1 view .LVU63
 286:Middlewares/Third_Party/LwIP/src/core/ipv4/etharp.c ****       LWIP_DEBUGF(ETHARP_DEBUG, ("etharp_find_entry: found empty entry %d\n", (int)i));
 264              		.loc 1 286 8 is_stmt 0 view .LVU64
 265 00a4 0A2E     		cmp	r6, #10
 266 00a6 08BF     		it	eq
ARM GAS  D:\Dev\msys64\tmp\ccwKvaRW.s 			page 12


 267 00a8 B8F1000F 		cmpeq	r8, #0
 268 00ac EDD0     		beq	.L23
 290:Middlewares/Third_Party/LwIP/src/core/ipv4/etharp.c ****       LWIP_ASSERT("state == ETHARP_STATE_PENDING || state >= ETHARP_STATE_STABLE",
 269              		.loc 1 290 12 is_stmt 1 view .LVU65
 290:Middlewares/Third_Party/LwIP/src/core/ipv4/etharp.c ****       LWIP_ASSERT("state == ETHARP_STATE_PENDING || state >= ETHARP_STATE_STABLE",
 270              		.loc 1 290 15 is_stmt 0 view .LVU66
 271 00ae B8F1000F 		cmp	r8, #0
 272 00b2 EBD0     		beq	.L8
 291:Middlewares/Third_Party/LwIP/src/core/ipv4/etharp.c ****                   state == ETHARP_STATE_PENDING || state >= ETHARP_STATE_STABLE);
 273              		.loc 1 291 7 is_stmt 1 view .LVU67
 291:Middlewares/Third_Party/LwIP/src/core/ipv4/etharp.c ****                   state == ETHARP_STATE_PENDING || state >= ETHARP_STATE_STABLE);
 274              		.loc 1 291 7 view .LVU68
 275 00b4 B8F1000F 		cmp	r8, #0
 276 00b8 B5D0     		beq	.L36
 277              	.L9:
 291:Middlewares/Third_Party/LwIP/src/core/ipv4/etharp.c ****                   state == ETHARP_STATE_PENDING || state >= ETHARP_STATE_STABLE);
 278              		.loc 1 291 7 discriminator 3 view .LVU69
 291:Middlewares/Third_Party/LwIP/src/core/ipv4/etharp.c ****                   state == ETHARP_STATE_PENDING || state >= ETHARP_STATE_STABLE);
 279              		.loc 1 291 7 discriminator 3 view .LVU70
 294:Middlewares/Third_Party/LwIP/src/core/ipv4/etharp.c **** #if ETHARP_TABLE_MATCH_NETIF
 280              		.loc 1 294 7 discriminator 3 view .LVU71
 294:Middlewares/Third_Party/LwIP/src/core/ipv4/etharp.c **** #if ETHARP_TABLE_MATCH_NETIF
 281              		.loc 1 294 10 is_stmt 0 discriminator 3 view .LVU72
 282 00ba 47B1     		cbz	r7, .L10
 294:Middlewares/Third_Party/LwIP/src/core/ipv4/etharp.c **** #if ETHARP_TABLE_MATCH_NETIF
 283              		.loc 1 294 21 discriminator 1 view .LVU73
 284 00bc 3968     		ldr	r1, [r7]
 285 00be 05EB4503 		add	r3, r5, r5, lsl #1
 286 00c2 474A     		ldr	r2, .L43+12
 287 00c4 02EBC303 		add	r3, r2, r3, lsl #3
 288 00c8 5B68     		ldr	r3, [r3, #4]
 294:Middlewares/Third_Party/LwIP/src/core/ipv4/etharp.c **** #if ETHARP_TABLE_MATCH_NETIF
 289              		.loc 1 294 18 discriminator 1 view .LVU74
 290 00ca 9942     		cmp	r1, r3
 291 00cc B3D0     		beq	.L37
 292              	.L10:
 304:Middlewares/Third_Party/LwIP/src/core/ipv4/etharp.c ****         /* pending with queued packets? */
 293              		.loc 1 304 7 is_stmt 1 view .LVU75
 304:Middlewares/Third_Party/LwIP/src/core/ipv4/etharp.c ****         /* pending with queued packets? */
 294              		.loc 1 304 10 is_stmt 0 view .LVU76
 295 00ce B8F1010F 		cmp	r8, #1
 296 00d2 BDD0     		beq	.L38
 317:Middlewares/Third_Party/LwIP/src/core/ipv4/etharp.c ****           }
 318:Middlewares/Third_Party/LwIP/src/core/ipv4/etharp.c ****         }
 319:Middlewares/Third_Party/LwIP/src/core/ipv4/etharp.c ****         /* stable entry? */
 320:Middlewares/Third_Party/LwIP/src/core/ipv4/etharp.c ****       } else if (state >= ETHARP_STATE_STABLE) {
 297              		.loc 1 320 14 is_stmt 1 view .LVU77
 298              		.loc 1 320 17 is_stmt 0 view .LVU78
 299 00d4 B8F1010F 		cmp	r8, #1
 300 00d8 D8D9     		bls	.L8
 321:Middlewares/Third_Party/LwIP/src/core/ipv4/etharp.c **** #if ETHARP_SUPPORT_STATIC_ENTRIES
 322:Middlewares/Third_Party/LwIP/src/core/ipv4/etharp.c ****         /* don't record old_stable for static entries since they never expire */
 323:Middlewares/Third_Party/LwIP/src/core/ipv4/etharp.c ****         if (state < ETHARP_STATE_STATIC)
 324:Middlewares/Third_Party/LwIP/src/core/ipv4/etharp.c **** #endif /* ETHARP_SUPPORT_STATIC_ENTRIES */
 325:Middlewares/Third_Party/LwIP/src/core/ipv4/etharp.c ****         {
 326:Middlewares/Third_Party/LwIP/src/core/ipv4/etharp.c ****           /* remember entry with oldest stable entry in oldest, its age in maxtime */
 327:Middlewares/Third_Party/LwIP/src/core/ipv4/etharp.c ****           if (arp_table[i].ctime >= age_stable) {
ARM GAS  D:\Dev\msys64\tmp\ccwKvaRW.s 			page 13


 301              		.loc 1 327 11 is_stmt 1 view .LVU79
 302              		.loc 1 327 27 is_stmt 0 view .LVU80
 303 00da 05EB4505 		add	r5, r5, r5, lsl #1
 304 00de 404B     		ldr	r3, .L43+12
 305 00e0 03EBC505 		add	r5, r3, r5, lsl #3
 306 00e4 6B8A     		ldrh	r3, [r5, #18]
 307              		.loc 1 327 14 view .LVU81
 308 00e6 4B45     		cmp	r3, r9
 309 00e8 D0D3     		bcc	.L8
 328:Middlewares/Third_Party/LwIP/src/core/ipv4/etharp.c ****             old_stable = i;
 329:Middlewares/Third_Party/LwIP/src/core/ipv4/etharp.c ****             age_stable = arp_table[i].ctime;
 310              		.loc 1 329 24 view .LVU82
 311 00ea 9946     		mov	r9, r3
 312              	.LVL20:
 328:Middlewares/Third_Party/LwIP/src/core/ipv4/etharp.c ****             old_stable = i;
 313              		.loc 1 328 24 view .LVU83
 314 00ec 0194     		str	r4, [sp, #4]
 315              	.LVL21:
 328:Middlewares/Third_Party/LwIP/src/core/ipv4/etharp.c ****             old_stable = i;
 316              		.loc 1 328 24 view .LVU84
 317 00ee CDE7     		b	.L8
 318              	.LVL22:
 319              	.L35:
 328:Middlewares/Third_Party/LwIP/src/core/ipv4/etharp.c ****             old_stable = i;
 320              		.loc 1 328 24 view .LVU85
 321 00f0 B846     		mov	r8, r7
 322              	.LBE3:
 330:Middlewares/Third_Party/LwIP/src/core/ipv4/etharp.c ****           }
 331:Middlewares/Third_Party/LwIP/src/core/ipv4/etharp.c ****         }
 332:Middlewares/Third_Party/LwIP/src/core/ipv4/etharp.c ****       }
 333:Middlewares/Third_Party/LwIP/src/core/ipv4/etharp.c ****     }
 334:Middlewares/Third_Party/LwIP/src/core/ipv4/etharp.c ****   }
 335:Middlewares/Third_Party/LwIP/src/core/ipv4/etharp.c ****   /* { we have no match } => try to create a new entry */
 336:Middlewares/Third_Party/LwIP/src/core/ipv4/etharp.c **** 
 337:Middlewares/Third_Party/LwIP/src/core/ipv4/etharp.c ****   /* don't create new entry, only search? */
 338:Middlewares/Third_Party/LwIP/src/core/ipv4/etharp.c ****   if (((flags & ETHARP_FLAG_FIND_ONLY) != 0) ||
 323              		.loc 1 338 3 is_stmt 1 view .LVU86
 324              		.loc 1 338 6 is_stmt 0 view .LVU87
 325 00f2 1BF0020F 		tst	fp, #2
 326 00f6 69D1     		bne	.L29
 327              		.loc 1 338 46 discriminator 1 view .LVU88
 328 00f8 0A2E     		cmp	r6, #10
 329 00fa 3AD0     		beq	.L39
 330              	.L15:
 339:Middlewares/Third_Party/LwIP/src/core/ipv4/etharp.c ****       /* or no empty entry found and not allowed to recycle? */
 340:Middlewares/Third_Party/LwIP/src/core/ipv4/etharp.c ****       ((empty == ARP_TABLE_SIZE) && ((flags & ETHARP_FLAG_TRY_HARD) == 0))) {
 341:Middlewares/Third_Party/LwIP/src/core/ipv4/etharp.c ****     LWIP_DEBUGF(ETHARP_DEBUG | LWIP_DBG_TRACE, ("etharp_find_entry: no empty entry found and not al
 342:Middlewares/Third_Party/LwIP/src/core/ipv4/etharp.c ****     return (s16_t)ERR_MEM;
 343:Middlewares/Third_Party/LwIP/src/core/ipv4/etharp.c ****   }
 344:Middlewares/Third_Party/LwIP/src/core/ipv4/etharp.c **** 
 345:Middlewares/Third_Party/LwIP/src/core/ipv4/etharp.c ****   /* b) choose the least destructive entry to recycle:
 346:Middlewares/Third_Party/LwIP/src/core/ipv4/etharp.c ****    * 1) empty entry
 347:Middlewares/Third_Party/LwIP/src/core/ipv4/etharp.c ****    * 2) oldest stable entry
 348:Middlewares/Third_Party/LwIP/src/core/ipv4/etharp.c ****    * 3) oldest pending entry without queued packets
 349:Middlewares/Third_Party/LwIP/src/core/ipv4/etharp.c ****    * 4) oldest pending entry with queued packets
 350:Middlewares/Third_Party/LwIP/src/core/ipv4/etharp.c ****    *
 351:Middlewares/Third_Party/LwIP/src/core/ipv4/etharp.c ****    * { ETHARP_FLAG_TRY_HARD is set at this point }
ARM GAS  D:\Dev\msys64\tmp\ccwKvaRW.s 			page 14


 352:Middlewares/Third_Party/LwIP/src/core/ipv4/etharp.c ****    */
 353:Middlewares/Third_Party/LwIP/src/core/ipv4/etharp.c **** 
 354:Middlewares/Third_Party/LwIP/src/core/ipv4/etharp.c ****   /* 1) empty entry available? */
 355:Middlewares/Third_Party/LwIP/src/core/ipv4/etharp.c ****   if (empty < ARP_TABLE_SIZE) {
 331              		.loc 1 355 3 is_stmt 1 view .LVU89
 332              		.loc 1 355 6 is_stmt 0 view .LVU90
 333 00fc 092E     		cmp	r6, #9
 334 00fe 15DD     		ble	.L16
 356:Middlewares/Third_Party/LwIP/src/core/ipv4/etharp.c ****     i = empty;
 357:Middlewares/Third_Party/LwIP/src/core/ipv4/etharp.c ****     LWIP_DEBUGF(ETHARP_DEBUG | LWIP_DBG_TRACE, ("etharp_find_entry: selecting empty entry %d\n", (i
 358:Middlewares/Third_Party/LwIP/src/core/ipv4/etharp.c ****   } else {
 359:Middlewares/Third_Party/LwIP/src/core/ipv4/etharp.c ****     /* 2) found recyclable stable entry? */
 360:Middlewares/Third_Party/LwIP/src/core/ipv4/etharp.c ****     if (old_stable < ARP_TABLE_SIZE) {
 335              		.loc 1 360 5 is_stmt 1 view .LVU91
 336              		.loc 1 360 8 is_stmt 0 view .LVU92
 337 0100 019E     		ldr	r6, [sp, #4]
 338              	.LVL23:
 339              		.loc 1 360 8 view .LVU93
 340 0102 092E     		cmp	r6, #9
 341 0104 3BDC     		bgt	.L17
 361:Middlewares/Third_Party/LwIP/src/core/ipv4/etharp.c ****       /* recycle oldest stable*/
 362:Middlewares/Third_Party/LwIP/src/core/ipv4/etharp.c ****       i = old_stable;
 342              		.loc 1 362 7 is_stmt 1 view .LVU94
 343              	.LVL24:
 363:Middlewares/Third_Party/LwIP/src/core/ipv4/etharp.c ****       LWIP_DEBUGF(ETHARP_DEBUG | LWIP_DBG_TRACE, ("etharp_find_entry: selecting oldest stable entry
 344              		.loc 1 363 116 view .LVU95
 364:Middlewares/Third_Party/LwIP/src/core/ipv4/etharp.c ****       /* no queued packets should exist on stable entries */
 365:Middlewares/Third_Party/LwIP/src/core/ipv4/etharp.c ****       LWIP_ASSERT("arp_table[i].q == NULL", arp_table[i].q == NULL);
 345              		.loc 1 365 7 view .LVU96
 346              		.loc 1 365 7 view .LVU97
 347 0106 06EB4603 		add	r3, r6, r6, lsl #1
 348 010a 354A     		ldr	r2, .L43+12
 349 010c 52F83330 		ldr	r3, [r2, r3, lsl #3]
 350 0110 002B     		cmp	r3, #0
 351 0112 3DD0     		beq	.L31
 352              		.loc 1 365 7 discriminator 1 view .LVU98
 353              		.loc 1 365 7 discriminator 1 view .LVU99
 354 0114 2F4B     		ldr	r3, .L43
 355 0116 40F26D12 		movw	r2, #365
 356 011a 3249     		ldr	r1, .L43+16
 357 011c 2F48     		ldr	r0, .L43+8
 358 011e FFF7FEFF 		bl	printf
 359              	.LVL25:
 360              	.L18:
 366:Middlewares/Third_Party/LwIP/src/core/ipv4/etharp.c ****       /* 3) found recyclable pending entry without queued packets? */
 367:Middlewares/Third_Party/LwIP/src/core/ipv4/etharp.c ****     } else if (old_pending < ARP_TABLE_SIZE) {
 368:Middlewares/Third_Party/LwIP/src/core/ipv4/etharp.c ****       /* recycle oldest pending */
 369:Middlewares/Third_Party/LwIP/src/core/ipv4/etharp.c ****       i = old_pending;
 370:Middlewares/Third_Party/LwIP/src/core/ipv4/etharp.c ****       LWIP_DEBUGF(ETHARP_DEBUG | LWIP_DBG_TRACE, ("etharp_find_entry: selecting oldest pending entr
 371:Middlewares/Third_Party/LwIP/src/core/ipv4/etharp.c ****       /* 4) found recyclable pending entry with queued packets? */
 372:Middlewares/Third_Party/LwIP/src/core/ipv4/etharp.c ****     } else if (old_queue < ARP_TABLE_SIZE) {
 373:Middlewares/Third_Party/LwIP/src/core/ipv4/etharp.c ****       /* recycle oldest pending (queued packets are free in etharp_free_entry) */
 374:Middlewares/Third_Party/LwIP/src/core/ipv4/etharp.c ****       i = old_queue;
 375:Middlewares/Third_Party/LwIP/src/core/ipv4/etharp.c ****       LWIP_DEBUGF(ETHARP_DEBUG | LWIP_DBG_TRACE, ("etharp_find_entry: selecting oldest pending entr
 376:Middlewares/Third_Party/LwIP/src/core/ipv4/etharp.c ****       /* no empty or recyclable entries found */
 377:Middlewares/Third_Party/LwIP/src/core/ipv4/etharp.c ****     } else {
 378:Middlewares/Third_Party/LwIP/src/core/ipv4/etharp.c ****       LWIP_DEBUGF(ETHARP_DEBUG | LWIP_DBG_TRACE, ("etharp_find_entry: no empty or recyclable entrie
ARM GAS  D:\Dev\msys64\tmp\ccwKvaRW.s 			page 15


 379:Middlewares/Third_Party/LwIP/src/core/ipv4/etharp.c ****       return (s16_t)ERR_MEM;
 380:Middlewares/Third_Party/LwIP/src/core/ipv4/etharp.c ****     }
 381:Middlewares/Third_Party/LwIP/src/core/ipv4/etharp.c **** 
 382:Middlewares/Third_Party/LwIP/src/core/ipv4/etharp.c ****     /* { empty or recyclable entry found } */
 383:Middlewares/Third_Party/LwIP/src/core/ipv4/etharp.c ****     LWIP_ASSERT("i < ARP_TABLE_SIZE", i < ARP_TABLE_SIZE);
 361              		.loc 1 383 5 view .LVU100
 362              		.loc 1 383 5 view .LVU101
 363 0122 092E     		cmp	r6, #9
 364 0124 38DC     		bgt	.L40
 365              	.L19:
 366              		.loc 1 383 5 discriminator 3 view .LVU102
 367              		.loc 1 383 5 discriminator 3 view .LVU103
 384:Middlewares/Third_Party/LwIP/src/core/ipv4/etharp.c ****     etharp_free_entry(i);
 368              		.loc 1 384 5 discriminator 3 view .LVU104
 369 0126 3046     		mov	r0, r6
 370 0128 FFF7FEFF 		bl	etharp_free_entry
 371              	.LVL26:
 372              	.L16:
 385:Middlewares/Third_Party/LwIP/src/core/ipv4/etharp.c ****   }
 386:Middlewares/Third_Party/LwIP/src/core/ipv4/etharp.c **** 
 387:Middlewares/Third_Party/LwIP/src/core/ipv4/etharp.c ****   LWIP_ASSERT("i < ARP_TABLE_SIZE", i < ARP_TABLE_SIZE);
 373              		.loc 1 387 3 view .LVU105
 374              		.loc 1 387 3 view .LVU106
 375 012c 092E     		cmp	r6, #9
 376 012e 3BDC     		bgt	.L41
 377              	.L20:
 378              		.loc 1 387 3 discriminator 3 view .LVU107
 379              		.loc 1 387 3 discriminator 3 view .LVU108
 388:Middlewares/Third_Party/LwIP/src/core/ipv4/etharp.c ****   LWIP_ASSERT("arp_table[i].state == ETHARP_STATE_EMPTY",
 380              		.loc 1 388 3 discriminator 3 view .LVU109
 381              		.loc 1 388 3 discriminator 3 view .LVU110
 382 0130 3446     		mov	r4, r6
 383 0132 06EB4603 		add	r3, r6, r6, lsl #1
 384 0136 2A4A     		ldr	r2, .L43+12
 385 0138 02EBC303 		add	r3, r2, r3, lsl #3
 386 013c 1B7D     		ldrb	r3, [r3, #20]	@ zero_extendqisi2
 387 013e 002B     		cmp	r3, #0
 388 0140 3AD1     		bne	.L42
 389              	.L21:
 390              		.loc 1 388 3 discriminator 3 view .LVU111
 391              		.loc 1 388 3 discriminator 3 view .LVU112
 389:Middlewares/Third_Party/LwIP/src/core/ipv4/etharp.c ****               arp_table[i].state == ETHARP_STATE_EMPTY);
 390:Middlewares/Third_Party/LwIP/src/core/ipv4/etharp.c **** 
 391:Middlewares/Third_Party/LwIP/src/core/ipv4/etharp.c ****   /* IP address given? */
 392:Middlewares/Third_Party/LwIP/src/core/ipv4/etharp.c ****   if (ipaddr != NULL) {
 392              		.loc 1 392 3 discriminator 3 view .LVU113
 393              		.loc 1 392 6 is_stmt 0 discriminator 3 view .LVU114
 394 0142 B8F1000F 		cmp	r8, #0
 395 0146 07D0     		beq	.L22
 393:Middlewares/Third_Party/LwIP/src/core/ipv4/etharp.c ****     /* set IP address */
 394:Middlewares/Third_Party/LwIP/src/core/ipv4/etharp.c ****     ip4_addr_copy(arp_table[i].ipaddr, *ipaddr);
 396              		.loc 1 394 5 is_stmt 1 view .LVU115
 397 0148 D8F80010 		ldr	r1, [r8]
 398 014c 04EB4403 		add	r3, r4, r4, lsl #1
 399 0150 234A     		ldr	r2, .L43+12
 400 0152 02EBC303 		add	r3, r2, r3, lsl #3
 401 0156 5960     		str	r1, [r3, #4]
ARM GAS  D:\Dev\msys64\tmp\ccwKvaRW.s 			page 16


 402              	.L22:
 395:Middlewares/Third_Party/LwIP/src/core/ipv4/etharp.c ****   }
 396:Middlewares/Third_Party/LwIP/src/core/ipv4/etharp.c ****   arp_table[i].ctime = 0;
 403              		.loc 1 396 3 view .LVU116
 404              		.loc 1 396 22 is_stmt 0 view .LVU117
 405 0158 214B     		ldr	r3, .L43+12
 406 015a 04EB4402 		add	r2, r4, r4, lsl #1
 407 015e 03EBC202 		add	r2, r3, r2, lsl #3
 408 0162 0021     		movs	r1, #0
 409 0164 5182     		strh	r1, [r2, #18]	@ movhi
 397:Middlewares/Third_Party/LwIP/src/core/ipv4/etharp.c **** #if ETHARP_TABLE_MATCH_NETIF
 398:Middlewares/Third_Party/LwIP/src/core/ipv4/etharp.c ****   arp_table[i].netif = netif;
 410              		.loc 1 398 3 is_stmt 1 view .LVU118
 411              		.loc 1 398 22 is_stmt 0 view .LVU119
 412 0166 C2F808A0 		str	r10, [r2, #8]
 399:Middlewares/Third_Party/LwIP/src/core/ipv4/etharp.c **** #endif /* ETHARP_TABLE_MATCH_NETIF */
 400:Middlewares/Third_Party/LwIP/src/core/ipv4/etharp.c ****   return (s16_t)i;
 413              		.loc 1 400 3 is_stmt 1 view .LVU120
 414              	.LVL27:
 415              	.L11:
 401:Middlewares/Third_Party/LwIP/src/core/ipv4/etharp.c **** }
 416              		.loc 1 401 1 is_stmt 0 view .LVU121
 417 016a 3046     		mov	r0, r6
 418 016c 07B0     		add	sp, sp, #28
 419              	.LCFI3:
 420              		.cfi_remember_state
 421              		.cfi_def_cfa_offset 36
 422              		@ sp needed
 423 016e BDE8F08F 		pop	{r4, r5, r6, r7, r8, r9, r10, fp, pc}
 424              	.LVL28:
 425              	.L39:
 426              	.LCFI4:
 427              		.cfi_restore_state
 340:Middlewares/Third_Party/LwIP/src/core/ipv4/etharp.c ****     LWIP_DEBUGF(ETHARP_DEBUG | LWIP_DBG_TRACE, ("etharp_find_entry: no empty entry found and not al
 428              		.loc 1 340 34 view .LVU122
 429 0172 1BF0010F 		tst	fp, #1
 430 0176 C1D1     		bne	.L15
 342:Middlewares/Third_Party/LwIP/src/core/ipv4/etharp.c ****   }
 431              		.loc 1 342 12 view .LVU123
 432 0178 4FF0FF36 		mov	r6, #-1
 433              	.LVL29:
 342:Middlewares/Third_Party/LwIP/src/core/ipv4/etharp.c ****   }
 434              		.loc 1 342 12 view .LVU124
 435 017c F5E7     		b	.L11
 436              	.L17:
 367:Middlewares/Third_Party/LwIP/src/core/ipv4/etharp.c ****       /* recycle oldest pending */
 437              		.loc 1 367 12 is_stmt 1 view .LVU125
 367:Middlewares/Third_Party/LwIP/src/core/ipv4/etharp.c ****       /* recycle oldest pending */
 438              		.loc 1 367 15 is_stmt 0 view .LVU126
 439 017e 039B     		ldr	r3, [sp, #12]
 440 0180 092B     		cmp	r3, #9
 441 0182 07DD     		ble	.L32
 372:Middlewares/Third_Party/LwIP/src/core/ipv4/etharp.c ****       /* recycle oldest pending (queued packets are free in etharp_free_entry) */
 442              		.loc 1 372 12 is_stmt 1 view .LVU127
 372:Middlewares/Third_Party/LwIP/src/core/ipv4/etharp.c ****       /* recycle oldest pending (queued packets are free in etharp_free_entry) */
 443              		.loc 1 372 15 is_stmt 0 view .LVU128
 444 0184 049E     		ldr	r6, [sp, #16]
ARM GAS  D:\Dev\msys64\tmp\ccwKvaRW.s 			page 17


 445 0186 092E     		cmp	r6, #9
 446 0188 CBDD     		ble	.L18
 379:Middlewares/Third_Party/LwIP/src/core/ipv4/etharp.c ****     }
 447              		.loc 1 379 14 view .LVU129
 448 018a 4FF0FF36 		mov	r6, #-1
 449 018e ECE7     		b	.L11
 450              	.LVL30:
 451              	.L31:
 362:Middlewares/Third_Party/LwIP/src/core/ipv4/etharp.c ****       LWIP_DEBUGF(ETHARP_DEBUG | LWIP_DBG_TRACE, ("etharp_find_entry: selecting oldest stable entry
 452              		.loc 1 362 9 view .LVU130
 453 0190 019E     		ldr	r6, [sp, #4]
 454              	.LVL31:
 362:Middlewares/Third_Party/LwIP/src/core/ipv4/etharp.c ****       LWIP_DEBUGF(ETHARP_DEBUG | LWIP_DBG_TRACE, ("etharp_find_entry: selecting oldest stable entry
 455              		.loc 1 362 9 view .LVU131
 456 0192 C6E7     		b	.L18
 457              	.LVL32:
 458              	.L32:
 369:Middlewares/Third_Party/LwIP/src/core/ipv4/etharp.c ****       LWIP_DEBUGF(ETHARP_DEBUG | LWIP_DBG_TRACE, ("etharp_find_entry: selecting oldest pending entr
 459              		.loc 1 369 9 view .LVU132
 460 0194 039E     		ldr	r6, [sp, #12]
 461 0196 C4E7     		b	.L18
 462              	.LVL33:
 463              	.L40:
 383:Middlewares/Third_Party/LwIP/src/core/ipv4/etharp.c ****     etharp_free_entry(i);
 464              		.loc 1 383 5 is_stmt 1 discriminator 1 view .LVU133
 383:Middlewares/Third_Party/LwIP/src/core/ipv4/etharp.c ****     etharp_free_entry(i);
 465              		.loc 1 383 5 discriminator 1 view .LVU134
 466 0198 0E4B     		ldr	r3, .L43
 467 019a 40F27F12 		movw	r2, #383
 468 019e 1249     		ldr	r1, .L43+20
 469 01a0 0E48     		ldr	r0, .L43+8
 470 01a2 FFF7FEFF 		bl	printf
 471              	.LVL34:
 472 01a6 BEE7     		b	.L19
 473              	.L41:
 387:Middlewares/Third_Party/LwIP/src/core/ipv4/etharp.c ****   LWIP_ASSERT("arp_table[i].state == ETHARP_STATE_EMPTY",
 474              		.loc 1 387 3 discriminator 1 view .LVU135
 387:Middlewares/Third_Party/LwIP/src/core/ipv4/etharp.c ****   LWIP_ASSERT("arp_table[i].state == ETHARP_STATE_EMPTY",
 475              		.loc 1 387 3 discriminator 1 view .LVU136
 476 01a8 0A4B     		ldr	r3, .L43
 477 01aa 40F28312 		movw	r2, #387
 478 01ae 0E49     		ldr	r1, .L43+20
 479 01b0 0A48     		ldr	r0, .L43+8
 480 01b2 FFF7FEFF 		bl	printf
 481              	.LVL35:
 482 01b6 BBE7     		b	.L20
 483              	.L42:
 388:Middlewares/Third_Party/LwIP/src/core/ipv4/etharp.c ****               arp_table[i].state == ETHARP_STATE_EMPTY);
 484              		.loc 1 388 3 discriminator 1 view .LVU137
 388:Middlewares/Third_Party/LwIP/src/core/ipv4/etharp.c ****               arp_table[i].state == ETHARP_STATE_EMPTY);
 485              		.loc 1 388 3 discriminator 1 view .LVU138
 486 01b8 064B     		ldr	r3, .L43
 487 01ba 4FF4C272 		mov	r2, #388
 488 01be 0B49     		ldr	r1, .L43+24
 489 01c0 0648     		ldr	r0, .L43+8
 490 01c2 FFF7FEFF 		bl	printf
 491              	.LVL36:
ARM GAS  D:\Dev\msys64\tmp\ccwKvaRW.s 			page 18


 492 01c6 BCE7     		b	.L21
 493              	.LVL37:
 494              	.L24:
 495              	.LBB4:
 301:Middlewares/Third_Party/LwIP/src/core/ipv4/etharp.c ****       }
 496              		.loc 1 301 16 is_stmt 0 view .LVU139
 497 01c8 2646     		mov	r6, r4
 498              	.LVL38:
 301:Middlewares/Third_Party/LwIP/src/core/ipv4/etharp.c ****       }
 499              		.loc 1 301 16 view .LVU140
 500 01ca CEE7     		b	.L11
 501              	.LVL39:
 502              	.L29:
 301:Middlewares/Third_Party/LwIP/src/core/ipv4/etharp.c ****       }
 503              		.loc 1 301 16 view .LVU141
 504              	.LBE4:
 342:Middlewares/Third_Party/LwIP/src/core/ipv4/etharp.c ****   }
 505              		.loc 1 342 12 view .LVU142
 506 01cc 4FF0FF36 		mov	r6, #-1
 507              	.LVL40:
 342:Middlewares/Third_Party/LwIP/src/core/ipv4/etharp.c ****   }
 508              		.loc 1 342 12 view .LVU143
 509 01d0 CBE7     		b	.L11
 510              	.L44:
 511 01d2 00BF     		.align	2
 512              	.L43:
 513 01d4 00000000 		.word	.LC0
 514 01d8 34000000 		.word	.LC1
 515 01dc 74000000 		.word	.LC2
 516 01e0 00000000 		.word	.LANCHOR0
 517 01e4 9C000000 		.word	.LC3
 518 01e8 B4000000 		.word	.LC4
 519 01ec C8000000 		.word	.LC5
 520              		.cfi_endproc
 521              	.LFE27:
 523              		.section	.rodata.etharp_update_arp_entry.str1.4,"aMS",%progbits,1
 524              		.align	2
 525              	.LC6:
 526 0000 6E657469 		.ascii	"netif->hwaddr_len == ETH_HWADDR_LEN\000"
 526      662D3E68 
 526      77616464 
 526      725F6C65 
 526      6E203D3D 
 527              		.section	.text.etharp_update_arp_entry,"ax",%progbits
 528              		.align	1
 529              		.syntax unified
 530              		.thumb
 531              		.thumb_func
 532              		.fpu fpv5-sp-d16
 534              	etharp_update_arp_entry:
 535              	.LVL41:
 536              	.LFB28:
 402:Middlewares/Third_Party/LwIP/src/core/ipv4/etharp.c **** 
 403:Middlewares/Third_Party/LwIP/src/core/ipv4/etharp.c **** /**
 404:Middlewares/Third_Party/LwIP/src/core/ipv4/etharp.c ****  * Update (or insert) a IP/MAC address pair in the ARP cache.
 405:Middlewares/Third_Party/LwIP/src/core/ipv4/etharp.c ****  *
 406:Middlewares/Third_Party/LwIP/src/core/ipv4/etharp.c ****  * If a pending entry is resolved, any queued packets will be sent
ARM GAS  D:\Dev\msys64\tmp\ccwKvaRW.s 			page 19


 407:Middlewares/Third_Party/LwIP/src/core/ipv4/etharp.c ****  * at this point.
 408:Middlewares/Third_Party/LwIP/src/core/ipv4/etharp.c ****  *
 409:Middlewares/Third_Party/LwIP/src/core/ipv4/etharp.c ****  * @param netif netif related to this entry (used for NETIF_ADDRHINT)
 410:Middlewares/Third_Party/LwIP/src/core/ipv4/etharp.c ****  * @param ipaddr IP address of the inserted ARP entry.
 411:Middlewares/Third_Party/LwIP/src/core/ipv4/etharp.c ****  * @param ethaddr Ethernet address of the inserted ARP entry.
 412:Middlewares/Third_Party/LwIP/src/core/ipv4/etharp.c ****  * @param flags See @ref etharp_state
 413:Middlewares/Third_Party/LwIP/src/core/ipv4/etharp.c ****  *
 414:Middlewares/Third_Party/LwIP/src/core/ipv4/etharp.c ****  * @return
 415:Middlewares/Third_Party/LwIP/src/core/ipv4/etharp.c ****  * - ERR_OK Successfully updated ARP cache.
 416:Middlewares/Third_Party/LwIP/src/core/ipv4/etharp.c ****  * - ERR_MEM If we could not add a new ARP entry when ETHARP_FLAG_TRY_HARD was set.
 417:Middlewares/Third_Party/LwIP/src/core/ipv4/etharp.c ****  * - ERR_ARG Non-unicast address given, those will not appear in ARP cache.
 418:Middlewares/Third_Party/LwIP/src/core/ipv4/etharp.c ****  *
 419:Middlewares/Third_Party/LwIP/src/core/ipv4/etharp.c ****  * @see pbuf_free()
 420:Middlewares/Third_Party/LwIP/src/core/ipv4/etharp.c ****  */
 421:Middlewares/Third_Party/LwIP/src/core/ipv4/etharp.c **** static err_t
 422:Middlewares/Third_Party/LwIP/src/core/ipv4/etharp.c **** etharp_update_arp_entry(struct netif *netif, const ip4_addr_t *ipaddr, struct eth_addr *ethaddr, u8
 423:Middlewares/Third_Party/LwIP/src/core/ipv4/etharp.c **** {
 537              		.loc 1 423 1 is_stmt 1 view -0
 538              		.cfi_startproc
 539              		@ args = 0, pretend = 0, frame = 0
 540              		@ frame_needed = 0, uses_anonymous_args = 0
 541              		.loc 1 423 1 is_stmt 0 view .LVU145
 542 0000 F0B5     		push	{r4, r5, r6, r7, lr}
 543              	.LCFI5:
 544              		.cfi_def_cfa_offset 20
 545              		.cfi_offset 4, -20
 546              		.cfi_offset 5, -16
 547              		.cfi_offset 6, -12
 548              		.cfi_offset 7, -8
 549              		.cfi_offset 14, -4
 550 0002 83B0     		sub	sp, sp, #12
 551              	.LCFI6:
 552              		.cfi_def_cfa_offset 32
 553 0004 0546     		mov	r5, r0
 554 0006 0C46     		mov	r4, r1
 555 0008 1646     		mov	r6, r2
 556 000a 1F46     		mov	r7, r3
 424:Middlewares/Third_Party/LwIP/src/core/ipv4/etharp.c ****   s16_t i;
 557              		.loc 1 424 3 is_stmt 1 view .LVU146
 425:Middlewares/Third_Party/LwIP/src/core/ipv4/etharp.c ****   LWIP_ASSERT("netif->hwaddr_len == ETH_HWADDR_LEN", netif->hwaddr_len == ETH_HWADDR_LEN);
 558              		.loc 1 425 3 view .LVU147
 559              		.loc 1 425 3 view .LVU148
 560 000c 90F83020 		ldrb	r2, [r0, #48]	@ zero_extendqisi2
 561              	.LVL42:
 562              		.loc 1 425 3 is_stmt 0 view .LVU149
 563 0010 062A     		cmp	r2, #6
 564 0012 3BD1     		bne	.L53
 565              	.LVL43:
 566              	.L46:
 567              		.loc 1 425 3 is_stmt 1 discriminator 3 view .LVU150
 568              		.loc 1 425 3 discriminator 3 view .LVU151
 426:Middlewares/Third_Party/LwIP/src/core/ipv4/etharp.c ****   LWIP_DEBUGF(ETHARP_DEBUG | LWIP_DBG_TRACE, ("etharp_update_arp_entry: %"U16_F".%"U16_F".%"U16_F".
 427:Middlewares/Third_Party/LwIP/src/core/ipv4/etharp.c ****               ip4_addr1_16(ipaddr), ip4_addr2_16(ipaddr), ip4_addr3_16(ipaddr), ip4_addr4_16(ipaddr
 428:Middlewares/Third_Party/LwIP/src/core/ipv4/etharp.c ****               (u16_t)ethaddr->addr[0], (u16_t)ethaddr->addr[1], (u16_t)ethaddr->addr[2],
 429:Middlewares/Third_Party/LwIP/src/core/ipv4/etharp.c ****               (u16_t)ethaddr->addr[3], (u16_t)ethaddr->addr[4], (u16_t)ethaddr->addr[5]));
 569              		.loc 1 429 90 discriminator 3 view .LVU152
 430:Middlewares/Third_Party/LwIP/src/core/ipv4/etharp.c ****   /* non-unicast address? */
ARM GAS  D:\Dev\msys64\tmp\ccwKvaRW.s 			page 20


 431:Middlewares/Third_Party/LwIP/src/core/ipv4/etharp.c ****   if (ip4_addr_isany(ipaddr) ||
 570              		.loc 1 431 3 discriminator 3 view .LVU153
 571              		.loc 1 431 6 is_stmt 0 discriminator 3 view .LVU154
 572 0014 002C     		cmp	r4, #0
 573 0016 41D0     		beq	.L47
 574              		.loc 1 431 7 discriminator 1 view .LVU155
 575 0018 2068     		ldr	r0, [r4]
 576 001a 0028     		cmp	r0, #0
 577 001c 3ED0     		beq	.L47
 432:Middlewares/Third_Party/LwIP/src/core/ipv4/etharp.c ****       ip4_addr_isbroadcast(ipaddr, netif) ||
 578              		.loc 1 432 7 discriminator 2 view .LVU156
 579 001e 2946     		mov	r1, r5
 580 0020 FFF7FEFF 		bl	ip4_addr_isbroadcast_u32
 581              	.LVL44:
 431:Middlewares/Third_Party/LwIP/src/core/ipv4/etharp.c ****       ip4_addr_isbroadcast(ipaddr, netif) ||
 582              		.loc 1 431 30 discriminator 2 view .LVU157
 583 0024 0028     		cmp	r0, #0
 584 0026 39D1     		bne	.L47
 433:Middlewares/Third_Party/LwIP/src/core/ipv4/etharp.c ****       ip4_addr_ismulticast(ipaddr)) {
 585              		.loc 1 433 7 view .LVU158
 586 0028 2268     		ldr	r2, [r4]
 587 002a 02F0F002 		and	r2, r2, #240
 432:Middlewares/Third_Party/LwIP/src/core/ipv4/etharp.c ****       ip4_addr_isbroadcast(ipaddr, netif) ||
 588              		.loc 1 432 43 view .LVU159
 589 002e E02A     		cmp	r2, #224
 590 0030 34D0     		beq	.L47
 434:Middlewares/Third_Party/LwIP/src/core/ipv4/etharp.c ****     LWIP_DEBUGF(ETHARP_DEBUG | LWIP_DBG_TRACE, ("etharp_update_arp_entry: will not add non-unicast 
 435:Middlewares/Third_Party/LwIP/src/core/ipv4/etharp.c ****     return ERR_ARG;
 436:Middlewares/Third_Party/LwIP/src/core/ipv4/etharp.c ****   }
 437:Middlewares/Third_Party/LwIP/src/core/ipv4/etharp.c ****   /* find or create ARP entry */
 438:Middlewares/Third_Party/LwIP/src/core/ipv4/etharp.c ****   i = etharp_find_entry(ipaddr, flags, netif);
 591              		.loc 1 438 3 is_stmt 1 view .LVU160
 592              		.loc 1 438 7 is_stmt 0 view .LVU161
 593 0032 2A46     		mov	r2, r5
 594 0034 3946     		mov	r1, r7
 595 0036 2046     		mov	r0, r4
 596 0038 FFF7FEFF 		bl	etharp_find_entry
 597              	.LVL45:
 439:Middlewares/Third_Party/LwIP/src/core/ipv4/etharp.c ****   /* bail out if no entry could be found */
 440:Middlewares/Third_Party/LwIP/src/core/ipv4/etharp.c ****   if (i < 0) {
 598              		.loc 1 440 3 is_stmt 1 view .LVU162
 599              		.loc 1 440 6 is_stmt 0 view .LVU163
 600 003c 031E     		subs	r3, r0, #0
 601 003e 30DB     		blt	.L54
 441:Middlewares/Third_Party/LwIP/src/core/ipv4/etharp.c ****     return (err_t)i;
 442:Middlewares/Third_Party/LwIP/src/core/ipv4/etharp.c ****   }
 443:Middlewares/Third_Party/LwIP/src/core/ipv4/etharp.c **** 
 444:Middlewares/Third_Party/LwIP/src/core/ipv4/etharp.c **** #if ETHARP_SUPPORT_STATIC_ENTRIES
 445:Middlewares/Third_Party/LwIP/src/core/ipv4/etharp.c ****   if (flags & ETHARP_FLAG_STATIC_ENTRY) {
 446:Middlewares/Third_Party/LwIP/src/core/ipv4/etharp.c ****     /* record static type */
 447:Middlewares/Third_Party/LwIP/src/core/ipv4/etharp.c ****     arp_table[i].state = ETHARP_STATE_STATIC;
 448:Middlewares/Third_Party/LwIP/src/core/ipv4/etharp.c ****   } else if (arp_table[i].state == ETHARP_STATE_STATIC) {
 449:Middlewares/Third_Party/LwIP/src/core/ipv4/etharp.c ****     /* found entry is a static type, don't overwrite it */
 450:Middlewares/Third_Party/LwIP/src/core/ipv4/etharp.c ****     return ERR_VAL;
 451:Middlewares/Third_Party/LwIP/src/core/ipv4/etharp.c ****   } else
 452:Middlewares/Third_Party/LwIP/src/core/ipv4/etharp.c **** #endif /* ETHARP_SUPPORT_STATIC_ENTRIES */
 453:Middlewares/Third_Party/LwIP/src/core/ipv4/etharp.c ****   {
ARM GAS  D:\Dev\msys64\tmp\ccwKvaRW.s 			page 21


 454:Middlewares/Third_Party/LwIP/src/core/ipv4/etharp.c ****     /* mark it stable */
 455:Middlewares/Third_Party/LwIP/src/core/ipv4/etharp.c ****     arp_table[i].state = ETHARP_STATE_STABLE;
 602              		.loc 1 455 5 is_stmt 1 view .LVU164
 603              		.loc 1 455 24 is_stmt 0 view .LVU165
 604 0040 1A4A     		ldr	r2, .L55
 605 0042 03EB4304 		add	r4, r3, r3, lsl #1
 606              	.LVL46:
 607              		.loc 1 455 24 view .LVU166
 608 0046 02EBC400 		add	r0, r2, r4, lsl #3
 609              	.LVL47:
 610              		.loc 1 455 24 view .LVU167
 611 004a 0221     		movs	r1, #2
 612 004c 0175     		strb	r1, [r0, #20]
 456:Middlewares/Third_Party/LwIP/src/core/ipv4/etharp.c ****   }
 457:Middlewares/Third_Party/LwIP/src/core/ipv4/etharp.c **** 
 458:Middlewares/Third_Party/LwIP/src/core/ipv4/etharp.c ****   /* record network interface */
 459:Middlewares/Third_Party/LwIP/src/core/ipv4/etharp.c ****   arp_table[i].netif = netif;
 613              		.loc 1 459 3 is_stmt 1 view .LVU168
 614              		.loc 1 459 22 is_stmt 0 view .LVU169
 615 004e 8560     		str	r5, [r0, #8]
 460:Middlewares/Third_Party/LwIP/src/core/ipv4/etharp.c ****   /* insert in SNMP ARP index tree */
 461:Middlewares/Third_Party/LwIP/src/core/ipv4/etharp.c ****   mib2_add_arp_entry(netif, &arp_table[i].ipaddr);
 616              		.loc 1 461 50 is_stmt 1 view .LVU170
 462:Middlewares/Third_Party/LwIP/src/core/ipv4/etharp.c **** 
 463:Middlewares/Third_Party/LwIP/src/core/ipv4/etharp.c ****   LWIP_DEBUGF(ETHARP_DEBUG | LWIP_DBG_TRACE, ("etharp_update_arp_entry: updating stable entry %"S16
 617              		.loc 1 463 111 view .LVU171
 464:Middlewares/Third_Party/LwIP/src/core/ipv4/etharp.c ****   /* update address */
 465:Middlewares/Third_Party/LwIP/src/core/ipv4/etharp.c ****   SMEMCPY(&arp_table[i].ethaddr, ethaddr, ETH_HWADDR_LEN);
 618              		.loc 1 465 3 view .LVU172
 619 0050 E100     		lsls	r1, r4, #3
 620 0052 0831     		adds	r1, r1, #8
 621 0054 1144     		add	r1, r1, r2
 622 0056 3768     		ldr	r7, [r6]	@ unaligned
 623 0058 4F60     		str	r7, [r1, #4]	@ unaligned
 624 005a B788     		ldrh	r7, [r6, #4]	@ unaligned
 625 005c 0F81     		strh	r7, [r1, #8]	@ unaligned
 466:Middlewares/Third_Party/LwIP/src/core/ipv4/etharp.c ****   /* reset time stamp */
 467:Middlewares/Third_Party/LwIP/src/core/ipv4/etharp.c ****   arp_table[i].ctime = 0;
 626              		.loc 1 467 3 view .LVU173
 627              		.loc 1 467 22 is_stmt 0 view .LVU174
 628 005e 0021     		movs	r1, #0
 629 0060 4182     		strh	r1, [r0, #18]	@ movhi
 468:Middlewares/Third_Party/LwIP/src/core/ipv4/etharp.c ****   /* this is where we will send out queued packets! */
 469:Middlewares/Third_Party/LwIP/src/core/ipv4/etharp.c **** #if ARP_QUEUEING
 470:Middlewares/Third_Party/LwIP/src/core/ipv4/etharp.c ****   while (arp_table[i].q != NULL) {
 471:Middlewares/Third_Party/LwIP/src/core/ipv4/etharp.c ****     struct pbuf *p;
 472:Middlewares/Third_Party/LwIP/src/core/ipv4/etharp.c ****     /* remember remainder of queue */
 473:Middlewares/Third_Party/LwIP/src/core/ipv4/etharp.c ****     struct etharp_q_entry *q = arp_table[i].q;
 474:Middlewares/Third_Party/LwIP/src/core/ipv4/etharp.c ****     /* pop first item off the queue */
 475:Middlewares/Third_Party/LwIP/src/core/ipv4/etharp.c ****     arp_table[i].q = q->next;
 476:Middlewares/Third_Party/LwIP/src/core/ipv4/etharp.c ****     /* get the packet pointer */
 477:Middlewares/Third_Party/LwIP/src/core/ipv4/etharp.c ****     p = q->p;
 478:Middlewares/Third_Party/LwIP/src/core/ipv4/etharp.c ****     /* now queue entry can be freed */
 479:Middlewares/Third_Party/LwIP/src/core/ipv4/etharp.c ****     memp_free(MEMP_ARP_QUEUE, q);
 480:Middlewares/Third_Party/LwIP/src/core/ipv4/etharp.c **** #else /* ARP_QUEUEING */
 481:Middlewares/Third_Party/LwIP/src/core/ipv4/etharp.c ****   if (arp_table[i].q != NULL) {
 630              		.loc 1 481 3 is_stmt 1 view .LVU175
ARM GAS  D:\Dev\msys64\tmp\ccwKvaRW.s 			page 22


 631              		.loc 1 481 19 is_stmt 0 view .LVU176
 632 0062 52F83470 		ldr	r7, [r2, r4, lsl #3]
 633              		.loc 1 481 6 view .LVU177
 634 0066 FFB1     		cbz	r7, .L51
 635              	.LBB5:
 482:Middlewares/Third_Party/LwIP/src/core/ipv4/etharp.c ****     struct pbuf *p = arp_table[i].q;
 636              		.loc 1 482 5 is_stmt 1 view .LVU178
 637              	.LVL48:
 483:Middlewares/Third_Party/LwIP/src/core/ipv4/etharp.c ****     arp_table[i].q = NULL;
 638              		.loc 1 483 5 view .LVU179
 639              		.loc 1 483 20 is_stmt 0 view .LVU180
 640 0068 E300     		lsls	r3, r4, #3
 641 006a 0C46     		mov	r4, r1
 642 006c D150     		str	r1, [r2, r3]
 484:Middlewares/Third_Party/LwIP/src/core/ipv4/etharp.c **** #endif /* ARP_QUEUEING */
 485:Middlewares/Third_Party/LwIP/src/core/ipv4/etharp.c ****     /* send the queued IP packet */
 486:Middlewares/Third_Party/LwIP/src/core/ipv4/etharp.c ****     ethernet_output(netif, p, (struct eth_addr *)(netif->hwaddr), ethaddr, ETHTYPE_IP);
 643              		.loc 1 486 5 is_stmt 1 view .LVU181
 644 006e 4FF40063 		mov	r3, #2048
 645 0072 0093     		str	r3, [sp]
 646 0074 3346     		mov	r3, r6
 647 0076 05F12A02 		add	r2, r5, #42
 648 007a 3946     		mov	r1, r7
 649 007c 2846     		mov	r0, r5
 650 007e FFF7FEFF 		bl	ethernet_output
 651              	.LVL49:
 487:Middlewares/Third_Party/LwIP/src/core/ipv4/etharp.c ****     /* free the queued IP packet */
 488:Middlewares/Third_Party/LwIP/src/core/ipv4/etharp.c ****     pbuf_free(p);
 652              		.loc 1 488 5 view .LVU182
 653 0082 3846     		mov	r0, r7
 654 0084 FFF7FEFF 		bl	pbuf_free
 655              	.LVL50:
 656              	.LBE5:
 489:Middlewares/Third_Party/LwIP/src/core/ipv4/etharp.c ****   }
 490:Middlewares/Third_Party/LwIP/src/core/ipv4/etharp.c ****   return ERR_OK;
 657              		.loc 1 490 10 is_stmt 0 view .LVU183
 658 0088 2046     		mov	r0, r4
 659 008a 0BE0     		b	.L49
 660              	.LVL51:
 661              	.L53:
 425:Middlewares/Third_Party/LwIP/src/core/ipv4/etharp.c ****   LWIP_DEBUGF(ETHARP_DEBUG | LWIP_DBG_TRACE, ("etharp_update_arp_entry: %"U16_F".%"U16_F".%"U16_F".
 662              		.loc 1 425 3 is_stmt 1 discriminator 1 view .LVU184
 425:Middlewares/Third_Party/LwIP/src/core/ipv4/etharp.c ****   LWIP_DEBUGF(ETHARP_DEBUG | LWIP_DBG_TRACE, ("etharp_update_arp_entry: %"U16_F".%"U16_F".%"U16_F".
 663              		.loc 1 425 3 discriminator 1 view .LVU185
 664 008c 084B     		ldr	r3, .L55+4
 665              	.LVL52:
 425:Middlewares/Third_Party/LwIP/src/core/ipv4/etharp.c ****   LWIP_DEBUGF(ETHARP_DEBUG | LWIP_DBG_TRACE, ("etharp_update_arp_entry: %"U16_F".%"U16_F".%"U16_F".
 666              		.loc 1 425 3 is_stmt 0 discriminator 1 view .LVU186
 667 008e 40F2A912 		movw	r2, #425
 668 0092 0849     		ldr	r1, .L55+8
 669              	.LVL53:
 425:Middlewares/Third_Party/LwIP/src/core/ipv4/etharp.c ****   LWIP_DEBUGF(ETHARP_DEBUG | LWIP_DBG_TRACE, ("etharp_update_arp_entry: %"U16_F".%"U16_F".%"U16_F".
 670              		.loc 1 425 3 discriminator 1 view .LVU187
 671 0094 0848     		ldr	r0, .L55+12
 672              	.LVL54:
 425:Middlewares/Third_Party/LwIP/src/core/ipv4/etharp.c ****   LWIP_DEBUGF(ETHARP_DEBUG | LWIP_DBG_TRACE, ("etharp_update_arp_entry: %"U16_F".%"U16_F".%"U16_F".
 673              		.loc 1 425 3 discriminator 1 view .LVU188
ARM GAS  D:\Dev\msys64\tmp\ccwKvaRW.s 			page 23


 674 0096 FFF7FEFF 		bl	printf
 675              	.LVL55:
 676 009a BBE7     		b	.L46
 677              	.L47:
 434:Middlewares/Third_Party/LwIP/src/core/ipv4/etharp.c ****     return ERR_ARG;
 678              		.loc 1 434 128 is_stmt 1 view .LVU189
 435:Middlewares/Third_Party/LwIP/src/core/ipv4/etharp.c ****   }
 679              		.loc 1 435 5 view .LVU190
 435:Middlewares/Third_Party/LwIP/src/core/ipv4/etharp.c ****   }
 680              		.loc 1 435 12 is_stmt 0 view .LVU191
 681 009c 6FF00F00 		mvn	r0, #15
 682 00a0 00E0     		b	.L49
 683              	.LVL56:
 684              	.L54:
 441:Middlewares/Third_Party/LwIP/src/core/ipv4/etharp.c ****   }
 685              		.loc 1 441 5 is_stmt 1 view .LVU192
 441:Middlewares/Third_Party/LwIP/src/core/ipv4/etharp.c ****   }
 686              		.loc 1 441 12 is_stmt 0 view .LVU193
 687 00a2 58B2     		sxtb	r0, r3
 688              	.LVL57:
 689              	.L49:
 491:Middlewares/Third_Party/LwIP/src/core/ipv4/etharp.c **** }
 690              		.loc 1 491 1 view .LVU194
 691 00a4 03B0     		add	sp, sp, #12
 692              	.LCFI7:
 693              		.cfi_remember_state
 694              		.cfi_def_cfa_offset 20
 695              		@ sp needed
 696 00a6 F0BD     		pop	{r4, r5, r6, r7, pc}
 697              	.LVL58:
 698              	.L51:
 699              	.LCFI8:
 700              		.cfi_restore_state
 490:Middlewares/Third_Party/LwIP/src/core/ipv4/etharp.c **** }
 701              		.loc 1 490 10 view .LVU195
 702 00a8 0020     		movs	r0, #0
 703 00aa FBE7     		b	.L49
 704              	.L56:
 705              		.align	2
 706              	.L55:
 707 00ac 00000000 		.word	.LANCHOR0
 708 00b0 00000000 		.word	.LC0
 709 00b4 00000000 		.word	.LC6
 710 00b8 74000000 		.word	.LC2
 711              		.cfi_endproc
 712              	.LFE28:
 714              		.section	.rodata.etharp_raw.str1.4,"aMS",%progbits,1
 715              		.align	2
 716              	.LC7:
 717 0000 6E657469 		.ascii	"netif != NULL\000"
 717      6620213D 
 717      204E554C 
 717      4C00
 718 000e 0000     		.align	2
 719              	.LC8:
 720 0010 63686563 		.ascii	"check that first pbuf can hold struct etharp_hdr\000"
 720      6B207468 
ARM GAS  D:\Dev\msys64\tmp\ccwKvaRW.s 			page 24


 720      61742066 
 720      69727374 
 720      20706275 
 721 0041 000000   		.align	2
 722              	.LC9:
 723 0044 6E657469 		.ascii	"netif->hwaddr_len must be the same as ETH_HWADDR_LE"
 723      662D3E68 
 723      77616464 
 723      725F6C65 
 723      6E206D75 
 724 0077 4E20666F 		.ascii	"N for etharp!\000"
 724      72206574 
 724      68617270 
 724      2100
 725              		.section	.text.etharp_raw,"ax",%progbits
 726              		.align	1
 727              		.syntax unified
 728              		.thumb
 729              		.thumb_func
 730              		.fpu fpv5-sp-d16
 732              	etharp_raw:
 733              	.LVL59:
 734              	.LFB36:
 492:Middlewares/Third_Party/LwIP/src/core/ipv4/etharp.c **** 
 493:Middlewares/Third_Party/LwIP/src/core/ipv4/etharp.c **** #if ETHARP_SUPPORT_STATIC_ENTRIES
 494:Middlewares/Third_Party/LwIP/src/core/ipv4/etharp.c **** /** Add a new static entry to the ARP table. If an entry exists for the
 495:Middlewares/Third_Party/LwIP/src/core/ipv4/etharp.c ****  * specified IP address, this entry is overwritten.
 496:Middlewares/Third_Party/LwIP/src/core/ipv4/etharp.c ****  * If packets are queued for the specified IP address, they are sent out.
 497:Middlewares/Third_Party/LwIP/src/core/ipv4/etharp.c ****  *
 498:Middlewares/Third_Party/LwIP/src/core/ipv4/etharp.c ****  * @param ipaddr IP address for the new static entry
 499:Middlewares/Third_Party/LwIP/src/core/ipv4/etharp.c ****  * @param ethaddr ethernet address for the new static entry
 500:Middlewares/Third_Party/LwIP/src/core/ipv4/etharp.c ****  * @return See return values of etharp_add_static_entry
 501:Middlewares/Third_Party/LwIP/src/core/ipv4/etharp.c ****  */
 502:Middlewares/Third_Party/LwIP/src/core/ipv4/etharp.c **** err_t
 503:Middlewares/Third_Party/LwIP/src/core/ipv4/etharp.c **** etharp_add_static_entry(const ip4_addr_t *ipaddr, struct eth_addr *ethaddr)
 504:Middlewares/Third_Party/LwIP/src/core/ipv4/etharp.c **** {
 505:Middlewares/Third_Party/LwIP/src/core/ipv4/etharp.c ****   struct netif *netif;
 506:Middlewares/Third_Party/LwIP/src/core/ipv4/etharp.c ****   LWIP_ASSERT_CORE_LOCKED();
 507:Middlewares/Third_Party/LwIP/src/core/ipv4/etharp.c ****   LWIP_DEBUGF(ETHARP_DEBUG | LWIP_DBG_TRACE, ("etharp_add_static_entry: %"U16_F".%"U16_F".%"U16_F".
 508:Middlewares/Third_Party/LwIP/src/core/ipv4/etharp.c ****               ip4_addr1_16(ipaddr), ip4_addr2_16(ipaddr), ip4_addr3_16(ipaddr), ip4_addr4_16(ipaddr
 509:Middlewares/Third_Party/LwIP/src/core/ipv4/etharp.c ****               (u16_t)ethaddr->addr[0], (u16_t)ethaddr->addr[1], (u16_t)ethaddr->addr[2],
 510:Middlewares/Third_Party/LwIP/src/core/ipv4/etharp.c ****               (u16_t)ethaddr->addr[3], (u16_t)ethaddr->addr[4], (u16_t)ethaddr->addr[5]));
 511:Middlewares/Third_Party/LwIP/src/core/ipv4/etharp.c **** 
 512:Middlewares/Third_Party/LwIP/src/core/ipv4/etharp.c ****   netif = ip4_route(ipaddr);
 513:Middlewares/Third_Party/LwIP/src/core/ipv4/etharp.c ****   if (netif == NULL) {
 514:Middlewares/Third_Party/LwIP/src/core/ipv4/etharp.c ****     return ERR_RTE;
 515:Middlewares/Third_Party/LwIP/src/core/ipv4/etharp.c ****   }
 516:Middlewares/Third_Party/LwIP/src/core/ipv4/etharp.c **** 
 517:Middlewares/Third_Party/LwIP/src/core/ipv4/etharp.c ****   return etharp_update_arp_entry(netif, ipaddr, ethaddr, ETHARP_FLAG_TRY_HARD | ETHARP_FLAG_STATIC_
 518:Middlewares/Third_Party/LwIP/src/core/ipv4/etharp.c **** }
 519:Middlewares/Third_Party/LwIP/src/core/ipv4/etharp.c **** 
 520:Middlewares/Third_Party/LwIP/src/core/ipv4/etharp.c **** /** Remove a static entry from the ARP table previously added with a call to
 521:Middlewares/Third_Party/LwIP/src/core/ipv4/etharp.c ****  * etharp_add_static_entry.
 522:Middlewares/Third_Party/LwIP/src/core/ipv4/etharp.c ****  *
 523:Middlewares/Third_Party/LwIP/src/core/ipv4/etharp.c ****  * @param ipaddr IP address of the static entry to remove
 524:Middlewares/Third_Party/LwIP/src/core/ipv4/etharp.c ****  * @return ERR_OK: entry removed
 525:Middlewares/Third_Party/LwIP/src/core/ipv4/etharp.c ****  *         ERR_MEM: entry wasn't found
ARM GAS  D:\Dev\msys64\tmp\ccwKvaRW.s 			page 25


 526:Middlewares/Third_Party/LwIP/src/core/ipv4/etharp.c ****  *         ERR_ARG: entry wasn't a static entry but a dynamic one
 527:Middlewares/Third_Party/LwIP/src/core/ipv4/etharp.c ****  */
 528:Middlewares/Third_Party/LwIP/src/core/ipv4/etharp.c **** err_t
 529:Middlewares/Third_Party/LwIP/src/core/ipv4/etharp.c **** etharp_remove_static_entry(const ip4_addr_t *ipaddr)
 530:Middlewares/Third_Party/LwIP/src/core/ipv4/etharp.c **** {
 531:Middlewares/Third_Party/LwIP/src/core/ipv4/etharp.c ****   s16_t i;
 532:Middlewares/Third_Party/LwIP/src/core/ipv4/etharp.c ****   LWIP_ASSERT_CORE_LOCKED();
 533:Middlewares/Third_Party/LwIP/src/core/ipv4/etharp.c ****   LWIP_DEBUGF(ETHARP_DEBUG | LWIP_DBG_TRACE, ("etharp_remove_static_entry: %"U16_F".%"U16_F".%"U16_
 534:Middlewares/Third_Party/LwIP/src/core/ipv4/etharp.c ****               ip4_addr1_16(ipaddr), ip4_addr2_16(ipaddr), ip4_addr3_16(ipaddr), ip4_addr4_16(ipaddr
 535:Middlewares/Third_Party/LwIP/src/core/ipv4/etharp.c **** 
 536:Middlewares/Third_Party/LwIP/src/core/ipv4/etharp.c ****   /* find or create ARP entry */
 537:Middlewares/Third_Party/LwIP/src/core/ipv4/etharp.c ****   i = etharp_find_entry(ipaddr, ETHARP_FLAG_FIND_ONLY, NULL);
 538:Middlewares/Third_Party/LwIP/src/core/ipv4/etharp.c ****   /* bail out if no entry could be found */
 539:Middlewares/Third_Party/LwIP/src/core/ipv4/etharp.c ****   if (i < 0) {
 540:Middlewares/Third_Party/LwIP/src/core/ipv4/etharp.c ****     return (err_t)i;
 541:Middlewares/Third_Party/LwIP/src/core/ipv4/etharp.c ****   }
 542:Middlewares/Third_Party/LwIP/src/core/ipv4/etharp.c **** 
 543:Middlewares/Third_Party/LwIP/src/core/ipv4/etharp.c ****   if (arp_table[i].state != ETHARP_STATE_STATIC) {
 544:Middlewares/Third_Party/LwIP/src/core/ipv4/etharp.c ****     /* entry wasn't a static entry, cannot remove it */
 545:Middlewares/Third_Party/LwIP/src/core/ipv4/etharp.c ****     return ERR_ARG;
 546:Middlewares/Third_Party/LwIP/src/core/ipv4/etharp.c ****   }
 547:Middlewares/Third_Party/LwIP/src/core/ipv4/etharp.c ****   /* entry found, free it */
 548:Middlewares/Third_Party/LwIP/src/core/ipv4/etharp.c ****   etharp_free_entry(i);
 549:Middlewares/Third_Party/LwIP/src/core/ipv4/etharp.c ****   return ERR_OK;
 550:Middlewares/Third_Party/LwIP/src/core/ipv4/etharp.c **** }
 551:Middlewares/Third_Party/LwIP/src/core/ipv4/etharp.c **** #endif /* ETHARP_SUPPORT_STATIC_ENTRIES */
 552:Middlewares/Third_Party/LwIP/src/core/ipv4/etharp.c **** 
 553:Middlewares/Third_Party/LwIP/src/core/ipv4/etharp.c **** /**
 554:Middlewares/Third_Party/LwIP/src/core/ipv4/etharp.c ****  * Remove all ARP table entries of the specified netif.
 555:Middlewares/Third_Party/LwIP/src/core/ipv4/etharp.c ****  *
 556:Middlewares/Third_Party/LwIP/src/core/ipv4/etharp.c ****  * @param netif points to a network interface
 557:Middlewares/Third_Party/LwIP/src/core/ipv4/etharp.c ****  */
 558:Middlewares/Third_Party/LwIP/src/core/ipv4/etharp.c **** void
 559:Middlewares/Third_Party/LwIP/src/core/ipv4/etharp.c **** etharp_cleanup_netif(struct netif *netif)
 560:Middlewares/Third_Party/LwIP/src/core/ipv4/etharp.c **** {
 561:Middlewares/Third_Party/LwIP/src/core/ipv4/etharp.c ****   int i;
 562:Middlewares/Third_Party/LwIP/src/core/ipv4/etharp.c **** 
 563:Middlewares/Third_Party/LwIP/src/core/ipv4/etharp.c ****   for (i = 0; i < ARP_TABLE_SIZE; ++i) {
 564:Middlewares/Third_Party/LwIP/src/core/ipv4/etharp.c ****     u8_t state = arp_table[i].state;
 565:Middlewares/Third_Party/LwIP/src/core/ipv4/etharp.c ****     if ((state != ETHARP_STATE_EMPTY) && (arp_table[i].netif == netif)) {
 566:Middlewares/Third_Party/LwIP/src/core/ipv4/etharp.c ****       etharp_free_entry(i);
 567:Middlewares/Third_Party/LwIP/src/core/ipv4/etharp.c ****     }
 568:Middlewares/Third_Party/LwIP/src/core/ipv4/etharp.c ****   }
 569:Middlewares/Third_Party/LwIP/src/core/ipv4/etharp.c **** }
 570:Middlewares/Third_Party/LwIP/src/core/ipv4/etharp.c **** 
 571:Middlewares/Third_Party/LwIP/src/core/ipv4/etharp.c **** /**
 572:Middlewares/Third_Party/LwIP/src/core/ipv4/etharp.c ****  * Finds (stable) ethernet/IP address pair from ARP table
 573:Middlewares/Third_Party/LwIP/src/core/ipv4/etharp.c ****  * using interface and IP address index.
 574:Middlewares/Third_Party/LwIP/src/core/ipv4/etharp.c ****  * @note the addresses in the ARP table are in network order!
 575:Middlewares/Third_Party/LwIP/src/core/ipv4/etharp.c ****  *
 576:Middlewares/Third_Party/LwIP/src/core/ipv4/etharp.c ****  * @param netif points to interface index
 577:Middlewares/Third_Party/LwIP/src/core/ipv4/etharp.c ****  * @param ipaddr points to the (network order) IP address index
 578:Middlewares/Third_Party/LwIP/src/core/ipv4/etharp.c ****  * @param eth_ret points to return pointer
 579:Middlewares/Third_Party/LwIP/src/core/ipv4/etharp.c ****  * @param ip_ret points to return pointer
 580:Middlewares/Third_Party/LwIP/src/core/ipv4/etharp.c ****  * @return table index if found, -1 otherwise
 581:Middlewares/Third_Party/LwIP/src/core/ipv4/etharp.c ****  */
 582:Middlewares/Third_Party/LwIP/src/core/ipv4/etharp.c **** ssize_t
ARM GAS  D:\Dev\msys64\tmp\ccwKvaRW.s 			page 26


 583:Middlewares/Third_Party/LwIP/src/core/ipv4/etharp.c **** etharp_find_addr(struct netif *netif, const ip4_addr_t *ipaddr,
 584:Middlewares/Third_Party/LwIP/src/core/ipv4/etharp.c ****                  struct eth_addr **eth_ret, const ip4_addr_t **ip_ret)
 585:Middlewares/Third_Party/LwIP/src/core/ipv4/etharp.c **** {
 586:Middlewares/Third_Party/LwIP/src/core/ipv4/etharp.c ****   s16_t i;
 587:Middlewares/Third_Party/LwIP/src/core/ipv4/etharp.c **** 
 588:Middlewares/Third_Party/LwIP/src/core/ipv4/etharp.c ****   LWIP_ASSERT("eth_ret != NULL && ip_ret != NULL",
 589:Middlewares/Third_Party/LwIP/src/core/ipv4/etharp.c ****               eth_ret != NULL && ip_ret != NULL);
 590:Middlewares/Third_Party/LwIP/src/core/ipv4/etharp.c **** 
 591:Middlewares/Third_Party/LwIP/src/core/ipv4/etharp.c ****   LWIP_UNUSED_ARG(netif);
 592:Middlewares/Third_Party/LwIP/src/core/ipv4/etharp.c **** 
 593:Middlewares/Third_Party/LwIP/src/core/ipv4/etharp.c ****   i = etharp_find_entry(ipaddr, ETHARP_FLAG_FIND_ONLY, netif);
 594:Middlewares/Third_Party/LwIP/src/core/ipv4/etharp.c ****   if ((i >= 0) && (arp_table[i].state >= ETHARP_STATE_STABLE)) {
 595:Middlewares/Third_Party/LwIP/src/core/ipv4/etharp.c ****     *eth_ret = &arp_table[i].ethaddr;
 596:Middlewares/Third_Party/LwIP/src/core/ipv4/etharp.c ****     *ip_ret = &arp_table[i].ipaddr;
 597:Middlewares/Third_Party/LwIP/src/core/ipv4/etharp.c ****     return i;
 598:Middlewares/Third_Party/LwIP/src/core/ipv4/etharp.c ****   }
 599:Middlewares/Third_Party/LwIP/src/core/ipv4/etharp.c ****   return -1;
 600:Middlewares/Third_Party/LwIP/src/core/ipv4/etharp.c **** }
 601:Middlewares/Third_Party/LwIP/src/core/ipv4/etharp.c **** 
 602:Middlewares/Third_Party/LwIP/src/core/ipv4/etharp.c **** /**
 603:Middlewares/Third_Party/LwIP/src/core/ipv4/etharp.c ****  * Possibility to iterate over stable ARP table entries
 604:Middlewares/Third_Party/LwIP/src/core/ipv4/etharp.c ****  *
 605:Middlewares/Third_Party/LwIP/src/core/ipv4/etharp.c ****  * @param i entry number, 0 to ARP_TABLE_SIZE
 606:Middlewares/Third_Party/LwIP/src/core/ipv4/etharp.c ****  * @param ipaddr return value: IP address
 607:Middlewares/Third_Party/LwIP/src/core/ipv4/etharp.c ****  * @param netif return value: points to interface
 608:Middlewares/Third_Party/LwIP/src/core/ipv4/etharp.c ****  * @param eth_ret return value: ETH address
 609:Middlewares/Third_Party/LwIP/src/core/ipv4/etharp.c ****  * @return 1 on valid index, 0 otherwise
 610:Middlewares/Third_Party/LwIP/src/core/ipv4/etharp.c ****  */
 611:Middlewares/Third_Party/LwIP/src/core/ipv4/etharp.c **** int
 612:Middlewares/Third_Party/LwIP/src/core/ipv4/etharp.c **** etharp_get_entry(size_t i, ip4_addr_t **ipaddr, struct netif **netif, struct eth_addr **eth_ret)
 613:Middlewares/Third_Party/LwIP/src/core/ipv4/etharp.c **** {
 614:Middlewares/Third_Party/LwIP/src/core/ipv4/etharp.c ****   LWIP_ASSERT("ipaddr != NULL", ipaddr != NULL);
 615:Middlewares/Third_Party/LwIP/src/core/ipv4/etharp.c ****   LWIP_ASSERT("netif != NULL", netif != NULL);
 616:Middlewares/Third_Party/LwIP/src/core/ipv4/etharp.c ****   LWIP_ASSERT("eth_ret != NULL", eth_ret != NULL);
 617:Middlewares/Third_Party/LwIP/src/core/ipv4/etharp.c **** 
 618:Middlewares/Third_Party/LwIP/src/core/ipv4/etharp.c ****   if ((i < ARP_TABLE_SIZE) && (arp_table[i].state >= ETHARP_STATE_STABLE)) {
 619:Middlewares/Third_Party/LwIP/src/core/ipv4/etharp.c ****     *ipaddr  = &arp_table[i].ipaddr;
 620:Middlewares/Third_Party/LwIP/src/core/ipv4/etharp.c ****     *netif   = arp_table[i].netif;
 621:Middlewares/Third_Party/LwIP/src/core/ipv4/etharp.c ****     *eth_ret = &arp_table[i].ethaddr;
 622:Middlewares/Third_Party/LwIP/src/core/ipv4/etharp.c ****     return 1;
 623:Middlewares/Third_Party/LwIP/src/core/ipv4/etharp.c ****   } else {
 624:Middlewares/Third_Party/LwIP/src/core/ipv4/etharp.c ****     return 0;
 625:Middlewares/Third_Party/LwIP/src/core/ipv4/etharp.c ****   }
 626:Middlewares/Third_Party/LwIP/src/core/ipv4/etharp.c **** }
 627:Middlewares/Third_Party/LwIP/src/core/ipv4/etharp.c **** 
 628:Middlewares/Third_Party/LwIP/src/core/ipv4/etharp.c **** /**
 629:Middlewares/Third_Party/LwIP/src/core/ipv4/etharp.c ****  * Responds to ARP requests to us. Upon ARP replies to us, add entry to cache
 630:Middlewares/Third_Party/LwIP/src/core/ipv4/etharp.c ****  * send out queued IP packets. Updates cache with snooped address pairs.
 631:Middlewares/Third_Party/LwIP/src/core/ipv4/etharp.c ****  *
 632:Middlewares/Third_Party/LwIP/src/core/ipv4/etharp.c ****  * Should be called for incoming ARP packets. The pbuf in the argument
 633:Middlewares/Third_Party/LwIP/src/core/ipv4/etharp.c ****  * is freed by this function.
 634:Middlewares/Third_Party/LwIP/src/core/ipv4/etharp.c ****  *
 635:Middlewares/Third_Party/LwIP/src/core/ipv4/etharp.c ****  * @param p The ARP packet that arrived on netif. Is freed by this function.
 636:Middlewares/Third_Party/LwIP/src/core/ipv4/etharp.c ****  * @param netif The lwIP network interface on which the ARP packet pbuf arrived.
 637:Middlewares/Third_Party/LwIP/src/core/ipv4/etharp.c ****  *
 638:Middlewares/Third_Party/LwIP/src/core/ipv4/etharp.c ****  * @see pbuf_free()
 639:Middlewares/Third_Party/LwIP/src/core/ipv4/etharp.c ****  */
ARM GAS  D:\Dev\msys64\tmp\ccwKvaRW.s 			page 27


 640:Middlewares/Third_Party/LwIP/src/core/ipv4/etharp.c **** void
 641:Middlewares/Third_Party/LwIP/src/core/ipv4/etharp.c **** etharp_input(struct pbuf *p, struct netif *netif)
 642:Middlewares/Third_Party/LwIP/src/core/ipv4/etharp.c **** {
 643:Middlewares/Third_Party/LwIP/src/core/ipv4/etharp.c ****   struct etharp_hdr *hdr;
 644:Middlewares/Third_Party/LwIP/src/core/ipv4/etharp.c ****   /* these are aligned properly, whereas the ARP header fields might not be */
 645:Middlewares/Third_Party/LwIP/src/core/ipv4/etharp.c ****   ip4_addr_t sipaddr, dipaddr;
 646:Middlewares/Third_Party/LwIP/src/core/ipv4/etharp.c ****   u8_t for_us;
 647:Middlewares/Third_Party/LwIP/src/core/ipv4/etharp.c **** 
 648:Middlewares/Third_Party/LwIP/src/core/ipv4/etharp.c ****   LWIP_ASSERT_CORE_LOCKED();
 649:Middlewares/Third_Party/LwIP/src/core/ipv4/etharp.c **** 
 650:Middlewares/Third_Party/LwIP/src/core/ipv4/etharp.c ****   LWIP_ERROR("netif != NULL", (netif != NULL), return;);
 651:Middlewares/Third_Party/LwIP/src/core/ipv4/etharp.c **** 
 652:Middlewares/Third_Party/LwIP/src/core/ipv4/etharp.c ****   hdr = (struct etharp_hdr *)p->payload;
 653:Middlewares/Third_Party/LwIP/src/core/ipv4/etharp.c **** 
 654:Middlewares/Third_Party/LwIP/src/core/ipv4/etharp.c ****   /* RFC 826 "Packet Reception": */
 655:Middlewares/Third_Party/LwIP/src/core/ipv4/etharp.c ****   if ((hdr->hwtype != PP_HTONS(LWIP_IANA_HWTYPE_ETHERNET)) ||
 656:Middlewares/Third_Party/LwIP/src/core/ipv4/etharp.c ****       (hdr->hwlen != ETH_HWADDR_LEN) ||
 657:Middlewares/Third_Party/LwIP/src/core/ipv4/etharp.c ****       (hdr->protolen != sizeof(ip4_addr_t)) ||
 658:Middlewares/Third_Party/LwIP/src/core/ipv4/etharp.c ****       (hdr->proto != PP_HTONS(ETHTYPE_IP)))  {
 659:Middlewares/Third_Party/LwIP/src/core/ipv4/etharp.c ****     LWIP_DEBUGF(ETHARP_DEBUG | LWIP_DBG_TRACE | LWIP_DBG_LEVEL_WARNING,
 660:Middlewares/Third_Party/LwIP/src/core/ipv4/etharp.c ****                 ("etharp_input: packet dropped, wrong hw type, hwlen, proto, protolen or ethernet t
 661:Middlewares/Third_Party/LwIP/src/core/ipv4/etharp.c ****                  hdr->hwtype, (u16_t)hdr->hwlen, hdr->proto, (u16_t)hdr->protolen));
 662:Middlewares/Third_Party/LwIP/src/core/ipv4/etharp.c ****     ETHARP_STATS_INC(etharp.proterr);
 663:Middlewares/Third_Party/LwIP/src/core/ipv4/etharp.c ****     ETHARP_STATS_INC(etharp.drop);
 664:Middlewares/Third_Party/LwIP/src/core/ipv4/etharp.c ****     pbuf_free(p);
 665:Middlewares/Third_Party/LwIP/src/core/ipv4/etharp.c ****     return;
 666:Middlewares/Third_Party/LwIP/src/core/ipv4/etharp.c ****   }
 667:Middlewares/Third_Party/LwIP/src/core/ipv4/etharp.c ****   ETHARP_STATS_INC(etharp.recv);
 668:Middlewares/Third_Party/LwIP/src/core/ipv4/etharp.c **** 
 669:Middlewares/Third_Party/LwIP/src/core/ipv4/etharp.c **** #if LWIP_AUTOIP
 670:Middlewares/Third_Party/LwIP/src/core/ipv4/etharp.c ****   /* We have to check if a host already has configured our random
 671:Middlewares/Third_Party/LwIP/src/core/ipv4/etharp.c ****    * created link local address and continuously check if there is
 672:Middlewares/Third_Party/LwIP/src/core/ipv4/etharp.c ****    * a host with this IP-address so we can detect collisions */
 673:Middlewares/Third_Party/LwIP/src/core/ipv4/etharp.c ****   autoip_arp_reply(netif, hdr);
 674:Middlewares/Third_Party/LwIP/src/core/ipv4/etharp.c **** #endif /* LWIP_AUTOIP */
 675:Middlewares/Third_Party/LwIP/src/core/ipv4/etharp.c **** 
 676:Middlewares/Third_Party/LwIP/src/core/ipv4/etharp.c ****   /* Copy struct ip4_addr_wordaligned to aligned ip4_addr, to support compilers without
 677:Middlewares/Third_Party/LwIP/src/core/ipv4/etharp.c ****    * structure packing (not using structure copy which breaks strict-aliasing rules). */
 678:Middlewares/Third_Party/LwIP/src/core/ipv4/etharp.c ****   IPADDR_WORDALIGNED_COPY_TO_IP4_ADDR_T(&sipaddr, &hdr->sipaddr);
 679:Middlewares/Third_Party/LwIP/src/core/ipv4/etharp.c ****   IPADDR_WORDALIGNED_COPY_TO_IP4_ADDR_T(&dipaddr, &hdr->dipaddr);
 680:Middlewares/Third_Party/LwIP/src/core/ipv4/etharp.c **** 
 681:Middlewares/Third_Party/LwIP/src/core/ipv4/etharp.c ****   /* this interface is not configured? */
 682:Middlewares/Third_Party/LwIP/src/core/ipv4/etharp.c ****   if (ip4_addr_isany_val(*netif_ip4_addr(netif))) {
 683:Middlewares/Third_Party/LwIP/src/core/ipv4/etharp.c ****     for_us = 0;
 684:Middlewares/Third_Party/LwIP/src/core/ipv4/etharp.c ****   } else {
 685:Middlewares/Third_Party/LwIP/src/core/ipv4/etharp.c ****     /* ARP packet directed to us? */
 686:Middlewares/Third_Party/LwIP/src/core/ipv4/etharp.c ****     for_us = (u8_t)ip4_addr_cmp(&dipaddr, netif_ip4_addr(netif));
 687:Middlewares/Third_Party/LwIP/src/core/ipv4/etharp.c ****   }
 688:Middlewares/Third_Party/LwIP/src/core/ipv4/etharp.c **** 
 689:Middlewares/Third_Party/LwIP/src/core/ipv4/etharp.c ****   /* ARP message directed to us?
 690:Middlewares/Third_Party/LwIP/src/core/ipv4/etharp.c ****       -> add IP address in ARP cache; assume requester wants to talk to us,
 691:Middlewares/Third_Party/LwIP/src/core/ipv4/etharp.c ****          can result in directly sending the queued packets for this host.
 692:Middlewares/Third_Party/LwIP/src/core/ipv4/etharp.c ****      ARP message not directed to us?
 693:Middlewares/Third_Party/LwIP/src/core/ipv4/etharp.c ****       ->  update the source IP address in the cache, if present */
 694:Middlewares/Third_Party/LwIP/src/core/ipv4/etharp.c ****   etharp_update_arp_entry(netif, &sipaddr, &(hdr->shwaddr),
 695:Middlewares/Third_Party/LwIP/src/core/ipv4/etharp.c ****                           for_us ? ETHARP_FLAG_TRY_HARD : ETHARP_FLAG_FIND_ONLY);
 696:Middlewares/Third_Party/LwIP/src/core/ipv4/etharp.c **** 
ARM GAS  D:\Dev\msys64\tmp\ccwKvaRW.s 			page 28


 697:Middlewares/Third_Party/LwIP/src/core/ipv4/etharp.c ****   /* now act on the message itself */
 698:Middlewares/Third_Party/LwIP/src/core/ipv4/etharp.c ****   switch (hdr->opcode) {
 699:Middlewares/Third_Party/LwIP/src/core/ipv4/etharp.c ****     /* ARP request? */
 700:Middlewares/Third_Party/LwIP/src/core/ipv4/etharp.c ****     case PP_HTONS(ARP_REQUEST):
 701:Middlewares/Third_Party/LwIP/src/core/ipv4/etharp.c ****       /* ARP request. If it asked for our address, we send out a
 702:Middlewares/Third_Party/LwIP/src/core/ipv4/etharp.c ****        * reply. In any case, we time-stamp any existing ARP entry,
 703:Middlewares/Third_Party/LwIP/src/core/ipv4/etharp.c ****        * and possibly send out an IP packet that was queued on it. */
 704:Middlewares/Third_Party/LwIP/src/core/ipv4/etharp.c **** 
 705:Middlewares/Third_Party/LwIP/src/core/ipv4/etharp.c ****       LWIP_DEBUGF (ETHARP_DEBUG | LWIP_DBG_TRACE, ("etharp_input: incoming ARP request\n"));
 706:Middlewares/Third_Party/LwIP/src/core/ipv4/etharp.c ****       /* ARP request for our address? */
 707:Middlewares/Third_Party/LwIP/src/core/ipv4/etharp.c ****       if (for_us) {
 708:Middlewares/Third_Party/LwIP/src/core/ipv4/etharp.c ****         /* send ARP response */
 709:Middlewares/Third_Party/LwIP/src/core/ipv4/etharp.c ****         etharp_raw(netif,
 710:Middlewares/Third_Party/LwIP/src/core/ipv4/etharp.c ****                    (struct eth_addr *)netif->hwaddr, &hdr->shwaddr,
 711:Middlewares/Third_Party/LwIP/src/core/ipv4/etharp.c ****                    (struct eth_addr *)netif->hwaddr, netif_ip4_addr(netif),
 712:Middlewares/Third_Party/LwIP/src/core/ipv4/etharp.c ****                    &hdr->shwaddr, &sipaddr,
 713:Middlewares/Third_Party/LwIP/src/core/ipv4/etharp.c ****                    ARP_REPLY);
 714:Middlewares/Third_Party/LwIP/src/core/ipv4/etharp.c ****         /* we are not configured? */
 715:Middlewares/Third_Party/LwIP/src/core/ipv4/etharp.c ****       } else if (ip4_addr_isany_val(*netif_ip4_addr(netif))) {
 716:Middlewares/Third_Party/LwIP/src/core/ipv4/etharp.c ****         /* { for_us == 0 and netif->ip_addr.addr == 0 } */
 717:Middlewares/Third_Party/LwIP/src/core/ipv4/etharp.c ****         LWIP_DEBUGF(ETHARP_DEBUG | LWIP_DBG_TRACE, ("etharp_input: we are unconfigured, ARP request
 718:Middlewares/Third_Party/LwIP/src/core/ipv4/etharp.c ****         /* request was not directed to us */
 719:Middlewares/Third_Party/LwIP/src/core/ipv4/etharp.c ****       } else {
 720:Middlewares/Third_Party/LwIP/src/core/ipv4/etharp.c ****         /* { for_us == 0 and netif->ip_addr.addr != 0 } */
 721:Middlewares/Third_Party/LwIP/src/core/ipv4/etharp.c ****         LWIP_DEBUGF(ETHARP_DEBUG | LWIP_DBG_TRACE, ("etharp_input: ARP request was not for us.\n"))
 722:Middlewares/Third_Party/LwIP/src/core/ipv4/etharp.c ****       }
 723:Middlewares/Third_Party/LwIP/src/core/ipv4/etharp.c ****       break;
 724:Middlewares/Third_Party/LwIP/src/core/ipv4/etharp.c ****     case PP_HTONS(ARP_REPLY):
 725:Middlewares/Third_Party/LwIP/src/core/ipv4/etharp.c ****       /* ARP reply. We already updated the ARP cache earlier. */
 726:Middlewares/Third_Party/LwIP/src/core/ipv4/etharp.c ****       LWIP_DEBUGF(ETHARP_DEBUG | LWIP_DBG_TRACE, ("etharp_input: incoming ARP reply\n"));
 727:Middlewares/Third_Party/LwIP/src/core/ipv4/etharp.c **** #if (LWIP_DHCP && DHCP_DOES_ARP_CHECK)
 728:Middlewares/Third_Party/LwIP/src/core/ipv4/etharp.c ****       /* DHCP wants to know about ARP replies from any host with an
 729:Middlewares/Third_Party/LwIP/src/core/ipv4/etharp.c ****        * IP address also offered to us by the DHCP server. We do not
 730:Middlewares/Third_Party/LwIP/src/core/ipv4/etharp.c ****        * want to take a duplicate IP address on a single network.
 731:Middlewares/Third_Party/LwIP/src/core/ipv4/etharp.c ****        * @todo How should we handle redundant (fail-over) interfaces? */
 732:Middlewares/Third_Party/LwIP/src/core/ipv4/etharp.c ****       dhcp_arp_reply(netif, &sipaddr);
 733:Middlewares/Third_Party/LwIP/src/core/ipv4/etharp.c **** #endif /* (LWIP_DHCP && DHCP_DOES_ARP_CHECK) */
 734:Middlewares/Third_Party/LwIP/src/core/ipv4/etharp.c ****       break;
 735:Middlewares/Third_Party/LwIP/src/core/ipv4/etharp.c ****     default:
 736:Middlewares/Third_Party/LwIP/src/core/ipv4/etharp.c ****       LWIP_DEBUGF(ETHARP_DEBUG | LWIP_DBG_TRACE, ("etharp_input: ARP unknown opcode type %"S16_F"\n
 737:Middlewares/Third_Party/LwIP/src/core/ipv4/etharp.c ****       ETHARP_STATS_INC(etharp.err);
 738:Middlewares/Third_Party/LwIP/src/core/ipv4/etharp.c ****       break;
 739:Middlewares/Third_Party/LwIP/src/core/ipv4/etharp.c ****   }
 740:Middlewares/Third_Party/LwIP/src/core/ipv4/etharp.c ****   /* free ARP packet */
 741:Middlewares/Third_Party/LwIP/src/core/ipv4/etharp.c ****   pbuf_free(p);
 742:Middlewares/Third_Party/LwIP/src/core/ipv4/etharp.c **** }
 743:Middlewares/Third_Party/LwIP/src/core/ipv4/etharp.c **** 
 744:Middlewares/Third_Party/LwIP/src/core/ipv4/etharp.c **** /** Just a small helper function that sends a pbuf to an ethernet address
 745:Middlewares/Third_Party/LwIP/src/core/ipv4/etharp.c ****  * in the arp_table specified by the index 'arp_idx'.
 746:Middlewares/Third_Party/LwIP/src/core/ipv4/etharp.c ****  */
 747:Middlewares/Third_Party/LwIP/src/core/ipv4/etharp.c **** static err_t
 748:Middlewares/Third_Party/LwIP/src/core/ipv4/etharp.c **** etharp_output_to_arp_index(struct netif *netif, struct pbuf *q, netif_addr_idx_t arp_idx)
 749:Middlewares/Third_Party/LwIP/src/core/ipv4/etharp.c **** {
 750:Middlewares/Third_Party/LwIP/src/core/ipv4/etharp.c ****   LWIP_ASSERT("arp_table[arp_idx].state >= ETHARP_STATE_STABLE",
 751:Middlewares/Third_Party/LwIP/src/core/ipv4/etharp.c ****               arp_table[arp_idx].state >= ETHARP_STATE_STABLE);
 752:Middlewares/Third_Party/LwIP/src/core/ipv4/etharp.c ****   /* if arp table entry is about to expire: re-request it,
 753:Middlewares/Third_Party/LwIP/src/core/ipv4/etharp.c ****      but only if its state is ETHARP_STATE_STABLE to prevent flooding the
ARM GAS  D:\Dev\msys64\tmp\ccwKvaRW.s 			page 29


 754:Middlewares/Third_Party/LwIP/src/core/ipv4/etharp.c ****      network with ARP requests if this address is used frequently. */
 755:Middlewares/Third_Party/LwIP/src/core/ipv4/etharp.c ****   if (arp_table[arp_idx].state == ETHARP_STATE_STABLE) {
 756:Middlewares/Third_Party/LwIP/src/core/ipv4/etharp.c ****     if (arp_table[arp_idx].ctime >= ARP_AGE_REREQUEST_USED_BROADCAST) {
 757:Middlewares/Third_Party/LwIP/src/core/ipv4/etharp.c ****       /* issue a standard request using broadcast */
 758:Middlewares/Third_Party/LwIP/src/core/ipv4/etharp.c ****       if (etharp_request(netif, &arp_table[arp_idx].ipaddr) == ERR_OK) {
 759:Middlewares/Third_Party/LwIP/src/core/ipv4/etharp.c ****         arp_table[arp_idx].state = ETHARP_STATE_STABLE_REREQUESTING_1;
 760:Middlewares/Third_Party/LwIP/src/core/ipv4/etharp.c ****       }
 761:Middlewares/Third_Party/LwIP/src/core/ipv4/etharp.c ****     } else if (arp_table[arp_idx].ctime >= ARP_AGE_REREQUEST_USED_UNICAST) {
 762:Middlewares/Third_Party/LwIP/src/core/ipv4/etharp.c ****       /* issue a unicast request (for 15 seconds) to prevent unnecessary broadcast */
 763:Middlewares/Third_Party/LwIP/src/core/ipv4/etharp.c ****       if (etharp_request_dst(netif, &arp_table[arp_idx].ipaddr, &arp_table[arp_idx].ethaddr) == ERR
 764:Middlewares/Third_Party/LwIP/src/core/ipv4/etharp.c ****         arp_table[arp_idx].state = ETHARP_STATE_STABLE_REREQUESTING_1;
 765:Middlewares/Third_Party/LwIP/src/core/ipv4/etharp.c ****       }
 766:Middlewares/Third_Party/LwIP/src/core/ipv4/etharp.c ****     }
 767:Middlewares/Third_Party/LwIP/src/core/ipv4/etharp.c ****   }
 768:Middlewares/Third_Party/LwIP/src/core/ipv4/etharp.c **** 
 769:Middlewares/Third_Party/LwIP/src/core/ipv4/etharp.c ****   return ethernet_output(netif, q, (struct eth_addr *)(netif->hwaddr), &arp_table[arp_idx].ethaddr,
 770:Middlewares/Third_Party/LwIP/src/core/ipv4/etharp.c **** }
 771:Middlewares/Third_Party/LwIP/src/core/ipv4/etharp.c **** 
 772:Middlewares/Third_Party/LwIP/src/core/ipv4/etharp.c **** /**
 773:Middlewares/Third_Party/LwIP/src/core/ipv4/etharp.c ****  * Resolve and fill-in Ethernet address header for outgoing IP packet.
 774:Middlewares/Third_Party/LwIP/src/core/ipv4/etharp.c ****  *
 775:Middlewares/Third_Party/LwIP/src/core/ipv4/etharp.c ****  * For IP multicast and broadcast, corresponding Ethernet addresses
 776:Middlewares/Third_Party/LwIP/src/core/ipv4/etharp.c ****  * are selected and the packet is transmitted on the link.
 777:Middlewares/Third_Party/LwIP/src/core/ipv4/etharp.c ****  *
 778:Middlewares/Third_Party/LwIP/src/core/ipv4/etharp.c ****  * For unicast addresses, the packet is submitted to etharp_query(). In
 779:Middlewares/Third_Party/LwIP/src/core/ipv4/etharp.c ****  * case the IP address is outside the local network, the IP address of
 780:Middlewares/Third_Party/LwIP/src/core/ipv4/etharp.c ****  * the gateway is used.
 781:Middlewares/Third_Party/LwIP/src/core/ipv4/etharp.c ****  *
 782:Middlewares/Third_Party/LwIP/src/core/ipv4/etharp.c ****  * @param netif The lwIP network interface which the IP packet will be sent on.
 783:Middlewares/Third_Party/LwIP/src/core/ipv4/etharp.c ****  * @param q The pbuf(s) containing the IP packet to be sent.
 784:Middlewares/Third_Party/LwIP/src/core/ipv4/etharp.c ****  * @param ipaddr The IP address of the packet destination.
 785:Middlewares/Third_Party/LwIP/src/core/ipv4/etharp.c ****  *
 786:Middlewares/Third_Party/LwIP/src/core/ipv4/etharp.c ****  * @return
 787:Middlewares/Third_Party/LwIP/src/core/ipv4/etharp.c ****  * - ERR_RTE No route to destination (no gateway to external networks),
 788:Middlewares/Third_Party/LwIP/src/core/ipv4/etharp.c ****  * or the return type of either etharp_query() or ethernet_output().
 789:Middlewares/Third_Party/LwIP/src/core/ipv4/etharp.c ****  */
 790:Middlewares/Third_Party/LwIP/src/core/ipv4/etharp.c **** err_t
 791:Middlewares/Third_Party/LwIP/src/core/ipv4/etharp.c **** etharp_output(struct netif *netif, struct pbuf *q, const ip4_addr_t *ipaddr)
 792:Middlewares/Third_Party/LwIP/src/core/ipv4/etharp.c **** {
 793:Middlewares/Third_Party/LwIP/src/core/ipv4/etharp.c ****   const struct eth_addr *dest;
 794:Middlewares/Third_Party/LwIP/src/core/ipv4/etharp.c ****   struct eth_addr mcastaddr;
 795:Middlewares/Third_Party/LwIP/src/core/ipv4/etharp.c ****   const ip4_addr_t *dst_addr = ipaddr;
 796:Middlewares/Third_Party/LwIP/src/core/ipv4/etharp.c **** 
 797:Middlewares/Third_Party/LwIP/src/core/ipv4/etharp.c ****   LWIP_ASSERT_CORE_LOCKED();
 798:Middlewares/Third_Party/LwIP/src/core/ipv4/etharp.c ****   LWIP_ASSERT("netif != NULL", netif != NULL);
 799:Middlewares/Third_Party/LwIP/src/core/ipv4/etharp.c ****   LWIP_ASSERT("q != NULL", q != NULL);
 800:Middlewares/Third_Party/LwIP/src/core/ipv4/etharp.c ****   LWIP_ASSERT("ipaddr != NULL", ipaddr != NULL);
 801:Middlewares/Third_Party/LwIP/src/core/ipv4/etharp.c **** 
 802:Middlewares/Third_Party/LwIP/src/core/ipv4/etharp.c ****   /* Determine on destination hardware address. Broadcasts and multicasts
 803:Middlewares/Third_Party/LwIP/src/core/ipv4/etharp.c ****    * are special, other IP addresses are looked up in the ARP table. */
 804:Middlewares/Third_Party/LwIP/src/core/ipv4/etharp.c **** 
 805:Middlewares/Third_Party/LwIP/src/core/ipv4/etharp.c ****   /* broadcast destination IP address? */
 806:Middlewares/Third_Party/LwIP/src/core/ipv4/etharp.c ****   if (ip4_addr_isbroadcast(ipaddr, netif)) {
 807:Middlewares/Third_Party/LwIP/src/core/ipv4/etharp.c ****     /* broadcast on Ethernet also */
 808:Middlewares/Third_Party/LwIP/src/core/ipv4/etharp.c ****     dest = (const struct eth_addr *)&ethbroadcast;
 809:Middlewares/Third_Party/LwIP/src/core/ipv4/etharp.c ****     /* multicast destination IP address? */
 810:Middlewares/Third_Party/LwIP/src/core/ipv4/etharp.c ****   } else if (ip4_addr_ismulticast(ipaddr)) {
ARM GAS  D:\Dev\msys64\tmp\ccwKvaRW.s 			page 30


 811:Middlewares/Third_Party/LwIP/src/core/ipv4/etharp.c ****     /* Hash IP multicast address to MAC address.*/
 812:Middlewares/Third_Party/LwIP/src/core/ipv4/etharp.c ****     mcastaddr.addr[0] = LL_IP4_MULTICAST_ADDR_0;
 813:Middlewares/Third_Party/LwIP/src/core/ipv4/etharp.c ****     mcastaddr.addr[1] = LL_IP4_MULTICAST_ADDR_1;
 814:Middlewares/Third_Party/LwIP/src/core/ipv4/etharp.c ****     mcastaddr.addr[2] = LL_IP4_MULTICAST_ADDR_2;
 815:Middlewares/Third_Party/LwIP/src/core/ipv4/etharp.c ****     mcastaddr.addr[3] = ip4_addr2(ipaddr) & 0x7f;
 816:Middlewares/Third_Party/LwIP/src/core/ipv4/etharp.c ****     mcastaddr.addr[4] = ip4_addr3(ipaddr);
 817:Middlewares/Third_Party/LwIP/src/core/ipv4/etharp.c ****     mcastaddr.addr[5] = ip4_addr4(ipaddr);
 818:Middlewares/Third_Party/LwIP/src/core/ipv4/etharp.c ****     /* destination Ethernet address is multicast */
 819:Middlewares/Third_Party/LwIP/src/core/ipv4/etharp.c ****     dest = &mcastaddr;
 820:Middlewares/Third_Party/LwIP/src/core/ipv4/etharp.c ****     /* unicast destination IP address? */
 821:Middlewares/Third_Party/LwIP/src/core/ipv4/etharp.c ****   } else {
 822:Middlewares/Third_Party/LwIP/src/core/ipv4/etharp.c ****     netif_addr_idx_t i;
 823:Middlewares/Third_Party/LwIP/src/core/ipv4/etharp.c ****     /* outside local network? if so, this can neither be a global broadcast nor
 824:Middlewares/Third_Party/LwIP/src/core/ipv4/etharp.c ****        a subnet broadcast. */
 825:Middlewares/Third_Party/LwIP/src/core/ipv4/etharp.c ****     if (!ip4_addr_netcmp(ipaddr, netif_ip4_addr(netif), netif_ip4_netmask(netif)) &&
 826:Middlewares/Third_Party/LwIP/src/core/ipv4/etharp.c ****         !ip4_addr_islinklocal(ipaddr)) {
 827:Middlewares/Third_Party/LwIP/src/core/ipv4/etharp.c **** #if LWIP_AUTOIP
 828:Middlewares/Third_Party/LwIP/src/core/ipv4/etharp.c ****       struct ip_hdr *iphdr = LWIP_ALIGNMENT_CAST(struct ip_hdr *, q->payload);
 829:Middlewares/Third_Party/LwIP/src/core/ipv4/etharp.c ****       /* According to RFC 3297, chapter 2.6.2 (Forwarding Rules), a packet with
 830:Middlewares/Third_Party/LwIP/src/core/ipv4/etharp.c ****          a link-local source address must always be "directly to its destination
 831:Middlewares/Third_Party/LwIP/src/core/ipv4/etharp.c ****          on the same physical link. The host MUST NOT send the packet to any
 832:Middlewares/Third_Party/LwIP/src/core/ipv4/etharp.c ****          router for forwarding". */
 833:Middlewares/Third_Party/LwIP/src/core/ipv4/etharp.c ****       if (!ip4_addr_islinklocal(&iphdr->src))
 834:Middlewares/Third_Party/LwIP/src/core/ipv4/etharp.c **** #endif /* LWIP_AUTOIP */
 835:Middlewares/Third_Party/LwIP/src/core/ipv4/etharp.c ****       {
 836:Middlewares/Third_Party/LwIP/src/core/ipv4/etharp.c **** #ifdef LWIP_HOOK_ETHARP_GET_GW
 837:Middlewares/Third_Party/LwIP/src/core/ipv4/etharp.c ****         /* For advanced routing, a single default gateway might not be enough, so get
 838:Middlewares/Third_Party/LwIP/src/core/ipv4/etharp.c ****            the IP address of the gateway to handle the current destination address. */
 839:Middlewares/Third_Party/LwIP/src/core/ipv4/etharp.c ****         dst_addr = LWIP_HOOK_ETHARP_GET_GW(netif, ipaddr);
 840:Middlewares/Third_Party/LwIP/src/core/ipv4/etharp.c ****         if (dst_addr == NULL)
 841:Middlewares/Third_Party/LwIP/src/core/ipv4/etharp.c **** #endif /* LWIP_HOOK_ETHARP_GET_GW */
 842:Middlewares/Third_Party/LwIP/src/core/ipv4/etharp.c ****         {
 843:Middlewares/Third_Party/LwIP/src/core/ipv4/etharp.c ****           /* interface has default gateway? */
 844:Middlewares/Third_Party/LwIP/src/core/ipv4/etharp.c ****           if (!ip4_addr_isany_val(*netif_ip4_gw(netif))) {
 845:Middlewares/Third_Party/LwIP/src/core/ipv4/etharp.c ****             /* send to hardware address of default gateway IP address */
 846:Middlewares/Third_Party/LwIP/src/core/ipv4/etharp.c ****             dst_addr = netif_ip4_gw(netif);
 847:Middlewares/Third_Party/LwIP/src/core/ipv4/etharp.c ****             /* no default gateway available */
 848:Middlewares/Third_Party/LwIP/src/core/ipv4/etharp.c ****           } else {
 849:Middlewares/Third_Party/LwIP/src/core/ipv4/etharp.c ****             /* no route to destination error (default gateway missing) */
 850:Middlewares/Third_Party/LwIP/src/core/ipv4/etharp.c ****             return ERR_RTE;
 851:Middlewares/Third_Party/LwIP/src/core/ipv4/etharp.c ****           }
 852:Middlewares/Third_Party/LwIP/src/core/ipv4/etharp.c ****         }
 853:Middlewares/Third_Party/LwIP/src/core/ipv4/etharp.c ****       }
 854:Middlewares/Third_Party/LwIP/src/core/ipv4/etharp.c ****     }
 855:Middlewares/Third_Party/LwIP/src/core/ipv4/etharp.c **** #if LWIP_NETIF_HWADDRHINT
 856:Middlewares/Third_Party/LwIP/src/core/ipv4/etharp.c ****     if (netif->hints != NULL) {
 857:Middlewares/Third_Party/LwIP/src/core/ipv4/etharp.c ****       /* per-pcb cached entry was given */
 858:Middlewares/Third_Party/LwIP/src/core/ipv4/etharp.c ****       netif_addr_idx_t etharp_cached_entry = netif->hints->addr_hint;
 859:Middlewares/Third_Party/LwIP/src/core/ipv4/etharp.c ****       if (etharp_cached_entry < ARP_TABLE_SIZE) {
 860:Middlewares/Third_Party/LwIP/src/core/ipv4/etharp.c **** #endif /* LWIP_NETIF_HWADDRHINT */
 861:Middlewares/Third_Party/LwIP/src/core/ipv4/etharp.c ****         if ((arp_table[etharp_cached_entry].state >= ETHARP_STATE_STABLE) &&
 862:Middlewares/Third_Party/LwIP/src/core/ipv4/etharp.c **** #if ETHARP_TABLE_MATCH_NETIF
 863:Middlewares/Third_Party/LwIP/src/core/ipv4/etharp.c ****             (arp_table[etharp_cached_entry].netif == netif) &&
 864:Middlewares/Third_Party/LwIP/src/core/ipv4/etharp.c **** #endif
 865:Middlewares/Third_Party/LwIP/src/core/ipv4/etharp.c ****             (ip4_addr_cmp(dst_addr, &arp_table[etharp_cached_entry].ipaddr))) {
 866:Middlewares/Third_Party/LwIP/src/core/ipv4/etharp.c ****           /* the per-pcb-cached entry is stable and the right one! */
 867:Middlewares/Third_Party/LwIP/src/core/ipv4/etharp.c ****           ETHARP_STATS_INC(etharp.cachehit);
ARM GAS  D:\Dev\msys64\tmp\ccwKvaRW.s 			page 31


 868:Middlewares/Third_Party/LwIP/src/core/ipv4/etharp.c ****           return etharp_output_to_arp_index(netif, q, etharp_cached_entry);
 869:Middlewares/Third_Party/LwIP/src/core/ipv4/etharp.c ****         }
 870:Middlewares/Third_Party/LwIP/src/core/ipv4/etharp.c **** #if LWIP_NETIF_HWADDRHINT
 871:Middlewares/Third_Party/LwIP/src/core/ipv4/etharp.c ****       }
 872:Middlewares/Third_Party/LwIP/src/core/ipv4/etharp.c ****     }
 873:Middlewares/Third_Party/LwIP/src/core/ipv4/etharp.c **** #endif /* LWIP_NETIF_HWADDRHINT */
 874:Middlewares/Third_Party/LwIP/src/core/ipv4/etharp.c **** 
 875:Middlewares/Third_Party/LwIP/src/core/ipv4/etharp.c ****     /* find stable entry: do this here since this is a critical path for
 876:Middlewares/Third_Party/LwIP/src/core/ipv4/etharp.c ****        throughput and etharp_find_entry() is kind of slow */
 877:Middlewares/Third_Party/LwIP/src/core/ipv4/etharp.c ****     for (i = 0; i < ARP_TABLE_SIZE; i++) {
 878:Middlewares/Third_Party/LwIP/src/core/ipv4/etharp.c ****       if ((arp_table[i].state >= ETHARP_STATE_STABLE) &&
 879:Middlewares/Third_Party/LwIP/src/core/ipv4/etharp.c **** #if ETHARP_TABLE_MATCH_NETIF
 880:Middlewares/Third_Party/LwIP/src/core/ipv4/etharp.c ****           (arp_table[i].netif == netif) &&
 881:Middlewares/Third_Party/LwIP/src/core/ipv4/etharp.c **** #endif
 882:Middlewares/Third_Party/LwIP/src/core/ipv4/etharp.c ****           (ip4_addr_cmp(dst_addr, &arp_table[i].ipaddr))) {
 883:Middlewares/Third_Party/LwIP/src/core/ipv4/etharp.c ****         /* found an existing, stable entry */
 884:Middlewares/Third_Party/LwIP/src/core/ipv4/etharp.c ****         ETHARP_SET_ADDRHINT(netif, i);
 885:Middlewares/Third_Party/LwIP/src/core/ipv4/etharp.c ****         return etharp_output_to_arp_index(netif, q, i);
 886:Middlewares/Third_Party/LwIP/src/core/ipv4/etharp.c ****       }
 887:Middlewares/Third_Party/LwIP/src/core/ipv4/etharp.c ****     }
 888:Middlewares/Third_Party/LwIP/src/core/ipv4/etharp.c ****     /* no stable entry found, use the (slower) query function:
 889:Middlewares/Third_Party/LwIP/src/core/ipv4/etharp.c ****        queue on destination Ethernet address belonging to ipaddr */
 890:Middlewares/Third_Party/LwIP/src/core/ipv4/etharp.c ****     return etharp_query(netif, dst_addr, q);
 891:Middlewares/Third_Party/LwIP/src/core/ipv4/etharp.c ****   }
 892:Middlewares/Third_Party/LwIP/src/core/ipv4/etharp.c **** 
 893:Middlewares/Third_Party/LwIP/src/core/ipv4/etharp.c ****   /* continuation for multicast/broadcast destinations */
 894:Middlewares/Third_Party/LwIP/src/core/ipv4/etharp.c ****   /* obtain source Ethernet address of the given interface */
 895:Middlewares/Third_Party/LwIP/src/core/ipv4/etharp.c ****   /* send packet directly on the link */
 896:Middlewares/Third_Party/LwIP/src/core/ipv4/etharp.c ****   return ethernet_output(netif, q, (struct eth_addr *)(netif->hwaddr), dest, ETHTYPE_IP);
 897:Middlewares/Third_Party/LwIP/src/core/ipv4/etharp.c **** }
 898:Middlewares/Third_Party/LwIP/src/core/ipv4/etharp.c **** 
 899:Middlewares/Third_Party/LwIP/src/core/ipv4/etharp.c **** /**
 900:Middlewares/Third_Party/LwIP/src/core/ipv4/etharp.c ****  * Send an ARP request for the given IP address and/or queue a packet.
 901:Middlewares/Third_Party/LwIP/src/core/ipv4/etharp.c ****  *
 902:Middlewares/Third_Party/LwIP/src/core/ipv4/etharp.c ****  * If the IP address was not yet in the cache, a pending ARP cache entry
 903:Middlewares/Third_Party/LwIP/src/core/ipv4/etharp.c ****  * is added and an ARP request is sent for the given address. The packet
 904:Middlewares/Third_Party/LwIP/src/core/ipv4/etharp.c ****  * is queued on this entry.
 905:Middlewares/Third_Party/LwIP/src/core/ipv4/etharp.c ****  *
 906:Middlewares/Third_Party/LwIP/src/core/ipv4/etharp.c ****  * If the IP address was already pending in the cache, a new ARP request
 907:Middlewares/Third_Party/LwIP/src/core/ipv4/etharp.c ****  * is sent for the given address. The packet is queued on this entry.
 908:Middlewares/Third_Party/LwIP/src/core/ipv4/etharp.c ****  *
 909:Middlewares/Third_Party/LwIP/src/core/ipv4/etharp.c ****  * If the IP address was already stable in the cache, and a packet is
 910:Middlewares/Third_Party/LwIP/src/core/ipv4/etharp.c ****  * given, it is directly sent and no ARP request is sent out.
 911:Middlewares/Third_Party/LwIP/src/core/ipv4/etharp.c ****  *
 912:Middlewares/Third_Party/LwIP/src/core/ipv4/etharp.c ****  * If the IP address was already stable in the cache, and no packet is
 913:Middlewares/Third_Party/LwIP/src/core/ipv4/etharp.c ****  * given, an ARP request is sent out.
 914:Middlewares/Third_Party/LwIP/src/core/ipv4/etharp.c ****  *
 915:Middlewares/Third_Party/LwIP/src/core/ipv4/etharp.c ****  * @param netif The lwIP network interface on which ipaddr
 916:Middlewares/Third_Party/LwIP/src/core/ipv4/etharp.c ****  * must be queried for.
 917:Middlewares/Third_Party/LwIP/src/core/ipv4/etharp.c ****  * @param ipaddr The IP address to be resolved.
 918:Middlewares/Third_Party/LwIP/src/core/ipv4/etharp.c ****  * @param q If non-NULL, a pbuf that must be delivered to the IP address.
 919:Middlewares/Third_Party/LwIP/src/core/ipv4/etharp.c ****  * q is not freed by this function.
 920:Middlewares/Third_Party/LwIP/src/core/ipv4/etharp.c ****  *
 921:Middlewares/Third_Party/LwIP/src/core/ipv4/etharp.c ****  * @note q must only be ONE packet, not a packet queue!
 922:Middlewares/Third_Party/LwIP/src/core/ipv4/etharp.c ****  *
 923:Middlewares/Third_Party/LwIP/src/core/ipv4/etharp.c ****  * @return
 924:Middlewares/Third_Party/LwIP/src/core/ipv4/etharp.c ****  * - ERR_BUF Could not make room for Ethernet header.
ARM GAS  D:\Dev\msys64\tmp\ccwKvaRW.s 			page 32


 925:Middlewares/Third_Party/LwIP/src/core/ipv4/etharp.c ****  * - ERR_MEM Hardware address unknown, and no more ARP entries available
 926:Middlewares/Third_Party/LwIP/src/core/ipv4/etharp.c ****  *   to query for address or queue the packet.
 927:Middlewares/Third_Party/LwIP/src/core/ipv4/etharp.c ****  * - ERR_MEM Could not queue packet due to memory shortage.
 928:Middlewares/Third_Party/LwIP/src/core/ipv4/etharp.c ****  * - ERR_RTE No route to destination (no gateway to external networks).
 929:Middlewares/Third_Party/LwIP/src/core/ipv4/etharp.c ****  * - ERR_ARG Non-unicast address given, those will not appear in ARP cache.
 930:Middlewares/Third_Party/LwIP/src/core/ipv4/etharp.c ****  *
 931:Middlewares/Third_Party/LwIP/src/core/ipv4/etharp.c ****  */
 932:Middlewares/Third_Party/LwIP/src/core/ipv4/etharp.c **** err_t
 933:Middlewares/Third_Party/LwIP/src/core/ipv4/etharp.c **** etharp_query(struct netif *netif, const ip4_addr_t *ipaddr, struct pbuf *q)
 934:Middlewares/Third_Party/LwIP/src/core/ipv4/etharp.c **** {
 935:Middlewares/Third_Party/LwIP/src/core/ipv4/etharp.c ****   struct eth_addr *srcaddr = (struct eth_addr *)netif->hwaddr;
 936:Middlewares/Third_Party/LwIP/src/core/ipv4/etharp.c ****   err_t result = ERR_MEM;
 937:Middlewares/Third_Party/LwIP/src/core/ipv4/etharp.c ****   int is_new_entry = 0;
 938:Middlewares/Third_Party/LwIP/src/core/ipv4/etharp.c ****   s16_t i_err;
 939:Middlewares/Third_Party/LwIP/src/core/ipv4/etharp.c ****   netif_addr_idx_t i;
 940:Middlewares/Third_Party/LwIP/src/core/ipv4/etharp.c **** 
 941:Middlewares/Third_Party/LwIP/src/core/ipv4/etharp.c ****   /* non-unicast address? */
 942:Middlewares/Third_Party/LwIP/src/core/ipv4/etharp.c ****   if (ip4_addr_isbroadcast(ipaddr, netif) ||
 943:Middlewares/Third_Party/LwIP/src/core/ipv4/etharp.c ****       ip4_addr_ismulticast(ipaddr) ||
 944:Middlewares/Third_Party/LwIP/src/core/ipv4/etharp.c ****       ip4_addr_isany(ipaddr)) {
 945:Middlewares/Third_Party/LwIP/src/core/ipv4/etharp.c ****     LWIP_DEBUGF(ETHARP_DEBUG | LWIP_DBG_TRACE, ("etharp_query: will not add non-unicast IP address 
 946:Middlewares/Third_Party/LwIP/src/core/ipv4/etharp.c ****     return ERR_ARG;
 947:Middlewares/Third_Party/LwIP/src/core/ipv4/etharp.c ****   }
 948:Middlewares/Third_Party/LwIP/src/core/ipv4/etharp.c **** 
 949:Middlewares/Third_Party/LwIP/src/core/ipv4/etharp.c ****   /* find entry in ARP cache, ask to create entry if queueing packet */
 950:Middlewares/Third_Party/LwIP/src/core/ipv4/etharp.c ****   i_err = etharp_find_entry(ipaddr, ETHARP_FLAG_TRY_HARD, netif);
 951:Middlewares/Third_Party/LwIP/src/core/ipv4/etharp.c **** 
 952:Middlewares/Third_Party/LwIP/src/core/ipv4/etharp.c ****   /* could not find or create entry? */
 953:Middlewares/Third_Party/LwIP/src/core/ipv4/etharp.c ****   if (i_err < 0) {
 954:Middlewares/Third_Party/LwIP/src/core/ipv4/etharp.c ****     LWIP_DEBUGF(ETHARP_DEBUG | LWIP_DBG_TRACE, ("etharp_query: could not create ARP entry\n"));
 955:Middlewares/Third_Party/LwIP/src/core/ipv4/etharp.c ****     if (q) {
 956:Middlewares/Third_Party/LwIP/src/core/ipv4/etharp.c ****       LWIP_DEBUGF(ETHARP_DEBUG | LWIP_DBG_TRACE, ("etharp_query: packet dropped\n"));
 957:Middlewares/Third_Party/LwIP/src/core/ipv4/etharp.c ****       ETHARP_STATS_INC(etharp.memerr);
 958:Middlewares/Third_Party/LwIP/src/core/ipv4/etharp.c ****     }
 959:Middlewares/Third_Party/LwIP/src/core/ipv4/etharp.c ****     return (err_t)i_err;
 960:Middlewares/Third_Party/LwIP/src/core/ipv4/etharp.c ****   }
 961:Middlewares/Third_Party/LwIP/src/core/ipv4/etharp.c ****   LWIP_ASSERT("type overflow", (size_t)i_err < NETIF_ADDR_IDX_MAX);
 962:Middlewares/Third_Party/LwIP/src/core/ipv4/etharp.c ****   i = (netif_addr_idx_t)i_err;
 963:Middlewares/Third_Party/LwIP/src/core/ipv4/etharp.c **** 
 964:Middlewares/Third_Party/LwIP/src/core/ipv4/etharp.c ****   /* mark a fresh entry as pending (we just sent a request) */
 965:Middlewares/Third_Party/LwIP/src/core/ipv4/etharp.c ****   if (arp_table[i].state == ETHARP_STATE_EMPTY) {
 966:Middlewares/Third_Party/LwIP/src/core/ipv4/etharp.c ****     is_new_entry = 1;
 967:Middlewares/Third_Party/LwIP/src/core/ipv4/etharp.c ****     arp_table[i].state = ETHARP_STATE_PENDING;
 968:Middlewares/Third_Party/LwIP/src/core/ipv4/etharp.c ****     /* record network interface for re-sending arp request in etharp_tmr */
 969:Middlewares/Third_Party/LwIP/src/core/ipv4/etharp.c ****     arp_table[i].netif = netif;
 970:Middlewares/Third_Party/LwIP/src/core/ipv4/etharp.c ****   }
 971:Middlewares/Third_Party/LwIP/src/core/ipv4/etharp.c **** 
 972:Middlewares/Third_Party/LwIP/src/core/ipv4/etharp.c ****   /* { i is either a STABLE or (new or existing) PENDING entry } */
 973:Middlewares/Third_Party/LwIP/src/core/ipv4/etharp.c ****   LWIP_ASSERT("arp_table[i].state == PENDING or STABLE",
 974:Middlewares/Third_Party/LwIP/src/core/ipv4/etharp.c ****               ((arp_table[i].state == ETHARP_STATE_PENDING) ||
 975:Middlewares/Third_Party/LwIP/src/core/ipv4/etharp.c ****                (arp_table[i].state >= ETHARP_STATE_STABLE)));
 976:Middlewares/Third_Party/LwIP/src/core/ipv4/etharp.c **** 
 977:Middlewares/Third_Party/LwIP/src/core/ipv4/etharp.c ****   /* do we have a new entry? or an implicit query request? */
 978:Middlewares/Third_Party/LwIP/src/core/ipv4/etharp.c ****   if (is_new_entry || (q == NULL)) {
 979:Middlewares/Third_Party/LwIP/src/core/ipv4/etharp.c ****     /* try to resolve it; send out ARP request */
 980:Middlewares/Third_Party/LwIP/src/core/ipv4/etharp.c ****     result = etharp_request(netif, ipaddr);
 981:Middlewares/Third_Party/LwIP/src/core/ipv4/etharp.c ****     if (result != ERR_OK) {
ARM GAS  D:\Dev\msys64\tmp\ccwKvaRW.s 			page 33


 982:Middlewares/Third_Party/LwIP/src/core/ipv4/etharp.c ****       /* ARP request couldn't be sent */
 983:Middlewares/Third_Party/LwIP/src/core/ipv4/etharp.c ****       /* We don't re-send arp request in etharp_tmr, but we still queue packets,
 984:Middlewares/Third_Party/LwIP/src/core/ipv4/etharp.c ****          since this failure could be temporary, and the next packet calling
 985:Middlewares/Third_Party/LwIP/src/core/ipv4/etharp.c ****          etharp_query again could lead to sending the queued packets. */
 986:Middlewares/Third_Party/LwIP/src/core/ipv4/etharp.c ****     }
 987:Middlewares/Third_Party/LwIP/src/core/ipv4/etharp.c ****     if (q == NULL) {
 988:Middlewares/Third_Party/LwIP/src/core/ipv4/etharp.c ****       return result;
 989:Middlewares/Third_Party/LwIP/src/core/ipv4/etharp.c ****     }
 990:Middlewares/Third_Party/LwIP/src/core/ipv4/etharp.c ****   }
 991:Middlewares/Third_Party/LwIP/src/core/ipv4/etharp.c **** 
 992:Middlewares/Third_Party/LwIP/src/core/ipv4/etharp.c ****   /* packet given? */
 993:Middlewares/Third_Party/LwIP/src/core/ipv4/etharp.c ****   LWIP_ASSERT("q != NULL", q != NULL);
 994:Middlewares/Third_Party/LwIP/src/core/ipv4/etharp.c ****   /* stable entry? */
 995:Middlewares/Third_Party/LwIP/src/core/ipv4/etharp.c ****   if (arp_table[i].state >= ETHARP_STATE_STABLE) {
 996:Middlewares/Third_Party/LwIP/src/core/ipv4/etharp.c ****     /* we have a valid IP->Ethernet address mapping */
 997:Middlewares/Third_Party/LwIP/src/core/ipv4/etharp.c ****     ETHARP_SET_ADDRHINT(netif, i);
 998:Middlewares/Third_Party/LwIP/src/core/ipv4/etharp.c ****     /* send the packet */
 999:Middlewares/Third_Party/LwIP/src/core/ipv4/etharp.c ****     result = ethernet_output(netif, q, srcaddr, &(arp_table[i].ethaddr), ETHTYPE_IP);
1000:Middlewares/Third_Party/LwIP/src/core/ipv4/etharp.c ****     /* pending entry? (either just created or already pending */
1001:Middlewares/Third_Party/LwIP/src/core/ipv4/etharp.c ****   } else if (arp_table[i].state == ETHARP_STATE_PENDING) {
1002:Middlewares/Third_Party/LwIP/src/core/ipv4/etharp.c ****     /* entry is still pending, queue the given packet 'q' */
1003:Middlewares/Third_Party/LwIP/src/core/ipv4/etharp.c ****     struct pbuf *p;
1004:Middlewares/Third_Party/LwIP/src/core/ipv4/etharp.c ****     int copy_needed = 0;
1005:Middlewares/Third_Party/LwIP/src/core/ipv4/etharp.c ****     /* IF q includes a pbuf that must be copied, copy the whole chain into a
1006:Middlewares/Third_Party/LwIP/src/core/ipv4/etharp.c ****      * new PBUF_RAM. See the definition of PBUF_NEEDS_COPY for details. */
1007:Middlewares/Third_Party/LwIP/src/core/ipv4/etharp.c ****     p = q;
1008:Middlewares/Third_Party/LwIP/src/core/ipv4/etharp.c ****     while (p) {
1009:Middlewares/Third_Party/LwIP/src/core/ipv4/etharp.c ****       LWIP_ASSERT("no packet queues allowed!", (p->len != p->tot_len) || (p->next == 0));
1010:Middlewares/Third_Party/LwIP/src/core/ipv4/etharp.c ****       if (PBUF_NEEDS_COPY(p)) {
1011:Middlewares/Third_Party/LwIP/src/core/ipv4/etharp.c ****         copy_needed = 1;
1012:Middlewares/Third_Party/LwIP/src/core/ipv4/etharp.c ****         break;
1013:Middlewares/Third_Party/LwIP/src/core/ipv4/etharp.c ****       }
1014:Middlewares/Third_Party/LwIP/src/core/ipv4/etharp.c ****       p = p->next;
1015:Middlewares/Third_Party/LwIP/src/core/ipv4/etharp.c ****     }
1016:Middlewares/Third_Party/LwIP/src/core/ipv4/etharp.c ****     if (copy_needed) {
1017:Middlewares/Third_Party/LwIP/src/core/ipv4/etharp.c ****       /* copy the whole packet into new pbufs */
1018:Middlewares/Third_Party/LwIP/src/core/ipv4/etharp.c ****       p = pbuf_clone(PBUF_LINK, PBUF_RAM, q);
1019:Middlewares/Third_Party/LwIP/src/core/ipv4/etharp.c ****     } else {
1020:Middlewares/Third_Party/LwIP/src/core/ipv4/etharp.c ****       /* referencing the old pbuf is enough */
1021:Middlewares/Third_Party/LwIP/src/core/ipv4/etharp.c ****       p = q;
1022:Middlewares/Third_Party/LwIP/src/core/ipv4/etharp.c ****       pbuf_ref(p);
1023:Middlewares/Third_Party/LwIP/src/core/ipv4/etharp.c ****     }
1024:Middlewares/Third_Party/LwIP/src/core/ipv4/etharp.c ****     /* packet could be taken over? */
1025:Middlewares/Third_Party/LwIP/src/core/ipv4/etharp.c ****     if (p != NULL) {
1026:Middlewares/Third_Party/LwIP/src/core/ipv4/etharp.c ****       /* queue packet ... */
1027:Middlewares/Third_Party/LwIP/src/core/ipv4/etharp.c **** #if ARP_QUEUEING
1028:Middlewares/Third_Party/LwIP/src/core/ipv4/etharp.c ****       struct etharp_q_entry *new_entry;
1029:Middlewares/Third_Party/LwIP/src/core/ipv4/etharp.c ****       /* allocate a new arp queue entry */
1030:Middlewares/Third_Party/LwIP/src/core/ipv4/etharp.c ****       new_entry = (struct etharp_q_entry *)memp_malloc(MEMP_ARP_QUEUE);
1031:Middlewares/Third_Party/LwIP/src/core/ipv4/etharp.c ****       if (new_entry != NULL) {
1032:Middlewares/Third_Party/LwIP/src/core/ipv4/etharp.c ****         unsigned int qlen = 0;
1033:Middlewares/Third_Party/LwIP/src/core/ipv4/etharp.c ****         new_entry->next = 0;
1034:Middlewares/Third_Party/LwIP/src/core/ipv4/etharp.c ****         new_entry->p = p;
1035:Middlewares/Third_Party/LwIP/src/core/ipv4/etharp.c ****         if (arp_table[i].q != NULL) {
1036:Middlewares/Third_Party/LwIP/src/core/ipv4/etharp.c ****           /* queue was already existent, append the new entry to the end */
1037:Middlewares/Third_Party/LwIP/src/core/ipv4/etharp.c ****           struct etharp_q_entry *r;
1038:Middlewares/Third_Party/LwIP/src/core/ipv4/etharp.c ****           r = arp_table[i].q;
ARM GAS  D:\Dev\msys64\tmp\ccwKvaRW.s 			page 34


1039:Middlewares/Third_Party/LwIP/src/core/ipv4/etharp.c ****           qlen++;
1040:Middlewares/Third_Party/LwIP/src/core/ipv4/etharp.c ****           while (r->next != NULL) {
1041:Middlewares/Third_Party/LwIP/src/core/ipv4/etharp.c ****             r = r->next;
1042:Middlewares/Third_Party/LwIP/src/core/ipv4/etharp.c ****             qlen++;
1043:Middlewares/Third_Party/LwIP/src/core/ipv4/etharp.c ****           }
1044:Middlewares/Third_Party/LwIP/src/core/ipv4/etharp.c ****           r->next = new_entry;
1045:Middlewares/Third_Party/LwIP/src/core/ipv4/etharp.c ****         } else {
1046:Middlewares/Third_Party/LwIP/src/core/ipv4/etharp.c ****           /* queue did not exist, first item in queue */
1047:Middlewares/Third_Party/LwIP/src/core/ipv4/etharp.c ****           arp_table[i].q = new_entry;
1048:Middlewares/Third_Party/LwIP/src/core/ipv4/etharp.c ****         }
1049:Middlewares/Third_Party/LwIP/src/core/ipv4/etharp.c **** #if ARP_QUEUE_LEN
1050:Middlewares/Third_Party/LwIP/src/core/ipv4/etharp.c ****         if (qlen >= ARP_QUEUE_LEN) {
1051:Middlewares/Third_Party/LwIP/src/core/ipv4/etharp.c ****           struct etharp_q_entry *old;
1052:Middlewares/Third_Party/LwIP/src/core/ipv4/etharp.c ****           old = arp_table[i].q;
1053:Middlewares/Third_Party/LwIP/src/core/ipv4/etharp.c ****           arp_table[i].q = arp_table[i].q->next;
1054:Middlewares/Third_Party/LwIP/src/core/ipv4/etharp.c ****           pbuf_free(old->p);
1055:Middlewares/Third_Party/LwIP/src/core/ipv4/etharp.c ****           memp_free(MEMP_ARP_QUEUE, old);
1056:Middlewares/Third_Party/LwIP/src/core/ipv4/etharp.c ****         }
1057:Middlewares/Third_Party/LwIP/src/core/ipv4/etharp.c **** #endif
1058:Middlewares/Third_Party/LwIP/src/core/ipv4/etharp.c ****         LWIP_DEBUGF(ETHARP_DEBUG | LWIP_DBG_TRACE, ("etharp_query: queued packet %p on ARP entry %"
1059:Middlewares/Third_Party/LwIP/src/core/ipv4/etharp.c ****         result = ERR_OK;
1060:Middlewares/Third_Party/LwIP/src/core/ipv4/etharp.c ****       } else {
1061:Middlewares/Third_Party/LwIP/src/core/ipv4/etharp.c ****         /* the pool MEMP_ARP_QUEUE is empty */
1062:Middlewares/Third_Party/LwIP/src/core/ipv4/etharp.c ****         pbuf_free(p);
1063:Middlewares/Third_Party/LwIP/src/core/ipv4/etharp.c ****         LWIP_DEBUGF(ETHARP_DEBUG | LWIP_DBG_TRACE, ("etharp_query: could not queue a copy of PBUF_R
1064:Middlewares/Third_Party/LwIP/src/core/ipv4/etharp.c ****         result = ERR_MEM;
1065:Middlewares/Third_Party/LwIP/src/core/ipv4/etharp.c ****       }
1066:Middlewares/Third_Party/LwIP/src/core/ipv4/etharp.c **** #else /* ARP_QUEUEING */
1067:Middlewares/Third_Party/LwIP/src/core/ipv4/etharp.c ****       /* always queue one packet per ARP request only, freeing a previously queued packet */
1068:Middlewares/Third_Party/LwIP/src/core/ipv4/etharp.c ****       if (arp_table[i].q != NULL) {
1069:Middlewares/Third_Party/LwIP/src/core/ipv4/etharp.c ****         LWIP_DEBUGF(ETHARP_DEBUG | LWIP_DBG_TRACE, ("etharp_query: dropped previously queued packet
1070:Middlewares/Third_Party/LwIP/src/core/ipv4/etharp.c ****         pbuf_free(arp_table[i].q);
1071:Middlewares/Third_Party/LwIP/src/core/ipv4/etharp.c ****       }
1072:Middlewares/Third_Party/LwIP/src/core/ipv4/etharp.c ****       arp_table[i].q = p;
1073:Middlewares/Third_Party/LwIP/src/core/ipv4/etharp.c ****       result = ERR_OK;
1074:Middlewares/Third_Party/LwIP/src/core/ipv4/etharp.c ****       LWIP_DEBUGF(ETHARP_DEBUG | LWIP_DBG_TRACE, ("etharp_query: queued packet %p on ARP entry %"U1
1075:Middlewares/Third_Party/LwIP/src/core/ipv4/etharp.c **** #endif /* ARP_QUEUEING */
1076:Middlewares/Third_Party/LwIP/src/core/ipv4/etharp.c ****     } else {
1077:Middlewares/Third_Party/LwIP/src/core/ipv4/etharp.c ****       ETHARP_STATS_INC(etharp.memerr);
1078:Middlewares/Third_Party/LwIP/src/core/ipv4/etharp.c ****       LWIP_DEBUGF(ETHARP_DEBUG | LWIP_DBG_TRACE, ("etharp_query: could not queue a copy of PBUF_REF
1079:Middlewares/Third_Party/LwIP/src/core/ipv4/etharp.c ****       result = ERR_MEM;
1080:Middlewares/Third_Party/LwIP/src/core/ipv4/etharp.c ****     }
1081:Middlewares/Third_Party/LwIP/src/core/ipv4/etharp.c ****   }
1082:Middlewares/Third_Party/LwIP/src/core/ipv4/etharp.c ****   return result;
1083:Middlewares/Third_Party/LwIP/src/core/ipv4/etharp.c **** }
1084:Middlewares/Third_Party/LwIP/src/core/ipv4/etharp.c **** 
1085:Middlewares/Third_Party/LwIP/src/core/ipv4/etharp.c **** /**
1086:Middlewares/Third_Party/LwIP/src/core/ipv4/etharp.c ****  * Send a raw ARP packet (opcode and all addresses can be modified)
1087:Middlewares/Third_Party/LwIP/src/core/ipv4/etharp.c ****  *
1088:Middlewares/Third_Party/LwIP/src/core/ipv4/etharp.c ****  * @param netif the lwip network interface on which to send the ARP packet
1089:Middlewares/Third_Party/LwIP/src/core/ipv4/etharp.c ****  * @param ethsrc_addr the source MAC address for the ethernet header
1090:Middlewares/Third_Party/LwIP/src/core/ipv4/etharp.c ****  * @param ethdst_addr the destination MAC address for the ethernet header
1091:Middlewares/Third_Party/LwIP/src/core/ipv4/etharp.c ****  * @param hwsrc_addr the source MAC address for the ARP protocol header
1092:Middlewares/Third_Party/LwIP/src/core/ipv4/etharp.c ****  * @param ipsrc_addr the source IP address for the ARP protocol header
1093:Middlewares/Third_Party/LwIP/src/core/ipv4/etharp.c ****  * @param hwdst_addr the destination MAC address for the ARP protocol header
1094:Middlewares/Third_Party/LwIP/src/core/ipv4/etharp.c ****  * @param ipdst_addr the destination IP address for the ARP protocol header
1095:Middlewares/Third_Party/LwIP/src/core/ipv4/etharp.c ****  * @param opcode the type of the ARP packet
ARM GAS  D:\Dev\msys64\tmp\ccwKvaRW.s 			page 35


1096:Middlewares/Third_Party/LwIP/src/core/ipv4/etharp.c ****  * @return ERR_OK if the ARP packet has been sent
1097:Middlewares/Third_Party/LwIP/src/core/ipv4/etharp.c ****  *         ERR_MEM if the ARP packet couldn't be allocated
1098:Middlewares/Third_Party/LwIP/src/core/ipv4/etharp.c ****  *         any other err_t on failure
1099:Middlewares/Third_Party/LwIP/src/core/ipv4/etharp.c ****  */
1100:Middlewares/Third_Party/LwIP/src/core/ipv4/etharp.c **** static err_t
1101:Middlewares/Third_Party/LwIP/src/core/ipv4/etharp.c **** etharp_raw(struct netif *netif, const struct eth_addr *ethsrc_addr,
1102:Middlewares/Third_Party/LwIP/src/core/ipv4/etharp.c ****            const struct eth_addr *ethdst_addr,
1103:Middlewares/Third_Party/LwIP/src/core/ipv4/etharp.c ****            const struct eth_addr *hwsrc_addr, const ip4_addr_t *ipsrc_addr,
1104:Middlewares/Third_Party/LwIP/src/core/ipv4/etharp.c ****            const struct eth_addr *hwdst_addr, const ip4_addr_t *ipdst_addr,
1105:Middlewares/Third_Party/LwIP/src/core/ipv4/etharp.c ****            const u16_t opcode)
1106:Middlewares/Third_Party/LwIP/src/core/ipv4/etharp.c **** {
 735              		.loc 1 1106 1 is_stmt 1 view -0
 736              		.cfi_startproc
 737              		@ args = 16, pretend = 0, frame = 0
 738              		@ frame_needed = 0, uses_anonymous_args = 0
 739              		.loc 1 1106 1 is_stmt 0 view .LVU197
 740 0000 2DE9F047 		push	{r4, r5, r6, r7, r8, r9, r10, lr}
 741              	.LCFI9:
 742              		.cfi_def_cfa_offset 32
 743              		.cfi_offset 4, -32
 744              		.cfi_offset 5, -28
 745              		.cfi_offset 6, -24
 746              		.cfi_offset 7, -20
 747              		.cfi_offset 8, -16
 748              		.cfi_offset 9, -12
 749              		.cfi_offset 10, -8
 750              		.cfi_offset 14, -4
 751 0004 82B0     		sub	sp, sp, #8
 752              	.LCFI10:
 753              		.cfi_def_cfa_offset 40
 754 0006 0F46     		mov	r7, r1
 755 0008 9046     		mov	r8, r2
 756 000a 1D46     		mov	r5, r3
 757 000c DDF82CA0 		ldr	r10, [sp, #44]
1107:Middlewares/Third_Party/LwIP/src/core/ipv4/etharp.c ****   struct pbuf *p;
 758              		.loc 1 1107 3 is_stmt 1 view .LVU198
1108:Middlewares/Third_Party/LwIP/src/core/ipv4/etharp.c ****   err_t result = ERR_OK;
 759              		.loc 1 1108 3 view .LVU199
 760              	.LVL60:
1109:Middlewares/Third_Party/LwIP/src/core/ipv4/etharp.c ****   struct etharp_hdr *hdr;
 761              		.loc 1 1109 3 view .LVU200
1110:Middlewares/Third_Party/LwIP/src/core/ipv4/etharp.c **** 
1111:Middlewares/Third_Party/LwIP/src/core/ipv4/etharp.c ****   LWIP_ASSERT("netif != NULL", netif != NULL);
 762              		.loc 1 1111 3 view .LVU201
 763              		.loc 1 1111 3 view .LVU202
 764 0010 8146     		mov	r9, r0
 765 0012 0028     		cmp	r0, #0
 766 0014 42D0     		beq	.L64
 767              	.LVL61:
 768              	.L58:
 769              		.loc 1 1111 3 discriminator 3 view .LVU203
 770              		.loc 1 1111 3 discriminator 3 view .LVU204
1112:Middlewares/Third_Party/LwIP/src/core/ipv4/etharp.c **** 
1113:Middlewares/Third_Party/LwIP/src/core/ipv4/etharp.c ****   /* allocate a pbuf for the outgoing ARP request packet */
1114:Middlewares/Third_Party/LwIP/src/core/ipv4/etharp.c ****   p = pbuf_alloc(PBUF_LINK, SIZEOF_ETHARP_HDR, PBUF_RAM);
 771              		.loc 1 1114 3 discriminator 3 view .LVU205
 772              		.loc 1 1114 7 is_stmt 0 discriminator 3 view .LVU206
ARM GAS  D:\Dev\msys64\tmp\ccwKvaRW.s 			page 36


 773 0016 4FF42072 		mov	r2, #640
 774 001a 1C21     		movs	r1, #28
 775 001c 0E20     		movs	r0, #14
 776 001e FFF7FEFF 		bl	pbuf_alloc
 777              	.LVL62:
1115:Middlewares/Third_Party/LwIP/src/core/ipv4/etharp.c ****   /* could allocate a pbuf for an ARP request? */
1116:Middlewares/Third_Party/LwIP/src/core/ipv4/etharp.c ****   if (p == NULL) {
 778              		.loc 1 1116 3 is_stmt 1 discriminator 3 view .LVU207
 779              		.loc 1 1116 6 is_stmt 0 discriminator 3 view .LVU208
 780 0022 0646     		mov	r6, r0
 781 0024 0028     		cmp	r0, #0
 782 0026 51D0     		beq	.L62
1117:Middlewares/Third_Party/LwIP/src/core/ipv4/etharp.c ****     LWIP_DEBUGF(ETHARP_DEBUG | LWIP_DBG_TRACE | LWIP_DBG_LEVEL_SERIOUS,
1118:Middlewares/Third_Party/LwIP/src/core/ipv4/etharp.c ****                 ("etharp_raw: could not allocate pbuf for ARP request.\n"));
1119:Middlewares/Third_Party/LwIP/src/core/ipv4/etharp.c ****     ETHARP_STATS_INC(etharp.memerr);
1120:Middlewares/Third_Party/LwIP/src/core/ipv4/etharp.c ****     return ERR_MEM;
1121:Middlewares/Third_Party/LwIP/src/core/ipv4/etharp.c ****   }
1122:Middlewares/Third_Party/LwIP/src/core/ipv4/etharp.c ****   LWIP_ASSERT("check that first pbuf can hold struct etharp_hdr",
 783              		.loc 1 1122 3 is_stmt 1 view .LVU209
 784              		.loc 1 1122 3 view .LVU210
 785 0028 4389     		ldrh	r3, [r0, #10]
 786 002a 1B2B     		cmp	r3, #27
 787 002c 3ED9     		bls	.L65
 788              	.LVL63:
 789              	.L60:
 790              		.loc 1 1122 3 discriminator 3 view .LVU211
 791              		.loc 1 1122 3 discriminator 3 view .LVU212
1123:Middlewares/Third_Party/LwIP/src/core/ipv4/etharp.c ****               (p->len >= SIZEOF_ETHARP_HDR));
1124:Middlewares/Third_Party/LwIP/src/core/ipv4/etharp.c **** 
1125:Middlewares/Third_Party/LwIP/src/core/ipv4/etharp.c ****   hdr = (struct etharp_hdr *)p->payload;
 792              		.loc 1 1125 3 discriminator 3 view .LVU213
 793              		.loc 1 1125 7 is_stmt 0 discriminator 3 view .LVU214
 794 002e 7468     		ldr	r4, [r6, #4]
 795              	.LVL64:
1126:Middlewares/Third_Party/LwIP/src/core/ipv4/etharp.c ****   LWIP_DEBUGF(ETHARP_DEBUG | LWIP_DBG_TRACE, ("etharp_raw: sending raw ARP packet.\n"));
 796              		.loc 1 1126 88 is_stmt 1 discriminator 3 view .LVU215
1127:Middlewares/Third_Party/LwIP/src/core/ipv4/etharp.c ****   hdr->opcode = lwip_htons(opcode);
 797              		.loc 1 1127 3 discriminator 3 view .LVU216
 798              		.loc 1 1127 17 is_stmt 0 discriminator 3 view .LVU217
 799 0030 BDF83400 		ldrh	r0, [sp, #52]
 800 0034 FFF7FEFF 		bl	lwip_htons
 801              	.LVL65:
 802              		.loc 1 1127 15 discriminator 3 view .LVU218
 803 0038 E080     		strh	r0, [r4, #6]	@ unaligned
1128:Middlewares/Third_Party/LwIP/src/core/ipv4/etharp.c **** 
1129:Middlewares/Third_Party/LwIP/src/core/ipv4/etharp.c ****   LWIP_ASSERT("netif->hwaddr_len must be the same as ETH_HWADDR_LEN for etharp!",
 804              		.loc 1 1129 3 is_stmt 1 discriminator 3 view .LVU219
 805              		.loc 1 1129 3 discriminator 3 view .LVU220
 806 003a 99F83030 		ldrb	r3, [r9, #48]	@ zero_extendqisi2
 807 003e 062B     		cmp	r3, #6
 808 0040 3CD1     		bne	.L66
 809              	.L61:
 810              		.loc 1 1129 3 discriminator 3 view .LVU221
 811              		.loc 1 1129 3 discriminator 3 view .LVU222
1130:Middlewares/Third_Party/LwIP/src/core/ipv4/etharp.c ****               (netif->hwaddr_len == ETH_HWADDR_LEN));
1131:Middlewares/Third_Party/LwIP/src/core/ipv4/etharp.c **** 
1132:Middlewares/Third_Party/LwIP/src/core/ipv4/etharp.c ****   /* Write the ARP MAC-Addresses */
ARM GAS  D:\Dev\msys64\tmp\ccwKvaRW.s 			page 37


1133:Middlewares/Third_Party/LwIP/src/core/ipv4/etharp.c ****   SMEMCPY(&hdr->shwaddr, hwsrc_addr, ETH_HWADDR_LEN);
 812              		.loc 1 1133 3 discriminator 3 view .LVU223
 813 0042 2B68     		ldr	r3, [r5]	@ unaligned
 814 0044 A360     		str	r3, [r4, #8]	@ unaligned
 815 0046 AB88     		ldrh	r3, [r5, #4]	@ unaligned
 816 0048 A381     		strh	r3, [r4, #12]	@ unaligned
1134:Middlewares/Third_Party/LwIP/src/core/ipv4/etharp.c ****   SMEMCPY(&hdr->dhwaddr, hwdst_addr, ETH_HWADDR_LEN);
 817              		.loc 1 1134 3 discriminator 3 view .LVU224
 818 004a DAF80030 		ldr	r3, [r10]	@ unaligned
 819 004e C4F81230 		str	r3, [r4, #18]	@ unaligned
 820 0052 BAF80430 		ldrh	r3, [r10, #4]	@ unaligned
 821 0056 E382     		strh	r3, [r4, #22]	@ unaligned
1135:Middlewares/Third_Party/LwIP/src/core/ipv4/etharp.c ****   /* Copy struct ip4_addr_wordaligned to aligned ip4_addr, to support compilers without
1136:Middlewares/Third_Party/LwIP/src/core/ipv4/etharp.c ****    * structure packing. */
1137:Middlewares/Third_Party/LwIP/src/core/ipv4/etharp.c ****   IPADDR_WORDALIGNED_COPY_FROM_IP4_ADDR_T(&hdr->sipaddr, ipsrc_addr);
 822              		.loc 1 1137 3 discriminator 3 view .LVU225
 823 0058 0A9B     		ldr	r3, [sp, #40]
 824 005a 1B68     		ldr	r3, [r3]	@ unaligned
 825 005c C4F80E30 		str	r3, [r4, #14]	@ unaligned
1138:Middlewares/Third_Party/LwIP/src/core/ipv4/etharp.c ****   IPADDR_WORDALIGNED_COPY_FROM_IP4_ADDR_T(&hdr->dipaddr, ipdst_addr);
 826              		.loc 1 1138 3 discriminator 3 view .LVU226
 827 0060 0C9B     		ldr	r3, [sp, #48]
 828 0062 1B68     		ldr	r3, [r3]	@ unaligned
 829 0064 A361     		str	r3, [r4, #24]	@ unaligned
1139:Middlewares/Third_Party/LwIP/src/core/ipv4/etharp.c **** 
1140:Middlewares/Third_Party/LwIP/src/core/ipv4/etharp.c ****   hdr->hwtype = PP_HTONS(LWIP_IANA_HWTYPE_ETHERNET);
 830              		.loc 1 1140 3 discriminator 3 view .LVU227
 831              		.loc 1 1140 15 is_stmt 0 discriminator 3 view .LVU228
 832 0066 0025     		movs	r5, #0
 833              	.LVL66:
 834              		.loc 1 1140 15 discriminator 3 view .LVU229
 835 0068 2570     		strb	r5, [r4]
 836 006a 0123     		movs	r3, #1
 837 006c 6370     		strb	r3, [r4, #1]
1141:Middlewares/Third_Party/LwIP/src/core/ipv4/etharp.c ****   hdr->proto = PP_HTONS(ETHTYPE_IP);
 838              		.loc 1 1141 3 is_stmt 1 discriminator 3 view .LVU230
 839              		.loc 1 1141 14 is_stmt 0 discriminator 3 view .LVU231
 840 006e 0823     		movs	r3, #8
 841 0070 A370     		strb	r3, [r4, #2]
 842 0072 E570     		strb	r5, [r4, #3]
1142:Middlewares/Third_Party/LwIP/src/core/ipv4/etharp.c ****   /* set hwlen and protolen */
1143:Middlewares/Third_Party/LwIP/src/core/ipv4/etharp.c ****   hdr->hwlen = ETH_HWADDR_LEN;
 843              		.loc 1 1143 3 is_stmt 1 discriminator 3 view .LVU232
 844              		.loc 1 1143 14 is_stmt 0 discriminator 3 view .LVU233
 845 0074 0623     		movs	r3, #6
 846 0076 2371     		strb	r3, [r4, #4]
1144:Middlewares/Third_Party/LwIP/src/core/ipv4/etharp.c ****   hdr->protolen = sizeof(ip4_addr_t);
 847              		.loc 1 1144 3 is_stmt 1 discriminator 3 view .LVU234
 848              		.loc 1 1144 17 is_stmt 0 discriminator 3 view .LVU235
 849 0078 0423     		movs	r3, #4
 850 007a 6371     		strb	r3, [r4, #5]
1145:Middlewares/Third_Party/LwIP/src/core/ipv4/etharp.c **** 
1146:Middlewares/Third_Party/LwIP/src/core/ipv4/etharp.c ****   /* send ARP query */
1147:Middlewares/Third_Party/LwIP/src/core/ipv4/etharp.c **** #if LWIP_AUTOIP
1148:Middlewares/Third_Party/LwIP/src/core/ipv4/etharp.c ****   /* If we are using Link-Local, all ARP packets that contain a Link-Local
1149:Middlewares/Third_Party/LwIP/src/core/ipv4/etharp.c ****    * 'sender IP address' MUST be sent using link-layer broadcast instead of
1150:Middlewares/Third_Party/LwIP/src/core/ipv4/etharp.c ****    * link-layer unicast. (See RFC3927 Section 2.5, last paragraph) */
ARM GAS  D:\Dev\msys64\tmp\ccwKvaRW.s 			page 38


1151:Middlewares/Third_Party/LwIP/src/core/ipv4/etharp.c ****   if (ip4_addr_islinklocal(ipsrc_addr)) {
1152:Middlewares/Third_Party/LwIP/src/core/ipv4/etharp.c ****     ethernet_output(netif, p, ethsrc_addr, &ethbroadcast, ETHTYPE_ARP);
1153:Middlewares/Third_Party/LwIP/src/core/ipv4/etharp.c ****   } else
1154:Middlewares/Third_Party/LwIP/src/core/ipv4/etharp.c **** #endif /* LWIP_AUTOIP */
1155:Middlewares/Third_Party/LwIP/src/core/ipv4/etharp.c ****   {
1156:Middlewares/Third_Party/LwIP/src/core/ipv4/etharp.c ****     ethernet_output(netif, p, ethsrc_addr, ethdst_addr, ETHTYPE_ARP);
 851              		.loc 1 1156 5 is_stmt 1 discriminator 3 view .LVU236
 852 007c 40F60603 		movw	r3, #2054
 853 0080 0093     		str	r3, [sp]
 854 0082 4346     		mov	r3, r8
 855 0084 3A46     		mov	r2, r7
 856 0086 3146     		mov	r1, r6
 857 0088 4846     		mov	r0, r9
 858 008a FFF7FEFF 		bl	ethernet_output
 859              	.LVL67:
1157:Middlewares/Third_Party/LwIP/src/core/ipv4/etharp.c ****   }
1158:Middlewares/Third_Party/LwIP/src/core/ipv4/etharp.c **** 
1159:Middlewares/Third_Party/LwIP/src/core/ipv4/etharp.c ****   ETHARP_STATS_INC(etharp.xmit);
 860              		.loc 1 1159 32 discriminator 3 view .LVU237
1160:Middlewares/Third_Party/LwIP/src/core/ipv4/etharp.c ****   /* free ARP query packet */
1161:Middlewares/Third_Party/LwIP/src/core/ipv4/etharp.c ****   pbuf_free(p);
 861              		.loc 1 1161 3 discriminator 3 view .LVU238
 862 008e 3046     		mov	r0, r6
 863 0090 FFF7FEFF 		bl	pbuf_free
 864              	.LVL68:
1162:Middlewares/Third_Party/LwIP/src/core/ipv4/etharp.c ****   p = NULL;
 865              		.loc 1 1162 3 discriminator 3 view .LVU239
1163:Middlewares/Third_Party/LwIP/src/core/ipv4/etharp.c ****   /* could not allocate pbuf for ARP request */
1164:Middlewares/Third_Party/LwIP/src/core/ipv4/etharp.c **** 
1165:Middlewares/Third_Party/LwIP/src/core/ipv4/etharp.c ****   return result;
 866              		.loc 1 1165 3 discriminator 3 view .LVU240
 867              		.loc 1 1165 10 is_stmt 0 discriminator 3 view .LVU241
 868 0094 2846     		mov	r0, r5
 869              	.LVL69:
 870              	.L59:
1166:Middlewares/Third_Party/LwIP/src/core/ipv4/etharp.c **** }
 871              		.loc 1 1166 1 view .LVU242
 872 0096 02B0     		add	sp, sp, #8
 873              	.LCFI11:
 874              		.cfi_remember_state
 875              		.cfi_def_cfa_offset 32
 876              		@ sp needed
 877 0098 BDE8F087 		pop	{r4, r5, r6, r7, r8, r9, r10, pc}
 878              	.LVL70:
 879              	.L64:
 880              	.LCFI12:
 881              		.cfi_restore_state
1111:Middlewares/Third_Party/LwIP/src/core/ipv4/etharp.c **** 
 882              		.loc 1 1111 3 is_stmt 1 discriminator 1 view .LVU243
1111:Middlewares/Third_Party/LwIP/src/core/ipv4/etharp.c **** 
 883              		.loc 1 1111 3 discriminator 1 view .LVU244
 884 009c 0D4B     		ldr	r3, .L67
 885              	.LVL71:
1111:Middlewares/Third_Party/LwIP/src/core/ipv4/etharp.c **** 
 886              		.loc 1 1111 3 is_stmt 0 discriminator 1 view .LVU245
 887 009e 40F25742 		movw	r2, #1111
 888              	.LVL72:
ARM GAS  D:\Dev\msys64\tmp\ccwKvaRW.s 			page 39


1111:Middlewares/Third_Party/LwIP/src/core/ipv4/etharp.c **** 
 889              		.loc 1 1111 3 discriminator 1 view .LVU246
 890 00a2 0D49     		ldr	r1, .L67+4
 891              	.LVL73:
1111:Middlewares/Third_Party/LwIP/src/core/ipv4/etharp.c **** 
 892              		.loc 1 1111 3 discriminator 1 view .LVU247
 893 00a4 0D48     		ldr	r0, .L67+8
 894              	.LVL74:
1111:Middlewares/Third_Party/LwIP/src/core/ipv4/etharp.c **** 
 895              		.loc 1 1111 3 discriminator 1 view .LVU248
 896 00a6 FFF7FEFF 		bl	printf
 897              	.LVL75:
 898 00aa B4E7     		b	.L58
 899              	.LVL76:
 900              	.L65:
1122:Middlewares/Third_Party/LwIP/src/core/ipv4/etharp.c ****               (p->len >= SIZEOF_ETHARP_HDR));
 901              		.loc 1 1122 3 is_stmt 1 discriminator 1 view .LVU249
1122:Middlewares/Third_Party/LwIP/src/core/ipv4/etharp.c ****               (p->len >= SIZEOF_ETHARP_HDR));
 902              		.loc 1 1122 3 discriminator 1 view .LVU250
 903 00ac 094B     		ldr	r3, .L67
 904 00ae 40F26242 		movw	r2, #1122
 905 00b2 0B49     		ldr	r1, .L67+12
 906 00b4 0948     		ldr	r0, .L67+8
 907              	.LVL77:
1122:Middlewares/Third_Party/LwIP/src/core/ipv4/etharp.c ****               (p->len >= SIZEOF_ETHARP_HDR));
 908              		.loc 1 1122 3 is_stmt 0 discriminator 1 view .LVU251
 909 00b6 FFF7FEFF 		bl	printf
 910              	.LVL78:
 911 00ba B8E7     		b	.L60
 912              	.LVL79:
 913              	.L66:
1129:Middlewares/Third_Party/LwIP/src/core/ipv4/etharp.c ****               (netif->hwaddr_len == ETH_HWADDR_LEN));
 914              		.loc 1 1129 3 is_stmt 1 discriminator 1 view .LVU252
1129:Middlewares/Third_Party/LwIP/src/core/ipv4/etharp.c ****               (netif->hwaddr_len == ETH_HWADDR_LEN));
 915              		.loc 1 1129 3 discriminator 1 view .LVU253
 916 00bc 054B     		ldr	r3, .L67
 917 00be 40F26942 		movw	r2, #1129
 918 00c2 0849     		ldr	r1, .L67+16
 919 00c4 0548     		ldr	r0, .L67+8
 920 00c6 FFF7FEFF 		bl	printf
 921              	.LVL80:
 922 00ca BAE7     		b	.L61
 923              	.LVL81:
 924              	.L62:
1120:Middlewares/Third_Party/LwIP/src/core/ipv4/etharp.c ****   }
 925              		.loc 1 1120 12 is_stmt 0 view .LVU254
 926 00cc 4FF0FF30 		mov	r0, #-1
 927              	.LVL82:
1120:Middlewares/Third_Party/LwIP/src/core/ipv4/etharp.c ****   }
 928              		.loc 1 1120 12 view .LVU255
 929 00d0 E1E7     		b	.L59
 930              	.L68:
 931 00d2 00BF     		.align	2
 932              	.L67:
 933 00d4 00000000 		.word	.LC0
 934 00d8 00000000 		.word	.LC7
 935 00dc 74000000 		.word	.LC2
ARM GAS  D:\Dev\msys64\tmp\ccwKvaRW.s 			page 40


 936 00e0 10000000 		.word	.LC8
 937 00e4 44000000 		.word	.LC9
 938              		.cfi_endproc
 939              	.LFE36:
 941              		.section	.text.etharp_request_dst,"ax",%progbits
 942              		.align	1
 943              		.syntax unified
 944              		.thumb
 945              		.thumb_func
 946              		.fpu fpv5-sp-d16
 948              	etharp_request_dst:
 949              	.LVL83:
 950              	.LFB37:
1167:Middlewares/Third_Party/LwIP/src/core/ipv4/etharp.c **** 
1168:Middlewares/Third_Party/LwIP/src/core/ipv4/etharp.c **** /**
1169:Middlewares/Third_Party/LwIP/src/core/ipv4/etharp.c ****  * Send an ARP request packet asking for ipaddr to a specific eth address.
1170:Middlewares/Third_Party/LwIP/src/core/ipv4/etharp.c ****  * Used to send unicast request to refresh the ARP table just before an entry
1171:Middlewares/Third_Party/LwIP/src/core/ipv4/etharp.c ****  * times out
1172:Middlewares/Third_Party/LwIP/src/core/ipv4/etharp.c ****  *
1173:Middlewares/Third_Party/LwIP/src/core/ipv4/etharp.c ****  * @param netif the lwip network interface on which to send the request
1174:Middlewares/Third_Party/LwIP/src/core/ipv4/etharp.c ****  * @param ipaddr the IP address for which to ask
1175:Middlewares/Third_Party/LwIP/src/core/ipv4/etharp.c ****  * @param hw_dst_addr the ethernet address to send this packet to
1176:Middlewares/Third_Party/LwIP/src/core/ipv4/etharp.c ****  * @return ERR_OK if the request has been sent
1177:Middlewares/Third_Party/LwIP/src/core/ipv4/etharp.c ****  *         ERR_MEM if the ARP packet couldn't be allocated
1178:Middlewares/Third_Party/LwIP/src/core/ipv4/etharp.c ****  *         any other err_t on failure
1179:Middlewares/Third_Party/LwIP/src/core/ipv4/etharp.c ****  */
1180:Middlewares/Third_Party/LwIP/src/core/ipv4/etharp.c **** static err_t
1181:Middlewares/Third_Party/LwIP/src/core/ipv4/etharp.c **** etharp_request_dst(struct netif *netif, const ip4_addr_t *ipaddr, const struct eth_addr *hw_dst_add
1182:Middlewares/Third_Party/LwIP/src/core/ipv4/etharp.c **** {
 951              		.loc 1 1182 1 is_stmt 1 view -0
 952              		.cfi_startproc
 953              		@ args = 0, pretend = 0, frame = 0
 954              		@ frame_needed = 0, uses_anonymous_args = 0
 955              		.loc 1 1182 1 is_stmt 0 view .LVU257
 956 0000 30B5     		push	{r4, r5, lr}
 957              	.LCFI13:
 958              		.cfi_def_cfa_offset 12
 959              		.cfi_offset 4, -12
 960              		.cfi_offset 5, -8
 961              		.cfi_offset 14, -4
 962 0002 85B0     		sub	sp, sp, #20
 963              	.LCFI14:
 964              		.cfi_def_cfa_offset 32
 965 0004 0446     		mov	r4, r0
1183:Middlewares/Third_Party/LwIP/src/core/ipv4/etharp.c ****   return etharp_raw(netif, (struct eth_addr *)netif->hwaddr, hw_dst_addr,
 966              		.loc 1 1183 3 is_stmt 1 view .LVU258
 967              		.loc 1 1183 47 is_stmt 0 view .LVU259
 968 0006 00F12A03 		add	r3, r0, #42
1184:Middlewares/Third_Party/LwIP/src/core/ipv4/etharp.c ****                     (struct eth_addr *)netif->hwaddr, netif_ip4_addr(netif), &ethzero,
 969              		.loc 1 1184 55 view .LVU260
 970 000a 0434     		adds	r4, r4, #4
1183:Middlewares/Third_Party/LwIP/src/core/ipv4/etharp.c ****   return etharp_raw(netif, (struct eth_addr *)netif->hwaddr, hw_dst_addr,
 971              		.loc 1 1183 10 view .LVU261
 972 000c 0125     		movs	r5, #1
 973 000e 0395     		str	r5, [sp, #12]
 974 0010 0291     		str	r1, [sp, #8]
 975 0012 0449     		ldr	r1, .L71
ARM GAS  D:\Dev\msys64\tmp\ccwKvaRW.s 			page 41


 976              	.LVL84:
1183:Middlewares/Third_Party/LwIP/src/core/ipv4/etharp.c ****   return etharp_raw(netif, (struct eth_addr *)netif->hwaddr, hw_dst_addr,
 977              		.loc 1 1183 10 view .LVU262
 978 0014 0191     		str	r1, [sp, #4]
 979 0016 0094     		str	r4, [sp]
 980 0018 1946     		mov	r1, r3
 981 001a FFF7FEFF 		bl	etharp_raw
 982              	.LVL85:
1185:Middlewares/Third_Party/LwIP/src/core/ipv4/etharp.c ****                     ipaddr, ARP_REQUEST);
1186:Middlewares/Third_Party/LwIP/src/core/ipv4/etharp.c **** }
 983              		.loc 1 1186 1 view .LVU263
 984 001e 05B0     		add	sp, sp, #20
 985              	.LCFI15:
 986              		.cfi_def_cfa_offset 12
 987              		@ sp needed
 988 0020 30BD     		pop	{r4, r5, pc}
 989              	.LVL86:
 990              	.L72:
 991              		.loc 1 1186 1 view .LVU264
 992 0022 00BF     		.align	2
 993              	.L71:
 994 0024 00000000 		.word	ethzero
 995              		.cfi_endproc
 996              	.LFE37:
 998              		.section	.text.etharp_cleanup_netif,"ax",%progbits
 999              		.align	1
 1000              		.global	etharp_cleanup_netif
 1001              		.syntax unified
 1002              		.thumb
 1003              		.thumb_func
 1004              		.fpu fpv5-sp-d16
 1006              	etharp_cleanup_netif:
 1007              	.LVL87:
 1008              	.LFB29:
 560:Middlewares/Third_Party/LwIP/src/core/ipv4/etharp.c ****   int i;
 1009              		.loc 1 560 1 is_stmt 1 view -0
 1010              		.cfi_startproc
 1011              		@ args = 0, pretend = 0, frame = 0
 1012              		@ frame_needed = 0, uses_anonymous_args = 0
 560:Middlewares/Third_Party/LwIP/src/core/ipv4/etharp.c ****   int i;
 1013              		.loc 1 560 1 is_stmt 0 view .LVU266
 1014 0000 38B5     		push	{r3, r4, r5, lr}
 1015              	.LCFI16:
 1016              		.cfi_def_cfa_offset 16
 1017              		.cfi_offset 3, -16
 1018              		.cfi_offset 4, -12
 1019              		.cfi_offset 5, -8
 1020              		.cfi_offset 14, -4
 1021 0002 0546     		mov	r5, r0
 561:Middlewares/Third_Party/LwIP/src/core/ipv4/etharp.c **** 
 1022              		.loc 1 561 3 is_stmt 1 view .LVU267
 563:Middlewares/Third_Party/LwIP/src/core/ipv4/etharp.c ****     u8_t state = arp_table[i].state;
 1023              		.loc 1 563 3 view .LVU268
 1024              	.LVL88:
 563:Middlewares/Third_Party/LwIP/src/core/ipv4/etharp.c ****     u8_t state = arp_table[i].state;
 1025              		.loc 1 563 10 is_stmt 0 view .LVU269
 1026 0004 0024     		movs	r4, #0
ARM GAS  D:\Dev\msys64\tmp\ccwKvaRW.s 			page 42


 563:Middlewares/Third_Party/LwIP/src/core/ipv4/etharp.c ****     u8_t state = arp_table[i].state;
 1027              		.loc 1 563 3 view .LVU270
 1028 0006 00E0     		b	.L74
 1029              	.LVL89:
 1030              	.L75:
 563:Middlewares/Third_Party/LwIP/src/core/ipv4/etharp.c ****     u8_t state = arp_table[i].state;
 1031              		.loc 1 563 35 is_stmt 1 discriminator 2 view .LVU271
 1032 0008 0134     		adds	r4, r4, #1
 1033              	.LVL90:
 1034              	.L74:
 563:Middlewares/Third_Party/LwIP/src/core/ipv4/etharp.c ****     u8_t state = arp_table[i].state;
 1035              		.loc 1 563 15 discriminator 1 view .LVU272
 563:Middlewares/Third_Party/LwIP/src/core/ipv4/etharp.c ****     u8_t state = arp_table[i].state;
 1036              		.loc 1 563 3 is_stmt 0 discriminator 1 view .LVU273
 1037 000a 092C     		cmp	r4, #9
 1038 000c 12DC     		bgt	.L78
 1039              	.LBB6:
 564:Middlewares/Third_Party/LwIP/src/core/ipv4/etharp.c ****     if ((state != ETHARP_STATE_EMPTY) && (arp_table[i].netif == netif)) {
 1040              		.loc 1 564 5 is_stmt 1 view .LVU274
 564:Middlewares/Third_Party/LwIP/src/core/ipv4/etharp.c ****     if ((state != ETHARP_STATE_EMPTY) && (arp_table[i].netif == netif)) {
 1041              		.loc 1 564 10 is_stmt 0 view .LVU275
 1042 000e 04EB4403 		add	r3, r4, r4, lsl #1
 1043 0012 094A     		ldr	r2, .L79
 1044 0014 02EBC303 		add	r3, r2, r3, lsl #3
 1045 0018 1B7D     		ldrb	r3, [r3, #20]	@ zero_extendqisi2
 1046              	.LVL91:
 565:Middlewares/Third_Party/LwIP/src/core/ipv4/etharp.c ****       etharp_free_entry(i);
 1047              		.loc 1 565 5 is_stmt 1 view .LVU276
 565:Middlewares/Third_Party/LwIP/src/core/ipv4/etharp.c ****       etharp_free_entry(i);
 1048              		.loc 1 565 8 is_stmt 0 view .LVU277
 1049 001a 002B     		cmp	r3, #0
 1050 001c F4D0     		beq	.L75
 565:Middlewares/Third_Party/LwIP/src/core/ipv4/etharp.c ****       etharp_free_entry(i);
 1051              		.loc 1 565 55 discriminator 1 view .LVU278
 1052 001e 04EB4403 		add	r3, r4, r4, lsl #1
 1053              	.LVL92:
 565:Middlewares/Third_Party/LwIP/src/core/ipv4/etharp.c ****       etharp_free_entry(i);
 1054              		.loc 1 565 55 discriminator 1 view .LVU279
 1055 0022 02EBC303 		add	r3, r2, r3, lsl #3
 1056              	.LVL93:
 565:Middlewares/Third_Party/LwIP/src/core/ipv4/etharp.c ****       etharp_free_entry(i);
 1057              		.loc 1 565 55 discriminator 1 view .LVU280
 1058 0026 9B68     		ldr	r3, [r3, #8]
 1059              	.LVL94:
 565:Middlewares/Third_Party/LwIP/src/core/ipv4/etharp.c ****       etharp_free_entry(i);
 1060              		.loc 1 565 39 discriminator 1 view .LVU281
 1061 0028 AB42     		cmp	r3, r5
 1062 002a EDD1     		bne	.L75
 566:Middlewares/Third_Party/LwIP/src/core/ipv4/etharp.c ****     }
 1063              		.loc 1 566 7 is_stmt 1 view .LVU282
 1064 002c 2046     		mov	r0, r4
 1065 002e FFF7FEFF 		bl	etharp_free_entry
 1066              	.LVL95:
 566:Middlewares/Third_Party/LwIP/src/core/ipv4/etharp.c ****     }
 1067              		.loc 1 566 7 is_stmt 0 view .LVU283
 1068 0032 E9E7     		b	.L75
 1069              	.L78:
ARM GAS  D:\Dev\msys64\tmp\ccwKvaRW.s 			page 43


 566:Middlewares/Third_Party/LwIP/src/core/ipv4/etharp.c ****     }
 1070              		.loc 1 566 7 view .LVU284
 1071              	.LBE6:
 569:Middlewares/Third_Party/LwIP/src/core/ipv4/etharp.c **** 
 1072              		.loc 1 569 1 view .LVU285
 1073 0034 38BD     		pop	{r3, r4, r5, pc}
 1074              	.LVL96:
 1075              	.L80:
 569:Middlewares/Third_Party/LwIP/src/core/ipv4/etharp.c **** 
 1076              		.loc 1 569 1 view .LVU286
 1077 0036 00BF     		.align	2
 1078              	.L79:
 1079 0038 00000000 		.word	.LANCHOR0
 1080              		.cfi_endproc
 1081              	.LFE29:
 1083              		.section	.rodata.etharp_find_addr.str1.4,"aMS",%progbits,1
 1084              		.align	2
 1085              	.LC10:
 1086 0000 6574685F 		.ascii	"eth_ret != NULL && ip_ret != NULL\000"
 1086      72657420 
 1086      213D204E 
 1086      554C4C20 
 1086      26262069 
 1087              		.section	.text.etharp_find_addr,"ax",%progbits
 1088              		.align	1
 1089              		.global	etharp_find_addr
 1090              		.syntax unified
 1091              		.thumb
 1092              		.thumb_func
 1093              		.fpu fpv5-sp-d16
 1095              	etharp_find_addr:
 1096              	.LVL97:
 1097              	.LFB30:
 585:Middlewares/Third_Party/LwIP/src/core/ipv4/etharp.c ****   s16_t i;
 1098              		.loc 1 585 1 is_stmt 1 view -0
 1099              		.cfi_startproc
 1100              		@ args = 0, pretend = 0, frame = 0
 1101              		@ frame_needed = 0, uses_anonymous_args = 0
 585:Middlewares/Third_Party/LwIP/src/core/ipv4/etharp.c ****   s16_t i;
 1102              		.loc 1 585 1 is_stmt 0 view .LVU288
 1103 0000 F8B5     		push	{r3, r4, r5, r6, r7, lr}
 1104              	.LCFI17:
 1105              		.cfi_def_cfa_offset 24
 1106              		.cfi_offset 3, -24
 1107              		.cfi_offset 4, -20
 1108              		.cfi_offset 5, -16
 1109              		.cfi_offset 6, -12
 1110              		.cfi_offset 7, -8
 1111              		.cfi_offset 14, -4
 1112 0002 0746     		mov	r7, r0
 1113 0004 0E46     		mov	r6, r1
 586:Middlewares/Third_Party/LwIP/src/core/ipv4/etharp.c **** 
 1114              		.loc 1 586 3 is_stmt 1 view .LVU289
 588:Middlewares/Third_Party/LwIP/src/core/ipv4/etharp.c ****               eth_ret != NULL && ip_ret != NULL);
 1115              		.loc 1 588 3 view .LVU290
 588:Middlewares/Third_Party/LwIP/src/core/ipv4/etharp.c ****               eth_ret != NULL && ip_ret != NULL);
 1116              		.loc 1 588 3 view .LVU291
ARM GAS  D:\Dev\msys64\tmp\ccwKvaRW.s 			page 44


 1117 0006 1546     		mov	r5, r2
 1118 0008 1C46     		mov	r4, r3
 1119 000a B3FA83F3 		clz	r3, r3
 1120              	.LVL98:
 588:Middlewares/Third_Party/LwIP/src/core/ipv4/etharp.c ****               eth_ret != NULL && ip_ret != NULL);
 1121              		.loc 1 588 3 is_stmt 0 view .LVU292
 1122 000e 5B09     		lsrs	r3, r3, #5
 1123 0010 002A     		cmp	r2, #0
 1124 0012 08BF     		it	eq
 1125 0014 0123     		moveq	r3, #1
 1126 0016 EBB9     		cbnz	r3, .L87
 1127              	.LVL99:
 1128              	.L82:
 588:Middlewares/Third_Party/LwIP/src/core/ipv4/etharp.c ****               eth_ret != NULL && ip_ret != NULL);
 1129              		.loc 1 588 3 is_stmt 1 discriminator 3 view .LVU293
 588:Middlewares/Third_Party/LwIP/src/core/ipv4/etharp.c ****               eth_ret != NULL && ip_ret != NULL);
 1130              		.loc 1 588 3 discriminator 3 view .LVU294
 591:Middlewares/Third_Party/LwIP/src/core/ipv4/etharp.c **** 
 1131              		.loc 1 591 3 discriminator 3 view .LVU295
 593:Middlewares/Third_Party/LwIP/src/core/ipv4/etharp.c ****   if ((i >= 0) && (arp_table[i].state >= ETHARP_STATE_STABLE)) {
 1132              		.loc 1 593 3 discriminator 3 view .LVU296
 593:Middlewares/Third_Party/LwIP/src/core/ipv4/etharp.c ****   if ((i >= 0) && (arp_table[i].state >= ETHARP_STATE_STABLE)) {
 1133              		.loc 1 593 7 is_stmt 0 discriminator 3 view .LVU297
 1134 0018 3A46     		mov	r2, r7
 1135 001a 0221     		movs	r1, #2
 1136 001c 3046     		mov	r0, r6
 1137 001e FFF7FEFF 		bl	etharp_find_entry
 1138              	.LVL100:
 594:Middlewares/Third_Party/LwIP/src/core/ipv4/etharp.c ****     *eth_ret = &arp_table[i].ethaddr;
 1139              		.loc 1 594 3 is_stmt 1 discriminator 3 view .LVU298
 594:Middlewares/Third_Party/LwIP/src/core/ipv4/etharp.c ****     *eth_ret = &arp_table[i].ethaddr;
 1140              		.loc 1 594 6 is_stmt 0 discriminator 3 view .LVU299
 1141 0022 031E     		subs	r3, r0, #0
 1142 0024 1EDB     		blt	.L84
 594:Middlewares/Third_Party/LwIP/src/core/ipv4/etharp.c ****     *eth_ret = &arp_table[i].ethaddr;
 1143              		.loc 1 594 32 discriminator 1 view .LVU300
 1144 0026 1846     		mov	r0, r3
 1145              	.LVL101:
 594:Middlewares/Third_Party/LwIP/src/core/ipv4/etharp.c ****     *eth_ret = &arp_table[i].ethaddr;
 1146              		.loc 1 594 32 discriminator 1 view .LVU301
 1147 0028 03EB4302 		add	r2, r3, r3, lsl #1
 1148 002c 1049     		ldr	r1, .L88
 1149 002e 01EBC202 		add	r2, r1, r2, lsl #3
 1150 0032 127D     		ldrb	r2, [r2, #20]	@ zero_extendqisi2
 594:Middlewares/Third_Party/LwIP/src/core/ipv4/etharp.c ****     *eth_ret = &arp_table[i].ethaddr;
 1151              		.loc 1 594 16 discriminator 1 view .LVU302
 1152 0034 012A     		cmp	r2, #1
 1153 0036 18D9     		bls	.L85
 595:Middlewares/Third_Party/LwIP/src/core/ipv4/etharp.c ****     *ip_ret = &arp_table[i].ipaddr;
 1154              		.loc 1 595 5 is_stmt 1 view .LVU303
 595:Middlewares/Third_Party/LwIP/src/core/ipv4/etharp.c ****     *ip_ret = &arp_table[i].ipaddr;
 1155              		.loc 1 595 16 is_stmt 0 view .LVU304
 1156 0038 03EB4302 		add	r2, r3, r3, lsl #1
 1157 003c D200     		lsls	r2, r2, #3
 1158 003e 0832     		adds	r2, r2, #8
 1159 0040 0A44     		add	r2, r2, r1
 1160 0042 0432     		adds	r2, r2, #4
ARM GAS  D:\Dev\msys64\tmp\ccwKvaRW.s 			page 45


 595:Middlewares/Third_Party/LwIP/src/core/ipv4/etharp.c ****     *ip_ret = &arp_table[i].ipaddr;
 1161              		.loc 1 595 14 view .LVU305
 1162 0044 2A60     		str	r2, [r5]
 596:Middlewares/Third_Party/LwIP/src/core/ipv4/etharp.c ****     return i;
 1163              		.loc 1 596 5 is_stmt 1 view .LVU306
 596:Middlewares/Third_Party/LwIP/src/core/ipv4/etharp.c ****     return i;
 1164              		.loc 1 596 15 is_stmt 0 view .LVU307
 1165 0046 03EB4303 		add	r3, r3, r3, lsl #1
 1166 004a 01EBC303 		add	r3, r1, r3, lsl #3
 1167 004e 0433     		adds	r3, r3, #4
 596:Middlewares/Third_Party/LwIP/src/core/ipv4/etharp.c ****     return i;
 1168              		.loc 1 596 13 view .LVU308
 1169 0050 2360     		str	r3, [r4]
 597:Middlewares/Third_Party/LwIP/src/core/ipv4/etharp.c ****   }
 1170              		.loc 1 597 5 is_stmt 1 view .LVU309
 1171              	.L81:
 600:Middlewares/Third_Party/LwIP/src/core/ipv4/etharp.c **** 
 1172              		.loc 1 600 1 is_stmt 0 view .LVU310
 1173 0052 F8BD     		pop	{r3, r4, r5, r6, r7, pc}
 1174              	.LVL102:
 1175              	.L87:
 588:Middlewares/Third_Party/LwIP/src/core/ipv4/etharp.c ****               eth_ret != NULL && ip_ret != NULL);
 1176              		.loc 1 588 3 is_stmt 1 discriminator 1 view .LVU311
 588:Middlewares/Third_Party/LwIP/src/core/ipv4/etharp.c ****               eth_ret != NULL && ip_ret != NULL);
 1177              		.loc 1 588 3 discriminator 1 view .LVU312
 1178 0054 074B     		ldr	r3, .L88+4
 1179 0056 4FF41372 		mov	r2, #588
 1180              	.LVL103:
 588:Middlewares/Third_Party/LwIP/src/core/ipv4/etharp.c ****               eth_ret != NULL && ip_ret != NULL);
 1181              		.loc 1 588 3 is_stmt 0 discriminator 1 view .LVU313
 1182 005a 0749     		ldr	r1, .L88+8
 1183              	.LVL104:
 588:Middlewares/Third_Party/LwIP/src/core/ipv4/etharp.c ****               eth_ret != NULL && ip_ret != NULL);
 1184              		.loc 1 588 3 discriminator 1 view .LVU314
 1185 005c 0748     		ldr	r0, .L88+12
 1186              	.LVL105:
 588:Middlewares/Third_Party/LwIP/src/core/ipv4/etharp.c ****               eth_ret != NULL && ip_ret != NULL);
 1187              		.loc 1 588 3 discriminator 1 view .LVU315
 1188 005e FFF7FEFF 		bl	printf
 1189              	.LVL106:
 1190 0062 D9E7     		b	.L82
 1191              	.LVL107:
 1192              	.L84:
 599:Middlewares/Third_Party/LwIP/src/core/ipv4/etharp.c **** }
 1193              		.loc 1 599 10 view .LVU316
 1194 0064 4FF0FF30 		mov	r0, #-1
 1195              	.LVL108:
 599:Middlewares/Third_Party/LwIP/src/core/ipv4/etharp.c **** }
 1196              		.loc 1 599 10 view .LVU317
 1197 0068 F3E7     		b	.L81
 1198              	.L85:
 1199 006a 4FF0FF30 		mov	r0, #-1
 1200 006e F0E7     		b	.L81
 1201              	.L89:
 1202              		.align	2
 1203              	.L88:
 1204 0070 00000000 		.word	.LANCHOR0
ARM GAS  D:\Dev\msys64\tmp\ccwKvaRW.s 			page 46


 1205 0074 00000000 		.word	.LC0
 1206 0078 00000000 		.word	.LC10
 1207 007c 74000000 		.word	.LC2
 1208              		.cfi_endproc
 1209              	.LFE30:
 1211              		.section	.rodata.etharp_get_entry.str1.4,"aMS",%progbits,1
 1212              		.align	2
 1213              	.LC11:
 1214 0000 69706164 		.ascii	"ipaddr != NULL\000"
 1214      64722021 
 1214      3D204E55 
 1214      4C4C00
 1215 000f 00       		.align	2
 1216              	.LC12:
 1217 0010 6574685F 		.ascii	"eth_ret != NULL\000"
 1217      72657420 
 1217      213D204E 
 1217      554C4C00 
 1218              		.section	.text.etharp_get_entry,"ax",%progbits
 1219              		.align	1
 1220              		.global	etharp_get_entry
 1221              		.syntax unified
 1222              		.thumb
 1223              		.thumb_func
 1224              		.fpu fpv5-sp-d16
 1226              	etharp_get_entry:
 1227              	.LVL109:
 1228              	.LFB31:
 613:Middlewares/Third_Party/LwIP/src/core/ipv4/etharp.c ****   LWIP_ASSERT("ipaddr != NULL", ipaddr != NULL);
 1229              		.loc 1 613 1 is_stmt 1 view -0
 1230              		.cfi_startproc
 1231              		@ args = 0, pretend = 0, frame = 0
 1232              		@ frame_needed = 0, uses_anonymous_args = 0
 613:Middlewares/Third_Party/LwIP/src/core/ipv4/etharp.c ****   LWIP_ASSERT("ipaddr != NULL", ipaddr != NULL);
 1233              		.loc 1 613 1 is_stmt 0 view .LVU319
 1234 0000 F8B5     		push	{r3, r4, r5, r6, r7, lr}
 1235              	.LCFI18:
 1236              		.cfi_def_cfa_offset 24
 1237              		.cfi_offset 3, -24
 1238              		.cfi_offset 4, -20
 1239              		.cfi_offset 5, -16
 1240              		.cfi_offset 6, -12
 1241              		.cfi_offset 7, -8
 1242              		.cfi_offset 14, -4
 1243 0002 0446     		mov	r4, r0
 1244 0004 1646     		mov	r6, r2
 1245 0006 1D46     		mov	r5, r3
 614:Middlewares/Third_Party/LwIP/src/core/ipv4/etharp.c ****   LWIP_ASSERT("netif != NULL", netif != NULL);
 1246              		.loc 1 614 3 is_stmt 1 view .LVU320
 614:Middlewares/Third_Party/LwIP/src/core/ipv4/etharp.c ****   LWIP_ASSERT("netif != NULL", netif != NULL);
 1247              		.loc 1 614 3 view .LVU321
 1248 0008 0F46     		mov	r7, r1
 1249 000a E9B1     		cbz	r1, .L98
 1250              	.LVL110:
 1251              	.L91:
 614:Middlewares/Third_Party/LwIP/src/core/ipv4/etharp.c ****   LWIP_ASSERT("netif != NULL", netif != NULL);
 1252              		.loc 1 614 3 discriminator 3 view .LVU322
ARM GAS  D:\Dev\msys64\tmp\ccwKvaRW.s 			page 47


 614:Middlewares/Third_Party/LwIP/src/core/ipv4/etharp.c ****   LWIP_ASSERT("netif != NULL", netif != NULL);
 1253              		.loc 1 614 3 discriminator 3 view .LVU323
 615:Middlewares/Third_Party/LwIP/src/core/ipv4/etharp.c ****   LWIP_ASSERT("eth_ret != NULL", eth_ret != NULL);
 1254              		.loc 1 615 3 discriminator 3 view .LVU324
 615:Middlewares/Third_Party/LwIP/src/core/ipv4/etharp.c ****   LWIP_ASSERT("eth_ret != NULL", eth_ret != NULL);
 1255              		.loc 1 615 3 discriminator 3 view .LVU325
 1256 000c 26B3     		cbz	r6, .L99
 1257              	.L92:
 615:Middlewares/Third_Party/LwIP/src/core/ipv4/etharp.c ****   LWIP_ASSERT("eth_ret != NULL", eth_ret != NULL);
 1258              		.loc 1 615 3 discriminator 3 view .LVU326
 615:Middlewares/Third_Party/LwIP/src/core/ipv4/etharp.c ****   LWIP_ASSERT("eth_ret != NULL", eth_ret != NULL);
 1259              		.loc 1 615 3 discriminator 3 view .LVU327
 616:Middlewares/Third_Party/LwIP/src/core/ipv4/etharp.c **** 
 1260              		.loc 1 616 3 discriminator 3 view .LVU328
 616:Middlewares/Third_Party/LwIP/src/core/ipv4/etharp.c **** 
 1261              		.loc 1 616 3 discriminator 3 view .LVU329
 1262 000e 5DB3     		cbz	r5, .L100
 1263              	.L93:
 616:Middlewares/Third_Party/LwIP/src/core/ipv4/etharp.c **** 
 1264              		.loc 1 616 3 discriminator 3 view .LVU330
 616:Middlewares/Third_Party/LwIP/src/core/ipv4/etharp.c **** 
 1265              		.loc 1 616 3 discriminator 3 view .LVU331
 618:Middlewares/Third_Party/LwIP/src/core/ipv4/etharp.c ****     *ipaddr  = &arp_table[i].ipaddr;
 1266              		.loc 1 618 3 discriminator 3 view .LVU332
 618:Middlewares/Third_Party/LwIP/src/core/ipv4/etharp.c ****     *ipaddr  = &arp_table[i].ipaddr;
 1267              		.loc 1 618 6 is_stmt 0 discriminator 3 view .LVU333
 1268 0010 092C     		cmp	r4, #9
 1269 0012 31D8     		bhi	.L95
 618:Middlewares/Third_Party/LwIP/src/core/ipv4/etharp.c ****     *ipaddr  = &arp_table[i].ipaddr;
 1270              		.loc 1 618 44 discriminator 1 view .LVU334
 1271 0014 04EB4403 		add	r3, r4, r4, lsl #1
 1272 0018 194A     		ldr	r2, .L101
 1273 001a 02EBC303 		add	r3, r2, r3, lsl #3
 1274 001e 1B7D     		ldrb	r3, [r3, #20]	@ zero_extendqisi2
 618:Middlewares/Third_Party/LwIP/src/core/ipv4/etharp.c ****     *ipaddr  = &arp_table[i].ipaddr;
 1275              		.loc 1 618 28 discriminator 1 view .LVU335
 1276 0020 012B     		cmp	r3, #1
 1277 0022 2BD9     		bls	.L96
 619:Middlewares/Third_Party/LwIP/src/core/ipv4/etharp.c ****     *netif   = arp_table[i].netif;
 1278              		.loc 1 619 5 is_stmt 1 view .LVU336
 619:Middlewares/Third_Party/LwIP/src/core/ipv4/etharp.c ****     *netif   = arp_table[i].netif;
 1279              		.loc 1 619 16 is_stmt 0 view .LVU337
 1280 0024 1346     		mov	r3, r2
 1281 0026 04EB4402 		add	r2, r4, r4, lsl #1
 1282 002a 03EBC202 		add	r2, r3, r2, lsl #3
 1283 002e 111D     		adds	r1, r2, #4
 619:Middlewares/Third_Party/LwIP/src/core/ipv4/etharp.c ****     *netif   = arp_table[i].netif;
 1284              		.loc 1 619 14 view .LVU338
 1285 0030 3960     		str	r1, [r7]
 620:Middlewares/Third_Party/LwIP/src/core/ipv4/etharp.c ****     *eth_ret = &arp_table[i].ethaddr;
 1286              		.loc 1 620 5 is_stmt 1 view .LVU339
 620:Middlewares/Third_Party/LwIP/src/core/ipv4/etharp.c ****     *eth_ret = &arp_table[i].ethaddr;
 1287              		.loc 1 620 28 is_stmt 0 view .LVU340
 1288 0032 9268     		ldr	r2, [r2, #8]
 620:Middlewares/Third_Party/LwIP/src/core/ipv4/etharp.c ****     *eth_ret = &arp_table[i].ethaddr;
 1289              		.loc 1 620 14 view .LVU341
 1290 0034 3260     		str	r2, [r6]
ARM GAS  D:\Dev\msys64\tmp\ccwKvaRW.s 			page 48


 621:Middlewares/Third_Party/LwIP/src/core/ipv4/etharp.c ****     return 1;
 1291              		.loc 1 621 5 is_stmt 1 view .LVU342
 621:Middlewares/Third_Party/LwIP/src/core/ipv4/etharp.c ****     return 1;
 1292              		.loc 1 621 16 is_stmt 0 view .LVU343
 1293 0036 04EB4404 		add	r4, r4, r4, lsl #1
 1294              	.LVL111:
 621:Middlewares/Third_Party/LwIP/src/core/ipv4/etharp.c ****     return 1;
 1295              		.loc 1 621 16 view .LVU344
 1296 003a E400     		lsls	r4, r4, #3
 1297 003c 0834     		adds	r4, r4, #8
 1298 003e 1C44     		add	r4, r4, r3
 1299 0040 0434     		adds	r4, r4, #4
 621:Middlewares/Third_Party/LwIP/src/core/ipv4/etharp.c ****     return 1;
 1300              		.loc 1 621 14 view .LVU345
 1301 0042 2C60     		str	r4, [r5]
 622:Middlewares/Third_Party/LwIP/src/core/ipv4/etharp.c ****   } else {
 1302              		.loc 1 622 5 is_stmt 1 view .LVU346
 622:Middlewares/Third_Party/LwIP/src/core/ipv4/etharp.c ****   } else {
 1303              		.loc 1 622 12 is_stmt 0 view .LVU347
 1304 0044 0120     		movs	r0, #1
 1305              	.L90:
 626:Middlewares/Third_Party/LwIP/src/core/ipv4/etharp.c **** 
 1306              		.loc 1 626 1 view .LVU348
 1307 0046 F8BD     		pop	{r3, r4, r5, r6, r7, pc}
 1308              	.LVL112:
 1309              	.L98:
 614:Middlewares/Third_Party/LwIP/src/core/ipv4/etharp.c ****   LWIP_ASSERT("netif != NULL", netif != NULL);
 1310              		.loc 1 614 3 is_stmt 1 discriminator 1 view .LVU349
 614:Middlewares/Third_Party/LwIP/src/core/ipv4/etharp.c ****   LWIP_ASSERT("netif != NULL", netif != NULL);
 1311              		.loc 1 614 3 discriminator 1 view .LVU350
 1312 0048 0E4B     		ldr	r3, .L101+4
 1313              	.LVL113:
 614:Middlewares/Third_Party/LwIP/src/core/ipv4/etharp.c ****   LWIP_ASSERT("netif != NULL", netif != NULL);
 1314              		.loc 1 614 3 is_stmt 0 discriminator 1 view .LVU351
 1315 004a 40F26622 		movw	r2, #614
 1316              	.LVL114:
 614:Middlewares/Third_Party/LwIP/src/core/ipv4/etharp.c ****   LWIP_ASSERT("netif != NULL", netif != NULL);
 1317              		.loc 1 614 3 discriminator 1 view .LVU352
 1318 004e 0E49     		ldr	r1, .L101+8
 1319              	.LVL115:
 614:Middlewares/Third_Party/LwIP/src/core/ipv4/etharp.c ****   LWIP_ASSERT("netif != NULL", netif != NULL);
 1320              		.loc 1 614 3 discriminator 1 view .LVU353
 1321 0050 0E48     		ldr	r0, .L101+12
 1322              	.LVL116:
 614:Middlewares/Third_Party/LwIP/src/core/ipv4/etharp.c ****   LWIP_ASSERT("netif != NULL", netif != NULL);
 1323              		.loc 1 614 3 discriminator 1 view .LVU354
 1324 0052 FFF7FEFF 		bl	printf
 1325              	.LVL117:
 1326 0056 D9E7     		b	.L91
 1327              	.L99:
 615:Middlewares/Third_Party/LwIP/src/core/ipv4/etharp.c ****   LWIP_ASSERT("eth_ret != NULL", eth_ret != NULL);
 1328              		.loc 1 615 3 is_stmt 1 discriminator 1 view .LVU355
 615:Middlewares/Third_Party/LwIP/src/core/ipv4/etharp.c ****   LWIP_ASSERT("eth_ret != NULL", eth_ret != NULL);
 1329              		.loc 1 615 3 discriminator 1 view .LVU356
 1330 0058 0A4B     		ldr	r3, .L101+4
 1331 005a 40F26722 		movw	r2, #615
 1332 005e 0C49     		ldr	r1, .L101+16
ARM GAS  D:\Dev\msys64\tmp\ccwKvaRW.s 			page 49


 1333 0060 0A48     		ldr	r0, .L101+12
 1334 0062 FFF7FEFF 		bl	printf
 1335              	.LVL118:
 1336 0066 D2E7     		b	.L92
 1337              	.L100:
 616:Middlewares/Third_Party/LwIP/src/core/ipv4/etharp.c **** 
 1338              		.loc 1 616 3 discriminator 1 view .LVU357
 616:Middlewares/Third_Party/LwIP/src/core/ipv4/etharp.c **** 
 1339              		.loc 1 616 3 discriminator 1 view .LVU358
 1340 0068 064B     		ldr	r3, .L101+4
 1341 006a 4FF41A72 		mov	r2, #616
 1342 006e 0949     		ldr	r1, .L101+20
 1343 0070 0648     		ldr	r0, .L101+12
 1344 0072 FFF7FEFF 		bl	printf
 1345              	.LVL119:
 1346 0076 CBE7     		b	.L93
 1347              	.L95:
 624:Middlewares/Third_Party/LwIP/src/core/ipv4/etharp.c ****   }
 1348              		.loc 1 624 12 is_stmt 0 view .LVU359
 1349 0078 0020     		movs	r0, #0
 1350 007a E4E7     		b	.L90
 1351              	.L96:
 1352 007c 0020     		movs	r0, #0
 1353 007e E2E7     		b	.L90
 1354              	.L102:
 1355              		.align	2
 1356              	.L101:
 1357 0080 00000000 		.word	.LANCHOR0
 1358 0084 00000000 		.word	.LC0
 1359 0088 00000000 		.word	.LC11
 1360 008c 74000000 		.word	.LC2
 1361 0090 00000000 		.word	.LC7
 1362 0094 10000000 		.word	.LC12
 1363              		.cfi_endproc
 1364              	.LFE31:
 1366              		.section	.text.etharp_input,"ax",%progbits
 1367              		.align	1
 1368              		.global	etharp_input
 1369              		.syntax unified
 1370              		.thumb
 1371              		.thumb_func
 1372              		.fpu fpv5-sp-d16
 1374              	etharp_input:
 1375              	.LVL120:
 1376              	.LFB32:
 642:Middlewares/Third_Party/LwIP/src/core/ipv4/etharp.c ****   struct etharp_hdr *hdr;
 1377              		.loc 1 642 1 is_stmt 1 view -0
 1378              		.cfi_startproc
 1379              		@ args = 0, pretend = 0, frame = 8
 1380              		@ frame_needed = 0, uses_anonymous_args = 0
 642:Middlewares/Third_Party/LwIP/src/core/ipv4/etharp.c ****   struct etharp_hdr *hdr;
 1381              		.loc 1 642 1 is_stmt 0 view .LVU361
 1382 0000 2DE9F041 		push	{r4, r5, r6, r7, r8, lr}
 1383              	.LCFI19:
 1384              		.cfi_def_cfa_offset 24
 1385              		.cfi_offset 4, -24
 1386              		.cfi_offset 5, -20
ARM GAS  D:\Dev\msys64\tmp\ccwKvaRW.s 			page 50


 1387              		.cfi_offset 6, -16
 1388              		.cfi_offset 7, -12
 1389              		.cfi_offset 8, -8
 1390              		.cfi_offset 14, -4
 1391 0004 86B0     		sub	sp, sp, #24
 1392              	.LCFI20:
 1393              		.cfi_def_cfa_offset 48
 643:Middlewares/Third_Party/LwIP/src/core/ipv4/etharp.c ****   /* these are aligned properly, whereas the ARP header fields might not be */
 1394              		.loc 1 643 3 is_stmt 1 view .LVU362
 645:Middlewares/Third_Party/LwIP/src/core/ipv4/etharp.c ****   u8_t for_us;
 1395              		.loc 1 645 3 view .LVU363
 646:Middlewares/Third_Party/LwIP/src/core/ipv4/etharp.c **** 
 1396              		.loc 1 646 3 view .LVU364
 648:Middlewares/Third_Party/LwIP/src/core/ipv4/etharp.c **** 
 1397              		.loc 1 648 28 view .LVU365
 650:Middlewares/Third_Party/LwIP/src/core/ipv4/etharp.c **** 
 1398              		.loc 1 650 3 view .LVU366
 650:Middlewares/Third_Party/LwIP/src/core/ipv4/etharp.c **** 
 1399              		.loc 1 650 3 view .LVU367
 1400 0006 A9B1     		cbz	r1, .L116
 1401 0008 0446     		mov	r4, r0
 1402 000a 0E46     		mov	r6, r1
 650:Middlewares/Third_Party/LwIP/src/core/ipv4/etharp.c **** 
 1403              		.loc 1 650 3 discriminator 2 view .LVU368
 650:Middlewares/Third_Party/LwIP/src/core/ipv4/etharp.c **** 
 1404              		.loc 1 650 3 discriminator 2 view .LVU369
 652:Middlewares/Third_Party/LwIP/src/core/ipv4/etharp.c **** 
 1405              		.loc 1 652 3 discriminator 2 view .LVU370
 652:Middlewares/Third_Party/LwIP/src/core/ipv4/etharp.c **** 
 1406              		.loc 1 652 7 is_stmt 0 discriminator 2 view .LVU371
 1407 000c 4568     		ldr	r5, [r0, #4]
 1408              	.LVL121:
 655:Middlewares/Third_Party/LwIP/src/core/ipv4/etharp.c ****       (hdr->hwlen != ETH_HWADDR_LEN) ||
 1409              		.loc 1 655 3 is_stmt 1 discriminator 2 view .LVU372
 655:Middlewares/Third_Party/LwIP/src/core/ipv4/etharp.c ****       (hdr->hwlen != ETH_HWADDR_LEN) ||
 1410              		.loc 1 655 11 is_stmt 0 discriminator 2 view .LVU373
 1411 000e 2B88     		ldrh	r3, [r5]	@ unaligned
 655:Middlewares/Third_Party/LwIP/src/core/ipv4/etharp.c ****       (hdr->hwlen != ETH_HWADDR_LEN) ||
 1412              		.loc 1 655 6 discriminator 2 view .LVU374
 1413 0010 B3F5807F 		cmp	r3, #256
 1414 0014 08D1     		bne	.L106
 656:Middlewares/Third_Party/LwIP/src/core/ipv4/etharp.c ****       (hdr->protolen != sizeof(ip4_addr_t)) ||
 1415              		.loc 1 656 11 discriminator 1 view .LVU375
 1416 0016 2B79     		ldrb	r3, [r5, #4]	@ zero_extendqisi2
 655:Middlewares/Third_Party/LwIP/src/core/ipv4/etharp.c ****       (hdr->hwlen != ETH_HWADDR_LEN) ||
 1417              		.loc 1 655 60 discriminator 1 view .LVU376
 1418 0018 062B     		cmp	r3, #6
 1419 001a 05D1     		bne	.L106
 657:Middlewares/Third_Party/LwIP/src/core/ipv4/etharp.c ****       (hdr->proto != PP_HTONS(ETHTYPE_IP)))  {
 1420              		.loc 1 657 11 view .LVU377
 1421 001c 6B79     		ldrb	r3, [r5, #5]	@ zero_extendqisi2
 656:Middlewares/Third_Party/LwIP/src/core/ipv4/etharp.c ****       (hdr->protolen != sizeof(ip4_addr_t)) ||
 1422              		.loc 1 656 38 view .LVU378
 1423 001e 042B     		cmp	r3, #4
 1424 0020 02D1     		bne	.L106
 658:Middlewares/Third_Party/LwIP/src/core/ipv4/etharp.c ****     LWIP_DEBUGF(ETHARP_DEBUG | LWIP_DBG_TRACE | LWIP_DBG_LEVEL_WARNING,
 1425              		.loc 1 658 11 view .LVU379
ARM GAS  D:\Dev\msys64\tmp\ccwKvaRW.s 			page 51


 1426 0022 6B88     		ldrh	r3, [r5, #2]	@ unaligned
 657:Middlewares/Third_Party/LwIP/src/core/ipv4/etharp.c ****       (hdr->proto != PP_HTONS(ETHTYPE_IP)))  {
 1427              		.loc 1 657 45 view .LVU380
 1428 0024 082B     		cmp	r3, #8
 1429 0026 0DD0     		beq	.L107
 1430              	.L106:
 661:Middlewares/Third_Party/LwIP/src/core/ipv4/etharp.c ****     ETHARP_STATS_INC(etharp.proterr);
 1431              		.loc 1 661 84 is_stmt 1 view .LVU381
 662:Middlewares/Third_Party/LwIP/src/core/ipv4/etharp.c ****     ETHARP_STATS_INC(etharp.drop);
 1432              		.loc 1 662 37 view .LVU382
 663:Middlewares/Third_Party/LwIP/src/core/ipv4/etharp.c ****     pbuf_free(p);
 1433              		.loc 1 663 34 view .LVU383
 664:Middlewares/Third_Party/LwIP/src/core/ipv4/etharp.c ****     return;
 1434              		.loc 1 664 5 view .LVU384
 1435 0028 2046     		mov	r0, r4
 1436              	.LVL122:
 664:Middlewares/Third_Party/LwIP/src/core/ipv4/etharp.c ****     return;
 1437              		.loc 1 664 5 is_stmt 0 view .LVU385
 1438 002a FFF7FEFF 		bl	pbuf_free
 1439              	.LVL123:
 665:Middlewares/Third_Party/LwIP/src/core/ipv4/etharp.c ****   }
 1440              		.loc 1 665 5 is_stmt 1 view .LVU386
 1441              	.L103:
 742:Middlewares/Third_Party/LwIP/src/core/ipv4/etharp.c **** 
 1442              		.loc 1 742 1 is_stmt 0 view .LVU387
 1443 002e 06B0     		add	sp, sp, #24
 1444              	.LCFI21:
 1445              		.cfi_remember_state
 1446              		.cfi_def_cfa_offset 24
 1447              		@ sp needed
 1448 0030 BDE8F081 		pop	{r4, r5, r6, r7, r8, pc}
 1449              	.LVL124:
 1450              	.L116:
 1451              	.LCFI22:
 1452              		.cfi_restore_state
 650:Middlewares/Third_Party/LwIP/src/core/ipv4/etharp.c **** 
 1453              		.loc 1 650 3 is_stmt 1 discriminator 1 view .LVU388
 650:Middlewares/Third_Party/LwIP/src/core/ipv4/etharp.c **** 
 1454              		.loc 1 650 3 discriminator 1 view .LVU389
 1455 0034 214B     		ldr	r3, .L117
 1456 0036 40F28A22 		movw	r2, #650
 1457 003a 2149     		ldr	r1, .L117+4
 1458              	.LVL125:
 650:Middlewares/Third_Party/LwIP/src/core/ipv4/etharp.c **** 
 1459              		.loc 1 650 3 is_stmt 0 discriminator 1 view .LVU390
 1460 003c 2148     		ldr	r0, .L117+8
 1461              	.LVL126:
 650:Middlewares/Third_Party/LwIP/src/core/ipv4/etharp.c **** 
 1462              		.loc 1 650 3 discriminator 1 view .LVU391
 1463 003e FFF7FEFF 		bl	printf
 1464              	.LVL127:
 650:Middlewares/Third_Party/LwIP/src/core/ipv4/etharp.c **** 
 1465              		.loc 1 650 3 is_stmt 1 discriminator 1 view .LVU392
 650:Middlewares/Third_Party/LwIP/src/core/ipv4/etharp.c **** 
 1466              		.loc 1 650 3 discriminator 1 view .LVU393
 1467 0042 F4E7     		b	.L103
 1468              	.LVL128:
ARM GAS  D:\Dev\msys64\tmp\ccwKvaRW.s 			page 52


 1469              	.L107:
 667:Middlewares/Third_Party/LwIP/src/core/ipv4/etharp.c **** 
 1470              		.loc 1 667 32 view .LVU394
 678:Middlewares/Third_Party/LwIP/src/core/ipv4/etharp.c ****   IPADDR_WORDALIGNED_COPY_TO_IP4_ADDR_T(&dipaddr, &hdr->dipaddr);
 1471              		.loc 1 678 3 view .LVU395
 1472 0044 D5F80E30 		ldr	r3, [r5, #14]	@ unaligned
 1473 0048 0593     		str	r3, [sp, #20]
 679:Middlewares/Third_Party/LwIP/src/core/ipv4/etharp.c **** 
 1474              		.loc 1 679 3 view .LVU396
 1475 004a AF69     		ldr	r7, [r5, #24]	@ unaligned
 682:Middlewares/Third_Party/LwIP/src/core/ipv4/etharp.c ****     for_us = 0;
 1476              		.loc 1 682 3 view .LVU397
 682:Middlewares/Third_Party/LwIP/src/core/ipv4/etharp.c ****     for_us = 0;
 1477              		.loc 1 682 7 is_stmt 0 view .LVU398
 1478 004c 4B68     		ldr	r3, [r1, #4]
 682:Middlewares/Third_Party/LwIP/src/core/ipv4/etharp.c ****     for_us = 0;
 1479              		.loc 1 682 6 view .LVU399
 1480 004e 9BB9     		cbnz	r3, .L108
 1481              	.LVL129:
 694:Middlewares/Third_Party/LwIP/src/core/ipv4/etharp.c ****                           for_us ? ETHARP_FLAG_TRY_HARD : ETHARP_FLAG_FIND_ONLY);
 1482              		.loc 1 694 3 is_stmt 1 view .LVU400
 1483 0050 05F10808 		add	r8, r5, #8
 683:Middlewares/Third_Party/LwIP/src/core/ipv4/etharp.c ****   } else {
 1484              		.loc 1 683 12 is_stmt 0 view .LVU401
 1485 0054 0027     		movs	r7, #0
 694:Middlewares/Third_Party/LwIP/src/core/ipv4/etharp.c ****                           for_us ? ETHARP_FLAG_TRY_HARD : ETHARP_FLAG_FIND_ONLY);
 1486              		.loc 1 694 3 view .LVU402
 1487 0056 0223     		movs	r3, #2
 1488              	.LVL130:
 1489              	.L109:
 694:Middlewares/Third_Party/LwIP/src/core/ipv4/etharp.c ****                           for_us ? ETHARP_FLAG_TRY_HARD : ETHARP_FLAG_FIND_ONLY);
 1490              		.loc 1 694 3 discriminator 4 view .LVU403
 1491 0058 4246     		mov	r2, r8
 1492 005a 05A9     		add	r1, sp, #20
 1493              	.LVL131:
 694:Middlewares/Third_Party/LwIP/src/core/ipv4/etharp.c ****                           for_us ? ETHARP_FLAG_TRY_HARD : ETHARP_FLAG_FIND_ONLY);
 1494              		.loc 1 694 3 discriminator 4 view .LVU404
 1495 005c 3046     		mov	r0, r6
 1496              	.LVL132:
 694:Middlewares/Third_Party/LwIP/src/core/ipv4/etharp.c ****                           for_us ? ETHARP_FLAG_TRY_HARD : ETHARP_FLAG_FIND_ONLY);
 1497              		.loc 1 694 3 discriminator 4 view .LVU405
 1498 005e FFF7FEFF 		bl	etharp_update_arp_entry
 1499              	.LVL133:
 698:Middlewares/Third_Party/LwIP/src/core/ipv4/etharp.c ****     /* ARP request? */
 1500              		.loc 1 698 3 is_stmt 1 discriminator 4 view .LVU406
 698:Middlewares/Third_Party/LwIP/src/core/ipv4/etharp.c ****     /* ARP request? */
 1501              		.loc 1 698 14 is_stmt 0 discriminator 4 view .LVU407
 1502 0062 EB88     		ldrh	r3, [r5, #6]	@ unaligned
 698:Middlewares/Third_Party/LwIP/src/core/ipv4/etharp.c ****     /* ARP request? */
 1503              		.loc 1 698 3 discriminator 4 view .LVU408
 1504 0064 B3F5807F 		cmp	r3, #256
 1505 0068 11D0     		beq	.L110
 698:Middlewares/Third_Party/LwIP/src/core/ipv4/etharp.c ****     /* ARP request? */
 1506              		.loc 1 698 3 view .LVU409
 1507 006a B3F5007F 		cmp	r3, #512
 1508 006e 20D0     		beq	.L111
 1509              	.L112:
ARM GAS  D:\Dev\msys64\tmp\ccwKvaRW.s 			page 53


 741:Middlewares/Third_Party/LwIP/src/core/ipv4/etharp.c **** }
 1510              		.loc 1 741 3 is_stmt 1 discriminator 2 view .LVU410
 1511 0070 2046     		mov	r0, r4
 1512 0072 FFF7FEFF 		bl	pbuf_free
 1513              	.LVL134:
 1514 0076 DAE7     		b	.L103
 1515              	.LVL135:
 1516              	.L108:
 686:Middlewares/Third_Party/LwIP/src/core/ipv4/etharp.c ****   }
 1517              		.loc 1 686 5 view .LVU411
 686:Middlewares/Third_Party/LwIP/src/core/ipv4/etharp.c ****   }
 1518              		.loc 1 686 14 is_stmt 0 view .LVU412
 1519 0078 BB42     		cmp	r3, r7
 1520 007a 14BF     		ite	ne
 1521 007c 0027     		movne	r7, #0
 1522 007e 0127     		moveq	r7, #1
 1523              	.LVL136:
 694:Middlewares/Third_Party/LwIP/src/core/ipv4/etharp.c ****                           for_us ? ETHARP_FLAG_TRY_HARD : ETHARP_FLAG_FIND_ONLY);
 1524              		.loc 1 694 3 is_stmt 1 view .LVU413
 1525 0080 05F10808 		add	r8, r5, #8
 1526 0084 0FB1     		cbz	r7, .L114
 1527 0086 0123     		movs	r3, #1
 1528 0088 E6E7     		b	.L109
 1529              	.L114:
 1530 008a 0223     		movs	r3, #2
 1531 008c E4E7     		b	.L109
 1532              	.LVL137:
 1533              	.L110:
 705:Middlewares/Third_Party/LwIP/src/core/ipv4/etharp.c ****       /* ARP request for our address? */
 1534              		.loc 1 705 92 view .LVU414
 707:Middlewares/Third_Party/LwIP/src/core/ipv4/etharp.c ****         /* send ARP response */
 1535              		.loc 1 707 7 view .LVU415
 707:Middlewares/Third_Party/LwIP/src/core/ipv4/etharp.c ****         /* send ARP response */
 1536              		.loc 1 707 10 is_stmt 0 view .LVU416
 1537 008e 002F     		cmp	r7, #0
 1538 0090 EED0     		beq	.L112
 709:Middlewares/Third_Party/LwIP/src/core/ipv4/etharp.c ****                    (struct eth_addr *)netif->hwaddr, &hdr->shwaddr,
 1539              		.loc 1 709 9 is_stmt 1 view .LVU417
 710:Middlewares/Third_Party/LwIP/src/core/ipv4/etharp.c ****                    (struct eth_addr *)netif->hwaddr, netif_ip4_addr(netif),
 1540              		.loc 1 710 39 is_stmt 0 view .LVU418
 1541 0092 06F12A01 		add	r1, r6, #42
 711:Middlewares/Third_Party/LwIP/src/core/ipv4/etharp.c ****                    &hdr->shwaddr, &sipaddr,
 1542              		.loc 1 711 54 view .LVU419
 1543 0096 331D     		adds	r3, r6, #4
 709:Middlewares/Third_Party/LwIP/src/core/ipv4/etharp.c ****                    (struct eth_addr *)netif->hwaddr, &hdr->shwaddr,
 1544              		.loc 1 709 9 view .LVU420
 1545 0098 0222     		movs	r2, #2
 1546 009a 0392     		str	r2, [sp, #12]
 1547 009c 05AA     		add	r2, sp, #20
 1548 009e 0292     		str	r2, [sp, #8]
 1549 00a0 CDF80480 		str	r8, [sp, #4]
 1550 00a4 0093     		str	r3, [sp]
 1551 00a6 0B46     		mov	r3, r1
 1552 00a8 4246     		mov	r2, r8
 1553 00aa 3046     		mov	r0, r6
 1554 00ac FFF7FEFF 		bl	etharp_raw
 1555              	.LVL138:
ARM GAS  D:\Dev\msys64\tmp\ccwKvaRW.s 			page 54


 1556 00b0 DEE7     		b	.L112
 1557              	.L111:
 726:Middlewares/Third_Party/LwIP/src/core/ipv4/etharp.c **** #if (LWIP_DHCP && DHCP_DOES_ARP_CHECK)
 1558              		.loc 1 726 89 is_stmt 1 view .LVU421
 732:Middlewares/Third_Party/LwIP/src/core/ipv4/etharp.c **** #endif /* (LWIP_DHCP && DHCP_DOES_ARP_CHECK) */
 1559              		.loc 1 732 7 view .LVU422
 1560 00b2 05A9     		add	r1, sp, #20
 1561 00b4 3046     		mov	r0, r6
 1562 00b6 FFF7FEFF 		bl	dhcp_arp_reply
 1563              	.LVL139:
 734:Middlewares/Third_Party/LwIP/src/core/ipv4/etharp.c ****     default:
 1564              		.loc 1 734 7 view .LVU423
 1565 00ba D9E7     		b	.L112
 1566              	.L118:
 1567              		.align	2
 1568              	.L117:
 1569 00bc 00000000 		.word	.LC0
 1570 00c0 00000000 		.word	.LC7
 1571 00c4 74000000 		.word	.LC2
 1572              		.cfi_endproc
 1573              	.LFE32:
 1575              		.section	.text.etharp_request,"ax",%progbits
 1576              		.align	1
 1577              		.global	etharp_request
 1578              		.syntax unified
 1579              		.thumb
 1580              		.thumb_func
 1581              		.fpu fpv5-sp-d16
 1583              	etharp_request:
 1584              	.LVL140:
 1585              	.LFB38:
1187:Middlewares/Third_Party/LwIP/src/core/ipv4/etharp.c **** 
1188:Middlewares/Third_Party/LwIP/src/core/ipv4/etharp.c **** /**
1189:Middlewares/Third_Party/LwIP/src/core/ipv4/etharp.c ****  * Send an ARP request packet asking for ipaddr.
1190:Middlewares/Third_Party/LwIP/src/core/ipv4/etharp.c ****  *
1191:Middlewares/Third_Party/LwIP/src/core/ipv4/etharp.c ****  * @param netif the lwip network interface on which to send the request
1192:Middlewares/Third_Party/LwIP/src/core/ipv4/etharp.c ****  * @param ipaddr the IP address for which to ask
1193:Middlewares/Third_Party/LwIP/src/core/ipv4/etharp.c ****  * @return ERR_OK if the request has been sent
1194:Middlewares/Third_Party/LwIP/src/core/ipv4/etharp.c ****  *         ERR_MEM if the ARP packet couldn't be allocated
1195:Middlewares/Third_Party/LwIP/src/core/ipv4/etharp.c ****  *         any other err_t on failure
1196:Middlewares/Third_Party/LwIP/src/core/ipv4/etharp.c ****  */
1197:Middlewares/Third_Party/LwIP/src/core/ipv4/etharp.c **** err_t
1198:Middlewares/Third_Party/LwIP/src/core/ipv4/etharp.c **** etharp_request(struct netif *netif, const ip4_addr_t *ipaddr)
1199:Middlewares/Third_Party/LwIP/src/core/ipv4/etharp.c **** {
 1586              		.loc 1 1199 1 view -0
 1587              		.cfi_startproc
 1588              		@ args = 0, pretend = 0, frame = 0
 1589              		@ frame_needed = 0, uses_anonymous_args = 0
 1590              		.loc 1 1199 1 is_stmt 0 view .LVU425
 1591 0000 08B5     		push	{r3, lr}
 1592              	.LCFI23:
 1593              		.cfi_def_cfa_offset 8
 1594              		.cfi_offset 3, -8
 1595              		.cfi_offset 14, -4
1200:Middlewares/Third_Party/LwIP/src/core/ipv4/etharp.c ****   LWIP_DEBUGF(ETHARP_DEBUG | LWIP_DBG_TRACE, ("etharp_request: sending ARP request.\n"));
 1596              		.loc 1 1200 89 is_stmt 1 view .LVU426
1201:Middlewares/Third_Party/LwIP/src/core/ipv4/etharp.c ****   return etharp_request_dst(netif, ipaddr, &ethbroadcast);
ARM GAS  D:\Dev\msys64\tmp\ccwKvaRW.s 			page 55


 1597              		.loc 1 1201 3 view .LVU427
 1598              		.loc 1 1201 10 is_stmt 0 view .LVU428
 1599 0002 024A     		ldr	r2, .L121
 1600 0004 FFF7FEFF 		bl	etharp_request_dst
 1601              	.LVL141:
1202:Middlewares/Third_Party/LwIP/src/core/ipv4/etharp.c **** }
 1602              		.loc 1 1202 1 view .LVU429
 1603 0008 08BD     		pop	{r3, pc}
 1604              	.L122:
 1605 000a 00BF     		.align	2
 1606              	.L121:
 1607 000c 00000000 		.word	ethbroadcast
 1608              		.cfi_endproc
 1609              	.LFE38:
 1611              		.section	.text.etharp_tmr,"ax",%progbits
 1612              		.align	1
 1613              		.global	etharp_tmr
 1614              		.syntax unified
 1615              		.thumb
 1616              		.thumb_func
 1617              		.fpu fpv5-sp-d16
 1619              	etharp_tmr:
 1620              	.LFB26:
 198:Middlewares/Third_Party/LwIP/src/core/ipv4/etharp.c ****   int i;
 1621              		.loc 1 198 1 is_stmt 1 view -0
 1622              		.cfi_startproc
 1623              		@ args = 0, pretend = 0, frame = 0
 1624              		@ frame_needed = 0, uses_anonymous_args = 0
 1625 0000 10B5     		push	{r4, lr}
 1626              	.LCFI24:
 1627              		.cfi_def_cfa_offset 8
 1628              		.cfi_offset 4, -8
 1629              		.cfi_offset 14, -4
 199:Middlewares/Third_Party/LwIP/src/core/ipv4/etharp.c **** 
 1630              		.loc 1 199 3 view .LVU431
 201:Middlewares/Third_Party/LwIP/src/core/ipv4/etharp.c ****   /* remove expired entries from the ARP table */
 1631              		.loc 1 201 48 view .LVU432
 203:Middlewares/Third_Party/LwIP/src/core/ipv4/etharp.c ****     u8_t state = arp_table[i].state;
 1632              		.loc 1 203 3 view .LVU433
 1633              	.LVL142:
 203:Middlewares/Third_Party/LwIP/src/core/ipv4/etharp.c ****     u8_t state = arp_table[i].state;
 1634              		.loc 1 203 10 is_stmt 0 view .LVU434
 1635 0002 0024     		movs	r4, #0
 203:Middlewares/Third_Party/LwIP/src/core/ipv4/etharp.c ****     u8_t state = arp_table[i].state;
 1636              		.loc 1 203 3 view .LVU435
 1637 0004 05E0     		b	.L124
 1638              	.LVL143:
 1639              	.L133:
 1640              	.LBB7:
 212:Middlewares/Third_Party/LwIP/src/core/ipv4/etharp.c ****            (arp_table[i].ctime >= ARP_MAXPENDING))) {
 1641              		.loc 1 212 58 view .LVU436
 1642 0006 042B     		cmp	r3, #4
 1643 0008 1BD9     		bls	.L127
 1644              	.L126:
 216:Middlewares/Third_Party/LwIP/src/core/ipv4/etharp.c ****         /* clean up entries that have just been expired */
 1645              		.loc 1 216 105 is_stmt 1 view .LVU437
 218:Middlewares/Third_Party/LwIP/src/core/ipv4/etharp.c ****       } else if (arp_table[i].state == ETHARP_STATE_STABLE_REREQUESTING_1) {
ARM GAS  D:\Dev\msys64\tmp\ccwKvaRW.s 			page 56


 1646              		.loc 1 218 9 view .LVU438
 1647 000a 2046     		mov	r0, r4
 1648 000c FFF7FEFF 		bl	etharp_free_entry
 1649              	.LVL144:
 1650              	.L125:
 218:Middlewares/Third_Party/LwIP/src/core/ipv4/etharp.c ****       } else if (arp_table[i].state == ETHARP_STATE_STABLE_REREQUESTING_1) {
 1651              		.loc 1 218 9 is_stmt 0 view .LVU439
 1652              	.LBE7:
 203:Middlewares/Third_Party/LwIP/src/core/ipv4/etharp.c ****     u8_t state = arp_table[i].state;
 1653              		.loc 1 203 35 is_stmt 1 discriminator 2 view .LVU440
 1654 0010 0134     		adds	r4, r4, #1
 1655              	.LVL145:
 1656              	.L124:
 203:Middlewares/Third_Party/LwIP/src/core/ipv4/etharp.c ****     u8_t state = arp_table[i].state;
 1657              		.loc 1 203 15 discriminator 1 view .LVU441
 203:Middlewares/Third_Party/LwIP/src/core/ipv4/etharp.c ****     u8_t state = arp_table[i].state;
 1658              		.loc 1 203 3 is_stmt 0 discriminator 1 view .LVU442
 1659 0012 092C     		cmp	r4, #9
 1660 0014 35DC     		bgt	.L132
 1661              	.LBB8:
 204:Middlewares/Third_Party/LwIP/src/core/ipv4/etharp.c ****     if (state != ETHARP_STATE_EMPTY
 1662              		.loc 1 204 5 is_stmt 1 view .LVU443
 204:Middlewares/Third_Party/LwIP/src/core/ipv4/etharp.c ****     if (state != ETHARP_STATE_EMPTY
 1663              		.loc 1 204 10 is_stmt 0 view .LVU444
 1664 0016 04EB4403 		add	r3, r4, r4, lsl #1
 1665 001a DA00     		lsls	r2, r3, #3
 1666 001c 194B     		ldr	r3, .L136
 1667 001e 1344     		add	r3, r3, r2
 1668 0020 1A7D     		ldrb	r2, [r3, #20]	@ zero_extendqisi2
 1669              	.LVL146:
 205:Middlewares/Third_Party/LwIP/src/core/ipv4/etharp.c **** #if ETHARP_SUPPORT_STATIC_ENTRIES
 1670              		.loc 1 205 5 is_stmt 1 view .LVU445
 205:Middlewares/Third_Party/LwIP/src/core/ipv4/etharp.c **** #if ETHARP_SUPPORT_STATIC_ENTRIES
 1671              		.loc 1 205 8 is_stmt 0 view .LVU446
 1672 0022 002A     		cmp	r2, #0
 1673 0024 F4D0     		beq	.L125
 210:Middlewares/Third_Party/LwIP/src/core/ipv4/etharp.c ****       if ((arp_table[i].ctime >= ARP_MAXAGE) ||
 1674              		.loc 1 210 7 is_stmt 1 view .LVU447
 210:Middlewares/Third_Party/LwIP/src/core/ipv4/etharp.c ****       if ((arp_table[i].ctime >= ARP_MAXAGE) ||
 1675              		.loc 1 210 19 is_stmt 0 view .LVU448
 1676 0026 04EB4401 		add	r1, r4, r4, lsl #1
 1677 002a CB00     		lsls	r3, r1, #3
 1678 002c 1549     		ldr	r1, .L136
 1679 002e 1944     		add	r1, r1, r3
 1680 0030 4B8A     		ldrh	r3, [r1, #18]
 210:Middlewares/Third_Party/LwIP/src/core/ipv4/etharp.c ****       if ((arp_table[i].ctime >= ARP_MAXAGE) ||
 1681              		.loc 1 210 25 view .LVU449
 1682 0032 0133     		adds	r3, r3, #1
 1683 0034 9BB2     		uxth	r3, r3
 1684 0036 4B82     		strh	r3, [r1, #18]	@ movhi
 211:Middlewares/Third_Party/LwIP/src/core/ipv4/etharp.c ****           ((arp_table[i].state == ETHARP_STATE_PENDING)  &&
 1685              		.loc 1 211 7 is_stmt 1 view .LVU450
 211:Middlewares/Third_Party/LwIP/src/core/ipv4/etharp.c ****           ((arp_table[i].state == ETHARP_STATE_PENDING)  &&
 1686              		.loc 1 211 10 is_stmt 0 view .LVU451
 1687 0038 B3F5967F 		cmp	r3, #300
 1688 003c E5D2     		bcs	.L126
 211:Middlewares/Third_Party/LwIP/src/core/ipv4/etharp.c ****           ((arp_table[i].state == ETHARP_STATE_PENDING)  &&
ARM GAS  D:\Dev\msys64\tmp\ccwKvaRW.s 			page 57


 1689              		.loc 1 211 46 discriminator 1 view .LVU452
 1690 003e 012A     		cmp	r2, #1
 1691 0040 E1D0     		beq	.L133
 1692              	.L127:
 219:Middlewares/Third_Party/LwIP/src/core/ipv4/etharp.c ****         /* Don't send more than one request every 2 seconds. */
 1693              		.loc 1 219 14 is_stmt 1 view .LVU453
 219:Middlewares/Third_Party/LwIP/src/core/ipv4/etharp.c ****         /* Don't send more than one request every 2 seconds. */
 1694              		.loc 1 219 17 is_stmt 0 view .LVU454
 1695 0042 032A     		cmp	r2, #3
 1696 0044 0DD0     		beq	.L134
 222:Middlewares/Third_Party/LwIP/src/core/ipv4/etharp.c ****         /* Reset state to stable, so that the next transmitted packet will
 1697              		.loc 1 222 14 is_stmt 1 view .LVU455
 222:Middlewares/Third_Party/LwIP/src/core/ipv4/etharp.c ****         /* Reset state to stable, so that the next transmitted packet will
 1698              		.loc 1 222 17 is_stmt 0 view .LVU456
 1699 0046 042A     		cmp	r2, #4
 1700 0048 13D0     		beq	.L135
 226:Middlewares/Third_Party/LwIP/src/core/ipv4/etharp.c ****         /* still pending, resend an ARP query */
 1701              		.loc 1 226 14 is_stmt 1 view .LVU457
 226:Middlewares/Third_Party/LwIP/src/core/ipv4/etharp.c ****         /* still pending, resend an ARP query */
 1702              		.loc 1 226 17 is_stmt 0 view .LVU458
 1703 004a 012A     		cmp	r2, #1
 1704 004c E0D1     		bne	.L125
 228:Middlewares/Third_Party/LwIP/src/core/ipv4/etharp.c ****       }
 1705              		.loc 1 228 9 is_stmt 1 view .LVU459
 228:Middlewares/Third_Party/LwIP/src/core/ipv4/etharp.c ****       }
 1706              		.loc 1 228 44 is_stmt 0 view .LVU460
 1707 004e 04EB4403 		add	r3, r4, r4, lsl #1
 1708 0052 DA00     		lsls	r2, r3, #3
 1709              	.LVL147:
 228:Middlewares/Third_Party/LwIP/src/core/ipv4/etharp.c ****       }
 1710              		.loc 1 228 44 view .LVU461
 1711 0054 0B4B     		ldr	r3, .L136
 1712 0056 1344     		add	r3, r3, r2
 228:Middlewares/Third_Party/LwIP/src/core/ipv4/etharp.c ****       }
 1713              		.loc 1 228 9 view .LVU462
 1714 0058 191D     		adds	r1, r3, #4
 1715              	.LVL148:
 228:Middlewares/Third_Party/LwIP/src/core/ipv4/etharp.c ****       }
 1716              		.loc 1 228 9 view .LVU463
 1717 005a 9868     		ldr	r0, [r3, #8]
 1718 005c FFF7FEFF 		bl	etharp_request
 1719              	.LVL149:
 228:Middlewares/Third_Party/LwIP/src/core/ipv4/etharp.c ****       }
 1720              		.loc 1 228 9 view .LVU464
 1721 0060 D6E7     		b	.L125
 1722              	.LVL150:
 1723              	.L134:
 221:Middlewares/Third_Party/LwIP/src/core/ipv4/etharp.c ****       } else if (arp_table[i].state == ETHARP_STATE_STABLE_REREQUESTING_2) {
 1724              		.loc 1 221 9 is_stmt 1 view .LVU465
 221:Middlewares/Third_Party/LwIP/src/core/ipv4/etharp.c ****       } else if (arp_table[i].state == ETHARP_STATE_STABLE_REREQUESTING_2) {
 1725              		.loc 1 221 28 is_stmt 0 view .LVU466
 1726 0062 04EB4403 		add	r3, r4, r4, lsl #1
 1727 0066 DA00     		lsls	r2, r3, #3
 1728              	.LVL151:
 221:Middlewares/Third_Party/LwIP/src/core/ipv4/etharp.c ****       } else if (arp_table[i].state == ETHARP_STATE_STABLE_REREQUESTING_2) {
 1729              		.loc 1 221 28 view .LVU467
 1730 0068 064B     		ldr	r3, .L136
ARM GAS  D:\Dev\msys64\tmp\ccwKvaRW.s 			page 58


 1731 006a 1344     		add	r3, r3, r2
 1732 006c 0422     		movs	r2, #4
 1733 006e 1A75     		strb	r2, [r3, #20]
 1734              	.LVL152:
 221:Middlewares/Third_Party/LwIP/src/core/ipv4/etharp.c ****       } else if (arp_table[i].state == ETHARP_STATE_STABLE_REREQUESTING_2) {
 1735              		.loc 1 221 28 view .LVU468
 1736 0070 CEE7     		b	.L125
 1737              	.LVL153:
 1738              	.L135:
 225:Middlewares/Third_Party/LwIP/src/core/ipv4/etharp.c ****       } else if (arp_table[i].state == ETHARP_STATE_PENDING) {
 1739              		.loc 1 225 9 is_stmt 1 view .LVU469
 225:Middlewares/Third_Party/LwIP/src/core/ipv4/etharp.c ****       } else if (arp_table[i].state == ETHARP_STATE_PENDING) {
 1740              		.loc 1 225 28 is_stmt 0 view .LVU470
 1741 0072 04EB4403 		add	r3, r4, r4, lsl #1
 1742 0076 DA00     		lsls	r2, r3, #3
 1743              	.LVL154:
 225:Middlewares/Third_Party/LwIP/src/core/ipv4/etharp.c ****       } else if (arp_table[i].state == ETHARP_STATE_PENDING) {
 1744              		.loc 1 225 28 view .LVU471
 1745 0078 024B     		ldr	r3, .L136
 1746 007a 1344     		add	r3, r3, r2
 1747 007c 0222     		movs	r2, #2
 1748 007e 1A75     		strb	r2, [r3, #20]
 1749              	.LVL155:
 225:Middlewares/Third_Party/LwIP/src/core/ipv4/etharp.c ****       } else if (arp_table[i].state == ETHARP_STATE_PENDING) {
 1750              		.loc 1 225 28 view .LVU472
 1751 0080 C6E7     		b	.L125
 1752              	.L132:
 225:Middlewares/Third_Party/LwIP/src/core/ipv4/etharp.c ****       } else if (arp_table[i].state == ETHARP_STATE_PENDING) {
 1753              		.loc 1 225 28 view .LVU473
 1754              	.LBE8:
 232:Middlewares/Third_Party/LwIP/src/core/ipv4/etharp.c **** 
 1755              		.loc 1 232 1 view .LVU474
 1756 0082 10BD     		pop	{r4, pc}
 1757              	.LVL156:
 1758              	.L137:
 232:Middlewares/Third_Party/LwIP/src/core/ipv4/etharp.c **** 
 1759              		.loc 1 232 1 view .LVU475
 1760              		.align	2
 1761              	.L136:
 1762 0084 00000000 		.word	.LANCHOR0
 1763              		.cfi_endproc
 1764              	.LFE26:
 1766              		.section	.rodata.etharp_output_to_arp_index.str1.4,"aMS",%progbits,1
 1767              		.align	2
 1768              	.LC13:
 1769 0000 6172705F 		.ascii	"arp_table[arp_idx].state >= ETHARP_STATE_STABLE\000"
 1769      7461626C 
 1769      655B6172 
 1769      705F6964 
 1769      785D2E73 
 1770              		.section	.text.etharp_output_to_arp_index,"ax",%progbits
 1771              		.align	1
 1772              		.syntax unified
 1773              		.thumb
 1774              		.thumb_func
 1775              		.fpu fpv5-sp-d16
 1777              	etharp_output_to_arp_index:
ARM GAS  D:\Dev\msys64\tmp\ccwKvaRW.s 			page 59


 1778              	.LVL157:
 1779              	.LFB33:
 749:Middlewares/Third_Party/LwIP/src/core/ipv4/etharp.c ****   LWIP_ASSERT("arp_table[arp_idx].state >= ETHARP_STATE_STABLE",
 1780              		.loc 1 749 1 is_stmt 1 view -0
 1781              		.cfi_startproc
 1782              		@ args = 0, pretend = 0, frame = 0
 1783              		@ frame_needed = 0, uses_anonymous_args = 0
 749:Middlewares/Third_Party/LwIP/src/core/ipv4/etharp.c ****   LWIP_ASSERT("arp_table[arp_idx].state >= ETHARP_STATE_STABLE",
 1784              		.loc 1 749 1 is_stmt 0 view .LVU477
 1785 0000 70B5     		push	{r4, r5, r6, lr}
 1786              	.LCFI25:
 1787              		.cfi_def_cfa_offset 16
 1788              		.cfi_offset 4, -16
 1789              		.cfi_offset 5, -12
 1790              		.cfi_offset 6, -8
 1791              		.cfi_offset 14, -4
 1792 0002 82B0     		sub	sp, sp, #8
 1793              	.LCFI26:
 1794              		.cfi_def_cfa_offset 24
 1795 0004 0546     		mov	r5, r0
 1796 0006 0E46     		mov	r6, r1
 1797 0008 1446     		mov	r4, r2
 750:Middlewares/Third_Party/LwIP/src/core/ipv4/etharp.c ****               arp_table[arp_idx].state >= ETHARP_STATE_STABLE);
 1798              		.loc 1 750 3 is_stmt 1 view .LVU478
 750:Middlewares/Third_Party/LwIP/src/core/ipv4/etharp.c ****               arp_table[arp_idx].state >= ETHARP_STATE_STABLE);
 1799              		.loc 1 750 3 view .LVU479
 1800 000a 02EB4202 		add	r2, r2, r2, lsl #1
 1801              	.LVL158:
 750:Middlewares/Third_Party/LwIP/src/core/ipv4/etharp.c ****               arp_table[arp_idx].state >= ETHARP_STATE_STABLE);
 1802              		.loc 1 750 3 is_stmt 0 view .LVU480
 1803 000e 2F4B     		ldr	r3, .L146
 1804 0010 03EBC203 		add	r3, r3, r2, lsl #3
 1805 0014 1B7D     		ldrb	r3, [r3, #20]	@ zero_extendqisi2
 1806 0016 012B     		cmp	r3, #1
 1807 0018 19D9     		bls	.L143
 1808              	.LVL159:
 1809              	.L139:
 750:Middlewares/Third_Party/LwIP/src/core/ipv4/etharp.c ****               arp_table[arp_idx].state >= ETHARP_STATE_STABLE);
 1810              		.loc 1 750 3 is_stmt 1 discriminator 3 view .LVU481
 750:Middlewares/Third_Party/LwIP/src/core/ipv4/etharp.c ****               arp_table[arp_idx].state >= ETHARP_STATE_STABLE);
 1811              		.loc 1 750 3 discriminator 3 view .LVU482
 755:Middlewares/Third_Party/LwIP/src/core/ipv4/etharp.c ****     if (arp_table[arp_idx].ctime >= ARP_AGE_REREQUEST_USED_BROADCAST) {
 1812              		.loc 1 755 3 discriminator 3 view .LVU483
 755:Middlewares/Third_Party/LwIP/src/core/ipv4/etharp.c ****     if (arp_table[arp_idx].ctime >= ARP_AGE_REREQUEST_USED_BROADCAST) {
 1813              		.loc 1 755 25 is_stmt 0 discriminator 3 view .LVU484
 1814 001a 04EB4403 		add	r3, r4, r4, lsl #1
 1815 001e 2B4A     		ldr	r2, .L146
 1816 0020 02EBC303 		add	r3, r2, r3, lsl #3
 1817 0024 1B7D     		ldrb	r3, [r3, #20]	@ zero_extendqisi2
 755:Middlewares/Third_Party/LwIP/src/core/ipv4/etharp.c ****     if (arp_table[arp_idx].ctime >= ARP_AGE_REREQUEST_USED_BROADCAST) {
 1818              		.loc 1 755 6 discriminator 3 view .LVU485
 1819 0026 022B     		cmp	r3, #2
 1820 0028 19D0     		beq	.L144
 1821              	.L140:
 769:Middlewares/Third_Party/LwIP/src/core/ipv4/etharp.c **** }
 1822              		.loc 1 769 3 is_stmt 1 view .LVU486
 769:Middlewares/Third_Party/LwIP/src/core/ipv4/etharp.c **** }
ARM GAS  D:\Dev\msys64\tmp\ccwKvaRW.s 			page 60


 1823              		.loc 1 769 72 is_stmt 0 view .LVU487
 1824 002a 04EB4403 		add	r3, r4, r4, lsl #1
 1825 002e DB00     		lsls	r3, r3, #3
 1826 0030 0833     		adds	r3, r3, #8
 1827 0032 264C     		ldr	r4, .L146
 1828 0034 2344     		add	r3, r3, r4
 769:Middlewares/Third_Party/LwIP/src/core/ipv4/etharp.c **** }
 1829              		.loc 1 769 10 view .LVU488
 1830 0036 4FF40062 		mov	r2, #2048
 1831 003a 0092     		str	r2, [sp]
 1832 003c 0433     		adds	r3, r3, #4
 1833 003e 05F12A02 		add	r2, r5, #42
 1834 0042 3146     		mov	r1, r6
 1835 0044 2846     		mov	r0, r5
 1836 0046 FFF7FEFF 		bl	ethernet_output
 1837              	.LVL160:
 770:Middlewares/Third_Party/LwIP/src/core/ipv4/etharp.c **** 
 1838              		.loc 1 770 1 view .LVU489
 1839 004a 02B0     		add	sp, sp, #8
 1840              	.LCFI27:
 1841              		.cfi_remember_state
 1842              		.cfi_def_cfa_offset 16
 1843              		@ sp needed
 1844 004c 70BD     		pop	{r4, r5, r6, pc}
 1845              	.LVL161:
 1846              	.L143:
 1847              	.LCFI28:
 1848              		.cfi_restore_state
 750:Middlewares/Third_Party/LwIP/src/core/ipv4/etharp.c ****               arp_table[arp_idx].state >= ETHARP_STATE_STABLE);
 1849              		.loc 1 750 3 is_stmt 1 discriminator 1 view .LVU490
 750:Middlewares/Third_Party/LwIP/src/core/ipv4/etharp.c ****               arp_table[arp_idx].state >= ETHARP_STATE_STABLE);
 1850              		.loc 1 750 3 discriminator 1 view .LVU491
 1851 004e 204B     		ldr	r3, .L146+4
 1852 0050 40F2EE22 		movw	r2, #750
 1853 0054 1F49     		ldr	r1, .L146+8
 1854              	.LVL162:
 750:Middlewares/Third_Party/LwIP/src/core/ipv4/etharp.c ****               arp_table[arp_idx].state >= ETHARP_STATE_STABLE);
 1855              		.loc 1 750 3 is_stmt 0 discriminator 1 view .LVU492
 1856 0056 2048     		ldr	r0, .L146+12
 1857              	.LVL163:
 750:Middlewares/Third_Party/LwIP/src/core/ipv4/etharp.c ****               arp_table[arp_idx].state >= ETHARP_STATE_STABLE);
 1858              		.loc 1 750 3 discriminator 1 view .LVU493
 1859 0058 FFF7FEFF 		bl	printf
 1860              	.LVL164:
 1861 005c DDE7     		b	.L139
 1862              	.L144:
 756:Middlewares/Third_Party/LwIP/src/core/ipv4/etharp.c ****       /* issue a standard request using broadcast */
 1863              		.loc 1 756 5 is_stmt 1 view .LVU494
 756:Middlewares/Third_Party/LwIP/src/core/ipv4/etharp.c ****       /* issue a standard request using broadcast */
 1864              		.loc 1 756 27 is_stmt 0 view .LVU495
 1865 005e 04EB4403 		add	r3, r4, r4, lsl #1
 1866 0062 02EBC303 		add	r3, r2, r3, lsl #3
 1867 0066 5B8A     		ldrh	r3, [r3, #18]
 756:Middlewares/Third_Party/LwIP/src/core/ipv4/etharp.c ****       /* issue a standard request using broadcast */
 1868              		.loc 1 756 8 view .LVU496
 1869 0068 B3F58E7F 		cmp	r3, #284
 1870 006c 1BD8     		bhi	.L145
ARM GAS  D:\Dev\msys64\tmp\ccwKvaRW.s 			page 61


 761:Middlewares/Third_Party/LwIP/src/core/ipv4/etharp.c ****       /* issue a unicast request (for 15 seconds) to prevent unnecessary broadcast */
 1871              		.loc 1 761 12 is_stmt 1 view .LVU497
 761:Middlewares/Third_Party/LwIP/src/core/ipv4/etharp.c ****       /* issue a unicast request (for 15 seconds) to prevent unnecessary broadcast */
 1872              		.loc 1 761 15 is_stmt 0 view .LVU498
 1873 006e B3F5877F 		cmp	r3, #270
 1874 0072 DAD3     		bcc	.L140
 763:Middlewares/Third_Party/LwIP/src/core/ipv4/etharp.c ****         arp_table[arp_idx].state = ETHARP_STATE_STABLE_REREQUESTING_1;
 1875              		.loc 1 763 7 is_stmt 1 view .LVU499
 763:Middlewares/Third_Party/LwIP/src/core/ipv4/etharp.c ****         arp_table[arp_idx].state = ETHARP_STATE_STABLE_REREQUESTING_1;
 1876              		.loc 1 763 37 is_stmt 0 view .LVU500
 1877 0074 154B     		ldr	r3, .L146
 1878 0076 04EB4401 		add	r1, r4, r4, lsl #1
 1879 007a 03EBC101 		add	r1, r3, r1, lsl #3
 763:Middlewares/Third_Party/LwIP/src/core/ipv4/etharp.c ****         arp_table[arp_idx].state = ETHARP_STATE_STABLE_REREQUESTING_1;
 1880              		.loc 1 763 65 view .LVU501
 1881 007e 04EB4402 		add	r2, r4, r4, lsl #1
 1882 0082 D200     		lsls	r2, r2, #3
 1883 0084 0832     		adds	r2, r2, #8
 1884 0086 1A44     		add	r2, r2, r3
 763:Middlewares/Third_Party/LwIP/src/core/ipv4/etharp.c ****         arp_table[arp_idx].state = ETHARP_STATE_STABLE_REREQUESTING_1;
 1885              		.loc 1 763 11 view .LVU502
 1886 0088 0432     		adds	r2, r2, #4
 1887 008a 0431     		adds	r1, r1, #4
 1888 008c 2846     		mov	r0, r5
 1889 008e FFF7FEFF 		bl	etharp_request_dst
 1890              	.LVL165:
 763:Middlewares/Third_Party/LwIP/src/core/ipv4/etharp.c ****         arp_table[arp_idx].state = ETHARP_STATE_STABLE_REREQUESTING_1;
 1891              		.loc 1 763 10 view .LVU503
 1892 0092 0028     		cmp	r0, #0
 1893 0094 C9D1     		bne	.L140
 764:Middlewares/Third_Party/LwIP/src/core/ipv4/etharp.c ****       }
 1894              		.loc 1 764 9 is_stmt 1 view .LVU504
 764:Middlewares/Third_Party/LwIP/src/core/ipv4/etharp.c ****       }
 1895              		.loc 1 764 34 is_stmt 0 view .LVU505
 1896 0096 04EB4403 		add	r3, r4, r4, lsl #1
 1897 009a 0C4A     		ldr	r2, .L146
 1898 009c 02EBC303 		add	r3, r2, r3, lsl #3
 1899 00a0 0322     		movs	r2, #3
 1900 00a2 1A75     		strb	r2, [r3, #20]
 1901 00a4 C1E7     		b	.L140
 1902              	.L145:
 758:Middlewares/Third_Party/LwIP/src/core/ipv4/etharp.c ****         arp_table[arp_idx].state = ETHARP_STATE_STABLE_REREQUESTING_1;
 1903              		.loc 1 758 7 is_stmt 1 view .LVU506
 758:Middlewares/Third_Party/LwIP/src/core/ipv4/etharp.c ****         arp_table[arp_idx].state = ETHARP_STATE_STABLE_REREQUESTING_1;
 1904              		.loc 1 758 33 is_stmt 0 view .LVU507
 1905 00a6 04EB4401 		add	r1, r4, r4, lsl #1
 1906 00aa 02EBC101 		add	r1, r2, r1, lsl #3
 758:Middlewares/Third_Party/LwIP/src/core/ipv4/etharp.c ****         arp_table[arp_idx].state = ETHARP_STATE_STABLE_REREQUESTING_1;
 1907              		.loc 1 758 11 view .LVU508
 1908 00ae 0431     		adds	r1, r1, #4
 1909 00b0 2846     		mov	r0, r5
 1910 00b2 FFF7FEFF 		bl	etharp_request
 1911              	.LVL166:
 758:Middlewares/Third_Party/LwIP/src/core/ipv4/etharp.c ****         arp_table[arp_idx].state = ETHARP_STATE_STABLE_REREQUESTING_1;
 1912              		.loc 1 758 10 view .LVU509
 1913 00b6 0028     		cmp	r0, #0
 1914 00b8 B7D1     		bne	.L140
ARM GAS  D:\Dev\msys64\tmp\ccwKvaRW.s 			page 62


 759:Middlewares/Third_Party/LwIP/src/core/ipv4/etharp.c ****       }
 1915              		.loc 1 759 9 is_stmt 1 view .LVU510
 759:Middlewares/Third_Party/LwIP/src/core/ipv4/etharp.c ****       }
 1916              		.loc 1 759 34 is_stmt 0 view .LVU511
 1917 00ba 04EB4403 		add	r3, r4, r4, lsl #1
 1918 00be 034A     		ldr	r2, .L146
 1919 00c0 02EBC303 		add	r3, r2, r3, lsl #3
 1920 00c4 0322     		movs	r2, #3
 1921 00c6 1A75     		strb	r2, [r3, #20]
 1922 00c8 AFE7     		b	.L140
 1923              	.L147:
 1924 00ca 00BF     		.align	2
 1925              	.L146:
 1926 00cc 00000000 		.word	.LANCHOR0
 1927 00d0 00000000 		.word	.LC0
 1928 00d4 00000000 		.word	.LC13
 1929 00d8 74000000 		.word	.LC2
 1930              		.cfi_endproc
 1931              	.LFE33:
 1933              		.section	.rodata.etharp_query.str1.4,"aMS",%progbits,1
 1934              		.align	2
 1935              	.LC14:
 1936 0000 74797065 		.ascii	"type overflow\000"
 1936      206F7665 
 1936      72666C6F 
 1936      7700
 1937 000e 0000     		.align	2
 1938              	.LC15:
 1939 0010 6172705F 		.ascii	"arp_table[i].state == PENDING or STABLE\000"
 1939      7461626C 
 1939      655B695D 
 1939      2E737461 
 1939      7465203D 
 1940              		.align	2
 1941              	.LC16:
 1942 0038 7120213D 		.ascii	"q != NULL\000"
 1942      204E554C 
 1942      4C00
 1943 0042 0000     		.align	2
 1944              	.LC17:
 1945 0044 6E6F2070 		.ascii	"no packet queues allowed!\000"
 1945      61636B65 
 1945      74207175 
 1945      65756573 
 1945      20616C6C 
 1946              		.section	.text.etharp_query,"ax",%progbits
 1947              		.align	1
 1948              		.global	etharp_query
 1949              		.syntax unified
 1950              		.thumb
 1951              		.thumb_func
 1952              		.fpu fpv5-sp-d16
 1954              	etharp_query:
 1955              	.LVL167:
 1956              	.LFB35:
 934:Middlewares/Third_Party/LwIP/src/core/ipv4/etharp.c ****   struct eth_addr *srcaddr = (struct eth_addr *)netif->hwaddr;
 1957              		.loc 1 934 1 is_stmt 1 view -0
ARM GAS  D:\Dev\msys64\tmp\ccwKvaRW.s 			page 63


 1958              		.cfi_startproc
 1959              		@ args = 0, pretend = 0, frame = 0
 1960              		@ frame_needed = 0, uses_anonymous_args = 0
 934:Middlewares/Third_Party/LwIP/src/core/ipv4/etharp.c ****   struct eth_addr *srcaddr = (struct eth_addr *)netif->hwaddr;
 1961              		.loc 1 934 1 is_stmt 0 view .LVU513
 1962 0000 2DE9F043 		push	{r4, r5, r6, r7, r8, r9, lr}
 1963              	.LCFI29:
 1964              		.cfi_def_cfa_offset 28
 1965              		.cfi_offset 4, -28
 1966              		.cfi_offset 5, -24
 1967              		.cfi_offset 6, -20
 1968              		.cfi_offset 7, -16
 1969              		.cfi_offset 8, -12
 1970              		.cfi_offset 9, -8
 1971              		.cfi_offset 14, -4
 1972 0004 83B0     		sub	sp, sp, #12
 1973              	.LCFI30:
 1974              		.cfi_def_cfa_offset 40
 1975 0006 8046     		mov	r8, r0
 1976 0008 0E46     		mov	r6, r1
 1977 000a 1746     		mov	r7, r2
 935:Middlewares/Third_Party/LwIP/src/core/ipv4/etharp.c ****   err_t result = ERR_MEM;
 1978              		.loc 1 935 3 is_stmt 1 view .LVU514
 935:Middlewares/Third_Party/LwIP/src/core/ipv4/etharp.c ****   err_t result = ERR_MEM;
 1979              		.loc 1 935 20 is_stmt 0 view .LVU515
 1980 000c 00F12A09 		add	r9, r0, #42
 1981              	.LVL168:
 936:Middlewares/Third_Party/LwIP/src/core/ipv4/etharp.c ****   int is_new_entry = 0;
 1982              		.loc 1 936 3 is_stmt 1 view .LVU516
 937:Middlewares/Third_Party/LwIP/src/core/ipv4/etharp.c ****   s16_t i_err;
 1983              		.loc 1 937 3 view .LVU517
 938:Middlewares/Third_Party/LwIP/src/core/ipv4/etharp.c ****   netif_addr_idx_t i;
 1984              		.loc 1 938 3 view .LVU518
 939:Middlewares/Third_Party/LwIP/src/core/ipv4/etharp.c **** 
 1985              		.loc 1 939 3 view .LVU519
 942:Middlewares/Third_Party/LwIP/src/core/ipv4/etharp.c ****       ip4_addr_ismulticast(ipaddr) ||
 1986              		.loc 1 942 3 view .LVU520
 942:Middlewares/Third_Party/LwIP/src/core/ipv4/etharp.c ****       ip4_addr_ismulticast(ipaddr) ||
 1987              		.loc 1 942 7 is_stmt 0 view .LVU521
 1988 0010 0146     		mov	r1, r0
 1989              	.LVL169:
 942:Middlewares/Third_Party/LwIP/src/core/ipv4/etharp.c ****       ip4_addr_ismulticast(ipaddr) ||
 1990              		.loc 1 942 7 view .LVU522
 1991 0012 3068     		ldr	r0, [r6]
 1992              	.LVL170:
 942:Middlewares/Third_Party/LwIP/src/core/ipv4/etharp.c ****       ip4_addr_ismulticast(ipaddr) ||
 1993              		.loc 1 942 7 view .LVU523
 1994 0014 FFF7FEFF 		bl	ip4_addr_isbroadcast_u32
 1995              	.LVL171:
 942:Middlewares/Third_Party/LwIP/src/core/ipv4/etharp.c ****       ip4_addr_ismulticast(ipaddr) ||
 1996              		.loc 1 942 6 view .LVU524
 1997 0018 0028     		cmp	r0, #0
 1998 001a 40F0AD80 		bne	.L164
 943:Middlewares/Third_Party/LwIP/src/core/ipv4/etharp.c ****       ip4_addr_isany(ipaddr)) {
 1999              		.loc 1 943 7 discriminator 1 view .LVU525
 2000 001e 3368     		ldr	r3, [r6]
 2001 0020 03F0F002 		and	r2, r3, #240
ARM GAS  D:\Dev\msys64\tmp\ccwKvaRW.s 			page 64


 942:Middlewares/Third_Party/LwIP/src/core/ipv4/etharp.c ****       ip4_addr_ismulticast(ipaddr) ||
 2002              		.loc 1 942 43 discriminator 1 view .LVU526
 2003 0024 E02A     		cmp	r2, #224
 2004 0026 00F0AA80 		beq	.L165
 943:Middlewares/Third_Party/LwIP/src/core/ipv4/etharp.c ****       ip4_addr_isany(ipaddr)) {
 2005              		.loc 1 943 36 view .LVU527
 2006 002a 002E     		cmp	r6, #0
 2007 002c 00F0AA80 		beq	.L166
 944:Middlewares/Third_Party/LwIP/src/core/ipv4/etharp.c ****     LWIP_DEBUGF(ETHARP_DEBUG | LWIP_DBG_TRACE, ("etharp_query: will not add non-unicast IP address 
 2008              		.loc 1 944 7 view .LVU528
 2009 0030 002B     		cmp	r3, #0
 2010 0032 00F0AA80 		beq	.L167
 950:Middlewares/Third_Party/LwIP/src/core/ipv4/etharp.c **** 
 2011              		.loc 1 950 3 is_stmt 1 view .LVU529
 950:Middlewares/Third_Party/LwIP/src/core/ipv4/etharp.c **** 
 2012              		.loc 1 950 11 is_stmt 0 view .LVU530
 2013 0036 4246     		mov	r2, r8
 2014 0038 0121     		movs	r1, #1
 2015 003a 3046     		mov	r0, r6
 2016 003c FFF7FEFF 		bl	etharp_find_entry
 2017              	.LVL172:
 953:Middlewares/Third_Party/LwIP/src/core/ipv4/etharp.c ****     LWIP_DEBUGF(ETHARP_DEBUG | LWIP_DBG_TRACE, ("etharp_query: could not create ARP entry\n"));
 2018              		.loc 1 953 3 is_stmt 1 view .LVU531
 953:Middlewares/Third_Party/LwIP/src/core/ipv4/etharp.c ****     LWIP_DEBUGF(ETHARP_DEBUG | LWIP_DBG_TRACE, ("etharp_query: could not create ARP entry\n"));
 2019              		.loc 1 953 6 is_stmt 0 view .LVU532
 2020 0040 051E     		subs	r5, r0, #0
 2021 0042 2CDB     		blt	.L174
 961:Middlewares/Third_Party/LwIP/src/core/ipv4/etharp.c ****   i = (netif_addr_idx_t)i_err;
 2022              		.loc 1 961 3 is_stmt 1 view .LVU533
 961:Middlewares/Third_Party/LwIP/src/core/ipv4/etharp.c ****   i = (netif_addr_idx_t)i_err;
 2023              		.loc 1 961 3 view .LVU534
 2024 0044 ABB2     		uxth	r3, r5
 2025 0046 7E2B     		cmp	r3, #126
 2026 0048 2BD8     		bhi	.L175
 2027              	.LVL173:
 2028              	.L151:
 961:Middlewares/Third_Party/LwIP/src/core/ipv4/etharp.c ****   i = (netif_addr_idx_t)i_err;
 2029              		.loc 1 961 3 discriminator 3 view .LVU535
 961:Middlewares/Third_Party/LwIP/src/core/ipv4/etharp.c ****   i = (netif_addr_idx_t)i_err;
 2030              		.loc 1 961 3 discriminator 3 view .LVU536
 962:Middlewares/Third_Party/LwIP/src/core/ipv4/etharp.c **** 
 2031              		.loc 1 962 3 discriminator 3 view .LVU537
 962:Middlewares/Third_Party/LwIP/src/core/ipv4/etharp.c **** 
 2032              		.loc 1 962 5 is_stmt 0 discriminator 3 view .LVU538
 2033 004a EDB2     		uxtb	r5, r5
 2034              	.LVL174:
 965:Middlewares/Third_Party/LwIP/src/core/ipv4/etharp.c ****     is_new_entry = 1;
 2035              		.loc 1 965 3 is_stmt 1 discriminator 3 view .LVU539
 965:Middlewares/Third_Party/LwIP/src/core/ipv4/etharp.c ****     is_new_entry = 1;
 2036              		.loc 1 965 19 is_stmt 0 discriminator 3 view .LVU540
 2037 004c 05EB4502 		add	r2, r5, r5, lsl #1
 2038 0050 514B     		ldr	r3, .L181
 2039 0052 03EBC203 		add	r3, r3, r2, lsl #3
 2040 0056 1B7D     		ldrb	r3, [r3, #20]	@ zero_extendqisi2
 965:Middlewares/Third_Party/LwIP/src/core/ipv4/etharp.c ****     is_new_entry = 1;
 2041              		.loc 1 965 6 discriminator 3 view .LVU541
 2042 0058 5BBB     		cbnz	r3, .L168
ARM GAS  D:\Dev\msys64\tmp\ccwKvaRW.s 			page 65


 966:Middlewares/Third_Party/LwIP/src/core/ipv4/etharp.c ****     arp_table[i].state = ETHARP_STATE_PENDING;
 2043              		.loc 1 966 5 is_stmt 1 view .LVU542
 2044              	.LVL175:
 967:Middlewares/Third_Party/LwIP/src/core/ipv4/etharp.c ****     /* record network interface for re-sending arp request in etharp_tmr */
 2045              		.loc 1 967 5 view .LVU543
 967:Middlewares/Third_Party/LwIP/src/core/ipv4/etharp.c ****     /* record network interface for re-sending arp request in etharp_tmr */
 2046              		.loc 1 967 24 is_stmt 0 view .LVU544
 2047 005a 1346     		mov	r3, r2
 2048 005c 4E4A     		ldr	r2, .L181
 2049 005e 02EBC303 		add	r3, r2, r3, lsl #3
 2050 0062 0124     		movs	r4, #1
 2051 0064 1C75     		strb	r4, [r3, #20]
 969:Middlewares/Third_Party/LwIP/src/core/ipv4/etharp.c ****   }
 2052              		.loc 1 969 5 is_stmt 1 view .LVU545
 969:Middlewares/Third_Party/LwIP/src/core/ipv4/etharp.c ****   }
 2053              		.loc 1 969 24 is_stmt 0 view .LVU546
 2054 0066 C3F80880 		str	r8, [r3, #8]
 2055              	.LVL176:
 2056              	.L152:
 973:Middlewares/Third_Party/LwIP/src/core/ipv4/etharp.c ****               ((arp_table[i].state == ETHARP_STATE_PENDING) ||
 2057              		.loc 1 973 3 is_stmt 1 view .LVU547
 973:Middlewares/Third_Party/LwIP/src/core/ipv4/etharp.c ****               ((arp_table[i].state == ETHARP_STATE_PENDING) ||
 2058              		.loc 1 973 3 view .LVU548
 2059 006a 05EB4503 		add	r3, r5, r5, lsl #1
 2060 006e 4A4A     		ldr	r2, .L181
 2061 0070 02EBC303 		add	r3, r2, r3, lsl #3
 2062 0074 1B7D     		ldrb	r3, [r3, #20]	@ zero_extendqisi2
 2063 0076 F3B1     		cbz	r3, .L176
 2064              	.L153:
 973:Middlewares/Third_Party/LwIP/src/core/ipv4/etharp.c ****               ((arp_table[i].state == ETHARP_STATE_PENDING) ||
 2065              		.loc 1 973 3 discriminator 3 view .LVU549
 973:Middlewares/Third_Party/LwIP/src/core/ipv4/etharp.c ****               ((arp_table[i].state == ETHARP_STATE_PENDING) ||
 2066              		.loc 1 973 3 discriminator 3 view .LVU550
 978:Middlewares/Third_Party/LwIP/src/core/ipv4/etharp.c ****     /* try to resolve it; send out ARP request */
 2067              		.loc 1 978 3 discriminator 3 view .LVU551
 978:Middlewares/Third_Party/LwIP/src/core/ipv4/etharp.c ****     /* try to resolve it; send out ARP request */
 2068              		.loc 1 978 20 is_stmt 0 discriminator 3 view .LVU552
 2069 0078 002F     		cmp	r7, #0
 2070 007a 08BF     		it	eq
 2071 007c 0124     		moveq	r4, #1
 2072              	.LVL177:
 978:Middlewares/Third_Party/LwIP/src/core/ipv4/etharp.c ****     /* try to resolve it; send out ARP request */
 2073              		.loc 1 978 6 discriminator 3 view .LVU553
 2074 007e 14BB     		cbnz	r4, .L177
 936:Middlewares/Third_Party/LwIP/src/core/ipv4/etharp.c ****   int is_new_entry = 0;
 2075              		.loc 1 936 9 view .LVU554
 2076 0080 4FF0FF34 		mov	r4, #-1
 2077              	.LVL178:
 2078              	.L154:
 993:Middlewares/Third_Party/LwIP/src/core/ipv4/etharp.c ****   /* stable entry? */
