ARM GAS  D:\Dev\msys64\tmp\ccncNyTv.s 			page 1


   1              		.cpu cortex-m7
   2              		.eabi_attribute 27, 1
   3              		.eabi_attribute 28, 1
   4              		.eabi_attribute 20, 1
   5              		.eabi_attribute 21, 1
   6              		.eabi_attribute 23, 3
   7              		.eabi_attribute 24, 1
   8              		.eabi_attribute 25, 1
   9              		.eabi_attribute 26, 1
  10              		.eabi_attribute 30, 1
  11              		.eabi_attribute 34, 1
  12              		.eabi_attribute 18, 4
  13              		.file	"ethernet.c"
  14              		.text
  15              	.Ltext0:
  16              		.cfi_sections	.debug_frame
  17              		.section	.text.ethernet_input,"ax",%progbits
  18              		.align	1
  19              		.global	ethernet_input
  20              		.arch armv7e-m
  21              		.syntax unified
  22              		.thumb
  23              		.thumb_func
  24              		.fpu fpv5-sp-d16
  26              	ethernet_input:
  27              	.LVL0:
  28              	.LFB25:
  29              		.file 1 "Middlewares/Third_Party/LwIP/src/netif/ethernet.c"
   1:Middlewares/Third_Party/LwIP/src/netif/ethernet.c **** /**
   2:Middlewares/Third_Party/LwIP/src/netif/ethernet.c ****  * @file
   3:Middlewares/Third_Party/LwIP/src/netif/ethernet.c ****  * Ethernet common functions
   4:Middlewares/Third_Party/LwIP/src/netif/ethernet.c ****  *
   5:Middlewares/Third_Party/LwIP/src/netif/ethernet.c ****  * @defgroup ethernet Ethernet
   6:Middlewares/Third_Party/LwIP/src/netif/ethernet.c ****  * @ingroup callbackstyle_api
   7:Middlewares/Third_Party/LwIP/src/netif/ethernet.c ****  */
   8:Middlewares/Third_Party/LwIP/src/netif/ethernet.c **** 
   9:Middlewares/Third_Party/LwIP/src/netif/ethernet.c **** /*
  10:Middlewares/Third_Party/LwIP/src/netif/ethernet.c ****  * Copyright (c) 2001-2003 Swedish Institute of Computer Science.
  11:Middlewares/Third_Party/LwIP/src/netif/ethernet.c ****  * Copyright (c) 2003-2004 Leon Woestenberg <leon.woestenberg@axon.tv>
  12:Middlewares/Third_Party/LwIP/src/netif/ethernet.c ****  * Copyright (c) 2003-2004 Axon Digital Design B.V., The Netherlands.
  13:Middlewares/Third_Party/LwIP/src/netif/ethernet.c ****  * All rights reserved.
  14:Middlewares/Third_Party/LwIP/src/netif/ethernet.c ****  *
  15:Middlewares/Third_Party/LwIP/src/netif/ethernet.c ****  * Redistribution and use in source and binary forms, with or without modification,
  16:Middlewares/Third_Party/LwIP/src/netif/ethernet.c ****  * are permitted provided that the following conditions are met:
  17:Middlewares/Third_Party/LwIP/src/netif/ethernet.c ****  *
  18:Middlewares/Third_Party/LwIP/src/netif/ethernet.c ****  * 1. Redistributions of source code must retain the above copyright notice,
  19:Middlewares/Third_Party/LwIP/src/netif/ethernet.c ****  *    this list of conditions and the following disclaimer.
  20:Middlewares/Third_Party/LwIP/src/netif/ethernet.c ****  * 2. Redistributions in binary form must reproduce the above copyright notice,
  21:Middlewares/Third_Party/LwIP/src/netif/ethernet.c ****  *    this list of conditions and the following disclaimer in the documentation
  22:Middlewares/Third_Party/LwIP/src/netif/ethernet.c ****  *    and/or other materials provided with the distribution.
  23:Middlewares/Third_Party/LwIP/src/netif/ethernet.c ****  * 3. The name of the author may not be used to endorse or promote products
  24:Middlewares/Third_Party/LwIP/src/netif/ethernet.c ****  *    derived from this software without specific prior written permission.
  25:Middlewares/Third_Party/LwIP/src/netif/ethernet.c ****  *
  26:Middlewares/Third_Party/LwIP/src/netif/ethernet.c ****  * THIS SOFTWARE IS PROVIDED BY THE AUTHOR ``AS IS'' AND ANY EXPRESS OR IMPLIED
  27:Middlewares/Third_Party/LwIP/src/netif/ethernet.c ****  * WARRANTIES, INCLUDING, BUT NOT LIMITED TO, THE IMPLIED WARRANTIES OF
  28:Middlewares/Third_Party/LwIP/src/netif/ethernet.c ****  * MERCHANTABILITY AND FITNESS FOR A PARTICULAR PURPOSE ARE DISCLAIMED. IN NO EVENT
  29:Middlewares/Third_Party/LwIP/src/netif/ethernet.c ****  * SHALL THE AUTHOR BE LIABLE FOR ANY DIRECT, INDIRECT, INCIDENTAL, SPECIAL,
ARM GAS  D:\Dev\msys64\tmp\ccncNyTv.s 			page 2


  30:Middlewares/Third_Party/LwIP/src/netif/ethernet.c ****  * EXEMPLARY, OR CONSEQUENTIAL DAMAGES (INCLUDING, BUT NOT LIMITED TO, PROCUREMENT
  31:Middlewares/Third_Party/LwIP/src/netif/ethernet.c ****  * OF SUBSTITUTE GOODS OR SERVICES; LOSS OF USE, DATA, OR PROFITS; OR BUSINESS
  32:Middlewares/Third_Party/LwIP/src/netif/ethernet.c ****  * INTERRUPTION) HOWEVER CAUSED AND ON ANY THEORY OF LIABILITY, WHETHER IN
  33:Middlewares/Third_Party/LwIP/src/netif/ethernet.c ****  * CONTRACT, STRICT LIABILITY, OR TORT (INCLUDING NEGLIGENCE OR OTHERWISE) ARISING
  34:Middlewares/Third_Party/LwIP/src/netif/ethernet.c ****  * IN ANY WAY OUT OF THE USE OF THIS SOFTWARE, EVEN IF ADVISED OF THE POSSIBILITY
  35:Middlewares/Third_Party/LwIP/src/netif/ethernet.c ****  * OF SUCH DAMAGE.
  36:Middlewares/Third_Party/LwIP/src/netif/ethernet.c ****  *
  37:Middlewares/Third_Party/LwIP/src/netif/ethernet.c ****  * This file is part of the lwIP TCP/IP stack.
  38:Middlewares/Third_Party/LwIP/src/netif/ethernet.c ****  *
  39:Middlewares/Third_Party/LwIP/src/netif/ethernet.c ****  */
  40:Middlewares/Third_Party/LwIP/src/netif/ethernet.c **** 
  41:Middlewares/Third_Party/LwIP/src/netif/ethernet.c **** #include "lwip/opt.h"
  42:Middlewares/Third_Party/LwIP/src/netif/ethernet.c **** 
  43:Middlewares/Third_Party/LwIP/src/netif/ethernet.c **** #if LWIP_ARP || LWIP_ETHERNET
  44:Middlewares/Third_Party/LwIP/src/netif/ethernet.c **** 
  45:Middlewares/Third_Party/LwIP/src/netif/ethernet.c **** #include "netif/ethernet.h"
  46:Middlewares/Third_Party/LwIP/src/netif/ethernet.c **** #include "lwip/def.h"
  47:Middlewares/Third_Party/LwIP/src/netif/ethernet.c **** #include "lwip/stats.h"
  48:Middlewares/Third_Party/LwIP/src/netif/ethernet.c **** #include "lwip/etharp.h"
  49:Middlewares/Third_Party/LwIP/src/netif/ethernet.c **** #include "lwip/ip.h"
  50:Middlewares/Third_Party/LwIP/src/netif/ethernet.c **** #include "lwip/snmp.h"
  51:Middlewares/Third_Party/LwIP/src/netif/ethernet.c **** 
  52:Middlewares/Third_Party/LwIP/src/netif/ethernet.c **** #include <string.h>
  53:Middlewares/Third_Party/LwIP/src/netif/ethernet.c **** 
  54:Middlewares/Third_Party/LwIP/src/netif/ethernet.c **** #include "netif/ppp/ppp_opts.h"
  55:Middlewares/Third_Party/LwIP/src/netif/ethernet.c **** #if PPPOE_SUPPORT
  56:Middlewares/Third_Party/LwIP/src/netif/ethernet.c **** #include "netif/ppp/pppoe.h"
  57:Middlewares/Third_Party/LwIP/src/netif/ethernet.c **** #endif /* PPPOE_SUPPORT */
  58:Middlewares/Third_Party/LwIP/src/netif/ethernet.c **** 
  59:Middlewares/Third_Party/LwIP/src/netif/ethernet.c **** #ifdef LWIP_HOOK_FILENAME
  60:Middlewares/Third_Party/LwIP/src/netif/ethernet.c **** #include LWIP_HOOK_FILENAME
  61:Middlewares/Third_Party/LwIP/src/netif/ethernet.c **** #endif
  62:Middlewares/Third_Party/LwIP/src/netif/ethernet.c **** 
  63:Middlewares/Third_Party/LwIP/src/netif/ethernet.c **** const struct eth_addr ethbroadcast = {{0xff, 0xff, 0xff, 0xff, 0xff, 0xff}};
  64:Middlewares/Third_Party/LwIP/src/netif/ethernet.c **** const struct eth_addr ethzero = {{0, 0, 0, 0, 0, 0}};
  65:Middlewares/Third_Party/LwIP/src/netif/ethernet.c **** 
  66:Middlewares/Third_Party/LwIP/src/netif/ethernet.c **** /**
  67:Middlewares/Third_Party/LwIP/src/netif/ethernet.c ****  * @ingroup lwip_nosys
  68:Middlewares/Third_Party/LwIP/src/netif/ethernet.c ****  * Process received ethernet frames. Using this function instead of directly
  69:Middlewares/Third_Party/LwIP/src/netif/ethernet.c ****  * calling ip_input and passing ARP frames through etharp in ethernetif_input,
  70:Middlewares/Third_Party/LwIP/src/netif/ethernet.c ****  * the ARP cache is protected from concurrent access.\n
  71:Middlewares/Third_Party/LwIP/src/netif/ethernet.c ****  * Don't call directly, pass to netif_add() and call netif->input().
  72:Middlewares/Third_Party/LwIP/src/netif/ethernet.c ****  *
  73:Middlewares/Third_Party/LwIP/src/netif/ethernet.c ****  * @param p the received packet, p->payload pointing to the ethernet header
  74:Middlewares/Third_Party/LwIP/src/netif/ethernet.c ****  * @param netif the network interface on which the packet was received
  75:Middlewares/Third_Party/LwIP/src/netif/ethernet.c ****  *
  76:Middlewares/Third_Party/LwIP/src/netif/ethernet.c ****  * @see LWIP_HOOK_UNKNOWN_ETH_PROTOCOL
  77:Middlewares/Third_Party/LwIP/src/netif/ethernet.c ****  * @see ETHARP_SUPPORT_VLAN
  78:Middlewares/Third_Party/LwIP/src/netif/ethernet.c ****  * @see LWIP_HOOK_VLAN_CHECK
  79:Middlewares/Third_Party/LwIP/src/netif/ethernet.c ****  */
  80:Middlewares/Third_Party/LwIP/src/netif/ethernet.c **** err_t
  81:Middlewares/Third_Party/LwIP/src/netif/ethernet.c **** ethernet_input(struct pbuf *p, struct netif *netif)
  82:Middlewares/Third_Party/LwIP/src/netif/ethernet.c **** {
  30              		.loc 1 82 1 view -0
  31              		.cfi_startproc
  32              		@ args = 0, pretend = 0, frame = 0
  33              		@ frame_needed = 0, uses_anonymous_args = 0
ARM GAS  D:\Dev\msys64\tmp\ccncNyTv.s 			page 3


  34              		.loc 1 82 1 is_stmt 0 view .LVU1
  35 0000 70B5     		push	{r4, r5, r6, lr}
  36              	.LCFI0:
  37              		.cfi_def_cfa_offset 16
  38              		.cfi_offset 4, -16
  39              		.cfi_offset 5, -12
  40              		.cfi_offset 6, -8
  41              		.cfi_offset 14, -4
  42 0002 0446     		mov	r4, r0
  83:Middlewares/Third_Party/LwIP/src/netif/ethernet.c ****   struct eth_hdr *ethhdr;
  43              		.loc 1 83 3 is_stmt 1 view .LVU2
  84:Middlewares/Third_Party/LwIP/src/netif/ethernet.c ****   u16_t type;
  44              		.loc 1 84 3 view .LVU3
  85:Middlewares/Third_Party/LwIP/src/netif/ethernet.c **** #if LWIP_ARP || ETHARP_SUPPORT_VLAN || LWIP_IPV6
  86:Middlewares/Third_Party/LwIP/src/netif/ethernet.c ****   u16_t next_hdr_offset = SIZEOF_ETH_HDR;
  45              		.loc 1 86 3 view .LVU4
  46              	.LVL1:
  87:Middlewares/Third_Party/LwIP/src/netif/ethernet.c **** #endif /* LWIP_ARP || ETHARP_SUPPORT_VLAN */
  88:Middlewares/Third_Party/LwIP/src/netif/ethernet.c **** 
  89:Middlewares/Third_Party/LwIP/src/netif/ethernet.c ****   LWIP_ASSERT_CORE_LOCKED();
  47              		.loc 1 89 28 view .LVU5
  90:Middlewares/Third_Party/LwIP/src/netif/ethernet.c **** 
  91:Middlewares/Third_Party/LwIP/src/netif/ethernet.c ****   if (p->len <= SIZEOF_ETH_HDR) {
  48              		.loc 1 91 3 view .LVU6
  49              		.loc 1 91 8 is_stmt 0 view .LVU7
  50 0004 4389     		ldrh	r3, [r0, #10]
  51              		.loc 1 91 6 view .LVU8
  52 0006 0E2B     		cmp	r3, #14
  53 0008 1CD9     		bls	.L2
  54 000a 0D46     		mov	r5, r1
  92:Middlewares/Third_Party/LwIP/src/netif/ethernet.c ****     /* a packet with only an ethernet header (or less) is not valid for us */
  93:Middlewares/Third_Party/LwIP/src/netif/ethernet.c ****     ETHARP_STATS_INC(etharp.proterr);
  94:Middlewares/Third_Party/LwIP/src/netif/ethernet.c ****     ETHARP_STATS_INC(etharp.drop);
  95:Middlewares/Third_Party/LwIP/src/netif/ethernet.c ****     MIB2_STATS_NETIF_INC(netif, ifinerrors);
  96:Middlewares/Third_Party/LwIP/src/netif/ethernet.c ****     goto free_and_return;
  97:Middlewares/Third_Party/LwIP/src/netif/ethernet.c ****   }
  98:Middlewares/Third_Party/LwIP/src/netif/ethernet.c **** 
  99:Middlewares/Third_Party/LwIP/src/netif/ethernet.c ****   if (p->if_idx == NETIF_NO_INDEX) {
  55              		.loc 1 99 3 is_stmt 1 view .LVU9
  56              		.loc 1 99 8 is_stmt 0 view .LVU10
  57 000c C37B     		ldrb	r3, [r0, #15]	@ zero_extendqisi2
  58              		.loc 1 99 6 view .LVU11
  59 000e 1BB9     		cbnz	r3, .L3
 100:Middlewares/Third_Party/LwIP/src/netif/ethernet.c ****     p->if_idx = netif_get_index(netif);
  60              		.loc 1 100 5 is_stmt 1 view .LVU12
  61              		.loc 1 100 17 is_stmt 0 view .LVU13
  62 0010 91F83430 		ldrb	r3, [r1, #52]	@ zero_extendqisi2
  63 0014 0133     		adds	r3, r3, #1
  64              		.loc 1 100 15 view .LVU14
  65 0016 C373     		strb	r3, [r0, #15]
  66              	.L3:
 101:Middlewares/Third_Party/LwIP/src/netif/ethernet.c ****   }
 102:Middlewares/Third_Party/LwIP/src/netif/ethernet.c **** 
 103:Middlewares/Third_Party/LwIP/src/netif/ethernet.c ****   /* points to packet payload, which starts with an Ethernet header */
 104:Middlewares/Third_Party/LwIP/src/netif/ethernet.c ****   ethhdr = (struct eth_hdr *)p->payload;
  67              		.loc 1 104 3 is_stmt 1 view .LVU15
  68              		.loc 1 104 10 is_stmt 0 view .LVU16
ARM GAS  D:\Dev\msys64\tmp\ccncNyTv.s 			page 4


  69 0018 6068     		ldr	r0, [r4, #4]
  70              	.LVL2:
 105:Middlewares/Third_Party/LwIP/src/netif/ethernet.c ****   LWIP_DEBUGF(ETHARP_DEBUG | LWIP_DBG_TRACE,
 106:Middlewares/Third_Party/LwIP/src/netif/ethernet.c ****               ("ethernet_input: dest:%"X8_F":%"X8_F":%"X8_F":%"X8_F":%"X8_F":%"X8_F", src:%"X8_F":%
 107:Middlewares/Third_Party/LwIP/src/netif/ethernet.c ****                (unsigned char)ethhdr->dest.addr[0], (unsigned char)ethhdr->dest.addr[1], (unsigned 
 108:Middlewares/Third_Party/LwIP/src/netif/ethernet.c ****                (unsigned char)ethhdr->dest.addr[3], (unsigned char)ethhdr->dest.addr[4], (unsigned 
 109:Middlewares/Third_Party/LwIP/src/netif/ethernet.c ****                (unsigned char)ethhdr->src.addr[0],  (unsigned char)ethhdr->src.addr[1],  (unsigned 
 110:Middlewares/Third_Party/LwIP/src/netif/ethernet.c ****                (unsigned char)ethhdr->src.addr[3],  (unsigned char)ethhdr->src.addr[4],  (unsigned 
 111:Middlewares/Third_Party/LwIP/src/netif/ethernet.c ****                lwip_htons(ethhdr->type)));
  71              		.loc 1 111 42 is_stmt 1 view .LVU17
 112:Middlewares/Third_Party/LwIP/src/netif/ethernet.c **** 
 113:Middlewares/Third_Party/LwIP/src/netif/ethernet.c ****   type = ethhdr->type;
  72              		.loc 1 113 3 view .LVU18
  73              		.loc 1 113 8 is_stmt 0 view .LVU19
  74 001a 8689     		ldrh	r6, [r0, #12]	@ unaligned
  75              	.LVL3:
 114:Middlewares/Third_Party/LwIP/src/netif/ethernet.c **** #if ETHARP_SUPPORT_VLAN
 115:Middlewares/Third_Party/LwIP/src/netif/ethernet.c ****   if (type == PP_HTONS(ETHTYPE_VLAN)) {
 116:Middlewares/Third_Party/LwIP/src/netif/ethernet.c ****     struct eth_vlan_hdr *vlan = (struct eth_vlan_hdr *)(((char *)ethhdr) + SIZEOF_ETH_HDR);
 117:Middlewares/Third_Party/LwIP/src/netif/ethernet.c ****     next_hdr_offset = SIZEOF_ETH_HDR + SIZEOF_VLAN_HDR;
 118:Middlewares/Third_Party/LwIP/src/netif/ethernet.c ****     if (p->len <= SIZEOF_ETH_HDR + SIZEOF_VLAN_HDR) {
 119:Middlewares/Third_Party/LwIP/src/netif/ethernet.c ****       /* a packet with only an ethernet/vlan header (or less) is not valid for us */
 120:Middlewares/Third_Party/LwIP/src/netif/ethernet.c ****       ETHARP_STATS_INC(etharp.proterr);
 121:Middlewares/Third_Party/LwIP/src/netif/ethernet.c ****       ETHARP_STATS_INC(etharp.drop);
 122:Middlewares/Third_Party/LwIP/src/netif/ethernet.c ****       MIB2_STATS_NETIF_INC(netif, ifinerrors);
 123:Middlewares/Third_Party/LwIP/src/netif/ethernet.c ****       goto free_and_return;
 124:Middlewares/Third_Party/LwIP/src/netif/ethernet.c ****     }
 125:Middlewares/Third_Party/LwIP/src/netif/ethernet.c **** #if defined(LWIP_HOOK_VLAN_CHECK) || defined(ETHARP_VLAN_CHECK) || defined(ETHARP_VLAN_CHECK_FN) /*
 126:Middlewares/Third_Party/LwIP/src/netif/ethernet.c **** #ifdef LWIP_HOOK_VLAN_CHECK
 127:Middlewares/Third_Party/LwIP/src/netif/ethernet.c ****     if (!LWIP_HOOK_VLAN_CHECK(netif, ethhdr, vlan)) {
 128:Middlewares/Third_Party/LwIP/src/netif/ethernet.c **** #elif defined(ETHARP_VLAN_CHECK_FN)
 129:Middlewares/Third_Party/LwIP/src/netif/ethernet.c ****     if (!ETHARP_VLAN_CHECK_FN(ethhdr, vlan)) {
 130:Middlewares/Third_Party/LwIP/src/netif/ethernet.c **** #elif defined(ETHARP_VLAN_CHECK)
 131:Middlewares/Third_Party/LwIP/src/netif/ethernet.c ****     if (VLAN_ID(vlan) != ETHARP_VLAN_CHECK) {
 132:Middlewares/Third_Party/LwIP/src/netif/ethernet.c **** #endif
 133:Middlewares/Third_Party/LwIP/src/netif/ethernet.c ****       /* silently ignore this packet: not for our VLAN */
 134:Middlewares/Third_Party/LwIP/src/netif/ethernet.c ****       pbuf_free(p);
 135:Middlewares/Third_Party/LwIP/src/netif/ethernet.c ****       return ERR_OK;
 136:Middlewares/Third_Party/LwIP/src/netif/ethernet.c ****     }
 137:Middlewares/Third_Party/LwIP/src/netif/ethernet.c **** #endif /* defined(LWIP_HOOK_VLAN_CHECK) || defined(ETHARP_VLAN_CHECK) || defined(ETHARP_VLAN_CHECK_
 138:Middlewares/Third_Party/LwIP/src/netif/ethernet.c ****     type = vlan->tpid;
 139:Middlewares/Third_Party/LwIP/src/netif/ethernet.c ****   }
 140:Middlewares/Third_Party/LwIP/src/netif/ethernet.c **** #endif /* ETHARP_SUPPORT_VLAN */
 141:Middlewares/Third_Party/LwIP/src/netif/ethernet.c **** 
 142:Middlewares/Third_Party/LwIP/src/netif/ethernet.c **** #if LWIP_ARP_FILTER_NETIF
 143:Middlewares/Third_Party/LwIP/src/netif/ethernet.c ****   netif = LWIP_ARP_FILTER_NETIF_FN(p, netif, lwip_htons(type));
 144:Middlewares/Third_Party/LwIP/src/netif/ethernet.c **** #endif /* LWIP_ARP_FILTER_NETIF*/
 145:Middlewares/Third_Party/LwIP/src/netif/ethernet.c **** 
 146:Middlewares/Third_Party/LwIP/src/netif/ethernet.c ****   if (ethhdr->dest.addr[0] & 1) {
  76              		.loc 1 146 3 is_stmt 1 view .LVU20
  77              		.loc 1 146 24 is_stmt 0 view .LVU21
  78 001c 0378     		ldrb	r3, [r0]	@ zero_extendqisi2
  79              		.loc 1 146 6 view .LVU22
  80 001e 13F0010F 		tst	r3, #1
  81 0022 0AD0     		beq	.L4
 147:Middlewares/Third_Party/LwIP/src/netif/ethernet.c ****     /* this might be a multicast or broadcast packet */
 148:Middlewares/Third_Party/LwIP/src/netif/ethernet.c ****     if (ethhdr->dest.addr[0] == LL_IP4_MULTICAST_ADDR_0) {
ARM GAS  D:\Dev\msys64\tmp\ccncNyTv.s 			page 5


  82              		.loc 1 148 5 is_stmt 1 view .LVU23
  83              		.loc 1 148 8 is_stmt 0 view .LVU24
  84 0024 012B     		cmp	r3, #1
  85 0026 12D0     		beq	.L10
 149:Middlewares/Third_Party/LwIP/src/netif/ethernet.c **** #if LWIP_IPV4
 150:Middlewares/Third_Party/LwIP/src/netif/ethernet.c ****       if ((ethhdr->dest.addr[1] == LL_IP4_MULTICAST_ADDR_1) &&
 151:Middlewares/Third_Party/LwIP/src/netif/ethernet.c ****           (ethhdr->dest.addr[2] == LL_IP4_MULTICAST_ADDR_2)) {
 152:Middlewares/Third_Party/LwIP/src/netif/ethernet.c ****         /* mark the pbuf as link-layer multicast */
 153:Middlewares/Third_Party/LwIP/src/netif/ethernet.c ****         p->flags |= PBUF_FLAG_LLMCAST;
 154:Middlewares/Third_Party/LwIP/src/netif/ethernet.c ****       }
 155:Middlewares/Third_Party/LwIP/src/netif/ethernet.c **** #endif /* LWIP_IPV4 */
 156:Middlewares/Third_Party/LwIP/src/netif/ethernet.c ****     }
 157:Middlewares/Third_Party/LwIP/src/netif/ethernet.c **** #if LWIP_IPV6
 158:Middlewares/Third_Party/LwIP/src/netif/ethernet.c ****     else if ((ethhdr->dest.addr[0] == LL_IP6_MULTICAST_ADDR_0) &&
 159:Middlewares/Third_Party/LwIP/src/netif/ethernet.c ****              (ethhdr->dest.addr[1] == LL_IP6_MULTICAST_ADDR_1)) {
 160:Middlewares/Third_Party/LwIP/src/netif/ethernet.c ****       /* mark the pbuf as link-layer multicast */
 161:Middlewares/Third_Party/LwIP/src/netif/ethernet.c ****       p->flags |= PBUF_FLAG_LLMCAST;
 162:Middlewares/Third_Party/LwIP/src/netif/ethernet.c ****     }
 163:Middlewares/Third_Party/LwIP/src/netif/ethernet.c **** #endif /* LWIP_IPV6 */
 164:Middlewares/Third_Party/LwIP/src/netif/ethernet.c ****     else if (eth_addr_cmp(&ethhdr->dest, &ethbroadcast)) {
  86              		.loc 1 164 10 is_stmt 1 view .LVU25
  87              		.loc 1 164 14 is_stmt 0 view .LVU26
  88 0028 0622     		movs	r2, #6
  89 002a 1E49     		ldr	r1, .L11
  90              	.LVL4:
  91              		.loc 1 164 14 view .LVU27
  92 002c FFF7FEFF 		bl	memcmp
  93              	.LVL5:
  94              		.loc 1 164 13 view .LVU28
  95 0030 18B9     		cbnz	r0, .L4
 165:Middlewares/Third_Party/LwIP/src/netif/ethernet.c ****       /* mark the pbuf as link-layer broadcast */
 166:Middlewares/Third_Party/LwIP/src/netif/ethernet.c ****       p->flags |= PBUF_FLAG_LLBCAST;
  96              		.loc 1 166 7 is_stmt 1 view .LVU29
  97              		.loc 1 166 16 is_stmt 0 view .LVU30
  98 0032 637B     		ldrb	r3, [r4, #13]	@ zero_extendqisi2
  99 0034 43F00803 		orr	r3, r3, #8
 100 0038 6373     		strb	r3, [r4, #13]
 101              	.L4:
 167:Middlewares/Third_Party/LwIP/src/netif/ethernet.c ****     }
 168:Middlewares/Third_Party/LwIP/src/netif/ethernet.c ****   }
 169:Middlewares/Third_Party/LwIP/src/netif/ethernet.c **** 
 170:Middlewares/Third_Party/LwIP/src/netif/ethernet.c ****   switch (type) {
 102              		.loc 1 170 3 is_stmt 1 view .LVU31
 103 003a 082E     		cmp	r6, #8
 104 003c 12D0     		beq	.L6
 105 003e B6F5C16F 		cmp	r6, #1544
 106 0042 1FD0     		beq	.L7
 107              	.LVL6:
 108              	.L2:
 171:Middlewares/Third_Party/LwIP/src/netif/ethernet.c **** #if LWIP_IPV4 && LWIP_ARP
 172:Middlewares/Third_Party/LwIP/src/netif/ethernet.c ****     /* IP packet? */
 173:Middlewares/Third_Party/LwIP/src/netif/ethernet.c ****     case PP_HTONS(ETHTYPE_IP):
 174:Middlewares/Third_Party/LwIP/src/netif/ethernet.c ****       if (!(netif->flags & NETIF_FLAG_ETHARP)) {
 175:Middlewares/Third_Party/LwIP/src/netif/ethernet.c ****         goto free_and_return;
 176:Middlewares/Third_Party/LwIP/src/netif/ethernet.c ****       }
 177:Middlewares/Third_Party/LwIP/src/netif/ethernet.c ****       /* skip Ethernet header (min. size checked above) */
 178:Middlewares/Third_Party/LwIP/src/netif/ethernet.c ****       if (pbuf_remove_header(p, next_hdr_offset)) {
ARM GAS  D:\Dev\msys64\tmp\ccncNyTv.s 			page 6


 179:Middlewares/Third_Party/LwIP/src/netif/ethernet.c ****         LWIP_DEBUGF(ETHARP_DEBUG | LWIP_DBG_TRACE | LWIP_DBG_LEVEL_WARNING,
 180:Middlewares/Third_Party/LwIP/src/netif/ethernet.c ****                     ("ethernet_input: IPv4 packet dropped, too short (%"U16_F"/%"U16_F")\n",
 181:Middlewares/Third_Party/LwIP/src/netif/ethernet.c ****                      p->tot_len, next_hdr_offset));
 182:Middlewares/Third_Party/LwIP/src/netif/ethernet.c ****         LWIP_DEBUGF(ETHARP_DEBUG | LWIP_DBG_TRACE, ("Can't move over header in packet"));
 183:Middlewares/Third_Party/LwIP/src/netif/ethernet.c ****         goto free_and_return;
 184:Middlewares/Third_Party/LwIP/src/netif/ethernet.c ****       } else {
 185:Middlewares/Third_Party/LwIP/src/netif/ethernet.c ****         /* pass to IP layer */
 186:Middlewares/Third_Party/LwIP/src/netif/ethernet.c ****         ip4_input(p, netif);
 187:Middlewares/Third_Party/LwIP/src/netif/ethernet.c ****       }
 188:Middlewares/Third_Party/LwIP/src/netif/ethernet.c ****       break;
 189:Middlewares/Third_Party/LwIP/src/netif/ethernet.c **** 
 190:Middlewares/Third_Party/LwIP/src/netif/ethernet.c ****     case PP_HTONS(ETHTYPE_ARP):
 191:Middlewares/Third_Party/LwIP/src/netif/ethernet.c ****       if (!(netif->flags & NETIF_FLAG_ETHARP)) {
 192:Middlewares/Third_Party/LwIP/src/netif/ethernet.c ****         goto free_and_return;
 193:Middlewares/Third_Party/LwIP/src/netif/ethernet.c ****       }
 194:Middlewares/Third_Party/LwIP/src/netif/ethernet.c ****       /* skip Ethernet header (min. size checked above) */
 195:Middlewares/Third_Party/LwIP/src/netif/ethernet.c ****       if (pbuf_remove_header(p, next_hdr_offset)) {
 196:Middlewares/Third_Party/LwIP/src/netif/ethernet.c ****         LWIP_DEBUGF(ETHARP_DEBUG | LWIP_DBG_TRACE | LWIP_DBG_LEVEL_WARNING,
 197:Middlewares/Third_Party/LwIP/src/netif/ethernet.c ****                     ("ethernet_input: ARP response packet dropped, too short (%"U16_F"/%"U16_F")\n"
 198:Middlewares/Third_Party/LwIP/src/netif/ethernet.c ****                      p->tot_len, next_hdr_offset));
 199:Middlewares/Third_Party/LwIP/src/netif/ethernet.c ****         LWIP_DEBUGF(ETHARP_DEBUG | LWIP_DBG_TRACE, ("Can't move over header in packet"));
 200:Middlewares/Third_Party/LwIP/src/netif/ethernet.c ****         ETHARP_STATS_INC(etharp.lenerr);
 201:Middlewares/Third_Party/LwIP/src/netif/ethernet.c ****         ETHARP_STATS_INC(etharp.drop);
 202:Middlewares/Third_Party/LwIP/src/netif/ethernet.c ****         goto free_and_return;
 203:Middlewares/Third_Party/LwIP/src/netif/ethernet.c ****       } else {
 204:Middlewares/Third_Party/LwIP/src/netif/ethernet.c ****         /* pass p to ARP module */
 205:Middlewares/Third_Party/LwIP/src/netif/ethernet.c ****         etharp_input(p, netif);
 206:Middlewares/Third_Party/LwIP/src/netif/ethernet.c ****       }
 207:Middlewares/Third_Party/LwIP/src/netif/ethernet.c ****       break;
 208:Middlewares/Third_Party/LwIP/src/netif/ethernet.c **** #endif /* LWIP_IPV4 && LWIP_ARP */
 209:Middlewares/Third_Party/LwIP/src/netif/ethernet.c **** #if PPPOE_SUPPORT
 210:Middlewares/Third_Party/LwIP/src/netif/ethernet.c ****     case PP_HTONS(ETHTYPE_PPPOEDISC): /* PPP Over Ethernet Discovery Stage */
 211:Middlewares/Third_Party/LwIP/src/netif/ethernet.c ****       pppoe_disc_input(netif, p);
 212:Middlewares/Third_Party/LwIP/src/netif/ethernet.c ****       break;
 213:Middlewares/Third_Party/LwIP/src/netif/ethernet.c **** 
 214:Middlewares/Third_Party/LwIP/src/netif/ethernet.c ****     case PP_HTONS(ETHTYPE_PPPOE): /* PPP Over Ethernet Session Stage */
 215:Middlewares/Third_Party/LwIP/src/netif/ethernet.c ****       pppoe_data_input(netif, p);
 216:Middlewares/Third_Party/LwIP/src/netif/ethernet.c ****       break;
 217:Middlewares/Third_Party/LwIP/src/netif/ethernet.c **** #endif /* PPPOE_SUPPORT */
 218:Middlewares/Third_Party/LwIP/src/netif/ethernet.c **** 
 219:Middlewares/Third_Party/LwIP/src/netif/ethernet.c **** #if LWIP_IPV6
 220:Middlewares/Third_Party/LwIP/src/netif/ethernet.c ****     case PP_HTONS(ETHTYPE_IPV6): /* IPv6 */
 221:Middlewares/Third_Party/LwIP/src/netif/ethernet.c ****       /* skip Ethernet header */
 222:Middlewares/Third_Party/LwIP/src/netif/ethernet.c ****       if ((p->len < next_hdr_offset) || pbuf_remove_header(p, next_hdr_offset)) {
 223:Middlewares/Third_Party/LwIP/src/netif/ethernet.c ****         LWIP_DEBUGF(ETHARP_DEBUG | LWIP_DBG_TRACE | LWIP_DBG_LEVEL_WARNING,
 224:Middlewares/Third_Party/LwIP/src/netif/ethernet.c ****                     ("ethernet_input: IPv6 packet dropped, too short (%"U16_F"/%"U16_F")\n",
 225:Middlewares/Third_Party/LwIP/src/netif/ethernet.c ****                      p->tot_len, next_hdr_offset));
 226:Middlewares/Third_Party/LwIP/src/netif/ethernet.c ****         goto free_and_return;
 227:Middlewares/Third_Party/LwIP/src/netif/ethernet.c ****       } else {
 228:Middlewares/Third_Party/LwIP/src/netif/ethernet.c ****         /* pass to IPv6 layer */
 229:Middlewares/Third_Party/LwIP/src/netif/ethernet.c ****         ip6_input(p, netif);
 230:Middlewares/Third_Party/LwIP/src/netif/ethernet.c ****       }
 231:Middlewares/Third_Party/LwIP/src/netif/ethernet.c ****       break;
 232:Middlewares/Third_Party/LwIP/src/netif/ethernet.c **** #endif /* LWIP_IPV6 */
 233:Middlewares/Third_Party/LwIP/src/netif/ethernet.c **** 
 234:Middlewares/Third_Party/LwIP/src/netif/ethernet.c ****     default:
 235:Middlewares/Third_Party/LwIP/src/netif/ethernet.c **** #ifdef LWIP_HOOK_UNKNOWN_ETH_PROTOCOL
ARM GAS  D:\Dev\msys64\tmp\ccncNyTv.s 			page 7


 236:Middlewares/Third_Party/LwIP/src/netif/ethernet.c ****       if (LWIP_HOOK_UNKNOWN_ETH_PROTOCOL(p, netif) == ERR_OK) {
 237:Middlewares/Third_Party/LwIP/src/netif/ethernet.c ****         break;
 238:Middlewares/Third_Party/LwIP/src/netif/ethernet.c ****       }
 239:Middlewares/Third_Party/LwIP/src/netif/ethernet.c **** #endif
 240:Middlewares/Third_Party/LwIP/src/netif/ethernet.c ****       ETHARP_STATS_INC(etharp.proterr);
 241:Middlewares/Third_Party/LwIP/src/netif/ethernet.c ****       ETHARP_STATS_INC(etharp.drop);
 242:Middlewares/Third_Party/LwIP/src/netif/ethernet.c ****       MIB2_STATS_NETIF_INC(netif, ifinunknownprotos);
 243:Middlewares/Third_Party/LwIP/src/netif/ethernet.c ****       goto free_and_return;
 244:Middlewares/Third_Party/LwIP/src/netif/ethernet.c ****   }
 245:Middlewares/Third_Party/LwIP/src/netif/ethernet.c **** 
 246:Middlewares/Third_Party/LwIP/src/netif/ethernet.c ****   /* This means the pbuf is freed or consumed,
 247:Middlewares/Third_Party/LwIP/src/netif/ethernet.c ****      so the caller doesn't have to free it again */
 248:Middlewares/Third_Party/LwIP/src/netif/ethernet.c ****   return ERR_OK;
 249:Middlewares/Third_Party/LwIP/src/netif/ethernet.c **** 
 250:Middlewares/Third_Party/LwIP/src/netif/ethernet.c **** free_and_return:
 251:Middlewares/Third_Party/LwIP/src/netif/ethernet.c ****   pbuf_free(p);
 109              		.loc 1 251 3 view .LVU32
 110 0044 2046     		mov	r0, r4
 111 0046 FFF7FEFF 		bl	pbuf_free
 112              	.LVL7:
 252:Middlewares/Third_Party/LwIP/src/netif/ethernet.c ****   return ERR_OK;
 113              		.loc 1 252 3 view .LVU33
 114              	.L8:
 253:Middlewares/Third_Party/LwIP/src/netif/ethernet.c **** }
 115              		.loc 1 253 1 is_stmt 0 view .LVU34
 116 004a 0020     		movs	r0, #0
 117 004c 70BD     		pop	{r4, r5, r6, pc}
 118              	.LVL8:
 119              	.L10:
 150:Middlewares/Third_Party/LwIP/src/netif/ethernet.c ****           (ethhdr->dest.addr[2] == LL_IP4_MULTICAST_ADDR_2)) {
 120              		.loc 1 150 7 is_stmt 1 view .LVU35
 150:Middlewares/Third_Party/LwIP/src/netif/ethernet.c ****           (ethhdr->dest.addr[2] == LL_IP4_MULTICAST_ADDR_2)) {
 121              		.loc 1 150 29 is_stmt 0 view .LVU36
 122 004e 4378     		ldrb	r3, [r0, #1]	@ zero_extendqisi2
 150:Middlewares/Third_Party/LwIP/src/netif/ethernet.c ****           (ethhdr->dest.addr[2] == LL_IP4_MULTICAST_ADDR_2)) {
 123              		.loc 1 150 10 view .LVU37
 124 0050 002B     		cmp	r3, #0
 125 0052 F2D1     		bne	.L4
 151:Middlewares/Third_Party/LwIP/src/netif/ethernet.c ****         /* mark the pbuf as link-layer multicast */
 126              		.loc 1 151 29 discriminator 1 view .LVU38
 127 0054 8378     		ldrb	r3, [r0, #2]	@ zero_extendqisi2
 150:Middlewares/Third_Party/LwIP/src/netif/ethernet.c ****           (ethhdr->dest.addr[2] == LL_IP4_MULTICAST_ADDR_2)) {
 128              		.loc 1 150 61 discriminator 1 view .LVU39
 129 0056 5E2B     		cmp	r3, #94
 130 0058 EFD1     		bne	.L4
 153:Middlewares/Third_Party/LwIP/src/netif/ethernet.c ****       }
 131              		.loc 1 153 9 is_stmt 1 view .LVU40
 153:Middlewares/Third_Party/LwIP/src/netif/ethernet.c ****       }
 132              		.loc 1 153 18 is_stmt 0 view .LVU41
 133 005a 637B     		ldrb	r3, [r4, #13]	@ zero_extendqisi2
 134 005c 43F01003 		orr	r3, r3, #16
 135 0060 6373     		strb	r3, [r4, #13]
 136              	.LVL9:
 153:Middlewares/Third_Party/LwIP/src/netif/ethernet.c ****       }
 137              		.loc 1 153 18 view .LVU42
 138 0062 EAE7     		b	.L4
 139              	.LVL10:
ARM GAS  D:\Dev\msys64\tmp\ccncNyTv.s 			page 8


 140              	.L6:
 174:Middlewares/Third_Party/LwIP/src/netif/ethernet.c ****         goto free_and_return;
 141              		.loc 1 174 7 is_stmt 1 view .LVU43
 174:Middlewares/Third_Party/LwIP/src/netif/ethernet.c ****         goto free_and_return;
 142              		.loc 1 174 18 is_stmt 0 view .LVU44
 143 0064 95F83130 		ldrb	r3, [r5, #49]	@ zero_extendqisi2
 174:Middlewares/Third_Party/LwIP/src/netif/ethernet.c ****         goto free_and_return;
 144              		.loc 1 174 10 view .LVU45
 145 0068 13F0080F 		tst	r3, #8
 146 006c EAD0     		beq	.L2
 178:Middlewares/Third_Party/LwIP/src/netif/ethernet.c ****         LWIP_DEBUGF(ETHARP_DEBUG | LWIP_DBG_TRACE | LWIP_DBG_LEVEL_WARNING,
 147              		.loc 1 178 7 is_stmt 1 view .LVU46
 178:Middlewares/Third_Party/LwIP/src/netif/ethernet.c ****         LWIP_DEBUGF(ETHARP_DEBUG | LWIP_DBG_TRACE | LWIP_DBG_LEVEL_WARNING,
 148              		.loc 1 178 11 is_stmt 0 view .LVU47
 149 006e 0E21     		movs	r1, #14
 150 0070 2046     		mov	r0, r4
 151 0072 FFF7FEFF 		bl	pbuf_remove_header
 152              	.LVL11:
 178:Middlewares/Third_Party/LwIP/src/netif/ethernet.c ****         LWIP_DEBUGF(ETHARP_DEBUG | LWIP_DBG_TRACE | LWIP_DBG_LEVEL_WARNING,
 153              		.loc 1 178 10 view .LVU48
 154 0076 0028     		cmp	r0, #0
 155 0078 E4D1     		bne	.L2
 186:Middlewares/Third_Party/LwIP/src/netif/ethernet.c ****       }
 156              		.loc 1 186 9 is_stmt 1 view .LVU49
 157 007a 2946     		mov	r1, r5
 158 007c 2046     		mov	r0, r4
 159 007e FFF7FEFF 		bl	ip4_input
 160              	.LVL12:
 188:Middlewares/Third_Party/LwIP/src/netif/ethernet.c **** 
 161              		.loc 1 188 7 view .LVU50
 162 0082 E2E7     		b	.L8
 163              	.L7:
 191:Middlewares/Third_Party/LwIP/src/netif/ethernet.c ****         goto free_and_return;
 164              		.loc 1 191 7 view .LVU51
 191:Middlewares/Third_Party/LwIP/src/netif/ethernet.c ****         goto free_and_return;
 165              		.loc 1 191 18 is_stmt 0 view .LVU52
 166 0084 95F83130 		ldrb	r3, [r5, #49]	@ zero_extendqisi2
 191:Middlewares/Third_Party/LwIP/src/netif/ethernet.c ****         goto free_and_return;
 167              		.loc 1 191 10 view .LVU53
 168 0088 13F0080F 		tst	r3, #8
 169 008c DAD0     		beq	.L2
 195:Middlewares/Third_Party/LwIP/src/netif/ethernet.c ****         LWIP_DEBUGF(ETHARP_DEBUG | LWIP_DBG_TRACE | LWIP_DBG_LEVEL_WARNING,
 170              		.loc 1 195 7 is_stmt 1 view .LVU54
 195:Middlewares/Third_Party/LwIP/src/netif/ethernet.c ****         LWIP_DEBUGF(ETHARP_DEBUG | LWIP_DBG_TRACE | LWIP_DBG_LEVEL_WARNING,
 171              		.loc 1 195 11 is_stmt 0 view .LVU55
 172 008e 0E21     		movs	r1, #14
 173 0090 2046     		mov	r0, r4
 174 0092 FFF7FEFF 		bl	pbuf_remove_header
 175              	.LVL13:
 195:Middlewares/Third_Party/LwIP/src/netif/ethernet.c ****         LWIP_DEBUGF(ETHARP_DEBUG | LWIP_DBG_TRACE | LWIP_DBG_LEVEL_WARNING,
 176              		.loc 1 195 10 view .LVU56
 177 0096 0028     		cmp	r0, #0
 178 0098 D4D1     		bne	.L2
 205:Middlewares/Third_Party/LwIP/src/netif/ethernet.c ****       }
 179              		.loc 1 205 9 is_stmt 1 view .LVU57
 180 009a 2946     		mov	r1, r5
 181 009c 2046     		mov	r0, r4
ARM GAS  D:\Dev\msys64\tmp\ccncNyTv.s 			page 9


 182 009e FFF7FEFF 		bl	etharp_input
 183              	.LVL14:
 207:Middlewares/Third_Party/LwIP/src/netif/ethernet.c **** #endif /* LWIP_IPV4 && LWIP_ARP */
 184              		.loc 1 207 7 view .LVU58
 185 00a2 D2E7     		b	.L8
 186              	.L12:
 187              		.align	2
 188              	.L11:
 189 00a4 00000000 		.word	.LANCHOR0
 190              		.cfi_endproc
 191              	.LFE25:
 193              		.section	.rodata.ethernet_output.str1.4,"aMS",%progbits,1
 194              		.align	2
 195              	.LC0:
 196 0000 4D696464 		.ascii	"Middlewares/Third_Party/LwIP/src/netif/ethernet.c\000"
 196      6C657761 
 196      7265732F 
 196      54686972 
 196      645F5061 
 197 0032 0000     		.align	2
 198              	.LC1:
 199 0034 6E657469 		.ascii	"netif->hwaddr_len must be 6 for ethernet_output!\000"
 199      662D3E68 
 199      77616464 
 199      725F6C65 
 199      6E206D75 
 200 0065 000000   		.align	2
 201              	.LC2:
 202 0068 41737365 		.ascii	"Assertion \"%s\" failed at line %d in %s\012\000"
 202      7274696F 
 202      6E202225 
 202      73222066 
 202      61696C65 
 203              		.section	.text.ethernet_output,"ax",%progbits
 204              		.align	1
 205              		.global	ethernet_output
 206              		.syntax unified
 207              		.thumb
 208              		.thumb_func
 209              		.fpu fpv5-sp-d16
 211              	ethernet_output:
 212              	.LVL15:
 213              	.LFB26:
 254:Middlewares/Third_Party/LwIP/src/netif/ethernet.c **** 
 255:Middlewares/Third_Party/LwIP/src/netif/ethernet.c **** /**
 256:Middlewares/Third_Party/LwIP/src/netif/ethernet.c ****  * @ingroup ethernet
 257:Middlewares/Third_Party/LwIP/src/netif/ethernet.c ****  * Send an ethernet packet on the network using netif->linkoutput().
 258:Middlewares/Third_Party/LwIP/src/netif/ethernet.c ****  * The ethernet header is filled in before sending.
 259:Middlewares/Third_Party/LwIP/src/netif/ethernet.c ****  *
 260:Middlewares/Third_Party/LwIP/src/netif/ethernet.c ****  * @see LWIP_HOOK_VLAN_SET
 261:Middlewares/Third_Party/LwIP/src/netif/ethernet.c ****  *
 262:Middlewares/Third_Party/LwIP/src/netif/ethernet.c ****  * @param netif the lwIP network interface on which to send the packet
 263:Middlewares/Third_Party/LwIP/src/netif/ethernet.c ****  * @param p the packet to send. pbuf layer must be @ref PBUF_LINK.
 264:Middlewares/Third_Party/LwIP/src/netif/ethernet.c ****  * @param src the source MAC address to be copied into the ethernet header
 265:Middlewares/Third_Party/LwIP/src/netif/ethernet.c ****  * @param dst the destination MAC address to be copied into the ethernet header
 266:Middlewares/Third_Party/LwIP/src/netif/ethernet.c ****  * @param eth_type ethernet type (@ref lwip_ieee_eth_type)
 267:Middlewares/Third_Party/LwIP/src/netif/ethernet.c ****  * @return ERR_OK if the packet was sent, any other err_t on failure
ARM GAS  D:\Dev\msys64\tmp\ccncNyTv.s 			page 10


 268:Middlewares/Third_Party/LwIP/src/netif/ethernet.c ****  */
 269:Middlewares/Third_Party/LwIP/src/netif/ethernet.c **** err_t
 270:Middlewares/Third_Party/LwIP/src/netif/ethernet.c **** ethernet_output(struct netif * netif, struct pbuf * p,
 271:Middlewares/Third_Party/LwIP/src/netif/ethernet.c ****                 const struct eth_addr * src, const struct eth_addr * dst,
 272:Middlewares/Third_Party/LwIP/src/netif/ethernet.c ****                 u16_t eth_type) {
 214              		.loc 1 272 33 view -0
 215              		.cfi_startproc
 216              		@ args = 4, pretend = 0, frame = 0
 217              		@ frame_needed = 0, uses_anonymous_args = 0
 218              		.loc 1 272 33 is_stmt 0 view .LVU60
 219 0000 2DE9F041 		push	{r4, r5, r6, r7, r8, lr}
 220              	.LCFI1:
 221              		.cfi_def_cfa_offset 24
 222              		.cfi_offset 4, -24
 223              		.cfi_offset 5, -20
 224              		.cfi_offset 6, -16
 225              		.cfi_offset 7, -12
 226              		.cfi_offset 8, -8
 227              		.cfi_offset 14, -4
 228 0004 0546     		mov	r5, r0
 229 0006 0C46     		mov	r4, r1
 230 0008 1646     		mov	r6, r2
 231 000a 1F46     		mov	r7, r3
 273:Middlewares/Third_Party/LwIP/src/netif/ethernet.c ****   struct eth_hdr *ethhdr;
 232              		.loc 1 273 3 is_stmt 1 view .LVU61
 274:Middlewares/Third_Party/LwIP/src/netif/ethernet.c ****   u16_t eth_type_be = lwip_htons(eth_type);
 233              		.loc 1 274 3 view .LVU62
 234              		.loc 1 274 23 is_stmt 0 view .LVU63
 235 000c BDF81800 		ldrh	r0, [sp, #24]
 236              	.LVL16:
 237              		.loc 1 274 23 view .LVU64
 238 0010 FFF7FEFF 		bl	lwip_htons
 239              	.LVL17:
 240              		.loc 1 274 23 view .LVU65
 241 0014 8046     		mov	r8, r0
 242              	.LVL18:
 275:Middlewares/Third_Party/LwIP/src/netif/ethernet.c **** 
 276:Middlewares/Third_Party/LwIP/src/netif/ethernet.c **** #if ETHARP_SUPPORT_VLAN && defined(LWIP_HOOK_VLAN_SET)
 277:Middlewares/Third_Party/LwIP/src/netif/ethernet.c ****   s32_t vlan_prio_vid = LWIP_HOOK_VLAN_SET(netif, p, src, dst, eth_type);
 278:Middlewares/Third_Party/LwIP/src/netif/ethernet.c ****   if (vlan_prio_vid >= 0) {
 279:Middlewares/Third_Party/LwIP/src/netif/ethernet.c ****     struct eth_vlan_hdr *vlanhdr;
 280:Middlewares/Third_Party/LwIP/src/netif/ethernet.c **** 
 281:Middlewares/Third_Party/LwIP/src/netif/ethernet.c ****     LWIP_ASSERT("prio_vid must be <= 0xFFFF", vlan_prio_vid <= 0xFFFF);
 282:Middlewares/Third_Party/LwIP/src/netif/ethernet.c **** 
 283:Middlewares/Third_Party/LwIP/src/netif/ethernet.c ****     if (pbuf_add_header(p, SIZEOF_ETH_HDR + SIZEOF_VLAN_HDR) != 0) {
 284:Middlewares/Third_Party/LwIP/src/netif/ethernet.c ****       goto pbuf_header_failed;
 285:Middlewares/Third_Party/LwIP/src/netif/ethernet.c ****     }
 286:Middlewares/Third_Party/LwIP/src/netif/ethernet.c ****     vlanhdr = (struct eth_vlan_hdr *)(((u8_t *)p->payload) + SIZEOF_ETH_HDR);
 287:Middlewares/Third_Party/LwIP/src/netif/ethernet.c ****     vlanhdr->tpid     = eth_type_be;
 288:Middlewares/Third_Party/LwIP/src/netif/ethernet.c ****     vlanhdr->prio_vid = lwip_htons((u16_t)vlan_prio_vid);
 289:Middlewares/Third_Party/LwIP/src/netif/ethernet.c **** 
 290:Middlewares/Third_Party/LwIP/src/netif/ethernet.c ****     eth_type_be = PP_HTONS(ETHTYPE_VLAN);
 291:Middlewares/Third_Party/LwIP/src/netif/ethernet.c ****   } else
 292:Middlewares/Third_Party/LwIP/src/netif/ethernet.c **** #endif /* ETHARP_SUPPORT_VLAN && defined(LWIP_HOOK_VLAN_SET) */
 293:Middlewares/Third_Party/LwIP/src/netif/ethernet.c ****   {
 294:Middlewares/Third_Party/LwIP/src/netif/ethernet.c ****     if (pbuf_add_header(p, SIZEOF_ETH_HDR) != 0) {
 243              		.loc 1 294 5 is_stmt 1 view .LVU66
ARM GAS  D:\Dev\msys64\tmp\ccncNyTv.s 			page 11


 244              		.loc 1 294 9 is_stmt 0 view .LVU67
 245 0016 0E21     		movs	r1, #14
 246 0018 2046     		mov	r0, r4
 247 001a FFF7FEFF 		bl	pbuf_add_header
 248              	.LVL19:
 249              		.loc 1 294 8 view .LVU68
 250 001e E8B9     		cbnz	r0, .L16
 295:Middlewares/Third_Party/LwIP/src/netif/ethernet.c ****       goto pbuf_header_failed;
 296:Middlewares/Third_Party/LwIP/src/netif/ethernet.c ****     }
 297:Middlewares/Third_Party/LwIP/src/netif/ethernet.c ****   }
 298:Middlewares/Third_Party/LwIP/src/netif/ethernet.c **** 
 299:Middlewares/Third_Party/LwIP/src/netif/ethernet.c ****   LWIP_ASSERT_CORE_LOCKED();
 251              		.loc 1 299 28 is_stmt 1 view .LVU69
 300:Middlewares/Third_Party/LwIP/src/netif/ethernet.c **** 
 301:Middlewares/Third_Party/LwIP/src/netif/ethernet.c ****   ethhdr = (struct eth_hdr *)p->payload;
 252              		.loc 1 301 3 view .LVU70
 253              		.loc 1 301 10 is_stmt 0 view .LVU71
 254 0020 6168     		ldr	r1, [r4, #4]
 255              	.LVL20:
 302:Middlewares/Third_Party/LwIP/src/netif/ethernet.c ****   ethhdr->type = eth_type_be;
 256              		.loc 1 302 3 is_stmt 1 view .LVU72
 257              		.loc 1 302 16 is_stmt 0 view .LVU73
 258 0022 A1F80C80 		strh	r8, [r1, #12]	@ unaligned
 303:Middlewares/Third_Party/LwIP/src/netif/ethernet.c ****   SMEMCPY(&ethhdr->dest, dst, ETH_HWADDR_LEN);
 259              		.loc 1 303 3 is_stmt 1 view .LVU74
 260 0026 3B68     		ldr	r3, [r7]	@ unaligned
 261 0028 0B60     		str	r3, [r1]	@ unaligned
 262 002a BB88     		ldrh	r3, [r7, #4]	@ unaligned
 263 002c 8B80     		strh	r3, [r1, #4]	@ unaligned
 304:Middlewares/Third_Party/LwIP/src/netif/ethernet.c ****   SMEMCPY(&ethhdr->src,  src, ETH_HWADDR_LEN);
 264              		.loc 1 304 3 view .LVU75
 265 002e 3368     		ldr	r3, [r6]	@ unaligned
 266 0030 C1F80630 		str	r3, [r1, #6]	@ unaligned
 267 0034 B388     		ldrh	r3, [r6, #4]	@ unaligned
 268 0036 4B81     		strh	r3, [r1, #10]	@ unaligned
 305:Middlewares/Third_Party/LwIP/src/netif/ethernet.c **** 
 306:Middlewares/Third_Party/LwIP/src/netif/ethernet.c ****   LWIP_ASSERT("netif->hwaddr_len must be 6 for ethernet_output!",
 269              		.loc 1 306 3 view .LVU76
 270              		.loc 1 306 3 view .LVU77
 271 0038 95F83030 		ldrb	r3, [r5, #48]	@ zero_extendqisi2
 272 003c 062B     		cmp	r3, #6
 273 003e 05D1     		bne	.L18
 274              	.LVL21:
 275              	.L15:
 276              		.loc 1 306 3 discriminator 3 view .LVU78
 277              		.loc 1 306 3 discriminator 3 view .LVU79
 307:Middlewares/Third_Party/LwIP/src/netif/ethernet.c ****               (netif->hwaddr_len == ETH_HWADDR_LEN));
 308:Middlewares/Third_Party/LwIP/src/netif/ethernet.c ****   LWIP_DEBUGF(ETHARP_DEBUG | LWIP_DBG_TRACE,
 309:Middlewares/Third_Party/LwIP/src/netif/ethernet.c ****               ("ethernet_output: sending packet %p\n", (void *)p));
 278              		.loc 1 309 67 discriminator 3 view .LVU80
 310:Middlewares/Third_Party/LwIP/src/netif/ethernet.c **** 
 311:Middlewares/Third_Party/LwIP/src/netif/ethernet.c ****   /* send the packet */
 312:Middlewares/Third_Party/LwIP/src/netif/ethernet.c ****   return netif->linkoutput(netif, p);
 279              		.loc 1 312 3 discriminator 3 view .LVU81
 280              		.loc 1 312 15 is_stmt 0 discriminator 3 view .LVU82
 281 0040 AB69     		ldr	r3, [r5, #24]
 282              		.loc 1 312 10 discriminator 3 view .LVU83
ARM GAS  D:\Dev\msys64\tmp\ccncNyTv.s 			page 12


 283 0042 2146     		mov	r1, r4
 284 0044 2846     		mov	r0, r5
 285 0046 9847     		blx	r3
 286              	.LVL22:
 287              	.L14:
 288              	.LDL1:
 313:Middlewares/Third_Party/LwIP/src/netif/ethernet.c **** 
 314:Middlewares/Third_Party/LwIP/src/netif/ethernet.c **** pbuf_header_failed:
 315:Middlewares/Third_Party/LwIP/src/netif/ethernet.c ****   LWIP_DEBUGF(ETHARP_DEBUG | LWIP_DBG_TRACE | LWIP_DBG_LEVEL_SERIOUS,
 316:Middlewares/Third_Party/LwIP/src/netif/ethernet.c ****               ("ethernet_output: could not allocate room for header.\n"));
 317:Middlewares/Third_Party/LwIP/src/netif/ethernet.c ****   LINK_STATS_INC(link.lenerr);
 318:Middlewares/Third_Party/LwIP/src/netif/ethernet.c ****   return ERR_BUF;
 319:Middlewares/Third_Party/LwIP/src/netif/ethernet.c **** }
 289              		.loc 1 319 1 view .LVU84
 290 0048 BDE8F081 		pop	{r4, r5, r6, r7, r8, pc}
 291              	.LVL23:
 292              	.L18:
 306:Middlewares/Third_Party/LwIP/src/netif/ethernet.c ****               (netif->hwaddr_len == ETH_HWADDR_LEN));
 293              		.loc 1 306 3 is_stmt 1 discriminator 1 view .LVU85
 306:Middlewares/Third_Party/LwIP/src/netif/ethernet.c ****               (netif->hwaddr_len == ETH_HWADDR_LEN));
 294              		.loc 1 306 3 discriminator 1 view .LVU86
 295 004c 054B     		ldr	r3, .L19
 296 004e 4FF49972 		mov	r2, #306
 297 0052 0549     		ldr	r1, .L19+4
 298              	.LVL24:
 306:Middlewares/Third_Party/LwIP/src/netif/ethernet.c ****               (netif->hwaddr_len == ETH_HWADDR_LEN));
 299              		.loc 1 306 3 is_stmt 0 discriminator 1 view .LVU87
 300 0054 0548     		ldr	r0, .L19+8
 301 0056 FFF7FEFF 		bl	printf
 302              	.LVL25:
 303 005a F1E7     		b	.L15
 304              	.L16:
 318:Middlewares/Third_Party/LwIP/src/netif/ethernet.c **** }
 305              		.loc 1 318 10 view .LVU88
 306 005c 6FF00100 		mvn	r0, #1
 307 0060 F2E7     		b	.L14
 308              	.L20:
 309 0062 00BF     		.align	2
 310              	.L19:
 311 0064 00000000 		.word	.LC0
 312 0068 34000000 		.word	.LC1
 313 006c 68000000 		.word	.LC2
 314              		.cfi_endproc
 315              	.LFE26:
 317              		.global	ethzero
 318              		.global	ethbroadcast
 319              		.section	.rodata.ethbroadcast,"a"
 320              		.align	2
 321              		.set	.LANCHOR0,. + 0
 324              	ethbroadcast:
 325 0000 FFFFFFFF 		.ascii	"\377\377\377\377\377\377"
 325      FFFF
 326              		.section	.rodata.ethzero,"a"
 327              		.align	2
 330              	ethzero:
 331 0000 00000000 		.space	6
 331      0000
ARM GAS  D:\Dev\msys64\tmp\ccncNyTv.s 			page 13


 332              		.text
 333              	.Letext0:
 334              		.file 2 "d:\\dev\\gcc-arm-none-eabi\\9_2019_q4-major\\arm-none-eabi\\include\\machine\\_default_ty
 335              		.file 3 "d:\\dev\\gcc-arm-none-eabi\\9_2019_q4-major\\arm-none-eabi\\include\\sys\\lock.h"
 336              		.file 4 "d:\\dev\\gcc-arm-none-eabi\\9_2019_q4-major\\arm-none-eabi\\include\\sys\\_types.h"
 337              		.file 5 "d:\\dev\\gcc-arm-none-eabi\\9_2019_q4-major\\lib\\gcc\\arm-none-eabi\\9.2.1\\include\\std
 338              		.file 6 "d:\\dev\\gcc-arm-none-eabi\\9_2019_q4-major\\arm-none-eabi\\include\\sys\\reent.h"
 339              		.file 7 "d:\\dev\\gcc-arm-none-eabi\\9_2019_q4-major\\arm-none-eabi\\include\\stdlib.h"
 340              		.file 8 "d:\\dev\\gcc-arm-none-eabi\\9_2019_q4-major\\arm-none-eabi\\include\\sys\\_stdint.h"
 341              		.file 9 "d:\\dev\\gcc-arm-none-eabi\\9_2019_q4-major\\arm-none-eabi\\include\\time.h"
 342              		.file 10 "Middlewares/Third_Party/LwIP/src/include/lwip/arch.h"
 343              		.file 11 "d:\\dev\\gcc-arm-none-eabi\\9_2019_q4-major\\arm-none-eabi\\include\\ctype.h"
 344              		.file 12 "Middlewares/Third_Party/LwIP/src/include/lwip/err.h"
 345              		.file 13 "Middlewares/Third_Party/LwIP/src/include/lwip/pbuf.h"
 346              		.file 14 "Middlewares/Third_Party/LwIP/src/include/lwip/ip4_addr.h"
 347              		.file 15 "Middlewares/Third_Party/LwIP/src/include/lwip/ip_addr.h"
 348              		.file 16 "Middlewares/Third_Party/LwIP/src/include/lwip/memp.h"
 349              		.file 17 "Middlewares/Third_Party/LwIP/src/include/lwip/priv/memp_priv.h"
 350              		.file 18 "Middlewares/Third_Party/LwIP/src/include/lwip/netif.h"
 351              		.file 19 "Middlewares/Third_Party/LwIP/src/include/lwip/prot/ieee.h"
 352              		.file 20 "Middlewares/Third_Party/LwIP/src/include/lwip/prot/ethernet.h"
 353              		.file 21 "Middlewares/Third_Party/LwIP/src/include/netif/ethernet.h"
 354              		.file 22 "Middlewares/Third_Party/LwIP/src/include/lwip/prot/ip4.h"
 355              		.file 23 "Middlewares/Third_Party/LwIP/src/include/lwip/ip.h"
 356              		.file 24 "Middlewares/Third_Party/LwIP/src/include/lwip/def.h"
 357              		.file 25 "d:\\dev\\gcc-arm-none-eabi\\9_2019_q4-major\\arm-none-eabi\\include\\stdio.h"
 358              		.file 26 "d:\\dev\\gcc-arm-none-eabi\\9_2019_q4-major\\arm-none-eabi\\include\\string.h"
 359              		.file 27 "Middlewares/Third_Party/LwIP/src/include/lwip/ip4.h"
 360              		.file 28 "Middlewares/Third_Party/LwIP/src/include/lwip/etharp.h"
ARM GAS  D:\Dev\msys64\tmp\ccncNyTv.s 			page 14

