ARM GAS  D:\Dev\msys64\tmp\ccQoZ9BW.s 			page 1


   1              		.cpu cortex-m7
   2              		.eabi_attribute 27, 1
   3              		.eabi_attribute 28, 1
   4              		.eabi_attribute 20, 1
   5              		.eabi_attribute 21, 1
   6              		.eabi_attribute 23, 3
   7              		.eabi_attribute 24, 1
   8              		.eabi_attribute 25, 1
   9              		.eabi_attribute 26, 1
  10              		.eabi_attribute 30, 1
  11              		.eabi_attribute 34, 1
  12              		.eabi_attribute 18, 4
  13              		.file	"fs.c"
  14              		.text
  15              	.Ltext0:
  16              		.cfi_sections	.debug_frame
  17              		.section	.text.fs_open,"ax",%progbits
  18              		.align	1
  19              		.global	fs_open
  20              		.arch armv7e-m
  21              		.syntax unified
  22              		.thumb
  23              		.thumb_func
  24              		.fpu fpv5-sp-d16
  26              	fs_open:
  27              	.LVL0:
  28              	.LFB25:
  29              		.file 1 "Middlewares/Third_Party/LwIP/src/apps/http/fs.c"
   1:Middlewares/Third_Party/LwIP/src/apps/http/fs.c **** /*
   2:Middlewares/Third_Party/LwIP/src/apps/http/fs.c ****  * Copyright (c) 2001-2003 Swedish Institute of Computer Science.
   3:Middlewares/Third_Party/LwIP/src/apps/http/fs.c ****  * All rights reserved.
   4:Middlewares/Third_Party/LwIP/src/apps/http/fs.c ****  *
   5:Middlewares/Third_Party/LwIP/src/apps/http/fs.c ****  * Redistribution and use in source and binary forms, with or without modification,
   6:Middlewares/Third_Party/LwIP/src/apps/http/fs.c ****  * are permitted provided that the following conditions are met:
   7:Middlewares/Third_Party/LwIP/src/apps/http/fs.c ****  *
   8:Middlewares/Third_Party/LwIP/src/apps/http/fs.c ****  * 1. Redistributions of source code must retain the above copyright notice,
   9:Middlewares/Third_Party/LwIP/src/apps/http/fs.c ****  *    this list of conditions and the following disclaimer.
  10:Middlewares/Third_Party/LwIP/src/apps/http/fs.c ****  * 2. Redistributions in binary form must reproduce the above copyright notice,
  11:Middlewares/Third_Party/LwIP/src/apps/http/fs.c ****  *    this list of conditions and the following disclaimer in the documentation
  12:Middlewares/Third_Party/LwIP/src/apps/http/fs.c ****  *    and/or other materials provided with the distribution.
  13:Middlewares/Third_Party/LwIP/src/apps/http/fs.c ****  * 3. The name of the author may not be used to endorse or promote products
  14:Middlewares/Third_Party/LwIP/src/apps/http/fs.c ****  *    derived from this software without specific prior written permission.
  15:Middlewares/Third_Party/LwIP/src/apps/http/fs.c ****  *
  16:Middlewares/Third_Party/LwIP/src/apps/http/fs.c ****  * THIS SOFTWARE IS PROVIDED BY THE AUTHOR ``AS IS'' AND ANY EXPRESS OR IMPLIED
  17:Middlewares/Third_Party/LwIP/src/apps/http/fs.c ****  * WARRANTIES, INCLUDING, BUT NOT LIMITED TO, THE IMPLIED WARRANTIES OF
  18:Middlewares/Third_Party/LwIP/src/apps/http/fs.c ****  * MERCHANTABILITY AND FITNESS FOR A PARTICULAR PURPOSE ARE DISCLAIMED. IN NO EVENT
  19:Middlewares/Third_Party/LwIP/src/apps/http/fs.c ****  * SHALL THE AUTHOR BE LIABLE FOR ANY DIRECT, INDIRECT, INCIDENTAL, SPECIAL,
  20:Middlewares/Third_Party/LwIP/src/apps/http/fs.c ****  * EXEMPLARY, OR CONSEQUENTIAL DAMAGES (INCLUDING, BUT NOT LIMITED TO, PROCUREMENT
  21:Middlewares/Third_Party/LwIP/src/apps/http/fs.c ****  * OF SUBSTITUTE GOODS OR SERVICES; LOSS OF USE, DATA, OR PROFITS; OR BUSINESS
  22:Middlewares/Third_Party/LwIP/src/apps/http/fs.c ****  * INTERRUPTION) HOWEVER CAUSED AND ON ANY THEORY OF LIABILITY, WHETHER IN
  23:Middlewares/Third_Party/LwIP/src/apps/http/fs.c ****  * CONTRACT, STRICT LIABILITY, OR TORT (INCLUDING NEGLIGENCE OR OTHERWISE) ARISING
  24:Middlewares/Third_Party/LwIP/src/apps/http/fs.c ****  * IN ANY WAY OUT OF THE USE OF THIS SOFTWARE, EVEN IF ADVISED OF THE POSSIBILITY
  25:Middlewares/Third_Party/LwIP/src/apps/http/fs.c ****  * OF SUCH DAMAGE.
  26:Middlewares/Third_Party/LwIP/src/apps/http/fs.c ****  *
  27:Middlewares/Third_Party/LwIP/src/apps/http/fs.c ****  * This file is part of the lwIP TCP/IP stack.
  28:Middlewares/Third_Party/LwIP/src/apps/http/fs.c ****  *
  29:Middlewares/Third_Party/LwIP/src/apps/http/fs.c ****  * Author: Adam Dunkels <adam@sics.se>
ARM GAS  D:\Dev\msys64\tmp\ccQoZ9BW.s 			page 2


  30:Middlewares/Third_Party/LwIP/src/apps/http/fs.c ****  *
  31:Middlewares/Third_Party/LwIP/src/apps/http/fs.c ****  */
  32:Middlewares/Third_Party/LwIP/src/apps/http/fs.c **** 
  33:Middlewares/Third_Party/LwIP/src/apps/http/fs.c **** #include "lwip/apps/httpd_opts.h"
  34:Middlewares/Third_Party/LwIP/src/apps/http/fs.c **** #include "lwip/def.h"
  35:Middlewares/Third_Party/LwIP/src/apps/http/fs.c **** #include "lwip/apps/fs.h"
  36:Middlewares/Third_Party/LwIP/src/apps/http/fs.c **** #include <string.h>
  37:Middlewares/Third_Party/LwIP/src/apps/http/fs.c **** 
  38:Middlewares/Third_Party/LwIP/src/apps/http/fs.c **** 
  39:Middlewares/Third_Party/LwIP/src/apps/http/fs.c **** #include HTTPD_FSDATA_FILE
  40:Middlewares/Third_Party/LwIP/src/apps/http/fs.c **** 
  41:Middlewares/Third_Party/LwIP/src/apps/http/fs.c **** /*-----------------------------------------------------------------------------------*/
  42:Middlewares/Third_Party/LwIP/src/apps/http/fs.c **** 
  43:Middlewares/Third_Party/LwIP/src/apps/http/fs.c **** #if LWIP_HTTPD_CUSTOM_FILES
  44:Middlewares/Third_Party/LwIP/src/apps/http/fs.c **** int fs_open_custom(struct fs_file *file, const char *name);
  45:Middlewares/Third_Party/LwIP/src/apps/http/fs.c **** void fs_close_custom(struct fs_file *file);
  46:Middlewares/Third_Party/LwIP/src/apps/http/fs.c **** #if LWIP_HTTPD_FS_ASYNC_READ
  47:Middlewares/Third_Party/LwIP/src/apps/http/fs.c **** u8_t fs_canread_custom(struct fs_file *file);
  48:Middlewares/Third_Party/LwIP/src/apps/http/fs.c **** u8_t fs_wait_read_custom(struct fs_file *file, fs_wait_cb callback_fn, void *callback_arg);
  49:Middlewares/Third_Party/LwIP/src/apps/http/fs.c **** int fs_read_async_custom(struct fs_file *file, char *buffer, int count, fs_wait_cb callback_fn, voi
  50:Middlewares/Third_Party/LwIP/src/apps/http/fs.c **** #else /* LWIP_HTTPD_FS_ASYNC_READ */
  51:Middlewares/Third_Party/LwIP/src/apps/http/fs.c **** int fs_read_custom(struct fs_file *file, char *buffer, int count);
  52:Middlewares/Third_Party/LwIP/src/apps/http/fs.c **** #endif /* LWIP_HTTPD_FS_ASYNC_READ */
  53:Middlewares/Third_Party/LwIP/src/apps/http/fs.c **** #endif /* LWIP_HTTPD_CUSTOM_FILES */
  54:Middlewares/Third_Party/LwIP/src/apps/http/fs.c **** 
  55:Middlewares/Third_Party/LwIP/src/apps/http/fs.c **** /*-----------------------------------------------------------------------------------*/
  56:Middlewares/Third_Party/LwIP/src/apps/http/fs.c **** err_t
  57:Middlewares/Third_Party/LwIP/src/apps/http/fs.c **** fs_open(struct fs_file *file, const char *name)
  58:Middlewares/Third_Party/LwIP/src/apps/http/fs.c **** {
  30              		.loc 1 58 1 view -0
  31              		.cfi_startproc
  32              		@ args = 0, pretend = 0, frame = 0
  33              		@ frame_needed = 0, uses_anonymous_args = 0
  34              		.loc 1 58 1 is_stmt 0 view .LVU1
  35 0000 70B5     		push	{r4, r5, r6, lr}
  36              	.LCFI0:
  37              		.cfi_def_cfa_offset 16
  38              		.cfi_offset 4, -16
  39              		.cfi_offset 5, -12
  40              		.cfi_offset 6, -8
  41              		.cfi_offset 14, -4
  59:Middlewares/Third_Party/LwIP/src/apps/http/fs.c ****   const struct fsdata_file *f;
  42              		.loc 1 59 3 is_stmt 1 view .LVU2
  60:Middlewares/Third_Party/LwIP/src/apps/http/fs.c **** 
  61:Middlewares/Third_Party/LwIP/src/apps/http/fs.c ****   if ((file == NULL) || (name == NULL)) {
  43              		.loc 1 61 3 view .LVU3
  44              		.loc 1 61 31 is_stmt 0 view .LVU4
  45 0002 0D46     		mov	r5, r1
  46 0004 B1FA81F1 		clz	r1, r1
  47              	.LVL1:
  48              		.loc 1 61 31 view .LVU5
  49 0008 4909     		lsrs	r1, r1, #5
  50              		.loc 1 61 22 view .LVU6
  51 000a 0028     		cmp	r0, #0
  52 000c 08BF     		it	eq
  53 000e 0121     		moveq	r1, #1
  54              		.loc 1 61 6 view .LVU7
ARM GAS  D:\Dev\msys64\tmp\ccQoZ9BW.s 			page 3


  55 0010 A9B9     		cbnz	r1, .L6
  56 0012 0646     		mov	r6, r0
  62:Middlewares/Third_Party/LwIP/src/apps/http/fs.c ****     return ERR_ARG;
  63:Middlewares/Third_Party/LwIP/src/apps/http/fs.c ****   }
  64:Middlewares/Third_Party/LwIP/src/apps/http/fs.c **** 
  65:Middlewares/Third_Party/LwIP/src/apps/http/fs.c **** #if LWIP_HTTPD_CUSTOM_FILES
  66:Middlewares/Third_Party/LwIP/src/apps/http/fs.c ****   if (fs_open_custom(file, name)) {
  67:Middlewares/Third_Party/LwIP/src/apps/http/fs.c ****     file->is_custom_file = 1;
  68:Middlewares/Third_Party/LwIP/src/apps/http/fs.c ****     return ERR_OK;
  69:Middlewares/Third_Party/LwIP/src/apps/http/fs.c ****   }
  70:Middlewares/Third_Party/LwIP/src/apps/http/fs.c ****   file->is_custom_file = 0;
  71:Middlewares/Third_Party/LwIP/src/apps/http/fs.c **** #endif /* LWIP_HTTPD_CUSTOM_FILES */
  72:Middlewares/Third_Party/LwIP/src/apps/http/fs.c **** 
  73:Middlewares/Third_Party/LwIP/src/apps/http/fs.c ****   for (f = FS_ROOT; f != NULL; f = f->next) {
  57              		.loc 1 73 10 view .LVU8
  58 0014 0B4C     		ldr	r4, .L10
  59              	.LVL2:
  60              	.L3:
  61              		.loc 1 73 21 is_stmt 1 discriminator 1 view .LVU9
  62              		.loc 1 73 3 is_stmt 0 discriminator 1 view .LVU10
  63 0016 7CB1     		cbz	r4, .L8
  74:Middlewares/Third_Party/LwIP/src/apps/http/fs.c ****     if (!strcmp(name, (const char *)f->name)) {
  64              		.loc 1 74 5 is_stmt 1 view .LVU11
  65              		.loc 1 74 10 is_stmt 0 view .LVU12
  66 0018 6168     		ldr	r1, [r4, #4]
  67 001a 2846     		mov	r0, r5
  68 001c FFF7FEFF 		bl	strcmp
  69              	.LVL3:
  70              		.loc 1 74 8 view .LVU13
  71 0020 08B1     		cbz	r0, .L9
  73:Middlewares/Third_Party/LwIP/src/apps/http/fs.c ****     if (!strcmp(name, (const char *)f->name)) {
  72              		.loc 1 73 32 is_stmt 1 discriminator 2 view .LVU14
  73:Middlewares/Third_Party/LwIP/src/apps/http/fs.c ****     if (!strcmp(name, (const char *)f->name)) {
  73              		.loc 1 73 34 is_stmt 0 discriminator 2 view .LVU15
  74 0022 2468     		ldr	r4, [r4]
  75              	.LVL4:
  73:Middlewares/Third_Party/LwIP/src/apps/http/fs.c ****     if (!strcmp(name, (const char *)f->name)) {
  76              		.loc 1 73 34 discriminator 2 view .LVU16
  77 0024 F7E7     		b	.L3
  78              	.L9:
  75:Middlewares/Third_Party/LwIP/src/apps/http/fs.c ****       file->data = (const char *)f->data;
  79              		.loc 1 75 7 is_stmt 1 view .LVU17
  80              		.loc 1 75 35 is_stmt 0 view .LVU18
  81 0026 A368     		ldr	r3, [r4, #8]
  82              		.loc 1 75 18 view .LVU19
  83 0028 3360     		str	r3, [r6]
  76:Middlewares/Third_Party/LwIP/src/apps/http/fs.c ****       file->len = f->len;
  84              		.loc 1 76 7 is_stmt 1 view .LVU20
  85              		.loc 1 76 20 is_stmt 0 view .LVU21
  86 002a E368     		ldr	r3, [r4, #12]
  87              		.loc 1 76 17 view .LVU22
  88 002c 7360     		str	r3, [r6, #4]
  77:Middlewares/Third_Party/LwIP/src/apps/http/fs.c ****       file->index = f->len;
  89              		.loc 1 77 7 is_stmt 1 view .LVU23
  90              		.loc 1 77 19 is_stmt 0 view .LVU24
  91 002e B360     		str	r3, [r6, #8]
  78:Middlewares/Third_Party/LwIP/src/apps/http/fs.c ****       file->pextension = NULL;
ARM GAS  D:\Dev\msys64\tmp\ccQoZ9BW.s 			page 4


  92              		.loc 1 78 7 is_stmt 1 view .LVU25
  93              		.loc 1 78 24 is_stmt 0 view .LVU26
  94 0030 F060     		str	r0, [r6, #12]
  79:Middlewares/Third_Party/LwIP/src/apps/http/fs.c ****       file->flags = f->flags;
  95              		.loc 1 79 7 is_stmt 1 view .LVU27
  96              		.loc 1 79 22 is_stmt 0 view .LVU28
  97 0032 237C     		ldrb	r3, [r4, #16]	@ zero_extendqisi2
  98              		.loc 1 79 19 view .LVU29
  99 0034 3374     		strb	r3, [r6, #16]
  80:Middlewares/Third_Party/LwIP/src/apps/http/fs.c **** #if HTTPD_PRECALCULATED_CHECKSUM
  81:Middlewares/Third_Party/LwIP/src/apps/http/fs.c ****       file->chksum_count = f->chksum_count;
  82:Middlewares/Third_Party/LwIP/src/apps/http/fs.c ****       file->chksum = f->chksum;
  83:Middlewares/Third_Party/LwIP/src/apps/http/fs.c **** #endif /* HTTPD_PRECALCULATED_CHECKSUM */
  84:Middlewares/Third_Party/LwIP/src/apps/http/fs.c **** #if LWIP_HTTPD_FILE_STATE
  85:Middlewares/Third_Party/LwIP/src/apps/http/fs.c ****       file->state = fs_state_init(file, name);
  86:Middlewares/Third_Party/LwIP/src/apps/http/fs.c **** #endif /* #if LWIP_HTTPD_FILE_STATE */
  87:Middlewares/Third_Party/LwIP/src/apps/http/fs.c ****       return ERR_OK;
 100              		.loc 1 87 7 is_stmt 1 view .LVU30
 101              		.loc 1 87 14 is_stmt 0 view .LVU31
 102 0036 01E0     		b	.L2
 103              	.L8:
  88:Middlewares/Third_Party/LwIP/src/apps/http/fs.c ****     }
  89:Middlewares/Third_Party/LwIP/src/apps/http/fs.c ****   }
  90:Middlewares/Third_Party/LwIP/src/apps/http/fs.c ****   /* file not found */
  91:Middlewares/Third_Party/LwIP/src/apps/http/fs.c ****   return ERR_VAL;
 104              		.loc 1 91 10 view .LVU32
 105 0038 6FF00500 		mvn	r0, #5
 106              	.LVL5:
 107              	.L2:
  92:Middlewares/Third_Party/LwIP/src/apps/http/fs.c **** }
 108              		.loc 1 92 1 view .LVU33
 109 003c 70BD     		pop	{r4, r5, r6, pc}
 110              	.LVL6:
 111              	.L6:
  62:Middlewares/Third_Party/LwIP/src/apps/http/fs.c ****   }
 112              		.loc 1 62 12 view .LVU34
 113 003e 6FF00F00 		mvn	r0, #15
 114              	.LVL7:
  62:Middlewares/Third_Party/LwIP/src/apps/http/fs.c ****   }
 115              		.loc 1 62 12 view .LVU35
 116 0042 FBE7     		b	.L2
 117              	.L11:
 118              		.align	2
 119              	.L10:
 120 0044 00000000 		.word	.LANCHOR0
 121              		.cfi_endproc
 122              	.LFE25:
 124              		.section	.text.fs_close,"ax",%progbits
 125              		.align	1
 126              		.global	fs_close
 127              		.syntax unified
 128              		.thumb
 129              		.thumb_func
 130              		.fpu fpv5-sp-d16
 132              	fs_close:
 133              	.LVL8:
 134              	.LFB26:
ARM GAS  D:\Dev\msys64\tmp\ccQoZ9BW.s 			page 5


  93:Middlewares/Third_Party/LwIP/src/apps/http/fs.c **** 
  94:Middlewares/Third_Party/LwIP/src/apps/http/fs.c **** /*-----------------------------------------------------------------------------------*/
  95:Middlewares/Third_Party/LwIP/src/apps/http/fs.c **** void
  96:Middlewares/Third_Party/LwIP/src/apps/http/fs.c **** fs_close(struct fs_file *file)
  97:Middlewares/Third_Party/LwIP/src/apps/http/fs.c **** {
 135              		.loc 1 97 1 is_stmt 1 view -0
 136              		.cfi_startproc
 137              		@ args = 0, pretend = 0, frame = 0
 138              		@ frame_needed = 0, uses_anonymous_args = 0
 139              		@ link register save eliminated.
  98:Middlewares/Third_Party/LwIP/src/apps/http/fs.c **** #if LWIP_HTTPD_CUSTOM_FILES
  99:Middlewares/Third_Party/LwIP/src/apps/http/fs.c ****   if (file->is_custom_file) {
 100:Middlewares/Third_Party/LwIP/src/apps/http/fs.c ****     fs_close_custom(file);
 101:Middlewares/Third_Party/LwIP/src/apps/http/fs.c ****   }
 102:Middlewares/Third_Party/LwIP/src/apps/http/fs.c **** #endif /* LWIP_HTTPD_CUSTOM_FILES */
 103:Middlewares/Third_Party/LwIP/src/apps/http/fs.c **** #if LWIP_HTTPD_FILE_STATE
 104:Middlewares/Third_Party/LwIP/src/apps/http/fs.c ****   fs_state_free(file, file->state);
 105:Middlewares/Third_Party/LwIP/src/apps/http/fs.c **** #endif /* #if LWIP_HTTPD_FILE_STATE */
 106:Middlewares/Third_Party/LwIP/src/apps/http/fs.c ****   LWIP_UNUSED_ARG(file);
 140              		.loc 1 106 3 view .LVU37
 107:Middlewares/Third_Party/LwIP/src/apps/http/fs.c **** }
 141              		.loc 1 107 1 is_stmt 0 view .LVU38
 142 0000 7047     		bx	lr
 143              		.cfi_endproc
 144              	.LFE26:
 146              		.section	.text.fs_bytes_left,"ax",%progbits
 147              		.align	1
 148              		.global	fs_bytes_left
 149              		.syntax unified
 150              		.thumb
 151              		.thumb_func
 152              		.fpu fpv5-sp-d16
 154              	fs_bytes_left:
 155              	.LVL9:
 156              	.LFB27:
 108:Middlewares/Third_Party/LwIP/src/apps/http/fs.c **** /*-----------------------------------------------------------------------------------*/
 109:Middlewares/Third_Party/LwIP/src/apps/http/fs.c **** #if LWIP_HTTPD_DYNAMIC_FILE_READ
 110:Middlewares/Third_Party/LwIP/src/apps/http/fs.c **** #if LWIP_HTTPD_FS_ASYNC_READ
 111:Middlewares/Third_Party/LwIP/src/apps/http/fs.c **** int
 112:Middlewares/Third_Party/LwIP/src/apps/http/fs.c **** fs_read_async(struct fs_file *file, char *buffer, int count, fs_wait_cb callback_fn, void *callback
 113:Middlewares/Third_Party/LwIP/src/apps/http/fs.c **** #else /* LWIP_HTTPD_FS_ASYNC_READ */
 114:Middlewares/Third_Party/LwIP/src/apps/http/fs.c **** int
 115:Middlewares/Third_Party/LwIP/src/apps/http/fs.c **** fs_read(struct fs_file *file, char *buffer, int count)
 116:Middlewares/Third_Party/LwIP/src/apps/http/fs.c **** #endif /* LWIP_HTTPD_FS_ASYNC_READ */
 117:Middlewares/Third_Party/LwIP/src/apps/http/fs.c **** {
 118:Middlewares/Third_Party/LwIP/src/apps/http/fs.c ****   int read;
 119:Middlewares/Third_Party/LwIP/src/apps/http/fs.c ****   if (file->index == file->len) {
 120:Middlewares/Third_Party/LwIP/src/apps/http/fs.c ****     return FS_READ_EOF;
 121:Middlewares/Third_Party/LwIP/src/apps/http/fs.c ****   }
 122:Middlewares/Third_Party/LwIP/src/apps/http/fs.c **** #if LWIP_HTTPD_FS_ASYNC_READ
 123:Middlewares/Third_Party/LwIP/src/apps/http/fs.c ****   LWIP_UNUSED_ARG(callback_fn);
 124:Middlewares/Third_Party/LwIP/src/apps/http/fs.c ****   LWIP_UNUSED_ARG(callback_arg);
 125:Middlewares/Third_Party/LwIP/src/apps/http/fs.c **** #endif /* LWIP_HTTPD_FS_ASYNC_READ */
 126:Middlewares/Third_Party/LwIP/src/apps/http/fs.c **** #if LWIP_HTTPD_CUSTOM_FILES
 127:Middlewares/Third_Party/LwIP/src/apps/http/fs.c ****   if (file->is_custom_file) {
 128:Middlewares/Third_Party/LwIP/src/apps/http/fs.c **** #if LWIP_HTTPD_FS_ASYNC_READ
 129:Middlewares/Third_Party/LwIP/src/apps/http/fs.c ****     return fs_read_async_custom(file, buffer, count, callback_fn, callback_arg);
ARM GAS  D:\Dev\msys64\tmp\ccQoZ9BW.s 			page 6


 130:Middlewares/Third_Party/LwIP/src/apps/http/fs.c **** #else /* LWIP_HTTPD_FS_ASYNC_READ */
 131:Middlewares/Third_Party/LwIP/src/apps/http/fs.c ****     return fs_read_custom(file, buffer, count);
 132:Middlewares/Third_Party/LwIP/src/apps/http/fs.c **** #endif /* LWIP_HTTPD_FS_ASYNC_READ */
 133:Middlewares/Third_Party/LwIP/src/apps/http/fs.c ****   }
 134:Middlewares/Third_Party/LwIP/src/apps/http/fs.c **** #endif /* LWIP_HTTPD_CUSTOM_FILES */
 135:Middlewares/Third_Party/LwIP/src/apps/http/fs.c **** 
 136:Middlewares/Third_Party/LwIP/src/apps/http/fs.c ****   read = file->len - file->index;
 137:Middlewares/Third_Party/LwIP/src/apps/http/fs.c ****   if (read > count) {
 138:Middlewares/Third_Party/LwIP/src/apps/http/fs.c ****     read = count;
 139:Middlewares/Third_Party/LwIP/src/apps/http/fs.c ****   }
 140:Middlewares/Third_Party/LwIP/src/apps/http/fs.c **** 
 141:Middlewares/Third_Party/LwIP/src/apps/http/fs.c ****   MEMCPY(buffer, (file->data + file->index), read);
 142:Middlewares/Third_Party/LwIP/src/apps/http/fs.c ****   file->index += read;
 143:Middlewares/Third_Party/LwIP/src/apps/http/fs.c **** 
 144:Middlewares/Third_Party/LwIP/src/apps/http/fs.c ****   return (read);
 145:Middlewares/Third_Party/LwIP/src/apps/http/fs.c **** }
 146:Middlewares/Third_Party/LwIP/src/apps/http/fs.c **** #endif /* LWIP_HTTPD_DYNAMIC_FILE_READ */
 147:Middlewares/Third_Party/LwIP/src/apps/http/fs.c **** /*-----------------------------------------------------------------------------------*/
 148:Middlewares/Third_Party/LwIP/src/apps/http/fs.c **** #if LWIP_HTTPD_FS_ASYNC_READ
 149:Middlewares/Third_Party/LwIP/src/apps/http/fs.c **** int
 150:Middlewares/Third_Party/LwIP/src/apps/http/fs.c **** fs_is_file_ready(struct fs_file *file, fs_wait_cb callback_fn, void *callback_arg)
 151:Middlewares/Third_Party/LwIP/src/apps/http/fs.c **** {
 152:Middlewares/Third_Party/LwIP/src/apps/http/fs.c ****   if (file != NULL) {
 153:Middlewares/Third_Party/LwIP/src/apps/http/fs.c **** #if LWIP_HTTPD_FS_ASYNC_READ
 154:Middlewares/Third_Party/LwIP/src/apps/http/fs.c **** #if LWIP_HTTPD_CUSTOM_FILES
 155:Middlewares/Third_Party/LwIP/src/apps/http/fs.c ****     if (!fs_canread_custom(file)) {
 156:Middlewares/Third_Party/LwIP/src/apps/http/fs.c ****       if (fs_wait_read_custom(file, callback_fn, callback_arg)) {
 157:Middlewares/Third_Party/LwIP/src/apps/http/fs.c ****         return 0;
 158:Middlewares/Third_Party/LwIP/src/apps/http/fs.c ****       }
 159:Middlewares/Third_Party/LwIP/src/apps/http/fs.c ****     }
 160:Middlewares/Third_Party/LwIP/src/apps/http/fs.c **** #else /* LWIP_HTTPD_CUSTOM_FILES */
 161:Middlewares/Third_Party/LwIP/src/apps/http/fs.c ****     LWIP_UNUSED_ARG(callback_fn);
 162:Middlewares/Third_Party/LwIP/src/apps/http/fs.c ****     LWIP_UNUSED_ARG(callback_arg);
 163:Middlewares/Third_Party/LwIP/src/apps/http/fs.c **** #endif /* LWIP_HTTPD_CUSTOM_FILES */
 164:Middlewares/Third_Party/LwIP/src/apps/http/fs.c **** #endif /* LWIP_HTTPD_FS_ASYNC_READ */
 165:Middlewares/Third_Party/LwIP/src/apps/http/fs.c ****   }
 166:Middlewares/Third_Party/LwIP/src/apps/http/fs.c ****   return 1;
 167:Middlewares/Third_Party/LwIP/src/apps/http/fs.c **** }
 168:Middlewares/Third_Party/LwIP/src/apps/http/fs.c **** #endif /* LWIP_HTTPD_FS_ASYNC_READ */
 169:Middlewares/Third_Party/LwIP/src/apps/http/fs.c **** /*-----------------------------------------------------------------------------------*/
 170:Middlewares/Third_Party/LwIP/src/apps/http/fs.c **** int
 171:Middlewares/Third_Party/LwIP/src/apps/http/fs.c **** fs_bytes_left(struct fs_file *file)
 172:Middlewares/Third_Party/LwIP/src/apps/http/fs.c **** {
 157              		.loc 1 172 1 is_stmt 1 view -0
 158              		.cfi_startproc
 159              		@ args = 0, pretend = 0, frame = 0
 160              		@ frame_needed = 0, uses_anonymous_args = 0
 161              		@ link register save eliminated.
 173:Middlewares/Third_Party/LwIP/src/apps/http/fs.c ****   return file->len - file->index;
 162              		.loc 1 173 3 view .LVU40
 163              		.loc 1 173 14 is_stmt 0 view .LVU41
 164 0000 4268     		ldr	r2, [r0, #4]
 165              		.loc 1 173 26 view .LVU42
 166 0002 8068     		ldr	r0, [r0, #8]
 167              	.LVL10:
 174:Middlewares/Third_Party/LwIP/src/apps/http/fs.c **** }
 168              		.loc 1 174 1 view .LVU43
ARM GAS  D:\Dev\msys64\tmp\ccQoZ9BW.s 			page 7


 169 0004 101A     		subs	r0, r2, r0
 170 0006 7047     		bx	lr
 171              		.cfi_endproc
 172              	.LFE27:
 174              		.global	file__STM32F7xx_html
 175              		.global	file__404_html
 176              		.global	file__STM32F7xx_files_stm32_jpg
 177              		.global	file__STM32F7xx_files_ST_gif
 178              		.global	file__STM32F7xx_files_logo_jpg
 179              		.section	.rodata.data__404_html,"a"
 180              		.align	2
 183              	data__404_html:
 184 0000 2F343034 		.ascii	"/404.html\000\000\000HTTP/1.0 404 File not found\015"
 184      2E68746D 
 184      6C000000 
 184      48545450 
 184      2F312E30 
 185 0028 0A536572 		.ascii	"\012Server: lwIP/1.3.1 (http://savannah.nongnu.org/"
 185      7665723A 
 185      206C7749 
 185      502F312E 
 185      332E3120 
 186 0058 70726F6A 		.ascii	"projects/lwip)\015\012Content-type: text/html\015\012"
 186      65637473 
 186      2F6C7769 
 186      70290D0A 
 186      436F6E74 
 187 0081 0D0A3C21 		.ascii	"\015\012<!DOCTYPE HTML PUBLIC \"-//W3C//DTD HTML 4."
 187      444F4354 
 187      59504520 
 187      48544D4C 
 187      20505542 
 188 00ad 30312054 		.ascii	"01 Transitional//EN\">\012<html><head><title>STM32F"
 188      72616E73 
 188      6974696F 
 188      6E616C2F 
 188      2F454E22 
 189 00dc 3778783C 		.ascii	"7xx</title></head>\015\012<body style=\"color: blac"
 189      2F746974 
 189      6C653E3C 
 189      2F686561 
 189      643E0D0A 
 190 0108 6B3B2062 		.ascii	"k; background-color: white;\">\015\012<table width="
 190      61636B67 
 190      726F756E 
 190      642D636F 
 190      6C6F723A 
 191 0134 22313030 		.ascii	"\"100%\">\015\012<tbody>\015\012<tr valign=\"top\">"
 191      25223E0D 
 191      0A3C7462 
 191      6F64793E 
 191      0D0A3C74 
 192 0157 0D0A3C74 		.ascii	"\015\012<td width=\"80\"><br>\015\012<div style=\"t"
 192      64207769 
 192      6474683D 
 192      22383022 
 192      3E3C6272 
ARM GAS  D:\Dev\msys64\tmp\ccQoZ9BW.s 			page 8


 193 017b 6578742D 		.ascii	"ext-align: center;\"><img style=\"width: 96px; heig"
 193      616C6967 
 193      6E3A2063 
 193      656E7465 
 193      723B223E 
 194 01ac 68743A20 		.ascii	"ht: 68px;\" alt=\"ST logo\" src=\"STM32F7xx_files/l"
 194      36387078 
 194      3B222061 
 194      6C743D22 
 194      5354206C 
 195 01db 6F676F2E 		.ascii	"ogo.jpg\"></div>\015\012</td>\015\012<td width=\"50"
 195      6A706722 
 195      3E3C2F64 
 195      69763E0D 
 195      0A3C2F74 
 196 0200 30223E0D 		.ascii	"0\">\015\012<h1><small><small><small><small><big><b"
 196      0A3C6831 
 196      3E3C736D 
 196      616C6C3E 
 196      3C736D61 
 197 022c 69673E3C 		.ascii	"ig><big style=\"font-weight: bold;\"><big><strong><"
 197      62696720 
 197      7374796C 
 197      653D2266 
 197      6F6E742D 
 198 025d 7370616E 		.ascii	"span style=\"font-style: italic;\">STM32F7xx Webser"
 198      20737479 
 198      6C653D22 
 198      666F6E74 
 198      2D737479 
 199 028e 76657220 		.ascii	"ver Demo</span></strong></big></big></big></big></s"
 199      44656D6F 
 199      3C2F7370 
 199      616E3E3C 
 199      2F737472 
 200 02c1 6D616C6C 		.ascii	"mall></small></small></small>\015\012<small style=\""
 200      3E3C2F73 
 200      6D616C6C 
 200      3E3C2F73 
 200      6D616C6C 
 201 02ee 666F6E74 		.ascii	"font-family: Verdana;\"><small><big><big><big><big "
 201      2D66616D 
 201      696C793A 
 201      20566572 
 201      64616E61 
 202 0320 7374796C 		.ascii	"style=\"font-weight: bold; color: rgb(51, 51, 255);"
 202      653D2266 
 202      6F6E742D 
 202      77656967 
 202      68743A20 
 203 0352 223E3C62 		.ascii	"\"><big><strong><span style=\"font-style: italic;\""
 203      69673E3C 
 203      7374726F 
 203      6E673E3C 
 203      7370616E 
 204 0382 3E3C2F73 		.ascii	"></span></strong></big><span style=\"color: rgb(51,"
 204      70616E3E 
ARM GAS  D:\Dev\msys64\tmp\ccQoZ9BW.s 			page 9


 204      3C2F7374 
 204      726F6E67 
 204      3E3C2F62 
 205 03b4 2035312C 		.ascii	" 51, 255);\"><br>\015\012</span></big></big></big><"
 205      20323535 
 205      293B223E 
 205      3C62723E 
 205      0D0A3C2F 
 206 03e0 2F626967 		.ascii	"/big></small></small></h1>\015\012<h2>404 - Page no"
 206      3E3C2F73 
 206      6D616C6C 
 206      3E3C2F73 
 206      6D616C6C 
 207 040d 7420666F 		.ascii	"t found</h2>\015\012<p><span style=\"font-family: T"
 207      756E643C 
 207      2F68323E 
 207      0D0A3C70 
 207      3E3C7370 
 208 0439 696D6573 		.ascii	"imes New Roman,Times,serif;\"> Sorry,\015\012the pa"
 208      204E6577 
 208      20526F6D 
 208      616E2C54 
 208      696D6573 
 209 0465 67652079 		.ascii	"ge you are requesting was not found on this server."
 209      6F752061 
 209      72652072 
 209      65717565 
 209      7374696E 
 210 0498 3C2F7370 		.ascii	"</span> </p>\015\012</td>\015\012</tr>\015\012</tbo"
 210      616E3E20 
 210      3C2F703E 
 210      0D0A3C2F 
 210      74643E0D 
 211 04b9 64793E0D 		.ascii	"dy>\015\012</table>\015\012</body></html>"
 211      0A3C2F74 
 211      61626C65 
 211      3E0D0A3C 
 211      2F626F64 
 212              		.section	.rodata.data__STM32F7xx_files_ST_gif,"a"
 213              		.align	2
 216              	data__STM32F7xx_files_ST_gif:
 217 0000 2F53544D 		.ascii	"/STM32F7xx_files/ST.gif\000HTTP/1.0 200 OK\015\012S"
 217      33324637 
 217      78785F66 
 217      696C6573 
 217      2F53542E 
 218 002a 65727665 		.ascii	"erver: lwIP/1.3.1 (http://savannah.nongnu.org/proje"
 218      723A206C 
 218      7749502F 
 218      312E332E 
 218      31202868 
 219 005d 6374732F 		.ascii	"cts/lwip)\015\012Content-type: image/gif\015\012\015"
 219      6C776970 
 219      290D0A43 
 219      6F6E7465 
 219      6E742D74 
 220 0082 0A474946 		.ascii	"\012GIF89a\376\002:\000\367\000\000\024FTk\242\263\014"
ARM GAS  D:\Dev\msys64\tmp\ccQoZ9BW.s 			page 10


 220      383961FE 
 220      023A00F7 
 220      00001446 
 220      546BA2B3 
 221 0097 72945473 		.ascii	"r\224Ts\214\254\323\334\025V|3\201\264\234\272\304\306"
 221      8CACD3DC 
 221      15567C33 
 221      81B49CBA 
 221      C4C6
 222 00a9 EAEC588D 		.ascii	"\352\354X\215\254<a\177\027c|G\202\230a\213\234\250"
 222      AC3C617F 
 222      17637C47 
 222      8298618B 
 222      9CA8
 223 00bb D8EC59A3 		.ascii	"\330\354Y\243\304\231\275\324\012i\224$Vd<r\214\324"
 223      C499BDD4 
 223      0A699424 
 223      56643C72 
 223      8CD4
 224 00cd F6F48498 		.ascii	"\366\364\204\230\254<\220\2648y\244\323\326\325W\231"
 224      AC3C90B4 
 224      3879A4D3 
 224      D6D55799 
 225 00dd C79CA2A4 		.ascii	"\307\234\242\2440d|\210\214\230V\200\234\231\307\331"
 225      30647C88 
 225      8C985680 
 225      9C99C7D9 
 226 00ed 10496464 		.ascii	"\020Idd\226\2549{\224\351\355\357\320\335\354QVd\272"
 226      96AC397B 
 226      94E9EDEF 
 226      D0DDEC51 
 226      5664BA
 227 0100 C6CC92B3 		.ascii	"\306\314\222\263\304\224\256\264'Y|;\216\305\275\311"
 227      C494AEB4 
 227      27597C3B 
 227      8EC5BDC9 
 228 0110 D43E6E96 		.ascii	"\324>n\226 \204\254\374\366\354\214\226\234V\177\224"
 228      2084ACFC 
 228      F6EC8C96 
 228      9C567F94 
 229 0120 3987B440 		.ascii	"9\207\264@j\202.j\225B\205\244,Rd\304\336\344\272\275"
 229      6A822E6A 
 229      954285A4 
 229      2C5264C4 
 229      DEE4BABD 
 230 0134 BE146A84 		.ascii	"\276\024j\204\317\337\344$blW\231\2745s\2344j|\022P"
 230      CFDFE424 
 230      626C5799 
 230      BC35739C 
 230      346A7C12 
 231 0149 6CB1D5E4 		.ascii	"l\261\325\344\025\\|\311\362\374\014l\244\330\344\354"
 231      155C7CC9 
 231      F2FC0C6C 
 231      A4D8E4EC 
 232 0159 448AA464 		.ascii	"D\212\244d\256\314\227\245\264?\212\304fm}\010s\244"
 232      AECC97A5 
 232      B43F8AC4 
ARM GAS  D:\Dev\msys64\tmp\ccQoZ9BW.s 			page 11


 232      666D7D08 
 232      73A4
 233 016b D7F2F40B 		.ascii	"\327\362\364\013e\214\300\342\354\013n\231F}\245\211"
 233      658CC0E2 
 233      EC0B6E99 
 233      467DA589 
 234 017b 91A4A8CD 		.ascii	"\221\244\250\315\344\366\371\374o\224\237L\227\274E"
 234      E4F6F9FC 
 234      6F949F4C 
 234      97BC45
 235 018a 88B8165D 		.ascii	"\210\270\026]\214\177\243\264q\222\254|\252\3040f\214"
 235      8C7FA3B4 
 235      7192AC7C 
 235      AAC43066 
 235      8C
 236 019b 81869F71 		.ascii	"\201\206\237q\231\261:{\234\352\362\374I\226\304\024"
 236      99B13A7B 
 236      9CEAF2FC 
 236      4996C414 
 237 01ab 51746E74 		.ascii	"Qtnt\204\254\302\314\330\355\361\026XtGt\220F\220\271"
 237      84ACC2CC 
 237      D8EDF116 
 237      58744774 
 237      904690B9 
 238 01bf D3D9E4AA 		.ascii	"\323\331\344\252\316\334\254\261\304\260\261\264\304"
 238      CEDCACB1 
 238      C4B0B1B4 
 238      C4
 239 01cc CEE4747E 		.ascii	"\316\344t~\204@m\2147?Q\247\273\306]\222\2549~\244\214"
 239      84406D8C 
 239      373F51A7 
 239      BBC65D92 
 239      AC397EA4 
 240 01e1 9294B9CE 		.ascii	"\222\224\271\316\331\345\346\355d\252\307\343\376\374"
 240      D9E5E6ED 
 240      64AAC7E3 
 240      FEFC
 241 01ef 9499AC30 		.ascii	"\224\231\2540d\204\\\206\234\252\311\327G\220\306\233"
 241      64845C86 
 241      9CAAC9D7 
 241      4790C69B 
 242 01ff 9A9DBCD6 		.ascii	"\232\235\274\326\344\025]\204\245\250\267\016s\234m"
 242      E4155D84 
 242      A5A8B70E 
 242      739C6D
 243 020e 8DA0B6C2 		.ascii	"\215\240\266\302\324HO\\Dbl<f\214<^t$N\\\034{\247`\243"
 243      D4484F5C 
 243      44626C3C 
 243      668C3C5E 
 243      74244E5C 
 244 0227 BCC1D4DB 		.ascii	"\274\301\324\333\\f|\302\333\354\250\250\250$Z\214\266"
 244      5C667CC2 
 244      DBECA8A8 
 244      A8245A8C 
 244      B6
 245 0238 BCCC84AE 		.ascii	"\274\314\204\256\304{\247\274z\204\224Xx\2244Zl\214"
 245      C47BA7BC 
ARM GAS  D:\Dev\msys64\tmp\ccQoZ9BW.s 			page 12


 245      7A849458 
 245      7894345A 
 245      6C8C
 246 024a B2D4305F 		.ascii	"\262\3240_r2k\214\304\346\374\\dtL^l\314\316\3144\212"
 246      72326B8C 
 246      C4E6FC5C 
 246      64744C5E 
 246      6CCCCECC 
 247 0260 AC548694 		.ascii	"\254T\206\224\344\346\344Hv\234T\236\274\034z\234\264"
 247      E4E6E448 
 247      769C549E 
 247      BC1C7A9C 
 247      B4
 248 0271 DEEC9CC2 		.ascii	"\336\354\234\302\324\210\236\254\324\332\334\\\236\304"
 248      D4889EAC 
 248      D4DADC5C 
 248      9EC4
 249 027f 649EB4EC 		.ascii	"d\236\264\354\362\364)^|\374\376\364\234\252\264uz\211"
 249      F2F4295E 
 249      7CFCFEF4 
 249      9CAAB475 
 249      7A89
 250 0291 B4B6B448 		.ascii	"\264\266\264HRd t\220=\202\265f\243\306\026i\225\342"
 250      52642074 
 250      903D82B5 
 250      66A3C616 
 250      6995E2
 251 02a4 F7FB4A7B 		.ascii	"\367\373J{\221\305\307\3074\203\253l\202\214Nl~\335"
 251      91C5C7C7 
 251      3483AB6C 
 251      828C4E6C 
 251      7EDD
 252 02b6 E0E1204F 		.ascii	"\340\341 OgXz\212=f\1773n\230\274\302\304\200\252\260"
 252      67587A8A 
 252      3D667F33 
 252      6E98BCC2 
 252      C480AAB0 
 253 02ca 6D9EB33C 		.ascii	"m\236\263<FT\227\236\244\304\332\334\262\332\344\030"
 253      4654979E 
 253      A4C4DADC 
 253      B2DAE418 
 254 02da 6E99FCFE 		.ascii	"n\231\374\376\374\251\266\304\311\316\325l\252\274\275"
 254      FCA9B6C4 
 254      C9CED56C 
 254      AABCBD
 255 02e9 C2CC84B6 		.ascii	"\302\314\204\266\314\340\336\354l\232\274\034v\244\026"
 255      CCE0DEEC 
 255      6C9ABC1C 
 255      76A416
 256 02f8 668C467D 		.ascii	"f\214F}\234)Xt#t\234\\\216\264\026c\204_\214\244\032"
 256      9C295874 
 256      23749C5C 
 256      8EB41663 
 256      845F8CA4 
 257 030d 586C3973 		.ascii	"Xl9s\224\017Jl^\230\264TZl\222\265\314\274\306\334\367"
 257      940F4A6C 
 257      5E98B454 
ARM GAS  D:\Dev\msys64\tmp\ccQoZ9BW.s 			page 13


 257      5A6C92B5 
 257      CCBCC6DC 
 258 0322 F7F48A97 		.ascii	"\367\364\212\227\2448\211\274?\204\254\020k\214\037"
 258      A43889BC 
 258      3F84AC10 
 258      6B8C1F
 259 0331 5F74D8E5 		.ascii	"_t\330\345\364B\213\254\300\345\364\251\260\274y\200"
 259      F4428BAC 
 259      C0E5F4A9 
 259      B0BC7980 
 260 0341 8C979EAC 		.ascii	"\214\227\236\254\300\332\344\331\362\374g\236\274\227"
 260      C0DAE4D9 
 260      F2FC679E 
 260      BC97
 261 034f A2AC98AE 		.ascii	"\242\254\230\256\274(j\204Z\222\2647~\254\215\222\234"
 261      BC286A84 
 261      5A92B437 
 261      7EAC8D92 
 261      9C
 262 0360 5C86A494 		.ascii	"\\\206\244\224\302\334|\236\264\\\236\314)^\204\224"
 262      C2DC7C9E 
 262      B45C9ECC 
 262      295E8494 
 263 0370 AABC0F45 		.ascii	"\252\274\017E\\\034T\204\231\274\314\312\354\364\244"
 263      5C1C5484 
 263      99BCCCCA 
 263      ECF4A4
 264 037f DAF45CA6 		.ascii	"\332\364\\\246\314\014j\234\322\367\374:\217\2746z\254"
 264      CC0C6A9C 
 264      D2F7FC3A 
 264      8FBC367A 
 264      AC
 265 0390 21F90400 		.ascii	"!\371\004\000\000\000\000\000,\000\000\000\000\376\002"
 265      00000000 
 265      2C000000 
 265      00FE02
 266 039f 3A000708 		.ascii	":\000\007\010\377\000\211\011\034H\260\240\301\203\010"
 266      FF008909 
 266      1C48B0A0 
 266      C18308
 267 03ae 132A5CC8 		.ascii	"\023*\\\310\260\241\303\207\020#J\234H\261\242\305\213"
 267      B0A1C387 
 267      10234A9C 
 267      48B1A2C5 
 267      8B
 268 03bf 18336ADC 		.ascii	"\0303j\334\310\261\243\307\217 C\212L\010\205\330\266"
 268      C8B1A3C7 
 268      8F20438A 
 268      4C0885D8 
 268      B6
 269 03d0 6DA80AD2 		.ascii	"m\250\012\322\2413\261\244\300\222.\211\245$\306r`M"
 269      A133B1A4 
 269      C0922E89 
 269      A524C672 
 269      604D
 270 03e2 81336DC2 		.ascii	"\2013m\302D9\262\247\317\237@\203\012\035J\264\250\321"
 270      4439B2A7 
ARM GAS  D:\Dev\msys64\tmp\ccQoZ9BW.s 			page 14


 270      CF9F4083 
 270      0A1D4AB4 
 270      A8D1
 271 03f4 A348932A 		.ascii	"\243H\223*]Z\021\012\224m0\021\340\250\261\347\234\217"
 271      5D5A110A 
 271      946D3011 
 271      E0A8B1E7 
 271      9C8F
 272 0406 3D58B19E 		.ascii	"=X\261\236\313z\356\234\242\252\212\274vU4\342\334\210"
 272      CB7AEE9C 
 272      A2AA8ABC 
 272      765534E2 
 272      DC88
 273 0418 B023A6D6 		.ascii	"\260#\246\326X\273v\211[EK@\201b{\016\224\330=#\312"
 273      58BB7689 
 273      5B454B40 
 273      81627B0E 
 273      94D83D23 
 274 042d 6C63CAB7 		.ascii	"lc\312\267\257\337\277\200\003\013\036L\270\260\341"
 274      AFDFBF80 
 274      030B1E4C 
 274      B8B0E1
 275 043c 8C256395 		.ascii	"\214%c\225\301\247\245\303\013g\360\340\315\2007$\201"
 275      C1A7A5C3 
 275      0B67F0E0 
 275      CD803724 
 275      81
 276 044d B80409C8 		.ascii	"\270\004\011\310\270i\307\371\032\010\317\327\256\225"
 276      B869C7F9 
 276      1A08CFD7 
 276      AE95
 277 045b 0AE08B74 		.ascii	"\012\340\213t\000y\001\322\035\362\225NK)OZB_\323\321"
 277      007901D2 
 277      1DF2954E 
 277      4B294F5A 
 277      425FD3D1 
 278 046f 2E346737 		.ascii	".4g7n\242\351\206g\245\212\220\303\300\203\013\037N"
 278      6EA2E986 
 278      67A58A90 
 278      C3C0830B 
 278      1F4E
 279 0481 BCB8F1E3 		.ascii	"\274\270\361\343\3103\356-)\"\333\235H\325\266l\271"
 279      C833EE2D 
 279      2922DB9D 
 279      48D5B66C 
 279      B9
 280 0492 F0C69D01 		.ascii	"\360\306\235\001\030\256`L!\263\235L\036)]t\350\377"
 280      18AE604C 
 280      21B39D4C 
 280      1E295D74 
 280      E8FF
 281 04a4 F0E4E990 		.ascii	"\360\344\351\220\371Ws\322\253\1775\217}\206y\031\272"
 281      F95773D2 
 281      AB7F358F 
 281      7D867919 
 281      BA
 282 04b5 E4C940A6 		.ascii	"\344\311@\246~\236nd`\350\247E\353\315\026g\216\240"
ARM GAS  D:\Dev\msys64\tmp\ccQoZ9BW.s 			page 15


 282      7E9E6E64 
 282      60E8A745 
 282      EBCD1667 
 282      8EA0
 283 04c7 73537204 		.ascii	"sSr\004\026h\340\201\010&\250\340\202\003\315\204@="
 283      1668E081 
 283      0826A8E0 
 283      8203CD84 
 283      403D
 284 04d9 D0EDB2C3 		.ascii	"\320\355\262\303\005\024\272C\213\001\327u\343\217\206"
 284      0514BA43 
 284      8B01D775 
 284      E38F86
 285 04e8 7978D7C5 		.ascii	"yx\327\305\207:H\241\303\003\017\274\262\217z\352\265"
 285      873A48A1 
 285      C3030FBC 
 285      B28F7AEA 
 285      B5
 286 04f9 37CF8A19 		.ascii	"7\317\212\031\264(_\0360\346\221B\012\335t\263\337\033"
 286      B4285F1E 
 286      30E69142 
 286      0ADD74B3 
 286      DF1B
 287 050b 6F4C83C7 		.ascii	"oL\203\307\200\014\366\350\343\217@\006)\344\220\014"
 287      800CF6E8 
 287      E38F4006 
 287      29E4900C 
 288 051b B5400C14 		.ascii	"\265@\014\024\365lP\315\005\023\376S\235;3x3\203&\342"
 288      F56C50CD 
 288      0513FE53 
 288      9D3B3378 
 288      338326E2 
 289 052f 78238E05 		.ascii	"x#\216\005XJ\241\245x\313d\260\014)\257\244\363\312"
 289      584AA1A5 
 289      78CB64B0 
 289      0C29AFA4 
 289      F3CA
 290 0541 98578C39 		.ascii	"\230W\2149\346\003\244\350\220\246\210Z\3267\305\233"
 290      E603A4E8 
 290      90A6885A 
 290      D637C59B 
 291 0551 AE4839C3 		.ascii	"\256H9\303\014\014\214a\005\0021\021\251\347\236|\366"
 291      0C0C8C61 
 291      05023111 
 291      A9E79E7C 
 291      F6
 292 0562 E9E79F49 		.ascii	"\351\347\237I\235CH';\354\302\344\005[\354\320\311\004"
 292      9D434827 
 292      3BECC2E4 
 292      055BECD0 
 292      C904
 293 0574 13C83286 		.ascii	"\023\3102\206,!\310\"\251,/0\300\300\013MtpG\007\221"
 293      2C21C822 
 293      A92C2F30 
 293      C0C00B4D 
 293      74704707 
 294 0589 DD71073C 		.ascii	"\335q\007<\323\200\352i\003wlr\307\013\247:\346\314"
ARM GAS  D:\Dev\msys64\tmp\ccQoZ9BW.s 			page 16


 294      D380EA69 
 294      03776C72 
 294      C70BA73A 
 294      E6CC
 295 059b 0B9876B0 		.ascii	"\013\230v\260\352\244\217\346\377\262\016\240\264\326"
 295      EAA48FE6 
 295      FFB20EA0 
 295      B4D6
 296 05a9 6AEBADB8 		.ascii	"j\353\255\270\346J\320\037\033H\310d5cL\240\251(\251"
 296      E64AD01F 
 296      1B48C864 
 296      35634CA0 
 296      A928A9
 297 05bc 14D34631 		.ascii	"\024\323F1\306\"\253l1\007 \233\015\263\305<\273l\262"
 297      C622AB6C 
 297      3107209B 
 297      0DB3C53C 
 297      BB6CB2
 298 05cf C81E6B2D 		.ascii	"\310\036k-\264\307\342\323H\033\334\266q@\033%\010\341"
 298      B4C7E2D3 
 298      481BDCB6 
 298      71401B25 
 298      08E1
 299 05e1 D45EBA96 		.ascii	"\324^\272\226k\356\271\350\246;\030\035B(\260\302.\022"
 299      6BEEB9E8 
 299      A63B181D 
 299      4228B0C2 
 299      2E12
 300 05f3 8E11432E 		.ascii	"\216\021C.\025\304\021\013\217\011\341\253QMN\345\251"
 300      15C4110B 
 300      8F09E1AB 
 300      514D4EE5 
 300      A9
 301 0604 EEBF0007 		.ascii	"\356\277\000\007,\360\300\025\325c\207\014\022\356\262"
 301      2CF0C015 
 301      D563870C 
 301      12EEB2
 302 0613 462E6D88 		.ascii	"F.m\210\020\213RN\275D\360\304\024Wl\261\272aD\362n"
 302      108B524E 
 302      BD44F0C4 
 302      14576CB1 
 302      BA6144F2 
 303 0628 A16B0CA0 		.ascii	"\241k\014\240\202)G\036\344/C9\211\354\220\276\027\247"
 303      8229471E 
 303      E42F4339 
 303      89EC90BE 
 303      17A7
 304 063a ACF2CA2C 		.ascii	"\254\362\312,+\210\317\000k\310P\350\012\362\034I\256"
 304      2B88CF00 
 304      6BC850E8 
 304      0AF21C49 
 304      AE
 305 064b 4B117F34 		.ascii	"K\021\1774r\2779\267\354\363\317@\007]\230\010\025\304"
 305      72BF39B7 
 305      ECF3CF40 
 305      075D9808 
 305      15C4
ARM GAS  D:\Dev\msys64\tmp\ccQoZ9BW.s 			page 17


 306 065d 8CF02E1D 		.ascii	"\214\360.\035\2043\020\310G\365\214\312\323BG-\365\324"
 306      843310C8 
 306      47F58CCA 
 306      D342472D 
 306      F5D4
 307 066f 547BE412 		.ascii	"T{\344\022\"\221(\260\013\302+\324\363\360\3105\205"
 307      229128B0 
 307      0BC22BD4 
 307      F3F0C835 
 307      85
 308 0680 ADD24203 		.ascii	"\255\322B\003\372\0336K,\365\214S\325l\267\355\366\333"
 308      FA1B364B 
 308      2CF58C53 
 308      D56CB7ED 
 308      F6DB
 309 0692 6B0F148B 		.ascii	"k\017\024\213\011c`!\363\012+\340a\266\"\210\004\377"
 309      09636021 
 309      F30A2BE0 
 309      61B62288 
 309      04FF
 310 06a4 730E017F 		.ascii	"s\016\001\177\013\223\325\036~\373\335\3259e \202H\031"
 310      0B93D51E 
 310      7EFBDDD5 
 310      39652082 
 310      4819
 311 06b6 E7B0950F 		.ascii	"\347\260\225\017N-\314\204C\034\004\020\020\307\036"
 311      4E2DCC84 
 311      431C0410 
 311      10C71E
 312 06c5 C2084395 		.ascii	"\302\010C\225\0341\241\014\367\347\240\207N\261K\010"
 312      1C31A10C 
 312      F7E7A087 
 312      4EB14B08 
 313 06d5 581183DD 		.ascii	"X\021\203\335\303\2540F\015q\023\243\0107\015t0M\007"
 313      C3AC3046 
 313      0D7113A3 
 313      08370D74 
 313      304D07
 314 06e8 20E0869B 		.ascii	" \340\206\233\025n|&\232'\351\364\356\213/\217<\022"
 314      156E7C26 
 314      9A27E9F4 
 314      EE8B2F8F 
 314      3C12
 315 06fa 40295504 		.ascii	"@)U\004\023\262\221t P\3044\011X\221@4\236\201PA#\\"
 315      13B29174 
 315      2050C434 
 315      09589140 
 315      349E8150 
 316 0711 B4CDC92A 		.ascii	"\264\315\311*z\300\261\210\015\327\257\342\375\367\""
 316      7AC0B188 
 316      0DD7AFE2 
 316      FDF722
 317 0720 AC820627 		.ascii	"\254\202\006'\002\315\342=1\234\350\261\312F\030\350"
 317      02CDE23D 
 317      319CE8B1 
 317      CA4618E8 
 318 0730 818143DB 		.ascii	"\201\201C\333`\360~E\351\257/\372\375\370c\004\005\035"
ARM GAS  D:\Dev\msys64\tmp\ccQoZ9BW.s 			page 18


 318      60F07E45 
 318      E9AF2FFA 
 318      FDF86304 
 318      051D
 319 0742 50A83080 		.ascii	"P\2500\200\035\225\220\001\302\"\261\004\226\344\004"
 319      1D959001 
 319      C222B104 
 319      96E404
 320 0751 02BA1800 		.ascii	"\002\272\030\000\243\336@\2357\320\242\011P\262\022"
 320      A3DE409D 
 320      37D0A209 
 320      50B212
 321 0760 96FCE10F 		.ascii	"\226\374\341\017)\370\243\013d\220B\006\257\021\005"
 321      29F8A30B 
 321      64904206 
 321      AF1105
 322 076f 04980415 		.ascii	"\004\230\004\0250\301\307\035,\343\0152XI\034\262h\200"
 322      30C1C71D 
 322      2CE30D32 
 322      58491CB2 
 322      6880
 323 0781 364626B4 		.ascii	"6F&\264\364\351a\021\253X\004\034\332\247\207\032\302"
 323      F4E96111 
 323      AB58041C 
 323      DAA7871A 
 323      C2
 324 0792 A1862E5C 		.ascii	"\241\206.\\\3376j\250\007b\204/\023\354s\237C\377\322"
 324      DF366AA8 
 324      0762842F 
 324      13EC739F 
 324      43FFD2
 325 07a5 87068BFC 		.ascii	"\207\006\213\374P!%\313\237\022\227(\267\"\304\000\200"
 325      502125CB 
 325      9F129728 
 325      B722C400 
 325      80
 326 07b6 95C04225 		.ascii	"\225\300B%\030\260\204\006\011d\011\003\210At.\340\016"
 326      18B08406 
 326      09640903 
 326      8841742E 
 326      E00E
 327 07c8 4318E042 		.ascii	"C\030\340B\264\310\016\014"
 327      B4C80E0C 
 328 07d0 BA618419 		.ascii	"\272a\204\031\315(\017]H\301\207\246\240\016\227,'\037"
 328      CD280F5D 
 328      48C187A6 
 328      A00E972C 
 328      271F
 329 07e2 5A88D218 		.ascii	"Z\210\322\030\367C'-(\255 ,\\Y\373\026\301\023\014\270"
 329      F743272D 
 329      28AD202C 
 329      5C59FB16 
 329      C1130CB8 
 330 07f6 040D4244 		.ascii	"\004\015BD\237\015[\300\013\033\022\243\005h\000\"1"
 330      9F0D5BC0 
 330      0B1B12A3 
 330      05680022 
ARM GAS  D:\Dev\msys64\tmp\ccQoZ9BW.s 			page 19


 330      31
 331 0807 3000483D 		.ascii	"0\000H=\330\000\221\263\300\300*D\320\002\354\351\001"
 331      D80091B3 
 331      C0C02A44 
 331      D002ECE9 
 331      01
 332 0818 0D464205 		.ascii	"\015FB\005\006\026\241\007\015\274\257}\357\333F&4\360"
 332      0616A107 
 332      0DBCAF7D 
 332      EFDB4626 
 332      34F0
 333 082a C25B0824 		.ascii	"\302[\010$\023\234\364$ a(\277U`\300|\207\264$&\211"
 333      139CF424 
 333      206128BF 
 333      5560C07C 
 333      87B42426 
 334 083f 918955CC 		.ascii	"\221\211U\314\202\224h\330\306\021\027\331H\033,\222"
 334      829468D8 
 334      C61117D9 
 334      481B2C92 
 335 084f 94EA63A2 		.ascii	"\224\352c\2420\363\007\205%\274@\027\033\260\203\024"
 335      30F30785 
 335      25BC4017 
 335      1BB08314 
 336 085f D7D0011F 		.ascii	"\327\320\001\037\324d&t\210C$b\260\202\013\374\303:"
 336      D4642674 
 336      88432462 
 336      B0820BFC 
 336      C33A
 337 0871 18CA8E2B 		.ascii	"\030\312\216+jD\3062\306\010FS\330\001\"l\006\023<\310"
 337      6A44C632 
 337      C6084653 
 337      D801226C 
 337      06133CC8 
 338 0885 820C1AA2 		.ascii	"\202\014\032\242\221\215\346\204\217\235\011m\0247\274"
 338      918DE684 
 338      8F9D096D 
 338      1437BC
 339 0894 E42C4430 		.ascii	"\344,D0\020\354\315\317\205\352\343d\015\005\271\377"
 339      10ECCDCF 
 339      85EAE364 
 339      0D05B9FF 
 340 08a4 BE5B7432 		.ascii	"\276[t2\023\263\200\003>\365\300\011N\332\300\006/$"
 340      13B38003 
 340      3EF5C009 
 340      4EDAC006 
 340      2F24
 341 08b6 863F17B1 		.ascii	"\206?\027\261I\202\202\222\226\227\314\304\013E\371"
 341      49828292 
 341      9697CCC4 
 341      0B45F9
 342 08c5 42498AAF 		.ascii	"BI\212\257\223\253\030E\373\342I\014\203\"t\021\304"
 342      93AB1845 
 342      FBE2490C 
 342      83227411 
 342      C4
 343 08d6 C09E062C 		.ascii	"\300\236\006,\211\001\"*\364\237\263p\337%_\011\322"
ARM GAS  D:\Dev\msys64\tmp\ccQoZ9BW.s 			page 20


 343      8901222A 
 343      F49FB370 
 343      DF255F09 
 343      D2
 344 08e7 61BA1474 		.ascii	"a\272\024ttx\331)\024\000@\031`a\014\355\224\330K\342"
 344      7478D929 
 344      14004019 
 344      60610CED 
 344      94D84BE2 
 345 08fb D080012C 		.ascii	"\320\200\001,\211\213Or\2077\014\220\2357\031\301\010"
 345      898B4F72 
 345      87370C90 
 345      9D3719C1 
 345      08
 346 090c 5340EA14 		.ascii	"S@\352\0242\345\306\304<\302\031c\344f7h1\031\002\340"
 346      32E5C6C4 
 346      3CC21963 
 346      E4663768 
 346      311902E0 
 347 0920 2B8F2B93 		.ascii	"+\217+\223\250\015\011*\020\354\215B \365\323gJ{X?b"
 347      A80D092A 
 347      10EC8D42 
 347      20F5D367 
 347      4A7B583F 
 348 0935 20F4ABC4 		.ascii	" \364\253\3040\205I\005\331RNr\002\2416\220\244\373"
 348      30854905 
 348      D9524E72 
 348      02A13690 
 348      A4FB
 349 0947 1E4ACA4C 		.ascii	"\036J\312L\240\222\240\244t\211Z\203\271H=(2}m%(\366"
 349      A092A0A4 
 349      74895A83 
 349      B9483D28 
 349      327D6D25 
 350 095d C827D192 		.ascii	"\310'\321\222\006\363\254\002\021A\3734\020Wr\275\364"
 350      06F3AC02 
 350      1141FB34 
 350      105772BD 
 350      F4
 351 096e B16D0B83 		.ascii	"\261m\013\203\025\024\220L\005`a\020\203XC\005\302\301"
 351      1514904C 
 351      05606110 
 351      83584305 
 351      C2C1
 352 0980 23A72022 		.ascii	"#\247 \"\0121\350\304t\200\372\206(y\303\033\372\321"
 352      0A31E8C4 
 352      7480FA86 
 352      2879C31B 
 352      FAD1
 353 0992 8F3FB633 		.ascii	"\217?\2663\203-d\303$!+\246d\304\021\325n\377\030\300"
 353      832D64C3 
 353      24212BA6 
 353      64C411D5 
 353      6EFF18C0 
 354 09a6 1DCE0001 		.ascii	"\035\316\000\001:\334\366\224mpB\253\363\263\247@\344"
 354      3ADCF694 
 354      6D7042AB 
ARM GAS  D:\Dev\msys64\tmp\ccQoZ9BW.s 			page 21


 354      F3B3A740 
 354      E4
 355 09b7 A0BEC5DE 		.ascii	"\240\276\305\336\342\206\202,\342*\004:\220\262\022"
 355      E286822C 
 355      E22A043A 
 355      90B212
 356 09c6 83B8450C 		.ascii	"\203\270E\014)A\001\211\206\357\311O\2105\364^uE\260"
 356      29410189 
 356      86EFC94F 
 356      8835F45E 
 356      7545B0
 357 09d9 CFE6F2F5 		.ascii	"\317\346\362\365\241\317\275dW\247\313UP\232t\271\344"
 357      A1CFBD64 
 357      57A7CB55 
 357      509A74B9 
 357      E4
 358 09ea 7B89253B 		.ascii	"{\211%;\351X\310\272Wht\360\301\000Na\007\232Zv\020"
 358      E958C8BA 
 358      576874F0 
 358      C1004E61 
 358      079A5A76 
 359 09ff 0A88C46B 		.ascii	"\012\210\304k\011\2023PXa\015c\330\301\026p\344@o\274"
 359      09823350 
 359      58610D63 
 359      D8C11670 
 359      E4406FBC 
 360 0a13 6108B4A0 		.ascii	"a\010\264\240-\014\374\221\340\031\334\301\203=\013"
 360      2D0CFC91 
 360      E019DCC1 
 360      833D0B
 361 0a22 85336600 		.ascii	"\2053f\000\003q\204Q?\356\030C1\016\002\265\240m\262"
 361      03718451 
 361      3FEE1843 
 361      310E02B5 
 361      A06DB2
 362 0a35 A4B72065 		.ascii	"\244\267 ep\341\200V\"B\001\003\267p!?\211\221R\033"
 362      70E18056 
 362      22420103 
 362      B770213F 
 362      8991521B 
 363 0a49 9C847B7C 		.ascii	"\234\204{|\335\241\036Z\300]=l\243\305'\221\337C9\031"
 363      DDA11E5A 
 363      C05D3D6C 
 363      A3C52791 
 363      DF433919 
 364 0a5d CA4C8880 		.ascii	"\312L\210\200\307\350\313\004\021s\034H\031\323\270"
 364      C7E8CB04 
 364      11731C48 
 364      19D3B8
 365 0a6c 86DBC09E 		.ascii	"\206\333\300\236\034\372j\330\365\341x\033q\305\200"
 365      1CFA6AD8 
 365      F5E1781B 
 365      71C580
 366 0a7b 6F49B9E4 		.ascii	"oI\271\344\367Z\371gt\210E\005\354`\207S\320\203\246"
 366      F75AF967 
 366      74884505 
 366      EC608753 
ARM GAS  D:\Dev\msys64\tmp\ccQoZ9BW.s 			page 22


 366      D083A6
 367 0a8e 83D0057E 		.ascii	"\203\320\005~\377\000\010\232\030\004\012\341X\306\030"
 367      FF00089A 
 367      18040AE1 
 367      58C618
 368 0a9d 44CB406F 		.ascii	"D\313@o\360\207\377\026\247\245\305\030\375\001\003"
 368      F087FF16 
 368      A7A5C518 
 368      FD0103
 369 0aac 6F002816 		.ascii	"o\000(\0269\203B,@\300\000oh\342\317atE'tq\307\266\301"
 369      3983422C 
 369      40C0006F 
 369      68E2CF61 
 369      74452774 
 370 0ac4 9387EA73 		.ascii	"\223\207\352s\211pW\014\326}\226\025\012\372\274\241"
 370      8970570C 
 370      D67D9615 
 370      0AFABCA1 
 371 0ad4 73211A4F 		.ascii	"s!\032O Bz\253\327}_\210\021\315\211Mgo\025P\310\336"
 371      20427AAB 
 371      D77D5F88 
 371      11CD894D 
 371      676F1550 
 372 0aea 5C0349E9 		.ascii	"\\\003I\351\032\002q\260L~t\244U\032\317\350^\371\325"
 372      1A0271B0 
 372      4C7E74A4 
 372      551ACFE8 
 372      5EF9D5
 373 0afd 2CC3832D 		.ascii	",\303\203-\304@\017z\330\301\326X\310\365\012\024\000"
 373      C4400F7A 
 373      D8C1D658 
 373      C8F50A14 
 373      00
 374 0b0e 8F768A6D 		.ascii	"\217v\212m%t\010\303\025\232\260\202\011y\221\026B\025"
 374      257408C3 
 374      159AB082 
 374      09799116 
 374      4215
 375 0b20 EA180D30 		.ascii	"\352\030\0150\005o\300c\017\374\245\3038\346\244\011"
 375      056FC063 
 375      0FFCA5C3 
 375      38E6A409 
 376 0b30 18F00747 		.ascii	"\030\360\007G\303\240\207\023J\322\341\252\231\002\003"
 376      C3A08713 
 376      4AD2E1AA 
 376      990203
 377 0b3f 1AADB240 		.ascii	"\032\255\262@\324\2123N0\355H\234X2\024\314\375\022"
 377      D48A334E 
 377      30ED489C 
 377      583214CC 
 377      FD12
 378 0b51 7063C014 		.ascii	"pc\300\024\353>7\372\302=\220\023k\364\026N\341\004"
 378      EB3E37FA 
 378      C23D9013 
 378      6BF4164E 
 378      E104
 379 0b63 CEDC5D65 		.ascii	"\316\334]e{\373\321$\0325\005\271\011\302\011z\247U"
ARM GAS  D:\Dev\msys64\tmp\ccQoZ9BW.s 			page 23


 379      7BFBD124 
 379      1A3505B9 
 379      09C2097A 
 379      A755
 380 0b75 DFE8CE37 		.ascii	"\337\350\3167\323\374m\212m\334B\243h\205\265\304-F"
 380      D3FC6D8A 
 380      6DDC42A3 
 380      6885B5C4 
 380      2D46
 381 0b87 07534401 		.ascii	"\007SD\001\027=\360B\001\236\361\003\\W\342\343k`\200"
 381      173DF042 
 381      019EF103 
 381      5C57E2E3 
 381      6B6080
 382 0b9a 09046410 		.ascii	"\011\004d\020:\344#\033\255\377\355\317?V~\001\010b"
 382      3AE4231B 
 382      ADFFEDCF 
 382      3F567E01 
 382      0862
 383 0bac D3154D78 		.ascii	"\323\025MxD\030T\202\017\012\263\200\005\206\360\303"
 383      44185482 
 383      0F0AB380 
 383      0586F0C3 
 384 0bbc 30FCD00C 		.ascii	"0\374\320\014\024(B&I\234\270\320\207N\364\216 \302"
 384      14284226 
 384      499CB8D0 
 384      874EF48E 
 384      20C2
 385 0bce 161FB086 		.ascii	"\026\037\260\206\306\275 \0061\374\200\017\315\240\302"
 385      C6BD2006 
 385      31FC800F 
 385      CDA0C2
 386 0bdd 302AB186 		.ascii	"0*\261\206\0278\"\011\010\311G(\246\261\305\1774\320"
 386      17382209 
 386      08C94728 
 386      A6B1C57F 
 386      34D0
 387 0bef 81AEB86D 		.ascii	"\201\256\270m\002\342\220':\240#\001;\370\004\022\014"
 387      02E29027 
 387      3AA02301 
 387      3BF80412 
 387      0C
 388 0c00 81842030 		.ascii	"\201\204 0!\002\021\230\201\001;\214\325\242\333\375"
 388      21021198 
 388      81013B8C 
 388      D5A2DBFD 
 389 0c10 EE782748 		.ascii	"\356x'H,zQ\010\\|\300\013^\310x\323\013\360ti@\235\035"
 389      2C7A5108 
 389      5C7CC00B 
 389      5EC878D3 
 389      0BF07469 
 390 0c27 310840F5 		.ascii	"1\010@\365\234\202\012\250\010$\011\020`@\010(\204\250"
 390      9C820AA8 
 390      08240910 
 390      60400828 
 390      84A8
 391 0c39 01BFC110 		.ascii	"\001\277\301\0200\230\301\034\036\3279<la\030A@\202"
ARM GAS  D:\Dev\msys64\tmp\ccQoZ9BW.s 			page 24


 391      3098C11C 
 391      1ED7393C 
 391      6C611841 
 391      4082
 392 0c4b E891C004 		.ascii	"\350\221\300\004&|\303\014\017\223I\275\353\236\367"
 392      267CC30C 
 392      0F9349BD 
 392      EB9EF7
 393 0c5a D6BBFEBD 		.ascii	"\326\273\376\275\021\253A.\000\360\001\\X\243\007b`"
 393      11AB412E 
 393      00F0015C 
 393      58A30762 
 393      60
 394 0c6b BA180A40 		.ascii	"\272\030\012@x>\024\200\017?X\300)\242@\001\202\314"
 394      783E1480 
 394      0F3F58C0 
 394      29A24001 
 394      82CC
 395 0c7d 040A5C58 		.ascii	"\004\012\\XF5\240\301\014h8\377\023\206\370D+\336\020"
 395      4635A0C1 
 395      0C6838FF 
 395      1386F844 
 395      2BDE10
 396 0c90 0A030A84 		.ascii	"\012\003\012\204\016\375(E+\202\340\366\322\013\300"
 396      0EFD2845 
 396      2B82E0F6 
 396      D20BC0
 397 0c9f F4D34080 		.ascii	"\364\323@\200\377\347^O\376\362C\366f1\225\200=>\360"
 397      FFE75E4F 
 397      FEF243F6 
 397      66319580 
 397      3D3EF0
 398 0cb2 017BF4E0 		.ascii	"\001{\364\340\375\202o\372\017\346\377\364\037\344`"
 398      FD826FFA 
 398      0FE6FFF4 
 398      1FE460
 399 0cc1 08F960C9 		.ascii	"\010\371`\311^@\270\277x\354\240\031\260\000\013\021"
 399      5E40B8BF 
 399      78ECA019 
 399      B0000B11 
 400 0cd1 507A4CE0 		.ascii	"PzL\340\0072 \016\240Po4A\000C\020\001\334\307\017\337"
 400      0732200E 
 400      A0506F34 
 400      41004310 
 400      01DCC70F 
 401 0ce6 F00D0210 		.ascii	"\360\015\002\020\001\255`\002\367b~\030\230\201\217"
 401      01AD6002 
 401      F7627E18 
 401      98818F
 402 0cf5 9512FD12 		.ascii	"\225\022\375\022\006w\340~\326\020\202\030\327\003\324"
 402      0677E07E 
 402      D6108218 
 402      D703D4
 403 0d04 400D4D27 		.ascii	"@\015M'\006\340\340t\013\260\000|\000\016\324@EiC.&"
 403      06E0E074 
 403      0BB0007C 
 403      000ED440 
ARM GAS  D:\Dev\msys64\tmp\ccQoZ9BW.s 			page 25


 403      4569432E 
 404 0d19 E70CD2D0 		.ascii	"\347\014\322\320\014pw\203\021x\014+\001[\304\320\017"
 404      0C707783 
 404      11780C2B 
 404      015BC4D0 
 404      0F
 405 0d2a 01D00A11 		.ascii	"\001\320\012\021\300\017B(\201\3370\014\011PE\343\247"
 405      C00F4228 
 405      81DF300C 
 405      095045E3 
 405      A7
 406 0d3b 814AB884 		.ascii	"\201J\270\204n\343x\004 \011\177g\017Jw{#\030x\200\267"
 406      6EE37804 
 406      20097F67 
 406      0F4A777B 
 406      23187880 
 407 0d50 7B3FD07B 		.ascii	"{?\320{?\000\016\014 \014e\027\006 \000u\002\010w\260"
 407      3F000E0C 
 407      200C6517 
 407      06200075 
 407      020877B0 
 408 0d64 F00D3760 		.ascii	"\360\0157`\006\374R\022\004\020\00270\014BXz\021\010"
 408      06FC5212 
 408      04100237 
 408      300C4258 
 408      7A1108
 409 0d77 0DC9C005 		.ascii	"\015\311\300\005I\310\204vx\207A\003\023\242\200\013"
 409      49C88476 
 409      78874103 
 409      13A2800B 
 410 0d87 7E378553 		.ascii	"~7\205S\010x\032\307{\005p\017\367\300\007\206\010|"
 410      08781AC7 
 410      7B05700F 
 410      F7C00786 
 410      087C
 411 0d99 E0D000E3 		.ascii	"\340\320\000\343B\023Y\026\000(\377\240\004J\020\001"
 411      42135916 
 411      0028FFA0 
 411      044A1001 
 412 0da9 90280DD2 		.ascii	"\220(\015\322 \013@\220\206\261\360\0107\240\004L\000"
 412      200B4090 
 412      86B1F008 
 412      37A0044C 
 412      00
 413 0dba 0BFC0077 		.ascii	"\013\374\000wL \015\336p\016\251\307zxx\212\250x1B`"
 413      4C200DDE 
 413      700EA9C7 
 413      7A78788A 
 413      A8783142 
 414 0dcf 0B7EF777 		.ascii	"\013~\367w!\250t\200x\205\274\227\205Y\010|\013\220"
 414      21A87480 
 414      7885BC97 
 414      8559087C 
 414      0B90
 415 0de1 03122002 		.ascii	"\003\022 \002O\221\022t@\001\362@\015\220\250\004\337"
 415      4F911274 
 415      4001F240 
ARM GAS  D:\Dev\msys64\tmp\ccQoZ9BW.s 			page 26


 415      0D90A804 
 415      DF
 416 0df2 D00CD220 		.ascii	"\320\014\322 \006\217\220\206PP\006\316\020\211p\007"
 416      068F9086 
 416      505006CE 
 416      10897007 
 417 0e02 8992F80D 		.ascii	"\211\222\370\015\351\220\017\246\230\212\324X\215\002"
 417      E9900FA6 
 417      988AD458 
 417      8D02
 418 0e10 53068280 		.ascii	"S\006\202\200\011\224\200L\224@Y\033\220L\311\304e\342"
 418      0994804C 
 418      9440591B 
 418      904CC9C4 
 418      65E2
 419 0e22 6807EC40 		.ascii	"h\007\354@\216\033\300\003\272\300\015\017\303\023="
 419      8E1BC003 
 419      BAC00D0F 
 419      C3133D
 420 0e31 E80BCF20 		.ascii	"\350\013\317 \015\223(\015\013@\015\005$\020\313\001"
 420      0D93280D 
 420      0B400D05 
 420      2410CB01 
 421 0e41 013F7083 		.ascii	"\001?p\203\220\370\015\220X\011\331\220z\366h\215\002"
 421      90F80D90 
 421      5809D990 
 421      7AF6688D 
 421      02
 422 0e52 39900103 		.ascii	"9\220\001\003\005\"\020\006\010\231\220a \002\007\311"
 422      05221006 
 422      08999061 
 422      200207C9 
 423 0e62 900DF990 		.ascii	"\220\015\371\220a\220\017\371\200\2201\001\025\301v"
 423      61900FF9 
 423      80903101 
 423      15C176
 424 0e71 074FD70C 		.ascii	"\007O\327\014J\300\007\364\220\210_s$\006\331\001\032"
 424      4AC007F4 
 424      90885F73 
 424      2406D901 
 424      1A
 425 0e82 C90F4A40 		.ascii	"\311\017J@\211\220\330\014!0\016\004\271\222,\3516-"
 425      8990D80C 
 425      21300E04 
 425      B9922CE9 
 425      362D
 426 0e94 B0175C70 		.ascii	"\260\027\\p\016\033 \006\207\010|\033\200\007q\377\003"
 426      0E1B2006 
 426      87087C1B 
 426      800771FF 
 426      03
 427 0ea5 053E6007 		.ascii	"\005>`\007|\020\214T\260\000\362(\006Q\2406-Y\224F\231"
 427      7C108C54 
 427      B000F228 
 427      0651A036 
 427      2D599446 
 428 0eba 2BDDD610 		.ascii	"+\335\326\020j\343\024\362\360\014NW\177\317p\007\277"
ARM GAS  D:\Dev\msys64\tmp\ccQoZ9BW.s 			page 27


 428      6AE314F2 
 428      F00C4E57 
 428      7FCF7007 
 428      BF
 429 0ecb C183C450 		.ascii	"\301\203\304P\001\247 \015pG\005\363'\006\022\300\003"
 429      01A7200D 
 429      704705F3 
 429      270612C0 
 429      03
 430 0edc E3308D47 		.ascii	"\3430\215G\031\226b\371#I\251\224z\007\005#\240\000"
 430      199662F9 
 430      2349A994 
 430      7A070523 
 430      A000
 431 0eee 84578B5E 		.ascii	"\204W\213^`\007\353\3600\035\206\016\354@\223\206H\005"
 431      6007EBF0 
 431      301D860E 
 431      EC409386 
 431      4805
 432 0f00 BE470D39 		.ascii	"\276G\0159\320\013\0009\226|\331\227\012\222\023`\331"
 432      D00B0039 
 432      967CD997 
 432      0A921360 
 432      D9
 433 0f11 104B300D 		.ascii	"\020K0\015\270\260{\202X\000c\340\0032!\203\370\000"
 433      B8B07B82 
 433      580063E0 
 433      03322183 
 433      F800
 434 0f23 0E0B307F 		.ascii	"\016\0130\177|\300\010\005\200\002\224\320\013\305\027"
 434      7CC00805 
 434      800294D0 
 434      0BC517
 435 0f32 987E9999 		.ascii	"\230~\231\231\232\351\027\230\331\0207\001\005\010\020"
 435      9AE91798 
 435      D9103701 
 435      050810
 436 0f41 05265800 		.ascii	"\005&X\000\206\351\005\364\240\005\325\303\216\261p"
 436      86E905F4 
 436      A005D5C3 
 436      8EB170
 437 0f50 074E070E 		.ascii	"\007N\007\016Yx\017\214\200S\024p|\233Y\233\266i\030"
 437      59780F8C 
 437      80531470 
 437      7C9B599B 
 437      B66918
 438 0f63 65791150 		.ascii	"ey\021P`\014\265 \011\224\000\016(\200\002\317p\012"
 438      600CB520 
 438      0994000E 
 438      288002CF 
 438      700A
 439 0f75 CF30003B 		.ascii	"\3170\000;R\023{qt\033p\012\340\260\001(\340\014\223"
 439      52137B71 
 439      741B700A 
 439      E0B00128 
 439      E00C93
 440 0f88 60093B78 		.ascii	"`\011;x\233\324Y\235~\301\216AW\021\333`\014\306\020"
ARM GAS  D:\Dev\msys64\tmp\ccQoZ9BW.s 			page 28


 440      9BD4599D 
 440      7EC18E41 
 440      5711DB60 
 440      0CC610
 441 0f9b 072A1007 		.ascii	"\007*\020\007\340"
 441      E0
 442 0fa0 199E42FF 		.ascii	"\031\236B\377\200/I\200\010\341y\016\341\340/\235i\235"
 442      802F4980 
 442      08E1790E 
 442      E1E02F9D 
 442      699D
 443 0fb2 ECD99E1A 		.ascii	"\354\331\236\0321\023\331\011\022X\225'\356\344\236"
 443      3113D909 
 443      12589527 
 443      EEE49E
 444 0fc1 F6799F23 		.ascii	"\366y\237#\301B\353)\0220\201\237\376\371\237V\243\200"
 444      C142EB29 
 444      1230819F 
 444      FEF99F56 
 444      A380
 445 0fd3 FBB91033 		.ascii	"\373\271\0203\261\177V\304_\007\272\034\012\2013\000"
 445      B17F56C4 
 445      5F07BA1C 
 445      0A813300 
 446 0fe3 DAA00E1A 		.ascii	"\332\240\016\0322x\304\240\034\241\237\004q\022\360"
 446      3278C4A0 
 446      1CA19F04 
 446      7112F0
 447 0ff2 1911FDF9 		.ascii	"\031\021\375\371\240\032\212\237\374\243\200/1\240\017"
 447      A01A8A9F 
 447      FCA3802F 
 447      31A00F
 448 1001 419F10BA 		.ascii	"A\237\020\272z \371\\\013\301\034 \272\241*\312\222"
 448      7A20F95C 
 448      0BC11C20 
 448      BAA12ACA 
 448      92
 449 1012 508008E7 		.ascii	"P\200\010\347\000\005\246\260\004\325\023\0138\200\003"
 449      0005A6B0 
 449      04D5130B 
 449      388003
 450 1021 A628A222 		.ascii	"\246(\242\"\023\023\375rf \2713\261\240\007\254'\002"
 450      1313FD72 
 450      6620B933 
 450      B1A007AC 
 450      2702
 451 1033 C5404F2B 		.ascii	"\305@O+Z\244\324Y\003x\3600\240p/\301\200\007I\260?"
 451      5AA4D459 
 451      0378F030 
 451      A0702FC1 
 451      800749B0 
 452 1048 FC833330 		.ascii	"\374\20330\341\024r\3009\\\260\243\344d\220r\000o\310"
 452      E11472C0 
 452      395CB0A3 
 452      E4649072 
 452      006FC8
 453 105b 670A5BAA 		.ascii	"g\012[\252\2458#\002\010\347CP \004\\*\004\201\220\236"
ARM GAS  D:\Dev\msys64\tmp\ccQoZ9BW.s 			page 29


 453      A5382302 
 453      08E74350 
 453      20045C2A 
 453      0481909E 
 454 106f 06790BF0 		.ascii	"\006y\013\3606\020\267 \007\312\360\005\342f\244t\352"
 454      3610B720 
 454      07CAF005 
 454      E266A474 
 454      EA
 455 1080 97C1E603 		.ascii	"\227\301\346\003\350\020\006f\220\004a\320\006\370 "
 455      E8100666 
 455      900461D0 
 455      06F820
 456 108f 7E35609E 		.ascii	"~5`\236\210P\212N!\002}pC\334\240\007r\300\013*\377"
 456      88508A4E 
 456      21027D70 
 456      43DCA007 
 456      72C00B2A 
 457 10a4 70241860 		.ascii	"p$\030`\003\"\200\006\211\372\016\213P\006\034\300\015"
 457      03228006 
 457      89FA0E8B 
 457      50061CC0 
 457      0D
 458 10b5 DCA00E7D 		.ascii	"\334\240\016}\200\251}\020\013\\@\016\300\340\004\352"
 458      80A97D10 
 458      0B5C400E 
 458      C0E004EA 
 459 10c5 700B2210 		.ascii	"p\013\"\020\252\334\340\002\210 \004u\300\006\365p\013"
 459      AADCE002 
 459      88200475 
 459      C006F570 
 459      0B
 460 10d6 C8E002C0 		.ascii	"\310\340\002\300\200\252\304\300\005\032\360\016\334"
 460      80AAC4C0 
 460      051AF00E 
 460      DC
 461 10e3 C0014760 		.ascii	"\300\001G`Ju\272\253|y\247\261\020\013\020`\011\024"
 461      4A75BAAB 
 461      7C79A7B1 
 461      100B1060 
 461      0914
 462 10f5 40004F40 		.ascii	"@\000O@\001I\340\001K\200\000\346\371\231h\300\001\310"
 462      0149E001 
 462      4B8000E6 
 462      F99968C0 
 462      01C8
 463 1107 600C7DC0 		.ascii	"`\014}\300\006i\000\014}`\022\305\300\001\315\312\013"
 463      0669000C 
 463      7D6012C5 
 463      C001CDCA 
 463      0B
 464 1118 C6000CD8 		.ascii	"\306\000\014\330\200\014\254P\004*\300\001\227\320\006"
 464      800CAC50 
 464      042AC001 
 464      97D006
 465 1127 8000092A 		.ascii	"\200\000\011*p\006NP\002\306\240\016\3340\002\201P\004"
 465      70064E50 
ARM GAS  D:\Dev\msys64\tmp\ccQoZ9BW.s 			page 30


 465      02C6A00E 
 465      DC300281 
 465      5004
 466 1139 C6600E4E 		.ascii	"\306`\016N\240\014\310\360\013\306P\256m0\012\213\300"
 466      A00CC8F0 
 466      0BC650AE 
 466      6D300A8B 
 466      C0
 467 114a 01FEC40D 		.ascii	"\001\376\304\015\334\311\001\3300\247\274:\260-irIJ"
 467      DCC901D8 
 467      30A7BC3A 
 467      B02D6972 
 467      494A
 468 115c 0C0E0004 		.ascii	"\014\016\000\004\304\340\003\343@\007\302\020\012@\000"
 468      C4E003E3 
 468      4007C210 
 468      0A4000
 469 116b 04E37002 		.ascii	"\004\343p\002\027h\022_P\002\002\301\005\2270\255\251"
 469      1768125F 
 469      500202C1 
 469      059730AD 
 469      A9
 470 117c 7024D7CA 		.ascii	"p$\327\312\001\274P\022e`\256iJ\014m\340\004\234S\017"
 470      01BC5012 
 470      6560AE69 
 470      4A0C6DE0 
 470      049C530F 
 471 1190 1C500E59 		.ascii	"\034P\016Yp\006}P\007\252\320\010\227\240\213\212\360"
 471      70067D50 
 471      07AAD008 
 471      97A08B8A 
 471      F0
 472 11a1 0EC6FFC0 		.ascii	"\016\306\377\300\005\254\000\005\346\240\012}\340\262"
 472      05AC0005 
 472      E6A00A7D 
 472      E0B2
 473 11af 47500447 		.ascii	"GP\004G\200\0034\201\010G0\225\004{\264,)\004Op/\361"
 473      80033481 
 473      08473095 
 473      047BB42C 
 473      29044F70 
 474 11c5 209DA0A0 		.ascii	" \235\240\240\017\375\340\003\361 \014O\340\003\302"
 474      0FFDE003 
 474      F1200C4F 
 474      E003C2
 475 11d4 B012E3A2 		.ascii	"\260\022\343\242\012\210\320/\211P\006\025@\016Gr\006"
 475      0A88D02F 
 475      89500615 
 475      400E4772 
 475      06
 476 11e5 90C00180 		.ascii	"\220\300\001\200P\022\312\340\004*@\002%\321\010u\300"
 476      5012CAE0 
 476      042A4002 
 476      25D10875 
 476      C0
 477 11f6 39679005 		.ascii	"9g\220\005\034\240\012uP\004u`\016ip\004W*\007N`\014"
 477      1CA00A75 
ARM GAS  D:\Dev\msys64\tmp\ccQoZ9BW.s 			page 31


 477      50047560 
 477      0E697004 
 477      572A074E 
 478 120c DB100850 		.ascii	"\333\020\010P\340\004_0\267\346\300\015\200\360\005"
 478      E0045F30 
 478      B7E6C00D 
 478      80F005
 479 121b 772404AA 		.ascii	"w$\004\252`\264H\273\270\325H\007#\200\007\\`\012O\240"
 479      60B448BB 
 479      B8D54807 
 479      2380075C 
 479      600A4FA0 
 480 122f 0F5CE003 		.ascii	"\017\\\340\003\016\200\016\343\340\001@\320\017\010"
 480      0E800EE3 
 480      E00140D0 
 480      0F08
 481 123d 50406150 		.ascii	"P@aP\0148\020\013\346\360\016\267 \004\200\300\006#"
 481      0C38100B 
 481      E6F00EB7 
 481      200480C0 
 481      0623
 482 124f F0B27951 		.ascii	"\360\262yQ\016\357\300\256e \007}p\011%\020\010W\212"
 482      0EEFC0AE 
 482      6520077D 
 482      70092510 
 482      08578A
 483 1262 0C75A08B 		.ascii	"\014u\240\213/+\257oJ\016\346\240\014G@Or\220\005(\246"
 483      2F2BAF6F 
 483      4A0EE6A0 
 483      0C47404F 
 483      72900528 
 484 1277 B68D9005 		.ascii	"\266\215\220\005\306 \007l[\006\345p\006\234\240\014"
 484      C620076C 
 484      5B06E570 
 484      069CA00C 
 485 1287 DC5A068C 		.ascii	"\334Z\006\214\033\275\324\330\242\200\200\003\246\273"
 485      1BBDD4D8 
 485      A2808003 
 485      A6BB
 486 1295 07421007 		.ascii	"\007B\020\007O\200\016\261\240\010\227\203\007a\321"
 486      4F800EB1 
 486      A0089783 
 486      0761D1
 487 12a4 40073890 		.ascii	"@\0078\220\0126\032\006\334\360\016u\000\011\211\253"
 487      0A361A06 
 487      DCF00E75 
 487      000989AB 
 488 12b4 0CDCE004 		.ascii	"\014\334\340\004\300\300\263\306\220\005NP\007\345\220"
 488      C0C0B3C6 
 488      90054E50 
 488      07E590
 489 12c3 08990009 		.ascii	"\010\231\000\011N\201\001\344\000o\310\200\006\304e"
 489      4E8101E4 
 489      006FC880 
 489      06C465
 490 12d2 AB362B02 		.ascii	"\2536+\002\357\000o?V\006P\240\012N\321\007\034P\007"
 490      EF006F3F 
ARM GAS  D:\Dev\msys64\tmp\ccQoZ9BW.s 			page 32


 490      560650A0 
 490      0A4ED107 
 490      1C5007
 491 12e5 4EE04BB7 		.ascii	"N\340K\267p\251z\260\262\002+\275\024\274\204\007\211"
 491      70A97AB0 
 491      B2022BBD 
 491      14BC8407 
 491      89
 492 12f6 670B190B 		.ascii	"g\013\031\013\007\271?P\200\220tH\014\261\020\006\251"
 492      07B93F50 
 492      80907448 
 492      0CB11006 
 492      A9
 493 1307 C7057160 		.ascii	"\307\005q`\014\"`\246>\304\235U\212\014\357\320\010"
 493      0C2260A6 
 493      3EC49D55 
 493      8A0CEFD0 
 493      08
 494 1318 80A0C00F 		.ascii	"\200\240\300\017W\022\246\240\213O\241nv\245n\370v$"
 494      5712A6A0 
 494      8B4FA16E 
 494      76A56EF8 
 494      7624
 495 132a 720015F8 		.ascii	"r\000\025\370\346\024e\220\011=\354\024\263p\274\234"
 495      E6146590 
 495      093DEC14 
 495      B370BC9C 
 496 133a 53C146BC 		.ascii	"S\301F\274\2047\2016\327\267\304\014\221\241=\032\016"
 496      84378136 
 496      D7B7C40C 
 496      91A13D1A 
 496      0E
 497 134b 3BFB0590 		.ascii	";\373\005\220\200\014P\241\236\036\332\2378\352\241"
 497      800C50A1 
 497      9E1EDA9F 
 497      38EAA1
 498 135a 3A75C45C 		.ascii	":u\304\\<\226u\367\024\312\200\003E\\\242Z\374\024<"
 498      3C9675F7 
 498      14CA8003 
 498      455CA25A 
 498      FC143C
 499 136d 2AA0EAA9 		.ascii	"*\240\352\251\243\177\022\020\000;"
 499      A37F1210 
 499      003B
 500              		.section	.rodata.data__STM32F7xx_files_logo_jpg,"a"
 501              		.align	2
 504              	data__STM32F7xx_files_logo_jpg:
 505 0000 2F53544D 		.ascii	"/STM32F7xx_files/logo.jpg\000\000\000HTTP/1.0 200 O"
 505      33324637 
 505      78785F66 
 505      696C6573 
 505      2F6C6F67 
 506 002a 4B0D0A53 		.ascii	"K\015\012Server: lwIP/1.3.1 (http://savannah.nongnu"
 506      65727665 
 506      723A206C 
 506      7749502F 
 506      312E332E 
ARM GAS  D:\Dev\msys64\tmp\ccQoZ9BW.s 			page 33


 507 0057 2E6F7267 		.ascii	".org/projects/lwip)\015\012Content-type: image/jpeg"
 507      2F70726F 
 507      6A656374 
 507      732F6C77 
 507      6970290D 
 508 0084 0D0A0D0A 		.ascii	"\015\012\015\012\377\330\377\340\000\020JFIF\000\001"
 508      FFD8FFE0 
 508      00104A46 
 508      49460001 
 509 0094 01010048 		.ascii	"\001\001\000H\000H\000\000\377\376\000<CREATOR: gd-"
 509      00480000 
 509      FFFE003C 
 509      43524541 
 509      544F523A 
 510 00ac 6A706567 		.ascii	"jpeg v1.0 (using IJG JPEG v62), quality = 100\012\377"
 510      2076312E 
 510      30202875 
 510      73696E67 
 510      20494A47 
 511 00db DB004300 		.ascii	"\333\000C\000\006\004\005\006\005\004\006\006\005\006"
 511      06040506 
 511      05040606 
 511      0506
 512 00e9 07070608 		.ascii	"\007\007\006\010\012\020\012\012\011\011\012\024\016"
 512      0A100A0A 
 512      09090A14 
 512      0E
 513 00f6 0F0C1017 		.ascii	"\017\014\020\027\024\030\030\027\024\026\026\032\035"
 513      14181817 
 513      1416161A 
 513      1D
 514 0103 251F1A1B 		.ascii	"%\037\032\033#\034\026\026 , #&')*)\031\037-0-(0%()"
 514      231C1616 
 514      202C2023 
 514      2627292A 
 514      29191F2D 
 515 011e 28FFDB00 		.ascii	"(\377\333\000C\001\007\007\007\012\010\012\023\012\012"
 515      43010707 
 515      070A080A 
 515      130A0A
 516 012d 13281A16 		.ascii	"\023(\032\026\032(((((((((((((((((((((((((((((((((("
 516      1A282828 
 516      28282828 
 516      28282828 
 516      28282828 
 517 0154 28282828 		.ascii	"((((((((((((((((\377\300\000\021\010\000D\000`\003\001"
 517      28282828 
 517      28282828 
 517      28282828 
 517      FFC00011 
 518 016f 22000211 		.ascii	"\"\000\002\021\001\003\021\001\377\304\000\034\000\000"
 518      01031101 
 518      FFC4001C 
 518      0000
 519 017d 02020301 		.ascii	"\002\002\003\001\001\000\000\000\000\000\000\000\000"
 519      01000000 
 519      00000000 
ARM GAS  D:\Dev\msys64\tmp\ccQoZ9BW.s 			page 34


 519      00
 520 018a 00000007 		.ascii	"\000\000\000\007\006\010\002\003\004\005\001\377\304"
 520      06080203 
 520      040501FF 
 520      C4
 521 0197 003C1000 		.ascii	"\000<\020\000\001\003\003\003\000\006\006\010\005\005"
 521      01030303 
 521      00060608 
 521      0505
 522 01a5 01000000 		.ascii	"\001\000\000\000\000\001\002\003\004\000\005\021\006"
 522      00010203 
 522      04000511 
 522      06
 523 01b2 12210713 		.ascii	"\022!\007\0231AQ\201\025\"aq\221\321\0242BRU\222\223"
 523      31415181 
 523      15226171 
 523      91D11432 
 523      42525592 
 524 01c7 94082343 		.ascii	"\224\010#C\202\241$3rs\203\361\377\304\000\032\001\000"
 524      82A12433 
 524      727383F1 
 524      FFC4001A 
 524      0100
 525 01d9 02030101 		.ascii	"\002\003\001\001\000\000\000\000\000\000\000\000\000"
 525      00000000 
 525      00000000 
 525      00
 526 01e6 00000004 		.ascii	"\000\000\000\004\001\002\003\005\006\377\304\000+\021"
 526      01020305 
 526      06FFC400 
 526      2B11
 527 01f4 00010302 		.ascii	"\000\001\003\002\004\003\010\003\000\000\000\000\000"
 527      04030803 
 527      00000000 
 527      00
 528 0201 00000001 		.ascii	"\000\000\000\001\000\002\003\004\021\022\023!1\005A"
 528      00020304 
 528      11121321 
 528      310541
 529 0210 F0144243 		.ascii	"\360\024BCQS\201\241\321Ra\341\377\332\000\014\003\001"
 529      515381A1 
 529      D15261E1 
 529      FFDA000C 
 529      0301
 530 0222 00021103 		.ascii	"\000\002\021\003\021\000?\000\2654QE\010Q\235w\254!"
 530      11003F00 
 530      B5345145 
 530      08519D77 
 530      AC21
 531 0234 691B6A1F 		.ascii	"i\033j\037\222\222\364\247\211Lx\3518+#\264\223\334"
 531      9292F4A7 
 531      894C78E9 
 531      382B23B4 
 531      93DC
 532 0246 919193ED 		.ascii	"\221\221\223\355\024\232\227\322\256\247\226\371[2\031"
 532      149A97D2 
 532      AEA796F9 
ARM GAS  D:\Dev\msys64\tmp\ccQoZ9BW.s 			page 35


 532      5B3219
 533 0255 8ADE786D 		.ascii	"\212\336xm\246R@\363VMy],\337};\256%\251\265\356\215"
 533      A65240F3 
 533      564D795D 
 533      2CDF7D3B 
 533      AE25A9B5 
 534 026b 13FD2B38 		.ascii	"\023\375+8\354\302O\254|\324O\226)\215\321\247F\220"
 534      ECC24FAC 
 534      7CD44F96 
 534      298DD1A7 
 534      4690
 535 027d 05AA3DD3 		.ascii	"\005\252=\323QG\022\344\310Hq\270\316r\333i=\233\223"
 535      514712E4 
 535      C84871B8 
 535      CE72DB69 
 535      3D9B93
 536 0290 F6891CF3 		.ascii	"\366\211\034\363\300\360\256\213\031\034\021\207\310"
 536      C0F0AE8B 
 536      191C1187 
 536      C8
 537 029d 2E4AE648 		.ascii	".J\346H\371j$,\214\330\005\014o\244\255J~\265\331#\377"
 537      F96A242C 
 537      8CD8050C 
 537      6FA4AD4A 
 537      7EB5D923 
 538 02b2 0026FE55 		.ascii	"\000&\376U\324\327H\232\205]\267t\376\233\177*w\243"
 538      D4D7489A 
 538      855DB774 
 538      FE9B7F2A 
 538      77A3
 539 02c4 4FD99090 		.ascii	"O\331\220\220\224Z-\311H\354\0022\000\037\342\276\372"
 539      945A2DC9 
 539      48EC0232 
 539      001FE2BE 
 539      FA
 540 02d5 06CFF84D 		.ascii	"\006\317\370M\277\366\310\371U{T^\230S\330\346\365O"
 540      BFF6C8F9 
 540      557B545E 
 540      9853D8E6 
 540      F54F
 541 02e7 5EE934D6 		.ascii	"^\3514\326\276\276\253\266\356?#\177*\351\032\346\362"
 541      BEBEABB6 
 541      EE3F237F 
 541      2AE91AE6 
 541      F2
 542 02f8 467D303F 		.ascii	"F}0?#\177*nz\002\317\370M\277\366\310\371Q\350\033?"
 542      237F2A6E 
 542      7A02CFF8 
 542      4DBFF6C8 
 542      F951E81B 
 543 030d E156FF00 		.ascii	"\341V\377\000\333#\345U51\376\012\302\222_P\244\353"
 543      DB23E555 
 543      3531FE0A 
 543      C2925F50 
 543      A4EB
 544 031f 9AF6F89E 		.ascii	"\232\366\370\236\313\262\177#\177*\345s\244M@\236\313"
 544      CBB27F23 
ARM GAS  D:\Dev\msys64\tmp\ccQoZ9BW.s 			page 36


 544      7F2AE573 
 544      A44D409E 
 544      CB
 545 0330 A23F4DBF 		.ascii	"\242?M\277\225;}\003h\374*\337\373t|\250\364\015\243"
 545      953B7D03 
 545      68FC2ADF 
 545      FB747CA8 
 545      F40DA3
 546 0343 F0A81FB7 		.ascii	"\360\250\037\267G\312\244T\304<0\240\321\312|C\327\272"
 546      47CAA454 
 546      C43C30A0 
 546      D1CA7C43 
 546      D7BA
 547 0355 44B9D256 		.ascii	"D\271\322V\244Oe\311\037\244\217\225Lz(\324\332\203"
 547      A44F65C9 
 547      1FA48F95 
 547      4C7A28D4 
 547      DA83
 548 0367 52DEA409 		.ascii	"R\336\244\011\363\022\344\030\315\356X\015\244eJ\341"
 548      F312E418 
 548      CDEE580D 
 548      A4654AE1 
 549 0377 23207B09 		.ascii	"# {\011\362\246/\240\255\037\205@\375\272>U\325\022"
 549      F2A62FA0 
 549      AD1F8540 
 549      FDBA3E55 
 549      D512
 550 0389 14584952 		.ascii	"\024XIRa\306b:TrCM\204g\337\212\254\225\021\271\244"
 550      61C6623A 
 550      5472434D 
 550      8467DF8A 
 550      AC9511B9 
 551 039e 35802BC5 		.ascii	"5\200+\305K#\034\034\351\011\013\242\243\372\372\366"
 551      4B231C1C 
 551      E9090BA2 
 551      A3FAFAF6 
 552 03ae 34FE93B8 		.ascii	"4\376\223\270O\012\332\352[(k\376g\201\363\362\251\005"
 552      4F0ADAEA 
 552      5B286BFE 
 552      6781F3F2 
 552      A905
 553 03c0 575FE23F 		.ascii	"W_\342?W\365\227\250\332z2\202\232\212\220\354\214\037"
 553      57F597A8 
 553      DA7A3282 
 553      9A8A90EC 
 553      8C1F
 554 03d2 EA28640F 		.ascii	"\352(d\017$\340\371\3260G\215\340-\352e\313a)m\021}"
 554      24E0F9D6 
 554      30478DE0 
 554      2DEA65CB 
 554      61296D11 
 555 03e7 64A4170F 		.ascii	"d\244\027\017\012X\334O\276\256te\266\270\315)\234u"
 555      0A58DC4F 
 555      BEAE7465 
 555      B6B8CD29 
 555      9C75
 556 03f9 4A4028C7 		.ascii	"J@(\307f1\305Q\366&\266~\266S\357\247\217D\375(\260"
ARM GAS  D:\Dev\msys64\tmp\ccQoZ9BW.s 			page 37


 556      6631C551 
 556      F626B67E 
 556      B653EFA7 
 556      8F44FD28 
 557 040e C34C59AF 		.ascii	"\303LY\257\357\241,\214!\211J?S\301+\366{{\275\335\217"
 557      EFA12C8C 
 557      21894A3F 
 557      53C12BF6 
 557      7B7BBDDD 
 558 0423 5544E91A 		.ascii	"UD\351\032\010\344\271\364\22327\020N\353\213_]\365"
 558      08E4B9F4 
 558      93323710 
 558      4EEB8B5F 
 558      5DF5
 559 0435 9E9FD472 		.ascii	"\236\237\324r[\227r\224\334W\234R\3438\322\260\332\321"
 559      5B977294 
 559      DC579C52 
 559      E338D2B0 
 559      DAD1
 560 0447 9E00F020 		.ascii	"\236\000\360 `\021\377\000\332\360\233\326\332\214\366"
 560      6011FF00 
 560      DAF09BD6 
 560      DA8CF6
 561 0456 DE667EA1 		.ascii	"\336f~\241\253\033|\264@\277\333\034\205qe/\307pd\036"
 561      AB1B7CB4 
 561      40BFDB1C 
 561      8571652F 
 561      C770641E 
 562 046a F49EE524 		.ascii	"\364\236\345$\367\037mW]s\243f\3519\276\271/\300p\377"
 562      F71F6D57 
 562      5D73A366 
 562      E939BEB9 
 562      2FC070FF 
 563 047e 0029F03B 		.ascii	"\000)\360;}\212\36054\262\306\361\205\300]V\262\031"
 563      7D8AF035 
 563      34B2C6F1 
 563      85C05D56 
 563      B219
 564 0490 2338DA4D 		.ascii	"#8\332M\226\366\365\236\240=\267y\237\250kq\326w\344"
 564      96F6F59E 
 564      A03DB779 
 564      9FA86B71 
 564      D677E4
 565 04a3 A09F4ACC 		.ascii	"\240\237J\314Q\356\001d\222|\005C\220\355N\272'\262"
 565      51EE0164 
 565      927C0543 
 565      90ED4EBA 
 565      27B2
 566 04b5 1BD6A865 		.ascii	"\033\326\250e\367Q\230\220H}y\354*\037P|p|\251\311\004"
 566      F7519890 
 566      487D79EC 
 566      2A1F507C 
 566      707CA9C9 
 567 04ca 4C617168 		.ascii	"Laqh\321#\021\225\357\014\016:\376\323\332\304\314\230"
 567      D1231195 
 567      EF0C0E3A 
 567      FED3DAC4 
ARM GAS  D:\Dev\msys64\tmp\ccQoZ9BW.s 			page 38


 567      CC98
 568 04dc F6786D4F 		.ascii	"\366xmOuN\313KC\255Z\216I_i\347\337\305$\265\246\270"
 568      754ECB4B 
 568      43AD5A8E 
 568      495F69E7 
 568      DFC524B5 
 569 04f2 B9CAD493 		.ascii	"\271\312\324\223}\031p\221\036\023.\026ZK.\024\205\004"
 569      7D197091 
 569      1E132E16 
 569      5A4B2E14 
 569      8504
 570 0504 F055C76E 		.ascii	"\360U\307nNp|1M\275\177{M\203JO\232\\\330\356\302\333"
 570      4E707C31 
 570      4DBD7F7B 
 570      4D834A4F 
 570      9A5CD8EE 
 571 051a 47BF7AB8 		.ascii	"G\277z\270\030\367v\371UWv\346\332F\033J\225\217*F\202"
 571      18F776F9 
 571      555776E6 
 571      DA461B4A 
 571      958F2A46 
 572 052f 0C64C8E1 		.ascii	"\014d\310\341t\377\000\023\251\021\006\304\323d\316"
 572      74FF0013 
 572      A91106C4 
 572      D364CE
 573 053e D0B7DD43 		.ascii	"\320\267\335C{\3250`\233\264\3052U\275\334\270O\250"
 573      7BD53060 
 573      9BB4C532 
 573      55BDDCB8 
 573      4FA8
 574 0550 9E4FCBCE 		.ascii	"\236O\313\316\237t\241\376\037m\016z>u\372R\002L\225"
 574      9F74A1FE 
 574      1F6D0E7A 
 574      3E75FA52 
 574      024C95
 575 0563 7D1E38C7 		.ascii	"}\0368\307ci>\262\274\325\307\366Sz\227\254p2\226\264"
 575      63693EB2 
 575      BCD5C7F6 
 575      537A97AC 
 575      703296B4 
 576 0577 6C9BA069 		.ascii	"l\233\240i\311\016q\275\365\\\227i\315Z\355r\347\310"
 576      C90E71BD 
 576      F55C9769 
 576      CD5AED72 
 576      E7C8
 577 0589 CF5319A5 		.ascii	"\317S\031\245<\260;HH\316\007\302\250\335\356D\373\275"
 577      3CB03B48 
 577      48CE07C2 
 577      A8DDEE44 
 577      FBBD
 578 059b EA6DCA5B 		.ascii	"\352m\312[N\251\371O)\345\235\247\264\234\340{\005^"
 578      4EA9F94F 
 578      29E59DA7 
 578      B49CE07B 
 578      055E
 579 05ad FA2B3866 		.ascii	"\372+8f\021_K\255*)\314\326\326\326T%\014>?\242\347"
 579      115F4BAD 
ARM GAS  D:\Dev\msys64\tmp\ccQoZ9BW.s 			page 39


 579      2A29CCD6 
 579      D6D65425 
 579      0C3E3FA2 
 580 05c2 E535BD0D 		.ascii	"\3455\275\015:;Z_\3455{\350\246Eu\273\277)C\303\001"
 580      3A3B5A5F 
 580      E5357BE8 
 580      A64575BB 
 580      BF2943C3 
 581 05d7 EF7C7F52 		.ascii	"\357|\177R\007\240-iu7\026\264\324\346\336\225\011H"
 581      07A02D69 
 581      753716B4 
 581      D4E6DE95 
 581      0948
 582 05e9 5161D209 		.ascii	"Qa\322\011T}\240\235\244\375\3160<\011\003\263\200\315"
 582      547DA09D 
 582      A4FDCE30 
 582      3C0903B3 
 582      80CD
 583 05fb E97A2B52 		.ascii	"\351z+R\272:\275\027G,\262^A\357\012O<\177\221\347S"
 583      BA3ABD17 
 583      472CB25E 
 583      41EF0A4F 
 583      3C7F91E7 
 584 0610 1A49F4FF 		.ascii	"\032I\364\377\000\256\2425hsM\333\036K\322\337P\372"
 584      00AEA235 
 584      68734DDB 
 584      1E4BD2DF 
 584      50FA
 585 0622 529B390D 		.ascii	"R\2339\015 \034\355'\357\022\007\035\303\337X\265\306"
 585      201CED27 
 585      EF12071D 
 585      C3DF58B5 
 585      C6
 586 0633 5983982C 		.ascii	"Y\203\230,\266s\004\024\345\217u\372\331!C\252\373\307"
 586      B6730414 
 586      E58F75FA 
 586      D92143AA 
 586      FBC7
 587 0645 E3568FA0 		.ascii	"\343V\217\240\313)\265\350X\362^F\331\027\003\364\223"
 587      CB29B5E8 
 587      58F25E46 
 587      D91703F4 
 587      93
 588 0656 91CEC3F5 		.ascii	"\221\316\303\365?\307?\335U\303AX\334\324\272\256\335"
 588      3FC73FDD 
 588      55C34158 
 588      DCD4BAAE 
 588      DD
 589 0667 6B485756 		.ascii	"kHWV\353\200\272\241\366[\034\250\374\001\363\305\\"
 589      EB80BAA1 
 589      F65B1CA8 
 589      FC01F3C5 
 589      5C
 590 0678 3BA4D8B6 		.ascii	";\244\330\266;$\231\216\200\334Xl\025\355O\030JG\000"
 590      3B24998E 
 590      80DC586C 
 590      15ED4F18 
ARM GAS  D:\Dev\msys64\tmp\ccQoZ9BW.s 			page 40


 590      4A4700
 591 068b 7C3029BA 		.ascii	"|0)\272\371\211\0021\315#\303)\203\\fw$\207\376!\265"
 591      F9890231 
 591      CD23C329 
 591      835C6677 
 591      2487FE21 
 592 06a0 37D2EFCC 		.ascii	"7\322\357\314\330\243\257\3710\222\026\376;\335P\310"
 592      D8A3AFF9 
 592      309216FE 
 592      3BDD50C8 
 593 06b0 1E49C7E6 		.ascii	"\036I\307\3464\256\262Br\355x\207o`\022\344\207R\330"
 593      34AEB242 
 593      72ED7887 
 593      6F6012E4 
 593      8752D8
 594 06c3 F335CF74 		.ascii	"\3635\317t\237*\365y\2251\324\251\311R\336S\204$\022"
 594      9F2AF579 
 594      9531D4A9 
 594      C952DE53 
 594      842412
 595 06d6 4A947380 		.ascii	"J\224s\200)\333\320oG3\340\\\223\250o\354*:\220\202"
 595      29DBD06F 
 595      4733E05C 
 595      93A86FEC 
 595      2A3A9082 
 596 06ea 224658C2 		.ascii	"\"FX\302\362F\012\324;\270\310\000\363\316x\300\313"
 596      F2460AD4 
 596      3BB8C800 
 596      F3CE78C0 
 596      CB
 597 06fb 198DA684 		.ascii	"\031\215\246\204\016\256\2240\272\262\240\273\221?\011"
 597      0EAE9430 
 597      BAB2A0BB 
 597      913F09
 598 070a CD66B731 		.ascii	"\315f\2671h\264\304\201\025!,\307l6\237n;\374\373k\266"
 598      68B4C481 
 598      15212CC7 
 598      6C369F6E 
 598      3BFCFB6B 
 599 071f 8A2B8649 		.ascii	"\212+\206I&\345z`\003E\202\327\3275\205\036\265\030"
 599      26E57A60 
 599      034582D7 
 599      D735851E 
 599      B518
 600 0731 4AB6ABD6 		.ascii	"J\266\253\326\034\037\003\355\254\267\247~\315\303~"
 600      1C1F03ED 
 600      ACB7A77E 
 600      CDC37E
 601 0740 33B73CE3 		.ascii	"3\267<\343\306\2433\237m\245\336T\333\310mH\222\301"
 601      C6A3339F 
 601      6DA5DE54 
 601      DBC86D48 
 601      92C1
 602 0752 38DBC9C2 		.ascii	"8\333\311\3023\220|\376\025\256L\205\304\225x~4\202"
 602      33907CFE 
 602      15AE4C85 
 602      C495787E 
ARM GAS  D:\Dev\msys64\tmp\ccQoZ9BW.s 			page 41


 602      3482
 603 0764 B714FB2D 		.ascii	"\267\024\373-\225\022\203\325 \204\344\214\2161\222"
 603      951283D5 
 603      2084E48C 
 603      8E3192
 604 0773 39E077F7 		.ascii	"9\340w\367\326\302\013\355\326\337icS\207q\326\277J"
 604      D6C20BED 
 604      D6DF6963 
 604      538771D6 
 604      BF4A
 605 0785 59457810 		.ascii	"YEx\020.\237ED\347.2G\321#\204\036\265\305\241JA9\310"
 605      2E9F4544 
 605      E72E3247 
 605      D123841E 
 605      B5C5A14A 
 606 079c 25031F77 		.ascii	"%\003\037w\035\374\373\253\306\273\\L\215Aubn\243r\307"
 606      1DFCFBAB 
 606      C6BB5C4C 
 606      8D417562 
 606      6EA372C7 
 607 07b0 1E132DBB 		.ascii	"\036\023-\273\030!M :\225'*yE\304\235\300+)\300\340"
 607      18214D20 
 607      3A95272A 
 607      7945C49D 
 607      C02B29C0 
 608 07c5 6D39ED15 		.ascii	"m9\355\025C\021\006\313fJ\327"
 608      431106CB 
 608      664AD7
 609 07d0 8B8538AE 		.ascii	"\213\2058\256Cm\202NL(\331\377\000\251?*_\350\335Z\362"
 609      436D824E 
 609      4C28D9FF 
 609      00A93F2A 
 609      5FE8DD5A 
 610 07e5 ADE8917F 		.ascii	"\255\350\221\177\272\264\2249`\2115\016<\022\320[\205"
 610      BAB49439 
 610      6089350E 
 610      3C12D05B 
 610      85
 611 07f6 4FF5AB03 		.ascii	"O\365\253\003\216\340\326GvG\217>}\267P\314\237\246"
 611      8EE0D647 
 611      76478F3E 
 611      7DB750CC 
 611      9FA6
 612 0808 E5CFBB6A 		.ascii	"\345\317\273j\207-3!\300\216\363-\200\322C\233\2436"
 612      872D3321 
 612      C08EF32D 
 612      80D2439B 
 612      A336
 613 081a E75CA4A9 		.ascii	"\347\\\244\251$\254)\305-8N\007\253\201\205d\324\345"
 613      24AC29C5 
 613      2D384E07 
 613      AB818564 
 613      D4E5
 614 082c B8153881 		.ascii	"\270\0258\201MF\"F\216\242\246#\262\322\210\301(@I\307"
 614      4D462246 
 614      8EA2A623 
 614      B2D288C1 
ARM GAS  D:\Dev\msys64\tmp\ccQoZ9BW.s 			page 42


 614      284049C7 
 615 0840 956D7108 		.ascii	"\225mq\010q\012C\211\012B\206\012T2\015)#\\\257\363"
 615      710A4389 
 615      0A42860A 
 615      54320D29 
 615      235CAFF3 
 616 0854 34EDD2EE 		.ascii	"4\355\322\356\235A1\231\021\235\202\303-\245\246\213"
 616      9D413199 
 616      119D82C3 
 616      2DA5A68B 
 617 0864 603B1A2A 		.ascii	"`;\032*\234Q\005\034\222^Y\034\360q\335\220z\365\025"
 617      9C51051C 
 617      925E591C 
 617      F071DD90 
 617      7AF515
 618 0877 E6F364B8 		.ascii	"\346\363d\270=gf|\231\021L\230\301S\036[Hu\224:\333"
 618      3D67667C 
 618      99114C98 
 618      C1531E5B 
 618      4875943A 
 619 088c C766F527 		.ascii	"\307f\365'`\312\332H\012P\373d\016v\340\312>h\304<\223"
 619      60CADA48 
 619      0A50FB64 
 619      0E76E0CA 
 619      3E68C43C 
 620 08a1 29987158 		.ascii	")\230qXV\346#2\332\274P\200\017\370\255\253q\010R\022"
 620      56E62332 
 620      DABC5080 
 620      0FF8ADAB 
 620      71085212 
 621 08b5 B5A52A59 		.ascii	"\265\245*Y\332\220N\012\216\011\300\361\340\023\345"
 621      DA904E0A 
 621      8E09C0F1 
 621      E013E5
 622 08c4 4ADB75D2 		.ascii	"J\333u\322\367r\235\006\331\351g\330\212\253\242\243"
 622      F7729D06 
 622      D9E967D8 
 622      8AABA2A3 
 623 08d4 990D38CB 		.ascii	"\231\0158\313\317)\002+\216)\242\340F\302B\222\237X"
 623      CF29022B 
 623      8E29A2E0 
 623      46C24292 
 623      9F58
 624 08e6 0C807079 		.ascii	"\014\200py\031\254\3447:u\357O\307\223v\232\245\300"
 624      19ACE437 
 624      3A75EF4F 
 624      C793769A 
 624      A5C0
 625 08f8 D40FC44B 		.ascii	"\324\017\304K\251\015\2058\221\011\347\022U\352cp\007"
 625      A90D8538 
 625      9109E712 
 625      55EA6370 
 625      07
 626 0909 66463232 		.ascii	"fF22q\236A\226y\224b\362\011\245X\270\342\033\000\270"
 626      719E4196 
 626      799462F2 
 626      09A558B8 
ARM GAS  D:\Dev\msys64\tmp\ccQoZ9BW.s 			page 43


 626      E21B00B8 
 627 091d A4A41212 		.ascii	"\244\244\022\0227\034d\223\200)G`\325\027\351R-\022"
 627      371C6493 
 627      80294760 
 627      D517E952 
 627      2D12
 628 092f 9C796A99 		.ascii	"\234yj\2312WU\"\002\344\262P\221\316\366\322\322S\326"
 628      32575522 
 628      02E4B250 
 628      91CEF6D2 
 628      D253D6
 629 0942 214D8079 		.ascii	"!M\200y'\354\235\334\036\0117\003:\327\245gJ\324\313"
 629      27EC9DDC 
 629      1E093703 
 629      3AD7A567 
 629      4AD4CB
 630 0955 7AE136E7 		.ascii	"z\3416\347\010\277m=^\304\257\255ISi@N\364\026\310\307"
 630      08BF6D3D 
 630      5EC4AFAD 
 630      49536940 
 630      4EF416C8 
 631 096a 273C10AC 		.ascii	"'<\020\254\223FQ\276\250\306\233\012\214\302\267na\243"
 631      934651BE 
 631      A8C69B0A 
 631      8CC2B76E 
 631      61A3
 632 097c B8E55940 		.ascii	"\270\345Y@\344\373k$\262\322J\212Zm%c\326\302@\317\276"
 632      E4FB6B24 
 632      B2D24A8A 
 632      5A6D2563 
 632      D6C240CF 
 633 0991 8A2B3B95 		.ascii	"\212+;\225l!|\021\331\014\226C-\206\217\330\011\033"
 633      6C217C11 
 633      D90C9643 
 633      2D868FD8 
 633      091B
 634 09a3 7E158C98 		.ascii	"~\025\214\230q\245)\245I\216\313\312h\356l\270\200\242"
 634      71A529A5 
 634      498ECBCA 
 634      68EE6CB8 
 634      80A2
 635 09b5 83E233D8 		.ascii	"\203\3423\330h\242\213\224X,]\201\015\344\262\227\242"
 635      68A28B94 
 635      582C5D81 
 635      0DE4B297 
 635      A2
 636 09c6 C7712C9D 		.ascii	"\307q,\235\315\0056\016\303\342\2368\362\257\002\365"
 636      CD05360E 
 636      C3E29E38 
 636      F2AF02F5 
 637 09d6 A3205D26 		.ascii	"\243 ]&\251\363&\\P\342\003n4\301oj\200\033x\334\202"
 637      A9F3265C 
 637      50E2036E 
 637      34C16F6A 
 637      801B78DC 
 638 09eb 5B3B78CB 		.ascii	"[;x\313e'\000s\300\242\212\274gU\016\331H\030\207\031"
 638      65270073 
ARM GAS  D:\Dev\msys64\tmp\ccQoZ9BW.s 			page 44


 638      C0A28ABC 
 638      67550ED9 
 638      48188719 
 639 09ff 88E961A6 		.ascii	"\210\351a\246\032C $\004\004\214z\240\001\360\000\017"
 639      1A432024 
 639      04048C7A 
 639      A001F000 
 639      0F
 640 0a10 2159BB1D 		.ascii	"!Y\273\035\227R\342]e\265\245\324\355XRA\012\036\007"
 640      9752E25D 
 640      65B5A5D4 
 640      ED585241 
 640      0A1E07
 641 0a23 C47268A2 		.ascii	"\304rh\242\263V_\031\213\035\226\332m\226\032m\266\277"
 641      B3565F19 
 641      8B1D96DA 
 641      6D961A6D 
 641      B6BF
 642 0a35 DB4A1000 		.ascii	"\333J\020\000Gw\003\273\264\326]K[\202\272\244n\012"
 642      477703BB 
 642      B4D65D4B 
 642      5B82BAA4 
 642      6E0A
 643 0a47 DF9DA33B 		.ascii	"\337\235\243;\261\214\373\361\306h\242\204,\021\016"
 643      B18CFBF1 
 643      C668A284 
 643      2C110E
 644 0a56 32252E4A 		.ascii	"2%.J#\262\231+\033V\350@\013P\360'\264\326\"\0041%r"
 644      23B2992B 
 644      1B56E840 
 644      0B50F027 
 644      B4D62204 
 645 0a6d 0448E242 		.ascii	"\004H\342B\360T\357V7+\035\231=\247\030\242\212.\205"
 645      F054EF56 
 645      372B1D99 
 645      3DA718A2 
 645      8A2E85
 646 0a80 FFD9     		.ascii	"\377\331"
 647              		.section	.rodata.data__STM32F7xx_files_stm32_jpg,"a"
 648              		.align	2
 651              	data__STM32F7xx_files_stm32_jpg:
 652 0000 2F53544D 		.ascii	"/STM32F7xx_files/stm32.jpg\000\000HTTP/1.0 200 OK\015"
 652      33324637 
 652      78785F66 
 652      696C6573 
 652      2F73746D 
 653 002c 0A536572 		.ascii	"\012Server: lwIP/1.3.1 (http://savannah.nongnu.org/"
 653      7665723A 
 653      206C7749 
 653      502F312E 
 653      332E3120 
 654 005c 70726F6A 		.ascii	"projects/lwip)\015\012Content-type: image/jpeg\015\012"
 654      65637473 
 654      2F6C7769 
 654      70290D0A 
 654      436F6E74 
 655 0086 0D0AFFD8 		.ascii	"\015\012\377\330\377\340\000\020JFIF\000\001\001\000"
ARM GAS  D:\Dev\msys64\tmp\ccQoZ9BW.s 			page 45


 655      FFE00010 
 655      4A464946 
 655      00010100 
 656 0096 00010001 		.ascii	"\000\001\000\001\000\000\377\376\000>CREATOR: gd-jp"
 656      0000FFFE 
 656      003E4352 
 656      4541544F 
 656      523A2067 
 657 00ae 65672076 		.ascii	"eg v1.0 (using IJG JPEG v80), default quality\012\377"
 657      312E3020 
 657      28757369 
 657      6E672049 
 657      4A47204A 
 658 00dd DB004300 		.ascii	"\333\000C\000\006\004\005\006\005\004\006\006\005\006"
 658      06040506 
 658      05040606 
 658      0506
 659 00eb 07070608 		.ascii	"\007\007\006\010\012\020\012\012\011\011\012\024\016"
 659      0A100A0A 
 659      09090A14 
 659      0E
 660 00f8 0F0C1017 		.ascii	"\017\014\020\027\024\030\030\027\024\026\026\032\035"
 660      14181817 
 660      1416161A 
 660      1D
 661 0105 251F1A1B 		.ascii	"%\037\032\033#\034\026\026 , #&')*)\031\037-0-(0%()"
 661      231C1616 
 661      202C2023 
 661      2627292A 
 661      29191F2D 
 662 0120 28FFDB00 		.ascii	"(\377\333\000C\001\007\007\007\012\010\012\023\012\012"
 662      43010707 
 662      070A080A 
 662      130A0A
 663 012f 13281A16 		.ascii	"\023(\032\026\032(((((((((((((((((((((((((((((((((("
 663      1A282828 
 663      28282828 
 663      28282828 
 663      28282828 
 664 0156 28282828 		.ascii	"((((((((((((((((\377\300\000\021\010\001\003\002?\003"
 664      28282828 
 664      28282828 
 664      28282828 
 664      FFC00011 
 665 0170 01220002 		.ascii	"\001\"\000\002\021\001\003\021\001\377\304\000\035\000"
 665      11010311 
 665      01FFC400 
 665      1D00
 666 017e 00010403 		.ascii	"\000\001\004\003\001\001\000\000\000\000\000\000\000"
 666      01010000 
 666      00000000 
 666      00
 667 018b 00000000 		.ascii	"\000\000\000\000\001\002\003\004\006\007\010\005\011"
 667      01020304 
 667      06070805 
 667      09
 668 0198 FFC40047 		.ascii	"\377\304\000G\020\000\001\003\003\002\003\005\005\006"
ARM GAS  D:\Dev\msys64\tmp\ccQoZ9BW.s 			page 46


 668      10000103 
 668      03020305 
 668      0506
 669 01a6 05010409 		.ascii	"\005\001\004\011\005\000\000\001\000\002\003\004\005"
 669      05000001 
 669      00020304 
 669      05
 670 01b3 11062112 		.ascii	"\021\006!\0221A\007\023\"Qa\0242q\201\221#BR\241\261"
 670      31410713 
 670      22516114 
 670      32718191 
 670      234252A1 
 671 01c8 C1081533 		.ascii	"\301\010\0253b\321r\026$4S\027Cc\202\222\242\262\341"
 671      62D17216 
 671      24345317 
 671      43638292 
 671      A2B2E1
 672 01db F02544C2 		.ascii	"\360%D\302\322\361\377\304\000\033\001\001\000\003\001"
 672      D2F1FFC4 
 672      001B0101 
 672      000301
 673 01ea 01010100 		.ascii	"\001\001\001\000\000\000\000\000\000\000\000\000\000"
 673      00000000 
 673      00000000 
 673      00
 674 01f7 01020403 		.ascii	"\001\002\004\003\005\006\007\377\304\0003\021\000\002"
 674      050607FF 
 674      C4003311 
 674      0002
 675 0205 02010401 		.ascii	"\002\001\004\001\003\003\001\006\006\003\000\000\000"
 675      03030106 
 675      06030000 
 675      00
 676 0212 00000102 		.ascii	"\000\000\001\002\003\021\004\022!1\005\023AQ\"aq2\024"
 676      03110412 
 676      21310513 
 676      41512261 
 676      713214
 677 0225 8191A1B1 		.ascii	"\201\221\241\261\341\006\025#R\321\3613B\301\377\332"
 677      E1061523 
 677      52D1F133 
 677      42C1FFDA 
 678 0235 000C0301 		.ascii	"\000\014\003\001\000\002\021\003\021\000?\000\332xO"
 678      00021103 
 678      11003F00 
 678      DA784F
 679 0244 0364B84F 		.ascii	"\003d\270O\001\\\250\300\022\201\272~\022\200\200L%"
 679      015CA8C0 
 679      1281BA7E 
 679      1280804C 
 679      25
 680 0255 C27809E1 		.ascii	"\302x\011\341\250\010\332\023\270T\201\251\334(\010"
 680      A808DA13 
 680      B85481A9 
 680      DC2808
 681 0264 C352E14A 		.ascii	"\303R\341J\006\311\301\250\010xS\270T\274)CT\242\010"
 681      06C9C1A8 
ARM GAS  D:\Dev\msys64\tmp\ccQoZ9BW.s 			page 47


 681      087853B8 
 681      54BC2943 
 681      54A208
 682 0277 C353B83D 		.ascii	"\303S\270=\024\255b\220D|\212\260+\360z#\205Y\356\324"
 682      14AD6290 
 682      447C8AB0 
 682      2BF07A23 
 682      8559EED4 
 683 028b 02A29DD3 		.ascii	"\002\242\235\323>\021<N\225\236\3638\201#\313d\003x"
 683      3E113C4E 
 683      959EF338 
 683      8123CB64 
 683      0378
 684 029d 51C1E89B 		.ascii	"Q\301\350\233_YKo\2473V\314\310b\363y\306~\001Ch\272"
 684      5F594B6F 
 684      A73356CC 
 684      C862F379 
 684      C67E0143 
 685 02b3 D1DDA0EF 		.ascii	"\321\335\240\357\250\346k\306q\202p\342\241\264J\203"
 685      A8E66BC6 
 685      718270E2 
 685      A1B44A83 
 686 02c3 6B3826E0 		.ascii	"k8&\340\364G\007\242\265\300\216\355I\005B\317D\303"
 686      F44707A2 
 686      B5C08EED 
 686      490542CF 
 686      44C3
 687 02d5 1AB863DD 		.ascii	"\032\270c\335!\215\012\224Li\256\215]1\246:4$\242\350"
 687      218D0A94 
 687      4C69AE8D 
 687      5D31A63A 
 687      3424A2E8 
 688 02e9 D46E6ABC 		.ascii	"\324nj\274\350\324O\217t$\244\346\250\334\305u\321\250"
 688      E8D44F8F 
 688      7424A4E6 
 688      A8DCC575 
 688      D1A8
 689 02fb 9CD40537 		.ascii	"\234\324\0057F\243-W\034\325\031b\002\243\232\243-W"
 689      46A32D57 
 689      1CD51962 
 689      02A39AA3 
 689      2D57
 690 030d 1D1A8CC6 		.ascii	"\035\032\214\306\243\004d\250ZS\034\320vp\310<\307\232"
 690      A30464A8 
 690      5A531CD0 
 690      7670C83C 
 690      C79A
 691 031f B6E6A8DC 		.ascii	"\266\346\250\334\305 \322\035\246\350\317\345R\276\351"
 691      C520D21D 
 691      A6E8CFE5 
 691      52BEE9
 692 032e 6C8F1452 		.ascii	"l\217\024R;2D\321\375'\036\277\351?\252\327\213\253"
 692      3B3244D1 
 692      FD271EBF 
 692      E93FAAD7 
 692      8BAB
 693 0340 27859344 		.ascii	"'\205\223D\370\247\214I\023\232Z\346\236D\036ah\016"
ARM GAS  D:\Dev\msys64\tmp\ccQoZ9BW.s 			page 48


 693      F8A78C49 
 693      139A5AE6 
 693      9E441E61 
 693      680E
 694 0352 D0749C9A 		.ascii	"\320t\234\232r\345\307N\013\355\263\223\335;\360\036"
 694      72E5C74E 
 694      0BEDB393 
 694      DD3BF01E 
 695 0362 6587E0B6 		.ascii	"e\207\340\266\321v~\226p\262\036\350\304\320\204-g\020"
 695      D1767E96 
 695      70B21EE8 
 695      C4D0842D 
 695      6710
 696 0374 42108010 		.ascii	"B\020\200\020\204 \004!\010\001\010B\000B\020\200\020"
 696      84200421 
 696      08010842 
 696      00421080 
 696      10
 697 0385 84200421 		.ascii	"\204 \004!\010\001\010B\000B\020\200\020\204 \004!\010"
 697      08010842 
 697      00421080 
 697      10842004 
 697      2108
 698 0397 01084200 		.ascii	"\001\010B\000B\020\200\020\204 \004!\010\001\010B\000"
 698      42108010 
 698      84200421 
 698      08010842 
 698      00
 699 03a8 421080EC 		.ascii	"B\020\200\354\240\023\300J\320\244\003e\342\033\306"
 699      A013C04A 
 699      D0A40365 
 699      E21BC6
 700 03b7 06EC9C1A 		.ascii	"\006\354\234\032\234\032\236\002\001\201\251\355jx\011"
 700      9C1A9E02 
 700      0181A9ED 
 700      6A7809
 701 03c6 ED6A023E 		.ascii	"\355j\002>\024\340\325'\012P\325$\015\015N\015\331<"
 701      14E0D527 
 701      0A50D524 
 701      0D0D4E0D 
 701      D93C
 702 03d8 353C3558 		.ascii	"5<5X\021\206\247\265\270O\015R\261\233u\371 0\216\325"
 702      1186A7B5 
 702      B84F0D52 
 702      B19B75F9 
 702      20308ED5 
 703 03ec AF94B61D 		.ascii	"\257\224\266\035#Xj\236\346IP\316\3460\3318\036\327"
 703      23586A9E 
 703      E64950CE 
 703      E630D938 
 703      1ED7
 704 03fe 6367077A 		.ascii	"cg\007z\036\213\221\237\257\365<s\006\301\250nNk\010"
 704      1E8B919F 
 704      AFF53C73 
 704      06C1A86E 
 704      4E6B08
 705 0411 EEC8A877 		.ascii	"\356\310\250w/\335n_\342\306\272H\241\267\323G0\340"
ARM GAS  D:\Dev\msys64\tmp\ccQoZ9BW.s 			page 49


 705      2FDD6E5F 
 705      E2C6BA48 
 705      A1B7D347 
 705      30E0
 706 0423 7925F18F 		.ascii	"y%\361\217<t\\\314\011\007#\232\253/\023hE\332\266\274"
 706      3C745CCC 
 706      0907239A 
 706      AB2F1368 
 706      45DAB6BC 
 707 0437 8E69B86F 		.ascii	"\216i\270o5RH\330\370\\\036\326\020\326\201\236@c>\274"
 707      355248D8 
 707      F85C1ED6 
 707      10D6819E 
 707      40633EBC 
 708 044b D65366BB 		.ascii	"\326Sf\273\012\333o\264\031\336%\251\373I$\016\361q"
 708      0ADB6FB4 
 708      19DE25A9 
 708      FB49240E 
 708      F171
 709 045d 1D8EEB47 		.ascii	"\035\216\353G\011\245c8\233+\210\220a\377\000\341{\226"
 709      09A56338 
 709      9B2B8890 
 709      61FF00E1 
 709      7B96
 710 046f 5BA57501 		.ascii	"[\245u\001\206\235\244>'\370\261\317\013\235\261r\211"
 710      869DA43E 
 710      27F8B1CF 
 710      0B9DB172 
 710      89
 711 0480 DE969337 		.ascii	"\336\226\2237\224Z\2029j et\217\250\215\230g\332\270"
 711      945A8239 
 711      6A206574 
 711      8FA88D98 
 711      67DAB8
 712 0493 9D97A72C 		.ascii	"\235\227\247,\320\331\352#\255\2635\360\307\214\265"
 712      D0D9EA23 
 712      ADB335F0 
 712      C78CB5
 713 04a2 D19CF012 		.ascii	"\321\234\360\022\265P\235\344\007\035\235\200V\311\354"
 713      B5509DE4 
 713      071D9D80 
 713      56C9EC
 714 04b1 9337FBAB 		.ascii	"\2237\373\253\355S\345\3219\274\374\226L3c\177\006}"
 714      ED53E5D1 
 714      39BCFC96 
 714      4C33637F 
 714      067D
 715 04c3 D9FEA2BF 		.ascii	"\331\376\242\277_\353\033\014a\222\323\306~\326y\031"
 715      5FEB1B0C 
 715      6192D3C6 
 715      7ED67919 
 716 04d3 BFCB0B66 		.ascii	"\277\313\013fI\017\003\213r\016?\370V\033Q\250-\032"
 716      490F038B 
 716      720E3FF8 
 716      561B51A8 
 716      2D1A
 717 04e5 2EAE2B5D 		.ascii	".\256+]\003\000\2167\264O&=\367\223\311gr\000\374J\337"
ARM GAS  D:\Dev\msys64\tmp\ccQoZ9BW.s 			page 50


 717      03008E37 
 717      B44F263D 
 717      F793C967 
 717      7200FC4A 
 718 04fa 76401E3E 		.ascii	"v@\036>ai\245\274\341\263\005\351c)\024\273\264\323"
 718      6169A5BC 
 718      E1B305E9 
 718      632914BB 
 718      B4D3
 719 050c 1AB7C293 		.ascii	"\032\267\302\223\201h3\024\314i\216\215\\1\356\221\321"
 719      81683314 
 719      CC698E8D 
 719      5C31EE91 
 719      D1
 720 051d A02818D4 		.ascii	"\240(\030\324o\215^tj'F\200\242\350\324/\211z\016\215"
 720      6F8D5E74 
 720      6A274680 
 720      A2E8D42F 
 720      897A0E8D 
 721 0531 44E8D093 		.ascii	"D\350\320\223\317tj7F\275\007F\242thIA\315Q\226\253"
 721      CF746A37 
 721      46BD0746 
 721      A2746849 
 721      41CD5196 
 722 0546 AF8D44E8 		.ascii	"\257\215D\350\320\202\243\230\242tj\343\232\243sP\222"
 722      D082A398 
 722      A2746AE3 
 722      9AA37350 
 722      92
 723 0557 9B98BCEB 		.ascii	"\233\230\274\353\345\246\232\361m\236\212\265\234QK"
 723      E5A69AF1 
 723      6D9E8AB5 
 723      9C514B
 724 0566 E5CDA7A1 		.ascii	"\345\315\247\241\013\330sTe\2774\3169D\034\271\251\254"
 724      0BD87354 
 724      65BF34CE 
 724      39441CB9 
 724      A9AC
 725 0578 95360BC4 		.ascii	"\2256\013\304\364\025c%\247,\220r\221\275\034?E\345"
 725      F4156325 
 725      A72C9072 
 725      91BD1C3F 
 725      45E5
 726 058a 2E89ED13 		.ascii	".\211\355\023K3Q\331\317r\007\267\323e\320<}\341\370"
 726      4B3351D9 
 726      CF7207B7 
 726      D365D03C 
 726      7DE1F8
 727 059d 7E7C973C 		.ascii	"~|\227<\313\033\342\225\314\225\245\2223,p>`\257J\213"
 727      CB1BE295 
 727      CC95A592 
 727      332C703E 
 727      60AF4A8B 
 728 05b1 3D48FDCC 		.ascii	"=H\375\314\323\216\006\241\010]\216`\204!\000!\010@"
 728      D38E06A1 
 728      085D8E60 
 728      84210021 
ARM GAS  D:\Dev\msys64\tmp\ccQoZ9BW.s 			page 51


 728      0840
 729 05c3 08421002 		.ascii	"\010B\020\002\020\204\000\204!\000!\010@\010B\020\002"
 729      10840084 
 729      21002108 
 729      40084210 
 729      02
 730 05d4 10840084 		.ascii	"\020\204\000\204!\000!\010@\010B\020\002\020\204\000"
 730      21002108 
 730      40084210 
 730      02108400 
 731 05e4 84210021 		.ascii	"\204!\000!\010@\010B\020\002\020\204\007i4)\000@\011"
 731      08400842 
 731      10021084 
 731      07693429 
 731      004009
 732 05f7 E02F14DC 		.ascii	"\340/\024\334\000l\224\004\346\204\360\025\200\326\205"
 732      006C9404 
 732      E684F015 
 732      80D685
 733 0606 2009404F 		.ascii	" \011@Oh@3\011\340'a<5\000\300\023\332\324\366\265H"
 733      68403309 
 733      E027613C 
 733      3500C013 
 733      DAD4F6B5 
 734 061b 02018D6A 		.ascii	"\002\001\215j\221\255\301\011\315\012F\204 \345\217"
 734      91ADC109 
 734      CD0A4684 
 734      20E58F
 735 062a E2D0B0DC 		.ascii	"\342\320\260\334\250Z\327\0366\217\023q\261\376\341"
 735      A85AD71E 
 735      368F1371 
 735      B1FEE1
 736 0639 FA2E753C 		.ascii	"\372.u<\327^\177\023\272U\327;\023.0\323\275\317\246"
 736      D75E7F13 
 736      BA55D73B 
 736      132E30D3 
 736      BDCFA6
 737 064c C974ACDF 		.ascii	"\311t\254\337oQ\321r#\201\004\347\236p\241\227\217@"
 737      6F51D172 
 737      238104E7 
 737      9E70A197 
 737      8F40
 738 065e D3D09385 		.ascii	"\323\320\223\205~\331R\372j\266>3\342#\204\223\323\325"
 738      7ED952FA 
 738      6AB63E33 
 738      E2238493 
 738      D3D5
 739 0670 79EA5735 		.ascii	"y\352W5\201\254\341v\\y\217%Vt\217f\3047\010\177\226"
 739      81ACE176 
 739      5C798F25 
 739      56748F66 
 739      C437087F 
 740 0685 C7491B63 		.ascii	"\307I\033c\236\265\307\216J\214\360\210\307\341\003"
 740      9EB5C78E 
 740      4A8CF088 
 740      C7E103
 741 0694 F7599684 		.ascii	"\367Y\226\204\274\324\331b\234\322\273\331j\246\333"
ARM GAS  D:\Dev\msys64\tmp\ccQoZ9BW.s 			page 52


 741      BCD4D962 
 741      9CD2BBD9 
 741      6AA6DB
 742 06a3 BFE6E60F 		.ascii	"\277\346\346\017E\257\264~\233\271\\&a\247-m!\306ex"
 742      45AFB47E 
 742      9BB95C26 
 742      61A72D6D 
 742      21C66578 
 743 06b7 C7D0755B 		.ascii	"\307\320u[=\275\234\334\215\020\226\226\347\003\346"
 743      3DBD9CDC 
 743      8D109696 
 743      E703E6
 744 06c6 38C35FE0 		.ascii	"8\303_\340i\364\016\363Y\032M\341\033\262\361\226\214"
 744      69F40EF3 
 744      591A4DE1 
 744      1BB2F196 
 744      8C
 745 06d7 969EDD3D 		.ascii	"\226\236\335=\372\225\314\236X\347\224\370\3314N\361"
 745      FA95CC9E 
 745      58E794F8 
 745      D9344EF1 
 746 06e7 87FA85B4 		.ascii	"\207\372\205\264{=\256\271\012FQ^\334K\370\270a{\207"
 746      7B3DAEB9 
 746      0A46515E 
 746      DC4BF8B8 
 746      617B87
 747 06fa BE0745CF 		.ascii	"\276\007E\3176g\013e\334P\337e\253\265NN\0331\3613>"
 747      36670B65 
 747      DC50DF65 
 747      ABB54E4E 
 747      1B31F133 
 748 070f AE5BF74B 		.ascii	"\256[\367K\321\334Z\3062\256\272\013\205(!\355s\260"
 748      D1DC5AC6 
 748      32AEBA0B 
 748      852821ED 
 748      73B0
 749 0721 1CC3E60F 		.ascii	"\034\303\346\017UeT\343\311\312\311\302K\006~Y\271\011"
 749      556554E3 
 749      C9CAC9C2 
 749      4B067E59 
 749      B909
 750 0733 BC2AD359 		.ascii	"\274*\323Y\305\013^\335\360\000;\246\026\255I\345\030"
 750      C50B5EDD 
 750      F0003BA6 
 750      16AD49E5 
 750      18
 751 0744 1AE4AC5A 		.ascii	"\032\344\254Z\230Z\2559\251\234*\305J\305\211\216\215"
 751      985AAD39 
 751      A99C2AC5 
 751      4AC5898E 
 751      8D
 752 0755 5B2D4C73 		.ascii	"[-LsT\202\223\243Q:5y\315Q\271\252\001A\321\250\335"
 752      548293A3 
 752      513A3579 
 752      CD51B9AA 
 752      0141D1A8 
 753 076a 1ABEE628 		.ascii	"\032\276\346(\214h\012\016\215D\350\325\367\261BY\272"
ARM GAS  D:\Dev\msys64\tmp\ccQoZ9BW.s 			page 53


 753      8C680A0E 
 753      8D44E8D5 
 753      F7B14259 
 753      BA
 754 077b 12507C6A 		.ascii	"\022P|j\027F\275\027\306\240|hIE\315P\275\252\353\330"
 754      1746BD17 
 754      C6A07C68 
 754      4945CD50 
 754      BDAAEBD8 
 755 078f A1735082 		.ascii	"\241sP\202\231n\353Mv\313\245\0154\302\373B\314\305"
 755      996EEB4D 
 755      76CBA50D 
 755      34C2FB42 
 755      CCC5
 756 07a1 29E1AA68 		.ascii	")\341\252h\036\353\272?\347\327\325n\3271T\270QA_I="
 756      1EEBBA3F 
 756      E7D7D56E 
 756      D73154B8 
 756      51415F49 
 757 07b6 2D4B03E0 		.ascii	"-K\003\340\231\245\216oR\010\301W\252n\017(\254\226"
 757      99A58E6F 
 757      5208C157 
 757      AA6E0F28 
 757      AC96
 758 07c8 E5839252 		.ascii	"\345\203\222R\257gW\330"
 758      AF6757D8 
 759 07d0 E7D3D7DA 		.ascii	"\347\323\327\332\212\011\301-o\2127\376&\023\261\375"
 759      8A09C12D 
 759      6F8A37FE 
 759      2613B1FD 
 760 07e0 978ABD44 		.ascii	"\227\212\275D\362\262\214\255`T!\012H\004!\010\001\010"
 760      F2B28CAD 
 760      6054210A 
 760      48042108 
 760      0108
 761 07f2 42004210 		.ascii	"B\000B\020\200\020\204 \004!\010\001\010H\200T$J\200"
 761      80108420 
 761      04210801 
 761      08488054 
 761      244A80
 762 0805 10842004 		.ascii	"\020\204 \004!\010\001\011\020\200T$J\200\020\204\210"
 762      21080109 
 762      10805424 
 762      4A801084 
 762      88
 763 0816 05421080 		.ascii	"\005B\020\200\020\221\010\005B\020\200\355\240\023\332"
 763      10910805 
 763      421080ED 
 763      A013DA
 764 0825 12809ED0 		.ascii	"\022\200\236\320\274sp\000\234\002p\033%hB\240\320\244"
 764      BC737000 
 764      9C02701B 
 764      256842A0 
 764      D0A4
 765 0837 010D0A46 		.ascii	"\001\015\012F\204\002\000\236\320\234\002x\010H\320"
 765      8402009E 
 765      D09C0278 
ARM GAS  D:\Dev\msys64\tmp\ccQoZ9BW.s 			page 54


 765      0848D0
 766 0846 13C04A02 		.ascii	"\023\300J\002x\010H\200'\000\234\002{Z\200\253p\240"
 766      78084880 
 766      27009C02 
 766      7B5A80AB 
 766      70A0
 767 0858 A6B8D14D 		.ascii	"\246\270\321MK[\023e\247\230\026\271\216\035\010\301"
 767      4B5B1365 
 767      A79816B9 
 767      8E1D08C1 
 768 0868 5C7BDB47 		.ascii	"\\{\333Gb\267\0351S=\322\312\327U\332\344y\177v\306"
 768      62B71D31 
 768      533DD2CA 
 768      D755DAE4 
 768      797F76C6 
 769 087c E5F034F9 		.ascii	"\345\3604\371\372.\320hM\225\25418I\301\335\236|X\307"
 769      FA2ED068 
 769      4D95AC31 
 769      3849C1DD 
 769      9E7C58C7 
 770 0890 CF2A84A3 		.ascii	"\317*\204\243\346A\215\342N\0075\334Y\306\010\337>X"
 770      E6418DE2 
 770      4E0735DC 
 770      59C608DF 
 770      3E58
 771 08a2 59F691D1 		.ascii	"Y\366\221\321\315\2102\341}`\015\0301\323;\357z\273"
 771      CD8832E1 
 771      7D600D18 
 771      31D33BEF 
 771      7ABB
 772 08b4 FC2DDDDA 		.ascii	"\374-\335\332\215\277NUj\366\324\332m\264\354\236\230"
 772      8DBF4E55 
 772      6AF6D4DA 
 772      6DB4EC9E 
 772      98
 773 08c5 61F3C608 		.ascii	"a\363\306\010k\235\347\216Y\036k\017\254\245k\332L\317"
 773      6B9DE78E 
 773      591E6B0F 
 773      ACA56BDA 
 773      4CCF
 774 08d7 C02B35B6 		.ascii	"\300+5\266\347\210\233*\253\013t\210\340\274G\034\233"
 774      E7889B2A 
 774      AB0B7488 
 774      E0BC471C 
 774      9B
 775 08e8 6191B300 		.ascii	"a\221\263\000\0000\0069/F\015`\3475\3610\207F\360A\007"
 775      00300639 
 775      2F460D60 
 775      E735F130 
 775      8746F041 
 776 08fd A85815EE 		.ascii	"\250X\025\3566F\\\"\230\014t+\316\267W<<\264\036\011"
 776      36465C22 
 776      980C742B 
 776      CEB7573C 
 776      3CB41E09 
 777 0911 072246C5 		.ascii	"\007\"F\305QE\035[3\273\245W\363J3Gqvc\317\330L\357"
 777      51451D5B 
ARM GAS  D:\Dev\msys64\tmp\ccQoZ9BW.s 			page 55


 777      33BBA557 
 777      F34A3347 
 777      717663CF 
 778 0928 11889FBA 		.ascii	"\021\210\237\272\3571\372){>\326W-/vm\216\343'\373\263"
 778      EF31FA29 
 778      7B3ED657 
 778      2D2F766D 
 778      8EE327FB 
 779 093d 5C430CA3 		.ascii	"\\C\014\243 7\373O\354\2616\336j\0328fh{9\035\272/I"
 779      2037FB4F 
 779      ECB136DE 
 779      6A1A3866 
 779      687B391D 
 780 0954 820BFD98 		.ascii	"\202\013\375\230\306\3742\266\220\346\011~\360\364\370"
 780      C6FC32B6 
 780      90E6097E 
 780      F0F4F8
 781 0963 2D54D8FA 		.ascii	"-T\330\372\221\302\310.\316\240\322\032\306\216\256"
 781      91C2C82E 
 781      CEA0D21A 
 781      C68EAE
 782 0972 36C8D797 		.ascii	"6\310\327\227S\235\270\333\342\003\3178\334|\326pj!"
 782      539DB8DB 
 782      E203CF38 
 782      DC7CD670 
 782      6A21
 783 0984 9694D4D2 		.ascii	"\226\224\324\322\342vu\356\367 |\027\011X\265=\312\317"
 783      E27675EE 
 783      F7207C17 
 783      0958B53D 
 783      CACF
 784 0996 50E14F3C 		.ascii	"P\341O<\220=\256\303\230\016\007\020\346V\345\354\363"
 784      903DAEC3 
 784      980E0710 
 784      E656E5EC 
 784      F3
 785 09a7 B47A9AAA 		.ascii	"\264z\232\252\261\017\007u;\206K\343<!\337\026\365Z"
 785      B10F0775 
 785      3B864BE3 
 785      3C21DF16 
 785      F55A
 786 09b9 9D4A7FA4 		.ascii	"\235J\177\244\340\321\277\250\256\024\225\356\225\224"
 786      E0D1BFA8 
 786      AE1495EE 
 786      9594
 787 09c7 93B647C4 		.ascii	"\223\266G\304q#\001\3614\372\205g\013UG]\005N\253\376"
 787      712301F1 
 787      34FA8567 
 787      0B55475D 
 787      054EABFE 
 788 09db 630CAFA7 		.ascii	"c\014\257\247\254\341\015{\230\337\013\375\034\2665"
 788      ACE10D7B 
 788      98DF0BFD 
 788      1CB635
 789 09ea B2E7ED01 		.ascii	"\262\347\355\001\255\237g\343gt*\223\251\304\243E\327"
 789      AD9F67E3 
 789      67742A93 
ARM GAS  D:\Dev\msys64\tmp\ccQoZ9BW.s 			page 56


 789      A9C4A345 
 789      D7
 790 09fb 354642B3 		.ascii	"5FB\263\3029\204\322\325\314\251Y\315Q\226\253E\251"
 790      C23984D2 
 790      D5CCA959 
 790      CD5196AB 
 790      45A9
 791 0a0d AE0AC460 		.ascii	"\256\012\304`\250\346\250\334\325m\315Q\226\251\005"
 791      A8E6A8DC 
 791      D56DCD51 
 791      96A905
 792 0a1c 473142F8 		.ascii	"G1B\370\325\3475F\346(\007\236\366(\234\305}\361\250"
 792      D5E73546 
 792      E628079E 
 792      F6289CC5 
 792      7DF1A8
 793 0a2f 5EC424A0 		.ascii	"^\304$\240\370\325w\261z\017j\201\354BJ.j\214\261\\"
 793      F8D577B1 
 793      7A0F6A81 
 793      EC424A2E 
 793      6A8CB15C 
 794 0a43 7B144E6A 		.ascii	"{\024Nj\003]v\275\246\177\235\351\363YL\334\327P\003"
 794      035D76BD 
 794      A67F9DE9 
 794      F3594CDC 
 794      D75003
 795 0a56 2348E6F6 		.ascii	"#H\346\366c\304\337\246\377\000%\317#\341\214\034z\202"
 795      63C4DFA6 
 795      FF0025CF 
 795      23E18C1C 
 795      7A82
 796 0a68 BB19ECC8 		.ascii	"\273\031\354\310#\000\372\025\315=\251\351\277\366{"
 796      2300FA15 
 796      CD3DA9E9 
 796      BFF67B
 797 0a77 53CA2161 		.ascii	"S\312!a\024U_k\001\350\007V\376\353f\232\314\255\254"
 797      14555F6B 
 797      01E80756 
 797      FEEB669A 
 797      CCADAC
 798 0a8a E162F730 		.ascii	"\341b\3670\364$O\021=\336\353\034~Ka\315BR\375#P\244"
 798      F4244F11 
 798      3DDEEB1C 
 798      7E4B61CD 
 798      4252FD23 
 799 0aa0 34F363FA 		.ascii	"4\363c\3722}\023\034\3277\336i\037\020\204\272\346\273"
 799      327D131C 
 799      D737DE69 
 799      1F1084BA 
 799      E6BB
 800 0ab2 42212210 		.ascii	"B!\"\020\346*\020\221\000\250B\020\002\020\204\000\204"
 800      E62A1091 
 800      00A84210 
 800      02108400 
 800      84
 801 0ac3 21002108 		.ascii	"!\000!\010@\010B\020\002D\250@\010B\020\002\020\204"
 801      40084210 
ARM GAS  D:\Dev\msys64\tmp\ccQoZ9BW.s 			page 57


 801      0244A840 
 801      08421002 
 801      1084
 802 0ad5 00842100 		.ascii	"\000\204!\000!\010@\"T!\000!\010@w\013B\221\241\015"
 802      21084022 
 802      54210021 
 802      0840770B 
 802      4291A10D 
 803 0ae9 0A4685E3 		.ascii	"\012F\205\343\233\000\004\366\204\240'\264 \020\004"
 803      9B0004F6 
 803      84A027B4 
 803      201004
 804 0af8 F6B539A1 		.ascii	"\366\2659\241<\004$@\023\300J\002x\010H\320\023\332"
 804      3C042440 
 804      13C04A02 
 804      780848D0 
 804      13DA
 805 0b0a D4AD1F1F 		.ascii	"\324\255\037\037\222\307\265f\262\265\351\270]\355\022"
 805      92C7B566 
 805      B2B5E9B8 
 805      5DED12
 806 0b19 09EACFBB 		.ascii	"\011\352\317\273O\021\313\276~J\216X&1r\341\031#X\233"
 806      4F11CBBE 
 806      7E4A8E58 
 806      263172E1 
 806      1923589B 
 807 0b2d 3D4414B1 		.ascii	"=D\024\261\231*f\216(\3072\367ah[\237h\267\313\254\204"
 807      992A668E 
 807      28C732F7 
 807      61685B9F 
 807      68B7CBAC 
 808 0b42 3271474E 		.ascii	"2qGNI\034\020\371z\2375\211\335\347\254\254\2332V\276"
 808      491C10F9 
 808      7A9F3589 
 808      DDE7ACAC 
 808      9B3256BE 
 809 0b56 407F1BD7 		.ascii	"@\177\033\327\027r\366;\2553\3677N\251\355F\327kk\241"
 809      1772F63B 
 809      AD33F737 
 809      4EA9ED46 
 809      D76B6BA1 
 810 0b6a B6015D50 		.ascii	"\266\001]P9\270m\033O\356\265U\353[]\257\3228\325\325"
 810      39B86D1B 
 810      4FEEB555 
 810      EB5B5DAF 
 810      D238D5D5 
 811 0b7e 3FBACF86 		.ascii	"?\272\317\206\030\374,\003\3407?5\214\311n\234\306\\"
 811      18FC2C03 
 811      E0373F35 
 811      8CC96E9C 
 811      C65C
 812 0b90 1E1FE642 		.ascii	"\036\037\346B\244\371\333D\322\011\361.nNgx\327\030"
 812      A4F9DB44 
 812      D209F12E 
 812      6E4E6778 
 812      D718
 813 0ba2 1EC54D64 		.ascii	"\036\305MdqD\\\363\302\357\"\260\313\345\351\322\222"
ARM GAS  D:\Dev\msys64\tmp\ccQoZ9BW.s 			page 58


 813      71445CF3 
 813      C2EF22B0 
 813      CBE5E9D2 
 813      92
 814 0bb3 C88E079A 		.ascii	"\310\216\007\232\264\350nw\231K(\251g\233\240\014a+"
 814      B4E86E77 
 814      994B28A9 
 814      679BA00C 
 814      612B
 815 0bc5 30D23D89 		.ascii	"0\322=\211j+\354\361\311p\213\371e\021\334\276q\343"
 815      6A2BECF1 
 815      C9708BF9 
 815      6511DCBE 
 815      71E3
 816 0bd7 3F060DCF 		.ascii	"?\006\015\317\315\024\0139\374\232\222N9\211q\311\370"
 816      CD140B39 
 816      FC9A924E 
 816      398971C9 
 816      F8
 817 0be8 AA33C923 		.ascii	"\2523\311#\035\206\270\017\202\351mw\330\335\272\301"
 817      1D86B80F 
 817      82E96D77 
 817      D8DDBAC1 
 818 0bf8 6486AEDF 		.ascii	"d\206\256\337,\263\226\216\032\207I\370\272?\320z-\021"
 818      2CB3968E 
 818      1A8749F8 
 818      BA3FD07A 
 818      2D11
 819 0c0a 7DB58A5A 		.ascii	"}\265\212Z\227E#x\035\323<\210G\224#%>\214v*\271\332"
 819      97452378 
 819      1DD33C88 
 819      47942325 
 819      3E8C762A 
 820 0c20 EDDC564D 		.ascii	"\355\334VM\245\347\221\322\312\035\267\2039^3h\213\335"
 820      A5E791D2 
 820      CA1DB783 
 820      395E3368 
 820      8BDD
 821 0c32 8647C67A 		.ascii	"\206G\306zae\266{p\241\244&O\352\311\277\301t\207=\024"
 821      6165B67B 
 821      70A1A426 
 821      4FEAC9BF 
 821      C174873D 
 822 0c47 9BC2E4F0 		.ascii	"\233\302\344\360\265%\003\301\366\330F\371\304\200+"
 822      B52503C1 
 822      F6D846F9 
 822      C4802B
 823 0c56 3A32F0DB 		.ascii	":2\360\333e\356\226I\034\032\307;\007+#\226\230K\021"
 823      65EE9649 
 823      1C1AC73B 
 823      072B2396 
 823      984B11
 824 0c69 60682C23 		.ascii	"`h,#\305\225\200j\013l\224w\006\210\235\306N\341\277"
 824      C595806A 
 824      0B6C9477 
 824      06889DC6 
 824      4EE1BF
ARM GAS  D:\Dev\msys64\tmp\ccQoZ9BW.s 			page 59


 825 0c7c E16CAE78 		.ascii	"\341l\256x3\235Yp\216\013n\237\270_\240\031\006\225"
 825      339D5970 
 825      8E0B6E9F 
 825      B85FA019 
 825      0695
 826 0c8e EE0339E1 		.ascii	"\356\0039\341v2\010Pv[\253[q\265Z\240\254vd\251c\200"
 826      76320850 
 826      765BAB5B 
 826      71B55AA0 
 826      AC7664A9 
 827 0ca4 27F134AC 		.ascii	"'\3614\254ON\352\352{\277g&\323;\243c\252m\222\306\314"
 827      4F4EEAEA 
 827      7BBF6726 
 827      D33BA363 
 827      AA6D92C6 
 828 0cb9 FBC66683 		.ascii	"\373\306f\203\262\303\3735\271\030 \2609\316\341\216"
 828      B2C3FB35 
 828      B91820B0 
 828      39CEE18E 
 829 0cc9 3F687717 		.ascii	"?hw\027\367\000\273\347wc\007_P\313\304\300\307\234"
 829      F700BBE7 
 829      7763075F 
 829      50CBC4C0 
 829      C79C
 830 0cdb E392B4E6 		.ascii	"\343\222\264\346\254oL\327\032\313}+\344\336S\033K\217"
 830      AC6F4CD7 
 830      1ACB7D2B 
 830      E4DE531B 
 830      4B8F
 831 0ced AE07ECB2 		.ascii	"\256\007\354\262h\317\023\001\034\371,\262Xg6\210KS"
 831      68CF1301 
 831      1CF92CB2 
 831      58673688 
 831      4B53
 832 0cff 1C159213 		.ascii	"\034\025\222\023\034\025J\225\270S\\\024\345\251\205"
 832      1C154A95 
 832      B8535C14 
 832      E5A985
 833 0d0e AAC460AE 		.ascii	"\252\304`\256Z\230\346\253$&9\250F\012\205\2527\261"
 833      5A98E6AB 
 833      242639A8 
 833      460A85AA 
 833      37B1
 834 0d20 5B73546E 		.ascii	"[sTn\010\012/\215W|j\373\332\240{\020\024_\032\201\361"
 834      080A2F8D 
 834      577C6AFB 
 834      DAA07B10 
 834      145F1A81 
 835 0d35 FF00F0AB 		.ascii	"\377\000\360\253\263\230\341\211\322\312\341\033\032"
 835      B398E189 
 835      D2CAE11B 
 835      1A
 836 0d42 325C4E30 		.ascii	"2\\N0<\326\244\326\235\242\271\356}\036\237\313\030"
 836      3CD6A4D6 
 836      9DA2B9EE 
 836      7D1E9FCB 
 836      18
ARM GAS  D:\Dev\msys64\tmp\ccQoZ9BW.s 			page 60


 837 0d53 32D7D51E 		.ascii	"2\327\325\036\247\373?\312\264 \346\360\215z]\025\272"
 837      A7FB3FCA 
 837      B420E6F0 
 837      8D7A5D15 
 837      BA
 838 0d64 A96208CC 		.ascii	"\251b\010\314\257\272\202\335eg\373\355@\022ch\233\342"
 838      AFBA82DD 
 838      6567FBED 
 838      40126368 
 838      9BE2
 839 0d76 79FF000B 		.ascii	"y\377\000\013Sk\375IM\252\341\212\230\333\332\310\241"
 839      536BFD49 
 839      4DAAE18A 
 839      98DBDAC8 
 839      A1
 840 0d87 93BC8E47 		.ascii	"\223\274\216G\273/\370`r\005c\223\313$\363:Y\236\367"
 840      BB2FF860 
 840      72056393 
 840      CB24F33A 
 840      599EF7
 841 0d9a C8EDDCE7 		.ascii	"\310\355\334\347\034\3451o\257N\241\313>\247K\340\350"
 841      1CE5316F 
 841      AF4EA1CB 
 841      3EA74BE0 
 841      E8
 842 0dab A966CFA9 		.ascii	"\251f\317\251\377\000\"\010\351`\214\000\310\233\262"
 842      FF002208 
 842      E9608C00 
 842      C89BB2
 843 0dba 97007401 		.ascii	"\227\000t\0019\013A\352\302\232\340\261\030\245\373"
 843      390B41EA 
 843      C29AE0B1 
 843      18A5FB
 844 0dc9 86A1EC63 		.ascii	"\206\241\354c\207\211\255)\310B\356\270\313\264R\236"
 844      8789AD29 
 844      C842EEB8 
 844      CBB4529E 
 845 0dd9 DF4B30F1 		.ascii	"\337K0\361E\203\346\335\227\233Ues|P?\210~\023\314/"
 845      4583E6DD 
 845      979B5565 
 845      737C503F 
 845      887E13CC 
 846 0dee 7F96EB3B 		.ascii	"\177\226\353;\354\263B\315\252\356}\375S\\\313M9\035"
 846      ECB342CD 
 846      AAEE7DFD 
 846      535CCB4D 
 846      391D
 847 0e00 E3BAC87F 		.ascii	"\343\272\310\177\000\364\\\347%Z\313<\237!\343\364N"
 847      00F45CE7 
 847      255ACB3C 
 847      9F21E3F4 
 847      4E
 848 0e11 B73B2297 		.ascii	"\267;\"\227\335pb}\231\366Sx\326\223\367\262\346\202"
 848      DD70627D 
 848      99F65378 
 848      D693F7B2 
 848      E682
ARM GAS  D:\Dev\msys64\tmp\ccQoZ9BW.s 			page 61


 849 0e23 D4C3892A 		.ascii	"\324\303\211*\036\334\227\037&\016\277\036\213y\377"
 849      1EDC971F 
 849      260EBF1E 
 849      8B79FF
 850 0e32 00D0168C 		.ascii	"\000\320\026\214\026\343NY\\\352\216\034{I\250w\027"
 850      16E34E59 
 850      5CEA8E1C 
 850      7B49A877 
 850      17
 851 0e43 1639E397 		.ascii	"\0269\343\227\311mj\032Hh\251\243\247\245\215\261C\033"
 851      C96D6A1A 
 851      4868A9A3 
 851      A7A58DB1 
 851      431B
 852 0e55 435AC6F2 		.ascii	"CZ\306\362\000)\371\035\310\302\363,\324\316O)\340\370"
 852      0029F91D 
 852      C8C2F32C 
 852      D4CE4F29 
 852      E0F8
 853 0e67 AF4A0B3B 		.ascii	"\257J\013;z\373\234\027\2574\275V\217\324\365V\232\303"
 853      7AFB9C17 
 853      AF34BD56 
 853      8FD4F556 
 853      9AC3
 854 0e79 C6E8CF14 		.ascii	"\306\350\317\024r\201\264\214<\235\373\025\217.\202"
 854      7281B48C 
 854      3C9DFB15 
 854      8F2E82
 855 0e88 FE2DE858 		.ascii	"\376-\350X\312\375?_\260\222H\345\204\2370\322\323\373"
 855      CAFD3F5F 
 855      B09248E5 
 855      849F30D2 
 855      D3FB
 856 0e9a AE7C5E95 		.ascii	"\256|^\2253r\257,\3138\341\360*\020\205\320\240!\011"
 856      3372AF2C 
 856      CB38E1F0 
 856      2A1085D0 
 856      A02109
 857 0ead 100A8489 		.ascii	"\020\012\204\211P\002\020\220\002N\000\311\362@*\025"
 857      50021090 
 857      024E00C9 
 857      F2402A15 
 858 0ebd 8148E103 		.ascii	"\201H\341\003%\222Hcc\237\335\345\316\3617\324\267\313"
 858      25924863 
 858      639FDDE5 
 858      CEF137D4 
 858      B7CB
 859 0ecf D546D8B8 		.ascii	"\325F\330\270\370\004niqq\034;\344z\225#(\215\"S\266"
 859      F8046E69 
 859      71711C3B 
 859      E47A9523 
 859      288D2253 
 860 0ee4 C479FD52 		.ascii	"\304y\375R(\002\244J\204\000\204$@*\020\204\000\204"
 860      2802A44A 
 860      84008424 
 860      402A1084 
 860      0084
ARM GAS  D:\Dev\msys64\tmp\ccQoZ9BW.s 			page 62


 861 0ef6 21002108 		.ascii	"!\000!\010@wCB\221\2415\203e#B\361\315\203\232\244h"
 861      40774342 
 861      91A13583 
 861      652342F1 
 861      CD839AA4 
 862 0f0b 4D681919 		.ascii	"Mh\031\031\344\265\015\356\373\332>\233\277M\307o7["
 862      E4B50DEE 
 862      FBDA3E9B 
 862      BF4DC76F 
 862      375B
 863 0f1d 63DE5D19 		.ascii	"c\336]\031\202\036/\017\226\333\345Cx/\010ox7\030\011"
 863      821E2F0F 
 863      96DBE543 
 863      782F086F 
 863      78371809 
 864 0f31 E02D0774 		.ascii	"\340-\007t\355\276\351Cpl\023\331}\2304\0168\347ik\326"
 864      EDBEE943 
 864      706C13D9 
 864      7D98340E 
 864      38E7696B 
 865 0f46 75A27B53 		.ascii	"u\242{S\266jY\033\003\2420T\021\270'eM\350\263\246H"
 865      B66A591B 
 865      03A23054 
 865      11B82765 
 865      4DE8B3A6 
 866 0f5b D8AD0892 		.ascii	"\330\255\010\222X\340\211\322\315##\210\014\271\356"
 866      58E089D2 
 866      CD232388 
 866      0CB9EE
 867 0f6a 38C2C075 		.ascii	"8\302\300u?i\266\353C\344\202\232\031j*\206\303\210"
 867      3F69B6EB 
 867      43E4829A 
 867      196A2A86 
 867      C388
 868 0f7c 70B41FDD 		.ascii	"p\264\037\335j\035S\254\256\227\351\334*\347wu\234\266"
 868      6A1D53AC 
 868      AE97E9DC 
 868      2AE77775 
 868      9CB6
 869 0f8e 266CC6FC 		.ascii	"&l\306\374\277uWbE\341L\237|\033\017\264>\323"
 869      BF755762 
 869      45E14C9F 
 869      7C1B0FB4 
 869      3ED3
 870 0fa0 9AD63E87 		.ascii	"\232\326>\207OK\266\355\222\250~\214\377\000+M\315r"
 870      4F4BB6ED 
 870      92A87E8C 
 870      FF002B4D 
 870      CD72
 871 0fb2 7D4CCE7C 		.ascii	"}L\316|\222\027=\304\227\022rJc\332\351pI(|\0214\002"
 871      92173DC4 
 871      9712724A 
 871      63DAE970 
 871      49287C11 
 872 0fc8 480E5C1B 		.ascii	"H\016\\\033r\354\325\030\250tK\355\343\2044;\030\346"
 872      72ECD518 
 872      A8744BED 
ARM GAS  D:\Dev\msys64\tmp\ccQoZ9BW.s 			page 63


 872      E384343B 
 872      18E6
 873 0fda AB5D2464 		.ascii	"\253]$d\214`g\274N\345z:wG\336\265EHe\242\211\346\014"
 873      8C6067BC 
 873      4EE57A3A 
 873      7747DEB5 
 873      454865A2 
 874 0ff1 F8A77ED1 		.ascii	"\370\247~\321\217\373\307o\242\336z3\261\373U\251\221"
 874      8FFBC76F 
 874      A2DE7A33 
 874      B1FB55A9 
 874      91
 875 1002 CF7B2DB8 		.ascii	"\317{-\270U4\003\302\355\242i\370uVP\370+)\245\331\254"
 875      553403C2 
 875      EDA269F8 
 875      755650F8 
 875      2B29A5D9 
 876 1017 B44692BC 		.ascii	"\264F\222\274j\232b(\000\247\243k\260\372\231yz\343"
 876      6A9A6228 
 876      00A7A36B 
 876      B0FA9979 
 876      7AE3
 877 1029 F12DAF61 		.ascii	"\361-\257a\354{NP\026Ip\216K\215H\301s\247>\034\372"
 877      EC7B4E50 
 877      1649708E 
 877      4B8D48C1 
 877      73A73E1C 
 878 103e 346D85B1 		.ascii	"4m\205\261i\251\342\247\205\220\323\304\310\242`\303"
 878      69A9E2A7 
 878      8590D3C4 
 878      C8A260C3 
 879 104e 5AC6E000 		.ascii	"Z\306\340\000\246\306\027E\024\214\362\265\313\204U"
 879      A6C61745 
 879      148CF2B5 
 879      CB8455
 880 105d B7DBA8ED 		.ascii	"\267\333\250\355\360\266*\032h`\211\243\001\261\260"
 880      F0B62A1A 
 880      686089A3 
 880      01B1B0
 881 106c 056F8509 		.ascii	"\005o\205\011U\216m\225.tP\334('\244\251`tR\264\265"
 881      558E6D95 
 881      2E7450DC 
 881      2827A4A9 
 881      607452B4 
 882 1081 C3AEE319 		.ascii	"\303\256\343\031\\\307\2564\244\226\213\334\324U\254"
 882      5CC7AE34 
 882      A4968BDC 
 882      D455AC
 883 1090 E26678A1 		.ascii	"\342fx\241\233\207!\315=O\257E\324\377\000\005\212\366"
 883      9B8721CD 
 883      3D4FAF45 
 883      D4FF0005 
 883      8AF6
 884 10a2 83A5DBA9 		.ascii	"\203\245\333\251-\016\216 \301Y\027\212\0278\363\376"
 884      2D0E8E20 
 884      C159178A 
 884      1738F3FE 
ARM GAS  D:\Dev\msys64\tmp\ccQoZ9BW.s 			page 64


 885 10b2 D50D64BD 		.ascii	"\325\015d\275s\332\316V\250\210Q\207F\"h\220\020\006"
 885      73DACE56 
 885      A8885187 
 885      46226890 
 885      1006
 886 10c4 07309823 		.ascii	"\0070\230#$\031CC\370\210\347\320\254\202\276\231\262"
 886      24194343 
 886      F888E7D0 
 886      AC82BE99 
 886      B2
 887 10d5 4B253563 		.ascii	"K%5c\014up8\260\347bq\346z\257.\"ig1J6'\177\331V,\356"
 887      0C757038 
 887      B0E76271 
 887      E67AAF2E 
 887      22696731 
 888 10f1 D64A750E 		.ascii	"\326Ju\016{\261\014~7\363v9\000\260\275cp\201\265\314"
 888      7BB10C7E 
 888      37F37639 
 888      00B0BD63 
 888      7081B5CC 
 889 1105 21DC7246 		.ascii	"!\334rF\3001\036\344\025\354j\213\337\263\301=%\003"
 889      C0311EE4 
 889      15EC6A8B 
 889      DFB3C13D 
 889      2503
 890 1117 40901E09 		.ascii	"@\220\036\011e\007;y-r\3468\270<\271\316q\361\021\347"
 890      65073B79 
 890      2D72E638 
 890      B83CB9CE 
 890      71F111E7 
 891 112b BAD10867 		.ascii	"\272\321\010g\223\2236;\270d\262\013\2348\21442\251"
 891      9393363B 
 891      B864B20B 
 891      9C388C34 
 891      32A9
 892 113d A1A7EF63 		.ascii	"\241\247\357c\273\223\352KI\370\251\264}\015E\303C\324"
 892      BB93EA4B 
 892      49F8A9B4 
 892      7D0D45C3 
 892      43D4
 893 114f 3E8C66AE 		.ascii	">\214f\256\216\257\2107\315\257i\007\364^^\222\220M"
 893      8EAF8837 
 893      CDAF6907 
 893      F45E5E92 
 893      904D
 894 1161 A4350DBD 		.ascii	"\2445\015\275\376'SS\232\210\035\346\322F\177,/S\262"
 894      FE275353 
 894      9A881DE6 
 894      D2467F2C 
 894      2F53B2
 895 1174 7AD905FA 		.ascii	"z\331\005\372\325k\204\226\262z\260\3511\325\241\244"
 895      D56B8496 
 895      B27AB0E9 
 895      31D5A1A4 
 896 1184 2D4883A0 		.ascii	"-H\203\240;\024\277\033\255\236\026\274\342jv\010\345"
 896      3B14BF1B 
 896      AD9E16BC 
ARM GAS  D:\Dev\msys64\tmp\ccQoZ9BW.s 			page 65


 896      E26A7608 
 896      E5
 897 1195 69E8415B 		.ascii	"i\350A[z\233g\034\3628\\\377\000\330\247uEI\252\213"
 897      7A9B671C 
 897      F2385CFF 
 897      00D8A775 
 897      4549AA8B 
 898 11a9 1F96C370 		.ascii	"\037\226\303p\015\342\362\003\213\037\232\335\223\327"
 898      0DE2F203 
 898      8B1F9ADD 
 898      93D7
 899 11b7 777678AA 		.ascii	"wvx\252\300\360\2270\223\3618\\-\347\223\233=\303\315"
 899      C0F09730 
 899      93F1385C 
 899      2DE7939B 
 899      3DC3CD
 900 11ca 35C13F6C 		.ascii	"5\301?ldr\347\365H\270\020BBi\012g\004\336\025$\020"
 900      6472E7F5 
 900      48B81042 
 900      42690A67 
 900      04DE1524 
 901 11df 3828C856 		.ascii	"8(\310V\034\024d) \201\301F\340\2548(\334\025\210\301"
 901      1C146429 
 901      2081C146 
 901      E0AC3828 
 901      DC1588C1 
 902 11f3 58B556A8 		.ascii	"X\265V\250s!\206I's[\033As\234\356@\016d\253\257\033"
 902      73218649 
 902      27735B1B 
 902      41739CEE 
 902      400E64AB 
 903 1209 EF9C7A2D 		.ascii	"\357\234z-/\333>\255q\225\326\012\007\200\306\341\325"
 903      2FDB3EAD 
 903      7195D60A 
 903      0780C6E1 
 903      D5
 904 121a 4E69EBD1 		.ascii	"Ni\353\321\237\345^\2709\274#^\213I-]\252\265\321\217"
 904      9FE55EB8 
 904      39BC235E 
 904      8B492D5D 
 904      AAB5D18F 
 905 122e 768DADA5 		.ascii	"v\215\255\245\276\325\311Eo{\342\266F\354c\254\244s"
 905      BED5C945 
 905      6F7BE2B6 
 905      46EC63AC 
 905      A473
 906 1240 27D160DF 		.ascii	"'\321`\337\016i\251N\343\226W\251\010*\326\021\367\232"
 906      0E69A94E 
 906      E39657A9 
 906      082AD611 
 906      F79A
 907 1252 7D3C34D0 		.ascii	"}<4\320P\201\224i}\007\2505$\"{e\027\015)8\023N\356"
 907      50819469 
 907      7D07A835 
 907      24227B65 
 907      170D2938 
 908 1269 069F3C79 		.ascii	"\006\237<y\254\206n\306uKY\226{\023\317\341\357\217"
ARM GAS  D:\Dev\msys64\tmp\ccQoZ9BW.s 			page 66


 908      AC866EC6 
 908      754B5996 
 908      7B13CFE1 
 908      EF8F
 909 127b F85BC3B3 		.ascii	"\370[\303\263\211\241\250\3216\207\323\340G\3344`y\201"
 909      89A1A8D1 
 909      3687D3E0 
 909      47DC3460 
 909      7981
 910 128d BAC9FD0A 		.ascii	"\272\311\375\012\363\247\252\261I\244|\326\243\315\352"
 910      F3A7AAB1 
 910      49A47CD6 
 910      A3CDEA
 911 129c 2364A314 		.ascii	"#d\243\024\222L\344K\306\206\324\266v\271\325\226\232"
 911      924CE44B 
 911      C686D4B6 
 911      76B9D596 
 911      9A
 912 12ad 8EE8737C 		.ascii	"\216\350s|X{~>\037\335cn\016k\210sK\0108 \214\025\333"
 912      587B7E3E 
 912      1FDD636E 
 912      0E6B8873 
 912      4B083820 
 913 12c4 E5808DC6 		.ascii	"\345\200\215\306~+\030\324\232\036\303\177c\275\272"
 913      7E2B18D4 
 913      9A1EC37F 
 913      63BDBA
 914 12d3 863131FF 		.ascii	"\20611\377\000\256\217\302\341\363W\206\267\375\310"
 914      00AE8FC2 
 914      E1F35786 
 914      B7FDC8
 915 12e2 ED479EE7 		.ascii	"\355G\236\347\375h\377\000\003\221\322}\007\305m=g\331"
 915      FD68FF00 
 915      0391D27D 
 915      07C56D3D 
 915      67D9
 916 12f4 05C6D5C7 		.ascii	"\005\306\325\307Sby\257\245\031=\321n$o\300uM\322=\231"
 916      536279AF 
 916      A5193DD1 
 916      6E246FC0 
 916      754DD23D 
 917 1309 0D41A12A 		.ascii	"\015A\241*.\014|\221\335x\336\"a\345\3408\341#\343\225"
 917      2E0C7C91 
 917      DD78DE22 
 917      61E5E038 
 917      E123E395 
 918 131d ABD7AF6E 		.ascii	"\253\327\257n\354\236\277\371\226\237b\236\356\037\361"
 918      EC9EBFF9 
 918      969F629E 
 918      EE1FF1
 919 132c 306D2B60 		.ascii	"0m+`\252\324\267\332{m\033\\\327H\354\275\377\000\362"
 919      AAD4B7DA 
 919      7B6D1B5C 
 919      D748ECBD 
 919      FF00F2
 920 133f DBD49F92 		.ascii	"\333\324\237\222\353];g\244\261Z\251\350(#\014\212&"
 920      EB5D3B67 
ARM GAS  D:\Dev\msys64\tmp\ccQoZ9BW.s 			page 67


 920      A4B15AA9 
 920      E828230C 
 920      8A26
 921 1351 81B0E7EA 		.ascii	"\201\260\347\352\260\336\306\264y\323\226WT\326\305"
 921      B0DEC6B4 
 921      79D39657 
 921      54D6C5
 922 1360 C372AB39 		.ascii	"\303r\2539\223\213\233\03297\341\325la\2375\203Sv\371"
 922      938B9B1A 
 922      3937E1D5 
 922      6C619F35 
 922      835376F9 
 923 1374 6D5D1F37 		.ascii	"m]\0377\345\265\357Sf\310\277\245\1771G$\024&H\340\326"
 923      E5B5EF53 
 923      66C8BFA5 
 923      7F314724 
 923      142648E0 
 924 1389 97388000 		.ascii	"\2278\200\000\311%e<\223\233\377\000\213Z\207IY`\246"
 924      C925653C 
 924      939BFF00 
 924      8B5A8749 
 924      5960A6
 925 139c 68CB628E 		.ascii	"h\313b\216Y]\216c\210\264~\313\236\326\341\355V\364"
 925      595D8E63 
 925      88B47ECB 
 925      9ED6E1ED 
 925      56F4
 926 13ae DD47AC6B 		.ascii	"\335G\254k\346i\343\246a\366x\307B\326\377\000\236\177"
 926      E669E3A6 
 926      61F678C7 
 926      42D6FF00 
 926      9E7F
 927 13c0 25AA2E54 		.ascii	"%\252.T\246\222\244\267\036\027n\303\350\275\232\"\341"
 927      A692A4B7 
 927      1E176EC3 
 927      E8BD9A22 
 927      E1
 928 13d1 05934F90 		.ascii	"\005\223O\220\361\223\242\250\334\272}\375\231U\010"
 928      F193A2A8 
 928      DCBA7DFD 
 928      995508
 929 13e0 42EA78A0 		.ascii	"B\352x\240\204!\000!\010@\037<z\251G\2021!\015.y\313"
 929      84210021 
 929      08401F3C 
 929      7AA94782 
 929      31210D2E 
 930 13f6 0B5D92CC 		.ascii	"\013]\222\314(\227\243lc\037y\267\307'vc2G\236\001\221"
 930      2897A36C 
 930      631F79B7 
 930      C7277663 
 930      32479E01 
 931 140b F3564B2F 		.ascii	"\363VK/\005,{SfQ`\320\346\256\026T]_+_(\342\0210\370"
 931      052C7B53 
 931      665160D0 
 931      E6AE1654 
 931      5D5F2B5F 
 932 1424 B1D388FA 		.ascii	"\261\323\210\372\371+\327n\317\340lN\024RM\004\340d"
ARM GAS  D:\Dev\msys64\tmp\ccQoZ9BW.s 			page 68


 932      F92BD76E 
 932      CFE06C4E 
 932      14524D04 
 932      E064
 933 1436 366DC396 		.ascii	"6m\303\226\325\262A\034t\276\331\014\2555e\345\255h"
 933      D5B2411C 
 933      74BED90C 
 933      AD3565E5 
 933      AD68
 934 1448 E6DC726E 		.ascii	"\346\334rn\177\273\236T\3639\267*I'\274\361A&\013\216"
 934      7FBB9E54 
 934      F339B72A 
 934      4927BCF1 
 934      41260B8E 
 935 145c 467807DD 		.ascii	"Fx\007\335>\231;p\372-8\212{1\371\376\307\317=N\242"
 935      3E993B70 
 935      FA2D388A 
 935      7B31F9FE 
 935      C7CF3D4E 
 936 1471 4FD4DDF8 		.ascii	"O\324\335\370^\3074\272\222\240\325:\212H\244\366\270"
 936      5EC734BA 
 936      92A0D53A 
 936      8A48A4F6 
 936      B8
 937 1482 F31B23EA 		.ascii	"\363\033#\352\010\347\237EH\202\035\202\010 \343~\207"
 937      08E79F45 
 937      48821D82 
 937      0820E37E 
 937      87
 938 1493 AACAFB42 		.ascii	"\252\312\373BcF\250gt\327\027\27669\355n\307\213\220"
 938      6346A867 
 938      74D717BE 
 938      3639ED6E 
 938      C78B90
 939 14a6 FAAC565F 		.ascii	"\372\254V_\014\217\034%\276m'%g\224v\311\243\336\323"
 939      0C8F1C25 
 939      BE6D2725 
 939      679476C9 
 939      A3DED3
 940 14b9 DAEC8464 		.ascii	"\332\354\204d\375\304<\271\341)\005\270\342i\004\362"
 940      FDC43CB9 
 940      E12905B8 
 940      E26904F2 
 941 14c9 F55EA698 		.ascii	"\365^\246\230\253\240\242\276\323Mw\246\0254Mw\3320"
 941      ABA0A2BE 
 941      D34D77A6 
 941      15344D77 
 941      DA30
 942 14db FF00EAC7 		.ascii	"\377\000\352\307\\,\253\266X\3407\372\012\232N\003M"
 942      5C2CABB6 
 942      58E037FA 
 942      0A9A4E03 
 942      4D
 943 14ec 5148D31B 		.ascii	"QH\323\033\243\367p\011\030\003\241^|\365n:\210\351"
 943      A3F77009 
 943      1803A15E 
 943      7CF56E3A 
ARM GAS  D:\Dev\msys64\tmp\ccQoZ9BW.s 			page 69


 943      88E9
 944 14fe F6F0D673 		.ascii	"\366\360\326s\355\3704\245\306L\001\"\261CI=t\302*f"
 944      EDF834A5 
 944      C64C0122 
 944      B143493D 
 944      74C22A66 
 945 1512 17C98E23 		.ascii	"\027\311\216#\216M\003\251=\007\252\365\351,\360?<."
 945      8E4D03A9 
 945      3D07AAF5 
 945      E92CF03F 
 945      3C2E
 946 1524 A8AE7B7D 		.ascii	"\250\256{}\377\000fo\014L>FGu\370l\266\375\212I\306"
 946      FF00666F 
 946      0C4C3E46 
 946      4775F86C 
 946      B6FD8A49 
 947 1539 2B2CF050 		.ascii	"+,\360P\262Ai\247w\013E\013\211\352\031_\033\235\364"
 947      B24169A7 
 947      770B450B 
 947      89EA195F 
 947      1B9DF4
 948 154c 5E25C695 		.ascii	"^%\306\225\324\265O\215\320\317\013z\011\233\207\177"
 948      D4B54F8D 
 948      D0CF0B7A 
 948      099B877F 
 949 155c 823D429C 		.ascii	"\202=B\234?tUN\017\246\212\310B\024\035\001\"T!S\273"
 949      3F74554E 
 949      0FA68AC8 
 949      42141D01 
 949      22542153 
 950 1571 5AA4684C 		.ascii	"Z\244hLj\241\251j\3564V*\232\213%\030\255\257h\0028"
 950      6AA1A96A 
 950      EE34562A 
 950      9A8B2518 
 950      ADAF6802 
 951 1586 49F7BD70 		.ascii	"I\367\275p\274sj=p@\031$\0009\223\311a\332\317\264{"
 951      BC736A3D 
 951      70401924 
 951      003993C9 
 951      61DACFB4 
 952 159b 1E99A379 		.ascii	"\036\231\243ym\\UU\270!\224\3618;\177S\345\350\260*"
 952      6D5C5555 
 952      B82194F1 
 952      383B7F53 
 952      E5E8B02A 
 953 15af ED19AE75 		.ascii	"\355\031\256uL\016\252\326z\212+E\003O\021\201\256\360"
 953      4C0EAAD6 
 953      7A8A2B45 
 953      034F1181 
 953      AEF0
 954 15c1 B07A8181 		.ascii	"\260z\201\201\365+\017\324t]\237Z\355U\026\373O\363"
 954      F52B0FD4 
 954      745D9F5A 
 954      ED5516FB 
 954      4FF3
 955 15d3 0BEDF656 		.ascii	"\013\355\366V\360\307R\036@k\271d\001\261\031\351\217"
 955      F0C7521E 
ARM GAS  D:\Dev\msys64\tmp\ccQoZ9BW.s 			page 70


 955      406BB964 
 955      01B119E9 
 955      8F
 956 15e4 9AE7293F 		.ascii	"\232\347)?c\274*Y\345\347\360`\272\323R\326j\273\324"
 956      63BC2A59 
 956      E5E7F060 
 956      BAD352D6 
 956      6ABBD4
 957 15f7 D72AF938 		.ascii	"\327*\3718\245v\315\035\032\321\310*z~\347-\236\361"
 957      A576CD1D 
 957      1AD1C82A 
 957      7A7EE72D 
 957      9EF1
 958 1609 055C2F2D 		.ascii	"\005\\/-{\0363\216\241S\232\007E)\215\341\315x;\207"
 958      7B1E338E 
 958      A1539A07 
 958      45298DE1 
 958      CD783B87 
 959 161d 0C10A5B6 		.ascii	"\014\020\245\266\322\272\256\262(\243\034E\316\037\252"
 959      D2BAAEB2 
 959      28A31C45 
 959      CE1FAA
 960 162c E26BC63A 		.ascii	"\342k\306:6\356\261\215\227\272\030\256\364\355kI\001"
 960      36EEB18D 
 960      97BA18AE 
 960      F4ED6B49 
 960      01
 961 163d D81B64E3 		.ascii	"\330\033d\343\252\305\014\23414\2741\235\011\363Y\006"
 961      AAC50C9C 
 961      3134BC31 
 961      9D09F359 
 961      06
 962 164e A2926B7C 		.ascii	"\242\222k|4\366\356\011adM\016xp\301$\217\321b5S6Y\010"
 962      34F6EE09 
 962      61644D0E 
 962      7870C124 
 962      8FD16235 
 963 1666 681DE79E 		.ascii	"h\035\347\236p\017\376\353\034\365;^\324\213\355\367"
 963      700FFEEB 
 963      1CF53B5E 
 963      D48BEDF7 
 964 1676 36B69AEC 		.ascii	"6\266\232\354\242\353t\2169kj\"\243\244;\344\036\361"
 964      A2EB748E 
 964      396B6A22 
 964      A3A43BE4 
 964      1EF1
 965 1688 EE1CF603 		.ascii	"\356\034\366\003e\263\264\357e\372r\320Y$\224\246\276"
 965      65B3B4EF 
 965      65FA72D0 
 965      592494A6 
 965      BE
 966 1699 A1B8FB4A 		.ascii	"\241\270\373J\223\3063\350\336As\206\227\326w\2353R"
 966      93C633E8 
 966      DE417386 
 966      97D6779D 
 966      3352
 967 16ab E9AD556F 		.ascii	"\351\255Uo\214?\035\3442\2166?\036`\376\241o\015\015"
ARM GAS  D:\Dev\msys64\tmp\ccQoZ9BW.s 			page 71


 967      8C3F1DE4 
 967      328E363F 
 967      1E60FEA1 
 967      6F0D0D
 968 16be DB45A6F2 		.ascii	"\333E\246\362\346R^\332-\265\231\341\342\317\024N$\343"
 968      E6525EDA 
 968      2DB599E1 
 968      E2CF144E 
 968      24E3
 969 16d0 19E9E7BA 		.ascii	"\031\351\347\272\321M\320\237\330\315j\237\3566\314"
 969      D14DD09F 
 969      D8CD6A9F 
 969      EE36CC
 970 16df 51B22635 		.ascii	"Q\262&5\2211\254\215\243\015k@\300\371\016I\352:i\342"
 970      9131AC8D 
 970      A30D6B40 
 970      C0F90E49 
 970      EA3A69E2 
 971 16f3 A985B2D3 		.ascii	"\251\205\262\323J\311ap\310{\\\010*`\026\2230\016IZ"
 971      4AC96170 
 971      C87B5C08 
 971      2A601693 
 971      300E495A 
 972 1707 84A8012B 		.ascii	"\204\250\001+P\225\000\207\226\313\312\325\025\337\313"
 972      50950087 
 972      96CBCAD5 
 972      15DFCB
 973 1716 34F5C2B1 		.ascii	"4\365\302\261\273:(\\\346\374z/W\031\331`}\262\325\232"
 973      BB3A285C 
 973      E6FC7A2F 
 973      5719D960 
 973      7DB2D59A 
 974 172a 7D1D2443 		.ascii	"}\035$Coh\2200\3749\225YtZ\0132\301\315\365U\346W\275"
 974      6F689030 
 974      FC399559 
 974      745A0B32 
 974      C1CDF555 
 975 1741 D52FF148 		.ascii	"\325/\361H\362\340\343\346J\3075>\242{)\375\226\224"
 975      F2E0E3E6 
 975      4AC7353E 
 975      A27B29FD 
 975      9694
 976 1753 39D3727C 		.ascii	"9\323r|\207\240\364^\345lFb\033\353\371(\265v\236\020"
 976      87A0F45E 
 976      E56C4662 
 976      1BEBF928 
 976      B5769E10 
 977 1767 68BA5B8C 		.ascii	"h\272[\214t\222J\357h"
 977      74924AEF 
 977      68
 978 1770 EEDD2B76 		.ascii	"\356\335+v\340n6\013\2353M\341\233\355\257\013(\326"
 978      E06E360B 
 978      9D334DE1 
 978      9BEDAF0B 
 978      28D6
 979 1782 D03B8A9E 		.ascii	"\320;\212\236\245\325\004\363\311%Vt\035\343\034\350"
 979      A5D504F3 
ARM GAS  D:\Dev\msys64\tmp\ccQoZ9BW.s 			page 72


 979      C9255674 
 979      1DE31CE8 
 980 1792 8F134823 		.ascii	"\217\023H#\204\244\253\343\311s\243\356cf\315a;\227"
 980      84A4ABE3 
 980      C973A3EE 
 980      6366CD61 
 980      3B97
 981 17a4 742552A8 		.ascii	"t%R\250p\246{@s\2351\031';\002\267&dfM\245X\352Km}T"
 981      70A67B40 
 981      739D3119 
 981      273B02B7 
 981      2664664D 
 982 17bf B206C4F8 		.ascii	"\262\006\304\370]H3\367\213\216\377\000\220Y\337et\220"
 982      5D4833F7 
 982      8B8EFF00 
 982      9059DF65 
 982      7490
 983 17d1 E9E8E6D5 		.ascii	"\351\350\346\3257b\032\330\343\177\2634\363y \340\374"
 983      37621AD8 
 983      E37FB334 
 983      F37920E0 
 983      FC
 984 17e2 16271D2D 		.ascii	"\026'\035-34\255\226\031K\204\316\230\271\321\237\276"
 984      3334AD96 
 984      194B84CE 
 984      98B9D19F 
 984      BE
 985 17f3 DEBF4C61 		.ascii	"\336\277La{\327\373\210\272VQ\333Zq\0038A`\362\350\273"
 985      7BD7FB88 
 985      BA5651DB 
 985      5A710338 
 985      4160F2E8 
 986 1808 C7A2A667 		.ascii	"\307\242\246g\331L\362\273Cj\271\203q,\2622G\037\211"
 986      D94CF2BB 
 986      436AB983 
 986      712CB232 
 986      471F89
 987 181b 3FB2DE56 		.ascii	"?\262\336V\242n\375\236\313\013\016^`-\036yn\341a\275"
 987      A26EFD9E 
 987      CB0B0E5E 
 987      602D1E79 
 987      6EE161BD 
 988 182f 98E9CA6A 		.ascii	"\230\351\312jk\025\302\235\314\003\333\343\342l~`\015"
 988      6B15C29D 
 988      CC03DBE3 
 988      E26C7E60 
 988      0D
 989 1840 8FD57B7D 		.ascii	"\217\325{}\227U\315\014\367\033EcH\356\262X\177\023"
 989      9755CD0C 
 989      F71B4563 
 989      48EEB258 
 989      7F13
 990 1852 5526BE96 		.ascii	"U&\276\226\212\233*\324\363-\262\221\357\317\023\242"
 990      8A9B2AD4 
 990      F32DB291 
 990      EFCF13A2 
 991 1862 6E73F056 		.ascii	"ns\360V\010Q\320\200)\232\306\354\030x\177u;\226Or\244"
ARM GAS  D:\Dev\msys64\tmp\ccQoZ9BW.s 			page 73


 991      0851D080 
 991      299AC6EC 
 991      18787F75 
 991      3B964F72 
 992 1877 684A4244 		.ascii	"hJBD c\202\215\301O\3151\301I\005w\005\033\207\232\235"
 992      2063828D 
 992      C14FCD31 
 992      C1490577 
 992      051B879A 
 993 188c C146479A 		.ascii	"\301FG\232\222\014o[_\033\247t\345U{\235\211\203x\""
 993      920C6F5B 
 993      5F1BA774 
 993      E5557B9D 
 993      89837822 
 994 18a0 1F8A43C8 		.ascii	"\037\212C\310\376\213\226'\225\365\023\3114\316/\226"
 994      FE8B9627 
 994      95F513C9 
 994      34CE2F96 
 995 18b0 4717B8F9 		.ascii	"G\027\270\371\344\255\257\333\365\340\313s\243\2641"
 995      E4ADAFDB 
 995      F5E0CB73 
 995      A3B431
 996 18bf D8642DEF 		.ascii	"\330d-\357d\037\334y~KS/KM\015\261\334}\237\203\322"
 996      641FDC79 
 996      7E4B532F 
 996      4B4D0DB1 
 996      DC7D9F83 
 997 18d4 FA347A8F 		.ascii	"\3724z\217\267\375\001\037\024$\370\354\026\223\332"
 997      B7FD011F 
 997      1424F8EC 
 997      1693DA
 998 18e3 37B7F0F5 		.ascii	"7\267\360\365\250\333%-E\206\241\370\2263\337B\017V"
 998      A8DB252D 
 998      4586A1F8 
 998      9633DF42 
 998      0F56
 999 18f5 9F787C8A 		.ascii	"\237x|\212\335M\306\353\213l\227:\233=\336\232\343D"
 999      DD4DC6EB 
 999      8B6C973A 
 999      9B3DDE9A 
 999      E344
 1000 1907 FE0A985F 		.ascii	"\376\012\230_\306<\275A\364!un\206\325tz\256\321\035"
 1000      C63CBD41 
 1000      F421756E 
 1000      86D5747A 
 1000      AED11D
 1001 191a 5533B866 		.ascii	"U3\270fh\002h\217\274\307z\374W\231\253\251\306[\321"
 1001      6802688F 
 1001      BCC77AFC 
 1001      5799ABA9 
 1001      C65BD1
 1002 192d F23E6744 		.ascii	"\362>gD\353\263\325\217\351fN\204\211|\2263\304\002"
 1002      EBB3D58F 
 1002      E9664E84 
 1002      897C9633 
 1002      C402
 1003 193f DDBA28D9 		.ascii	"\335\272(\331\013#\004D\326\264\023\222\000\346T\250"
ARM GAS  D:\Dev\msys64\tmp\ccQoZ9BW.s 			page 74


 1003      0B230444 
 1003      D6B41392 
 1003      00E654A8 
 1004 194f 40200529 		.ascii	"@ \005)\344\204\036H\006\021\272\327]\263\352\012\353"
 1004      E4841E48 
 1004      0611BAD7 
 1004      5DB3EA0A 
 1004      EB
 1005 1960 2E9C7C34 		.ascii	".\234|4\024\3239\325 \261\363\265\271lM#\007'\315lS"
 1005      14D339D5 
 1005      20B1F3B5 
 1005      B96C4D23 
 1005      0727CD6C 
 1006 1975 C9473C11 		.ascii	"\311G<\021\317\013\243\231\215\2227\014\020\341\234"
 1006      CF0BA399 
 1006      8D92370C 
 1006      10E19C
 1007 1984 AB425B5E 		.ascii	"\253B[^Y\322\213\025v)\311e#\2113\222H$\223\342\337"
 1007      59D28B15 
 1007      7629C965 
 1007      23893392 
 1007      482493E2 
 1008 1999 A9CAA376 		.ascii	"\251\312\243v\246\0254\2047w\267\304\323\373-\343\332"
 1008      A6153484 
 1008      3777B7C4 
 1008      D3FB2DE3 
 1008      DA
 1009 19aa D76651D0 		.ascii	"\327fQ\320S\315x\323\361\360\300<U\024\274\303?\271"
 1009      53CD78D3 
 1009      F1F0C03C 
 1009      5514BCC3 
 1009      3FB9
 1010 19bc BE4169B3 		.ascii	"\276Ai\263\266v\370\205\354Wb\265p}\264l\253\310\351"
 1010      B676F885 
 1010      EC5762B5 
 1010      707DB46C 
 1010      ABC8E9
 1011 19cf 9A8F4F8C 		.ascii	"\232\217O\214}\314(\235\310\345\276\350V\256\220\367"
 1011      7DCC289D 
 1011      C8E5BEE8 
 1011      56AE90F7 
 1012 19df 15B2300F 		.ascii	"\025\2620\017\0119o\356\252\256\207\3476\326\351\261"
 1012      09396FEE 
 1012      AAAE87E7 
 1012      36D6E9B1 
 1013 19ef D6FD9821 		.ascii	"\326\375\230!\010C\220$J\204\002g\033\253.\220\311\014"
 1013      08439024 
 1013      4A840267 
 1013      1BAB2E90 
 1013      C90C
 1014 1a01 4182364B 		.ascii	"A\2026K\011\341o\003p\347\365\311=Ur\234\307\275\257"
 1014      09E16F03 
 1014      70E7F5C9 
 1014      3D55729C 
 1014      C7BDAF
 1015 1a14 0E638B5E 		.ascii	"\016c\213^:\204A\307q\2644\266\272\247llmt\235\305C"
 1015      3A8441C7 
ARM GAS  D:\Dev\msys64\tmp\ccQoZ9BW.s 			page 75


 1015      71B434B6 
 1015      BAA76C6C 
 1015      6D749DC5 
 1016 1a29 5A18FE31 		.ascii	"Z\030\3761\226J\007\230\352\275\333\336\267\202\341"
 1016      964A0798 
 1016      EABDDBDE 
 1016      B782E1
 1017 1a38 1CAF6D44 		.ascii	"\034\257mD5r\304\316\363\271\247o\277\201\202}H\037"
 1017      3572C4CE 
 1017      F3B9A76F 
 1017      BF81827D 
 1017      481F
 1018 1a4a 46E56946 		.ascii	"F\345iF>2\033\307\0360\323\273N\344\372\251\350*\331"
 1018      3E321BC7 
 1018      1E30D3BB 
 1018      4EE4FAA9 
 1018      E82AD9
 1019 1a5d 45511544 		.ascii	"EQ\025DLy\225\214\330\271\330\303\374\3626#\321wW\276"
 1019      4C79958C 
 1019      D8B9D8C3 
 1019      FCF23623 
 1019      D17757BE 
 1020 1a71 FDD7B9E5 		.ascii	"\375\327\271\345\313\306V\344\371j/\265\354>\266\262"
 1020      CBC656E4 
 1020      F96A2FB5 
 1020      EC3EB6B2 
 1021 1a81 4B9574F5 		.ascii	"K\225t\365\365\\//#-\3169\214\014|\025\001\216\234\267"
 1021      F55C2F2F 
 1021      232DCE39 
 1021      8C0C7C15 
 1021      018E9CB7 
 1022 1a95 D97AB7B8 		.ascii	"\331z\267\270\2333a\270\32346\226\177\001`\003\354\244"
 1022      9B3361B8 
 1022      D3343696 
 1022      7F016003 
 1022      ECA4
 1023 1aa7 1B98CFEA 		.ascii	"\033\230\317\352=\027\225\234n\270\271n\345\236\234"
 1023      3D17959C 
 1023      6EB8B96E 
 1023      E59E9C
 1024 1ab6 20A188C7 		.ascii	" \241\210\307\244\012\344r\325\327\262\222\201\205\322"
 1024      A40AE472 
 1024      D5D7B292 
 1024      8185D2
 1025 1ac5 06BB8606 		.ascii	"\006\273\206\006\273~\022\356\237\005\351\351\013\021"
 1025      BB7E12EE 
 1025      9F05E9E9 
 1025      0B11
 1026 1ad3 BDD716CA 		.ascii	"\275\327\026\312H\245\207w\220p]\350\266\235\025\276"
 1026      48A58777 
 1026      90705DE8 
 1026      B69D15BE 
 1027 1ae3 928A16C7 		.ascii	"\222\212\026\307IM\024Mh\307\205\273\237\211\363]k\322"
 1027      494D144D 
 1027      68C785BB 
 1027      9F89F35D 
 1027      6BD2
ARM GAS  D:\Dev\msys64\tmp\ccQoZ9BW.s 			page 76


 1028 1af5 FABF57B1 		.ascii	"\372\277W\261\347\353<\2444\322\330\226Y\256\003!\246"
 1028      E7EB3CA4 
 1028      34D2D896 
 1028      59AE0321 
 1028      A6
 1029 1b06 A4F67858 		.ascii	"\244\366xX\371iD\202>\006\363\256\230s\342\376\306\364"
 1029      F9694482 
 1029      3E06F3AE 
 1029      9873E2FE 
 1029      C6F4
 1030 1b18 59051E96 		.ascii	"Y\005\036\226\222\262(\344\275\3248\264\017\015,'\021"
 1030      92B228E4 
 1030      BDD438B4 
 1030      0F0D2C27 
 1030      11
 1031 1b29 C63A00B2 		.ascii	"\306:\000\262\270-\224\365U\364\317m3\035P\317\014n"
 1031      B82D94F5 
 1031      55F4CF6D 
 1031      331D50CF 
 1031      0C6E
 1032 1b3b 6B72403C 		.ascii	"kr@<\312\3306\216\317*\352[!\254\"\235\241\3001\316"
 1032      CAD8368E 
 1032      CF2AEA5B 
 1032      21AC229D 
 1032      A1C031CE 
 1033 1b4f C1CB799D 		.ascii	"\301\313y\235\277\312\353%V\235f\326y\362\325j5\317"
 1033      BFCAEB25 
 1033      569D66D6 
 1033      79F2D56A 
 1033      35CF
 1034 1b61 1447F7FC 		.ascii	"\024G\367\374\032\224\350\313,\260\277\206\211\341\254"
 1034      1A94E8CB 
 1034      2CB0BF86 
 1034      89E1AC
 1035 1b70 E6F638E5 		.ascii	"\346\3668\345\253\307\274\351\312\253U3\314bJ\333x\031"
 1035      ABC7BCE9 
 1035      CAAB5533 
 1035      CC624ADB 
 1035      7819
 1036 1b82 7D2CC32E 		.ascii	"},\303.`\374L]?In\260\331\345wq\030\253\253v\001\373"
 1036      60FC4C5D 
 1036      3F496EB0 
 1036      D9E57771 
 1036      18ABAB76 
 1037 1b98 DB8F4F75 		.ascii	"\333\217Ou\277\252}\372\202;\375\272h\335EN\313\214"
 1037      BFAA7DFA 
 1037      823BFDBA 
 1037      68DD454E 
 1037      CB8C
 1038 1baa 2D3DDB66 		.ascii	"-=\333f\3347}\367\036\213$\265\365\267\215\234|\364"
 1038      DC377DF7 
 1038      1E8B24B5 
 1038      F5B78D9C 
 1038      7CF4
 1039 1bbc 6BAB437C 		.ascii	"k\253C|#\231Y\227\361\337\375\03497u\337?\331\313\273"
 1039      23995997 
 1039      F1DFFD1C 
ARM GAS  D:\Dev\msys64\tmp\ccQoZ9BW.s 			page 77


 1039      393775DF 
 1039      3FD9CBBB 
 1040 1bd0 ACF838B9 		.ascii	"\254\3708\271\343\3111gZ\363D\325[&\252\270P\210\352"
 1040      E3C93167 
 1040      5AF344D5 
 1040      5B26AAB8 
 1040      5088EA
 1041 1be3 2803C893 		.ascii	"(\003\310\223\271\317\330\273\256\336^\253\004G\214"
 1041      B9CFD8BB 
 1041      AEDE5EAB 
 1041      04478C
 1042 1bf2 E11EA572 		.ascii	"\341\036\245r\335\004\305B\020\205\216\357o\252\216"
 1042      DD04C542 
 1042      10858EEF 
 1042      6FAA8E
 1043 1c01 E3354414 		.ascii	"\3435D\024\0253Q@'\251c\011\216\023\367\334\006\303"
 1043      15335140 
 1043      27A96309 
 1043      8E13F7DC 
 1043      06C3
 1044 1c13 E654AD52 		.ascii	"\346T\255R\265x\346\323\237u]\025\346\341\010\255\355"
 1044      B578E6D3 
 1044      9F755D15 
 1044      E6E108AD 
 1044      ED
 1045 1c24 3F510B45 		.ascii	"?Q\013E\271\3710[i\207\024\222\000~\353F\3372\274\313"
 1045      B9F9305B 
 1045      69871492 
 1045      007EEB46 
 1045      DF32BCCB 
 1046 1c38 059EED78 		.ascii	"\005\236\355x\233\331\273>\264Mk\266\273\303%\312\250"
 1046      9BD9BB3E 
 1046      B44D6BB6 
 1046      BBC325CA 
 1046      A8
 1047 1c49 0EFA51D4 		.ascii	"\016\372Q\324\227\362h\376\326\363]\007u\323\366\253"
 1047      97F268FE 
 1047      D6F35D07 
 1047      75D3F6AB 
 1048 1c59 C5452D45 		.ascii	"\305E-E\326\202\012\231i\263\335\031>\342\365d\017\247"
 1048      D6820A99 
 1048      69B3DD19 
 1048      3EE2F564 
 1048      0FA7
 1049 1c6b A2905142 		.ascii	"\242\220QB\303$l=\324c\302\322q\260T\333\223\272\265"
 1049      C3246C3D 
 1049      D463C2D2 
 1049      71B054DB 
 1049      93BAB5
 1050 1c7e 63A39CB5 		.ascii	"c\243\234\265\336\201\262\330\240\266\330\350\037Sr"
 1050      DE81B2D8 
 1050      A0B6D8E8 
 1050      1F5372
 1051 1c8d D5D70943 		.ascii	"\325\327\011C\214\256~\315\007\336$z\362\312\331\375"
 1051      8CAE7ECD 
 1051      07DE247A 
 1051      F2CAD9FD 
ARM GAS  D:\Dev\msys64\tmp\ccQoZ9BW.s 			page 78


 1052 1c9d 9BF6536D 		.ascii	"\233\366Sm\322\314e]xee\323g\027p\370\">M\036~\252]"
 1052      D2CC655D 
 1052      786565D3 
 1052      671770F8 
 1052      223E4D1E 
 1053 1cb4 05A2EBA9 		.ascii	"\005\242\353\251\257\225z\233VI\035E\372\241\316llg"
 1053      AF957A9B 
 1053      56491D45 
 1053      FAA1CE6C 
 1053      6C67
 1054 1cc6 8994CCF2 		.ascii	"\211\224\314\362i\363\302\330\315UP\303\310\235\215"
 1054      69F3C2D8 
 1054      CD5550C3 
 1054      C89D8D
 1055 1cd5 2C64D71D 		.ascii	",d\327\035\264\330\342\251\323\346\341\014\015uL\007"
 1055      B4D8E2A9 
 1055      D3E6E10C 
 1055      0D754C07 
 1056 1ce5 85EF60DC 		.ascii	"\205\357`\334\263\242\346\352\210Z\3079\355'\304y\037"
 1056      B3A2E6EA 
 1056      885AC739 
 1056      ED27C479 
 1056      1F
 1057 1cf6 35D91A8A 		.ascii	"5\331\032\212\252\333Ih\2507\271ce\033\330[#^}\340G"
 1057      AADB4968 
 1057      A837B963 
 1057      651BD85B 
 1057      235E7DE0 
 1058 1d0b 2017205D 		.ascii	" \027 ]\347\245\376eRi\\\377\000f/%\235\340\303\200"
 1058      E7A5FE65 
 1058      52695CFF 
 1058      00662F25 
 1058      9DE0C380 
 1059 1d1f CED95E6E 		.ascii	"\316\331^n\266\274MI\032t\323\314Zg\224\351\203\334"
 1059      B6BC4D49 
 1059      1A74D3CC 
 1059      5A6794E9 
 1059      83DC
 1060 1d31 5B274E4F 		.ascii	"['NOP\276&w\215'n\027\034\026\236\022Sjd\211\330-$g"
 1060      50BE2677 
 1060      8D276E17 
 1060      1C169E12 
 1060      536A6489 
 1061 1d49 A9E4AB99 		.ascii	"\251\344\253\231A\030\016\016\307E\236\011\256Q\332"
 1061      41180E0E 
 1061      C7459E09 
 1061      AE51DA
 1062 1d58 4D196690 		.ascii	"M\031f\220\327W\375 \346:\333\\\035N]\227\322<qD\341"
 1062      D757FD20 
 1062      E63ADB5C 
 1062      1D4E5D97 
 1062      D23C7144 
 1063 1d6d E441E47D 		.ascii	"\344A\344}B\352\036\315;@\267k\213oyN;\212\370\200\025"
 1063      42EA1ECD 
 1063      3B40B76B 
 1063      8B6F794E 
 1063      3B8AF880 
ARM GAS  D:\Dev\msys64\tmp\ccQoZ9BW.s 			page 79


 1064 1d82 14CE764B 		.ascii	"\024\316vKO\230\363\013\213\244w\026\300\344\036\213"
 1064      4F98F30B 
 1064      8BA47716 
 1064      C0E41E8B 
 1065 1d92 7C7F0CDA 		.ascii	"|\177\014\332F\244\327\313\251*\014\221\3231\246(@8"
 1065      46A4D7CB 
 1065      A92A0C91 
 1065      D331A628 
 1065      4038
 1066 1da4 12B8F33F 		.ascii	"\022\270\363?%\276\211\311\274\031n\202\306N\217J\204"
 1066      25BE89C9 
 1066      BC196E82 
 1066      C64E8F4A 
 1066      84
 1067 1db5 AB599410 		.ascii	"\253Y\224\020\204!!\361Z\233\267z\317\367Z\012!\315"
 1067      842121F1 
 1067      5A9BB77A 
 1067      CFF75A0A 
 1067      21CD
 1068 1dc7 C5D2BBE4 		.ascii	"\305\322\273\3440\266\264\322\262\030\335$\256\015c"
 1068      30B6B4D2 
 1068      B218DD24 
 1068      AE0D63
 1069 1dd6 464B8F20 		.ascii	"FK\217 <\326\201\355J\357\035\343R<RJ$\247\201\2026"
 1069      3CD681ED 
 1069      4AEF1DE3 
 1069      523C524A 
 1069      24A78182 
 1070 1deb 169C827A 		.ascii	"\026\234\202z\341r\265\341\0324\361\314\321\200\321"
 1070      E172B5E1 
 1070      1A34F1CC 
 1070      D180D1
 1071 1dfa D19A89D9 		.ascii	"\321\232\211\331\033\033\304\342V\315\355\026\341K\243"
 1071      1B1BC4E2 
 1071      56CDED16 
 1071      E14BA3
 1072 1e09 FB30A6B3 		.ascii	"\3730\246\263\324Q\262z\273\203p\033#2\326\357\271\377"
 1072      D451B27A 
 1072      BB83701B 
 1072      2332D6EF 
 1072      B9FF
 1073 1e1b 0056392B 		.ascii	"\000V9+=\221\351\206\325NnU1\216\3423\366y\373\307\315"
 1073      3D91E986 
 1073      D54E6E55 
 1073      318EE233 
 1073      F679FBC7 
 1074 1e30 4DFC4B4D 		.ascii	"M\374KM@\315\027\023g\226&W\211x\240a\000\270\364?\015"
 1074      40CD1713 
 1074      67962657 
 1074      8978A061 
 1074      00B8F43F 
 1075 1e45 94511C72 		.ascii	"\224Q\034r\316\232\2132\366\234{\250\347,\253v\014c"
 1075      CE9A8B32 
 1075      F69C7BA8 
 1075      E72CAB76 
 1075      0C63
 1076 1e57 D1A3905E 		.ascii	"\321\243\220^=<O\232\254<\216&\202J\271[\033e\252q\221"
ARM GAS  D:\Dev\msys64\tmp\ccQoZ9BW.s 			page 80


 1076      3D3C4F9A 
 1076      AC3C8E26 
 1076      824AB95B 
 1076      1B65AA71 
 1077 1e6c AE71CEE4 		.ascii	"\256q\316\344\024\350\247\024\364\322\264\002\036\030"
 1077      14E8A714 
 1077      F4D2B402 
 1077      1E18
 1078 1e7a 58CF524E 		.ascii	"X\317RN\347\344\267c'\006Z\251\2709\317\247nK\333\003"
 1078      E7E4B763 
 1078      27065AA9 
 1078      B839CFA7 
 1078      6E4BDB03 
 1079 1e8e 406B473C 		.ascii	"@kG<\236\237\232\331\235\227\330]P\347j\033\321\015"
 1079      9E9F9AD9 
 1079      9D97D85D 
 1079      50E76A1B 
 1079      D10D
 1080 1ea0 A487C63F 		.ascii	"\244\207\306?\274\364\001k\373\025\215\315\213\333\256"
 1080      BCF4016B 
 1080      FB158DCD 
 1080      8BDBAE
 1081 1eaf 10B9E1BB 		.ascii	"\020\271\341\273\307L\323\207?\324\372-\243K\013u\236"
 1081      C74CD387 
 1081      3FD4FA2D 
 1081      A34B0B75 
 1081      9E
 1082 1ec0 9286968A 		.ascii	"\222\206\226\212\250Q]i[\223Jr\330\344\003\226<\327"
 1082      A8515D69 
 1082      5B934A72 
 1082      D8E40396 
 1082      3CD7
 1083 1ed2 7895367E 		.ascii	"x\2256~\207\276\266\345\255g|nydQ\367,\300\360\200F"
 1083      87BEB6E5 
 1083      AD677C6E 
 1083      796451F7 
 1083      2CC0F080 
 1084 1ee7 7EAB2CD3 		.ascii	"~\253,\323\256`\326\267X\031\267\003[(?\352\031+\\\366"
 1084      AE60D6B7 
 1084      5819B703 
 1084      5B283FEA 
 1084      192B5CF6 
 1085 1efb 5D6EAEA6 		.ascii	"]n\256\246\261\325\313YJ`\270R?\273\031;=\276\253/\321"
 1085      B1D5CB59 
 1085      4A60B852 
 1085      3FBB193B 
 1085      3DBEAB2F 
 1086 1f10 D53349AB 		.ascii	"\3253I\253\352\346\2227\007\314\032\3278\362\341\306"
 1086      EAE69237 
 1086      07CC1AD7 
 1086      38F2E1C6 
 1087 1f20 C925920D 		.ascii	"\311%\222\015\261l$\322\264\371\222\255(\351Y\301\003"
 1087      B16C24D2 
 1087      B4F992AD 
 1087      28E959C1 
 1087      03
 1088 1f31 079291CB 		.ascii	"\007\222\221\313\013\354\243\0213\033\247\246\221\262"
ARM GAS  D:\Dev\msys64\tmp\ccQoZ9BW.s 			page 81


 1088      0BECA311 
 1088      331BA7A6 
 1088      91B2
 1089 1f3f 82       		.ascii	"\202"
 1090 1f40 469E69AE 		.ascii	"F\236i\256NB\222\254\205\343u\033\224\357\350\253\324"
 1090      4E4292AC 
 1090      85E3751B 
 1090      94EFE8AB 
 1090      D4
 1091 1f51 9E182578 		.ascii	"\236\030%x\346\326\223\371+.\311\212\313H\345\015\177"
 1091      E6D693F9 
 1091      2B2EC98A 
 1091      CB48E50D 
 1091      7F
 1092 1f62 70373D65 		.ascii	"p7=ev\250\316[\337\2726\017\355n\337\262\360\024\225"
 1092      76A8CE5B 
 1092      DFBA360F 
 1092      ED6EDFB2 
 1092      F01495
 1093 1f75 32196A67 		.ascii	"2\031jg\224\363\222G?\352J\205{1X\212G\350\364\303e"
 1093      94F39247 
 1093      3FEA4A85 
 1093      7B31588A 
 1093      47E8F4C3 
 1094 1f8a 518AF81C 		.ascii	"Q\212\370\034\204!X\350\013\320\260\337.6\012\346U\332"
 1094      842158E8 
 1094      0BD0B0DF 
 1094      2E360AE6 
 1094      55DA
 1095 1f9c A77C12B7 		.ascii	"\247|\022\267\230\346\035\350B\363\322\035\301\011\265"
 1095      98E61DE8 
 1095      42F3D21D 
 1095      C109B5
 1096 1fab 3FD45670 		.ascii	"?\324Vp\214\326\331\364t\257eZ\366\345\253\244\226\032"
 1096      8CD6D9F4 
 1096      74AF655A 
 1096      F6E5ABA4 
 1096      961A
 1097 1fbd AB6C5132 		.ascii	"\253lQ2\006\375\245Do\360\227z\005\263z\005\200\366"
 1097      06FDA544 
 1097      6FF0977A 
 1097      05B37A05 
 1097      80F6
 1098 1fcf 316965AF 		.ascii	"1ie\257CQ<4\011j\377\000\336\036\177\325\313\362\302"
 1098      43513C34 
 1098      096AFF00 
 1098      DE1E7FD5 
 1098      CBF2C2
 1099 1fe2 CF41DD78 		.ascii	"\317A\335x\267m\336\324O\202\326\372~\264\225k\011\016"
 1099      B76DDED4 
 1099      4F82D6FA 
 1099      7EB4956B 
 1099      090E
 1100 1ff4 4994A9AE 		.ascii	"I\224\251\2568i'\220\\\214\241\224e`\014\324\365\027"
 1100      38692790 
 1100      5C8CA194 
 1100      65600CD4 
ARM GAS  D:\Dev\msys64\tmp\ccQoZ9BW.s 			page 82


 1100      F517
 1101 2006 6A1D511D 		.ascii	"j\035Q\035\004\201\225v\311\234\"\307\366\200p~$\025"
 1101      04819576 
 1101      C99C22C7 
 1101      F680707E 
 1101      2415
 1102 2018 E8F67FAC 		.ascii	"\350\366\177\254hue\255\223B\341\035d{ONvs\035\376\025"
 1102      687565AD 
 1102      9342E11D 
 1102      647B4F4E 
 1102      76731DFE 
 1103 202d FD378C9D 		.ascii	"\3757\214\235\345\247\2621r\307F_\315\004l\200R\236"
 1103      E5A7B231 
 1103      72C7465F 
 1103      CD046C80 
 1103      529E
 1104 203f 4A8702B5 		.ascii	"J\207\002\265\\L\236\236X\245\001\314s\013\\\017Py\256"
 1104      5C4C9E9E 
 1104      58A501CC 
 1104      730B5C0F 
 1104      5079AE
 1105 2052 34BFD2B2 		.ascii	"4\277\322\262\212\371p\245\217\034\021N\346\267\035"
 1105      8AF970A5 
 1105      8F1C114E 
 1105      E6B71D
 1106 2061 3057576B 		.ascii	"0WWk\275EO\246\264\375MuK\307\020o\014l?}\335\007\325"
 1106      BD454FA6 
 1106      B4FD4D75 
 1106      4BC7106F 
 1106      0C6C3F7D 
 1107 2078 723544CF 		.ascii	"r5D\317\251\251\222iO\024\2228\275\307\314\222\275\015"
 1107      A9A99269 
 1107      4F149238 
 1107      BDC7CC92 
 1107      BD0D
 1108 208a 127CB3E9 		.ascii	"\022|\263\351\177\303\365\315)M\364x\032\212<>\0311"
 1108      7FC3F5CD 
 1108      294DF478 
 1108      1A8A3C3E 
 1108      1931
 1109 209c D085E2AC 		.ascii	"\320\205\342\254\206\3763D\323\344\345\217-\307\203"
 1109      86FE3344 
 1109      D3E4E58F 
 1109      2DC783
 1110 20ab E76BD9AD 		.ascii	"\347k\331\255\227\337\002!*\020\361\301\010G$\002!^"
 1110      97DF0221 
 1110      2A10F1C1 
 1110      08472402 
 1110      215E
 1111 20bd A4B5D5D5 		.ascii	"\244\265\325\325Bel\\\020\377\000\315\225\3426\375]"
 1111      42656C5C 
 1111      10FF00CD 
 1111      95E236FD 
 1111      5D
 1112 20ce FB297F93 		.ascii	"\373)\177\223\310q\303Yms\274\233V\314\246K`\363R\203"
 1112      C871C359 
 1112      6D73BC9B 
ARM GAS  D:\Dev\msys64\tmp\ccQoZ9BW.s 			page 83


 1112      56CCA64B 
 1112      60F35283 
 1113 20e2 839DBE6B 		.ascii	"\203\235\276k\321\222\307qkK\233Leo\342\211\315\220"
 1113      D192C771 
 1113      6B4B9B4C 
 1113      656FE289 
 1113      CD90
 1114 20f4 7E455096 		.ascii	"~EP\226)\"w\004\314{]\370\\\322\023(`\271h\253\216\007"
 1114      29227704 
 1114      CC7B5DF8 
 1114      5CD21328 
 1114      60B968AB 
 1115 210a 494F59FF 		.ascii	"IOY\377\000\001R\320\311\201\031,\307\272\360?\023O"
 1115      000152D0 
 1115      C981192C 
 1115      C7BAF03F 
 1115      134F
 1116 211c E5C4BDAB 		.ascii	"\345\304\275\2536\212\272\\\256\016\247\215\2040;\015"
 1116      368ABA5C 
 1116      AE0EA78D 
 1116      84303B0D 
 1117 212c 90788BFC 		.ascii	"\220x\213\374\260:\355\364T\264u\225\327\353\314T\355"
 1117      B03AEDF4 
 1117      54B47595 
 1117      D7EBCC54 
 1117      ED
 1118 213d 69744DF1 		.ascii	"itM\361H\007\336\316\300}Wf\350])K\247\355\321f&\232"
 1118      4807DECE 
 1118      C07D5766 
 1118      E85D294B 
 1118      A7EDD166 
 1119 2153 A2D1C4EC 		.ascii	"\242\321\304\354{\203\036\350\370*Ydh\216\371\177\331"
 1119      7B831EE8 
 1119      F82A5964 
 1119      688EF97F 
 1119      D9
 1120 2164 9DCACB65 		.ascii	"\235\312\313e\351W\303\367\177\013\376MO\244{'\272\333"
 1120      E957C3F7 
 1120      7F0BFE4D 
 1120      4FA47B27 
 1120      BADB
 1121 2176 688C7100 		.ascii	"h\214q\000\301#\270\213\247p\004\374\206\352\375\307"
 1121      C123B88B 
 1121      A77004FC 
 1121      86EAFDC7 
 1122 2186 445EE898 		.ascii	"D^\350\230^`l\354\037\362_\223\364+gk\313\325E\216\310"
 1122      5E606CEC 
 1122      1FF25F93 
 1122      F42B676B 
 1122      CBD5458E 
 1123 219b 2A68BBAE 		.ascii	"*h\273\256\370\310\326x\371`\257\005\232\215\227\373"
 1123      F8C8D678 
 1123      F960AF05 
 1123      9A8D97FB 
 1124 21ab D58E3B7B 		.ascii	"\325\216;{\036\371\343=\345L\214\004\006\014x\207\325"
 1124      1EF9E33D 
 1124      E54C8C04 
ARM GAS  D:\Dev\msys64\tmp\ccQoZ9BW.s 			page 84


 1124      060C7887 
 1124      D5
 1125 21bc 453ADD4E 		.ascii	"E:\335N\335\351-\247\237\251\320i\034\334%&\346\360"
 1125      DDE92DA7 
 1125      9FA9D069 
 1125      1CDC2526 
 1125      E6F0
 1126 21ce 60DA42A9 		.ascii	"`\332B\251\366\353\374S<B\316\000X\3630 7\317\346\266"
 1126      F6EBFC53 
 1126      3C42CE00 
 1126      58F33020 
 1126      37CFE6B6 
 1127 21e2 F5EE2357 		.ascii	"\365\356#W\024r\301)|O\001\240\0311\037?x\343\237\226"
 1127      1472C129 
 1127      7C4F01A0 
 1127      19311F3F 
 1127      78E39F96 
 1128 21f6 EBC6ED03 		.ascii	"\353\306\355\003J\301_J\373\2054`U\3028\236\033\267"
 1128      4AC15F4A 
 1128      FB853460 
 1128      55C2389E 
 1128      1BB7
 1129 2208 78D1B905 		.ascii	"x\321\271\005'gW\211+\355\356\242\252l09\200\230\203"
 1129      27675789 
 1129      2BEDEEA2 
 1129      AA6C3039 
 1129      809883
 1130 221b 5D877071 		.ascii	"]\207pq\021\356\364\307%\317Sb\324\305ja\355\332;h\352"
 1130      11EEF4C7 
 1130      25CF5362 
 1130      D4C56A61 
 1130      EDDA3B68 
 1131 2230 7A49BD24 		.ascii	"zI\275$\337\017\246{\022R\322\3223\212\010\343|\022"
 1131      DF0FA67B 
 1131      1252D2D2 
 1131      338A08E3 
 1131      7C12
 1132 2242 9E2691F7 		.ascii	"\236&\221\367N?LeV5O\357\"\226(\3613\036Z\032\017\021"
 1132      4E3F4C65 
 1132      56354FEF 
 1132      229628F1 
 1132      331E5A1A 
 1133 2258 91BD47A0 		.ascii	"\221\275G\240<\306\347u;l\263\373Xx\220\010\330\354"
 1133      3CC6E775 
 1133      3B6CB3FB 
 1133      58789008 
 1133      D8EC
 1134 226a 832789E7 		.ascii	"\203'\211\347!\315q=7\310*\334\257\241\2660\324H\356"
 1134      21CD713D 
 1134      37C82ADC 
 1134      AFA1B630 
 1134      D448EE
 1135 227d 37E43491 		.ascii	"7\3444\221\202\341\353\217%\207z\371\311\351\354}%\203"
 1135      82E1EB8F 
 1135      25877AF9 
 1135      C9E9EC7D 
 1135      2583
ARM GAS  D:\Dev\msys64\tmp\ccQoZ9BW.s 			page 85


 1136 228f 1FD4B6A8 		.ascii	"\037\324\266\250\337\007\266D\332h\351f\031{\034\336"
 1136      DF07B644 
 1136      DA68E966 
 1136      197B1CDE 
 1137 229f 124BB9E7 		.ascii	"\022K\271\347\315r\227i\272e\272r\373\232F\226\333\352"
 1137      CD729769 
 1137      BA65BA72 
 1137      FB9A4696 
 1137      DBEA
 1138 22b1 C192218F 		.ascii	"\301\222!\217p\347v\376\353\2535\005\361\325\260\230"
 1138      70E776FE 
 1138      EBAB3505 
 1138      F1D5B098 
 1139 22c1 616814AF 		.ascii	"ah\024\257 \202F\034\010Z\203\266\232&\324\351\003>"
 1139      2082461C 
 1139      085A83B6 
 1139      9A26D4E9 
 1139      033E
 1140 22d3 3C74D335 		.ascii	"<t\3235\315w\241;\256\272y\265\"\363K\034\032\015\011"
 1140      CD77A13B 
 1140      AEBA79B5 
 1140      22F34B1C 
 1140      1A0D09
 1141 22e6 12AF44E2 		.ascii	"\022\257D\342w\213T\215Q\265H9/\034\330H\305#TlR5\011"
 1141      778B548D 
 1141      51B54839 
 1141      2F1CD848 
 1141      C523546C 
 1142 22fd 246291AA 		.ascii	"$b\221\2526\362R3\220BM-\332~\232\276\3365Yc\033QUM"
 1142      36F25233 
 1142      90424D2D 
 1142      DA7E9ABE 
 1142      DE355963 
 1143 2315 301ECD1C 		.ascii	"0\036\315\034L!\215\035Z\\}\334sXOj\275\235G\244\364"
 1143      4C218D1D 
 1143      5A5C7DDC 
 1143      73584F6A 
 1143      BD9D47A4 
 1144 232a 4535CE5A 		.ascii	"E5\316Z\226\266\344\371\232\327\304\316G#\241\347\237"
 1144      96B6E4F9 
 1144      9AD7C4CE 
 1144      4723A1E7 
 1144      9F
 1145 233b C9753316 		.ascii	"\311u3\026\005\333N\231\032\227DT\265\271\366\232<\324"
 1145      05DB4E99 
 1145      1A974454 
 1145      B5B9F69A 
 1145      3CD4
 1146 234d C43CCB46 		.ascii	"\304<\313F\341eT\256d\315T[\211\244\316&\236\272p\334"
 1146      E16554AE 
 1146      64CD545B 
 1146      89A4CE26 
 1146      9EBA70DC 
 1147 2361 4DBB3A15 		.ascii	"M\273:\025U\265\374\022\264\267\213\011*\231,\2228\027"
 1147      55B5FC12 
 1147      B4B78B09 
 1147      2A992C92 
ARM GAS  D:\Dev\msys64\tmp\ccQoZ9BW.s 			page 86


 1147      3817
 1148 2373 1241E407 		.ascii	"\022A\344\007.\205@i\333\030\314\207\210\371)\364\342"
 1148      2E854069 
 1148      DB18CC87 
 1148      88F929F4 
 1148      E2
 1149 2384 7AF6432F 		.ascii	"z\366C/\351G\261G\\'\252\2128\332\357\033\203r9\356"
 1149      E947B147 
 1149      5C27AA8A 
 1149      38DAEF1B 
 1149      837239EE 
 1150 2398 577EE8CB 		.ascii	"W~\350\313<6\0353m\267S\267\205\220\304\320A\030%\330"
 1150      3C361D33 
 1150      6DB753B7 
 1150      8590C4D0 
 1150      411825D8 
 1151 23ac DFF32BE7 		.ascii	"\337\363+\347\245\262Og\255\246\250{Y\301\024\215\220"
 1151      A5B24F67 
 1151      ADA6A87B 
 1151      59C1148D 
 1151      90
 1152 23bd 31DC9D82 		.ascii	"1\334\235\202\016\017\242\356\276\310u\270\327:u\325"
 1152      0E0FA2EE 
 1152      BEC875B8 
 1152      D73A75D5 
 1153 23cd 8FA714F5 		.ascii	"\217\247\024\3654\362w2\260\037\0118\004\021\362*T\022"
 1153      34F27732 
 1153      B01F0938 
 1153      0411F22A 
 1153      5412
 1154 23df E8F3B550 		.ascii	"\350\363\265PqYH\317P\204\207\221W0\212\225Q\253\271"
 1154      715948CF 
 1154      50848791 
 1154      57308A95 
 1154      51ABB9
 1155 23f2 51D19E1A 		.ascii	"Q\321\236\032\252\250!v3\302\371\0008^&\250\326\026"
 1155      AAA82176 
 1155      33C2F900 
 1155      385E26A8 
 1155      D616
 1156 2404 DB358E6A 		.ascii	"\3335\216j\366\324\303P\361\341\211\221<8\275\376C\321"
 1156      F6D4C350 
 1156      F1E18991 
 1156      3C38BDFE 
 1156      43D1
 1157 2416 53722D18 		.ascii	"Sr-\030\266k\036\325\356\327\272k\214\266\352\352\370"
 1157      B66B1ED5 
 1157      EED7BA6B 
 1157      8CB6EAEA 
 1157      F8
 1158 2427 5D4720E2 		.ascii	"]G \342lP\354xs\267\032\304\364\345\007\363Z\330\341"
 1158      6C50EC78 
 1158      73B71AC4 
 1158      F4E507F3 
 1158      5AD8E1
 1159 243a 648C6F1B 		.ascii	"d\214o\033\261\271\335xw+\215M\306\266j\252\367\037"
 1159      B1B9DD78 
ARM GAS  D:\Dev\msys64\tmp\ccQoZ9BW.s 			page 87


 1159      772B8D4D 
 1159      C6B66AAA 
 1159      F71F
 1160 244c 6895E5EE 		.ascii	"h\225\345\356'\364\372-\205\330\305\211\365\2673q\224"
 1160      27F4FA2D 
 1160      85D8C589 
 1160      F5B73371 
 1160      94
 1161 245d 3853C030 		.ascii	"8S\3000\011\345\225\235\2679`\364\224}:\362\315\317"
 1161      09E5959D 
 1161      B73960F4 
 1161      947D3AF2 
 1161      CDCF
 1162 246f 68A3A6B2 		.ascii	"h\243\246\262\331!\204\026G\004L\313\234\356\\\267%"
 1162      D9218416 
 1162      47044CCB 
 1162      9CEE5CB7 
 1162      25
 1163 2480 71B76DB7 		.ascii	"q\267m\267\366_\265\325\306z:\227MF\037\335\261\334"
 1163      F65FB5D5 
 1163      C67A3A97 
 1163      4D461FDD 
 1163      B1DC
 1164 2492 5B60792C 		.ascii	"[`y,\337\267n\324\344\272U\324X\254\323\210\355\321"
 1164      DFB76ED4 
 1164      E4BA55D4 
 1164      58ACD388 
 1164      EDD1
 1165 24a4 12C91EC3 		.ascii	"\022\311\036\303\375g\016c\375?\272\320\225S\223\227"
 1165      FD670E63 
 1165      FD3FBAD0 
 1165      95539397 
 1166 24b4 3B727AAD 		.ascii	";rz\255+\216\216\272m\026W\251iz\212\327\005ET\035\354"
 1166      2B8E8EBA 
 1166      6D1657A9 
 1166      697A8AD7 
 1166      0545541D 
 1167 24c9 B2980B87 		.ascii	"\262\230\013\207\033q\227c;\356\262]N\353\005\016\225"
 1167      1B719763 
 1167      3BEEB25D 
 1167      4EEB050E 
 1167      95
 1168 24da ABA38A78 		.ascii	"\253\243\212x_u\216h\335O\2149\3559\361d\216[,\005\363"
 1168      5F758E68 
 1168      DD4F8C39 
 1168      ED39F164 
 1168      8E5B2C05 
 1169 24ef CDDD70F7 		.ascii	"\315\335p\367\217\307\220)h)\235X\362\300\3163\346\336"
 1169      8FC79029 
 1169      68299D58 
 1169      F2C0CE33 
 1169      E6DE
 1170 2501 6BAAB36A 		.ascii	"k\252\263j8Y\245\347\3512\033\001\324U\222w\2643\011"
 1170      3859A5E7 
 1170      E9321B01 
 1170      D4559277 
 1170      B43309
ARM GAS  D:\Dev\msys64\tmp\ccQoZ9BW.s 			page 88


 1171 2514 9ECC7D9B 		.ascii	"\236\314}\233K\013\361\376\203\272\3306=aWI\335\301"
 1171      4B0BF1FE 
 1171      83BAD836 
 1171      3D615749 
 1171      DDC1
 1172 2526 71A7A6F6 		.ascii	"q\247\246\366\206l]P\303\023\307\314\014ay\032\036\311"
 1172      866C5D50 
 1172      C313C7CC 
 1172      0C61791A 
 1172      1EC9
 1173 2538 ED56D6BA 		.ascii	"\355V\326\272Fp\324\302_\207\215\213KFp\262:\255AUN"
 1173      4670D4C2 
 1173      5F878D8B 
 1173      4B4670B2 
 1173      3AAD4155 
 1174 254d 228AE74A 		.ascii	"\"\212\347J\312\246\306<2\266<H\321\352:\205\242\253"
 1174      CAA6C63C 
 1174      32B63C48 
 1174      D1EA3A85 
 1174      A2AB
 1175 255f 548C6E38 		.ascii	"T\214n8x6\035\257P\333\335`\232@\370)\247{\370\234\326"
 1175      78361DAF 
 1175      50DBDD60 
 1175      9A40F829 
 1175      A77BF89C 
 1176 2574 C9904639 		.ascii	"\311\220F9\257GC\337)\3567\222a\215\304\206\001\336"
 1176      AF4743DF 
 1176      29EE3792 
 1176      618DC486 
 1176      01DE
 1177 2586 743BAC1E 		.ascii	"t;\254\036\335-\276\377\000m\224\333\244\244l\221\343"
 1177      DD2DBEFF 
 1177      006D94DB 
 1177      A4A46C91 
 1177      E3
 1178 2597 BC89ECE1 		.ascii	"\274\211\354\341p\365Y\037g\231\250\272;\330\331\210"
 1178      70F5591F 
 1178      6799A8BA 
 1178      3BD8D988 
 1179 25a7 E292381C 		.ascii	"\342\2228\034\3577\035\316=0\273K\0309\263}\301\375"
 1179      EF371DCE 
 1179      3D30BB4B 
 1179      1839B37D 
 1179      C1FD
 1180 25b9 167AB729 		.ascii	"\026z\267)\311Z8@h\351\261\372%^qQ\251\034\234\230y"
 1180      C95A3840 
 1180      68E9B1FA 
 1180      255E7151 
 1180      A91C9C98 
 1181 25ce A1035C91 		.ascii	"\241\003\\\221)\346\232y\253 4\362?\025V\264f\216\240"
 1181      29E69A79 
 1181      AB2034F2 
 1181      3F1556B4 
 1181      668EA0
 1182 25e1 7FD9BBF4 		.ascii	"\177\331\273\364V\217/\232\206F\361\265\315<\234\010"
 1182      568F2F9A 
 1182      8646F1B5 
ARM GAS  D:\Dev\msys64\tmp\ccQoZ9BW.s 			page 89


 1182      CD3C9C08 
 1183 25f1 52BB0B89 		.ascii	"R\273\013\211#\213\3340\342\016y\236hV\256\360:\222"
 1183      238BDC30 
 1183      E20E799E 
 1183      6856AEF0 
 1183      3A92
 1184 2603 ED5B4EFF 		.ascii	"\355[N\377\000z9\236\323\362*\232\366b\362\221\372L"
 1184      007A399E 
 1184      D3F22A9A 
 1184      F662F291 
 1184      FA4C
 1185 2615 649C5343 		.ascii	"d\234SC\220\204+\026\004\207\227,\245@\347\267?D\306"
 1185      90842B16 
 1185      0487972C 
 1185      A540E7B7 
 1185      3F44C6
 1186 2628 433AF3B3 		.ascii	"C:\363\263\331\343\251\321vy! \263\331\230?%\222\216"
 1186      D9E3A9D1 
 1186      76792120 
 1186      B3D9983F 
 1186      25928E
 1187 263b 4B9D3B23 		.ascii	"K\235;#\355\026\033\014\015\264\336\234[A\234\303?H"
 1187      ED161B0C 
 1187      0DB4DE9C 
 1187      5B419CC3 
 1187      3F48
 1188 264d FD0ADEF6 		.ascii	"\375\012\336\366\373\325\272\343\030\222\222\272\236"
 1188      FBD5BAE3 
 1188      189292BA 
 1188      9E
 1189 265a 661008E0 		.ascii	"f\020\010\340\220\037\311x\327T\343&|&\277Ie\027K+\207"
 1189      901FC978 
 1189      D754E326 
 1189      7C26BF49 
 1189      65174B2B 
 1190 266f C9E96772 		.ascii	"\311\351gr\274\235Mu\212\317a\255\257\235\301\254\206"
 1190      BC9D4D75 
 1190      8ACF61AD 
 1190      AF9DC1AC 
 1190      86
 1191 2680 27387A9C 		.ascii	"'8z\234l\024\227+\335\266\333\003\246\256\256\246\206"
 1191      6C14972B 
 1191      DDB6DB03 
 1191      A6AEAEA6 
 1191      86
 1192 2691 3033F692 		.ascii	"03\366\222\201\262\347\336\326\273Bn\245-\266\332\234"
 1192      81B2E7DE 
 1192      D6BB426E 
 1192      A52DB6DA 
 1192      9C
 1193 26a2 E16D8DDC 		.ascii	"\341m\215\334Oy\333\276p\345\360\003\363Jiv<!\242\320"
 1193      4F79DBBE 
 1193      70E5F003 
 1193      F34A6976 
 1193      3C21A2D0 
 1194 26b6 D9A8B52C 		.ascii	"\331\250\265,}>\345\016\31358\267\352\371\335_ \024"
 1194      7D3EE50E 
ARM GAS  D:\Dev\msys64\tmp\ccQoZ9BW.s 			page 90


 1194      CB3538B7 
 1194      EAF9DD5F 
 1194      2014
 1195 26c8 F740E64A 		.ascii	"\367@\346J\347r\0169-q\371\345\2775\212Q\\\352\354\227"
 1195      E7720E39 
 1195      2D71F9E5 
 1195      BF358A51 
 1195      5CEAEC97 
 1196 26dc 97D5DAAA 		.ascii	"\227\325\332\252\035\024\261J\356\0274\3448d\217\242"
 1196      1D14B14A 
 1196      EE1734E4 
 1196      38648FA2 
 1197 26ec F310BD55 		.ascii	"\363\020\275UZ\313\177+\007\331\307K\010\312R\371X7"
 1197      5ACB7F2B 
 1197      07D9C74B 
 1197      08CA52F9 
 1197      5837
 1198 26fe EE95EDAA 		.ascii	"\356\225\355\252\206XY\036\241\202Zi\200\000\315\033"
 1198      8658591E 
 1198      A1825A69 
 1198      8000CD1B 
 1199 270e 7898     		.ascii	"x\230"
 1200 2710 EF53E4BD 		.ascii	"\357S\344\275\253\267l:f\222\231\317\244\232j\331\261"
 1200      ABB76C3A 
 1200      669299CF 
 1200      A49A6AD9 
 1200      B1
 1201 2721 B3238C8F 		.ascii	"\263#\214\217\251<\2275!qz87\223\004\274&\232R\335\312"
 1201      A93C9735 
 1201      21717A38 
 1201      379304BC 
 1201      269A52DD 
 1202 2736 FC190EB6 		.ascii	"\374\031\016\266\325\225\372\262\347\355U\256\341\211"
 1202      D595FAB2 
 1202      E7ED55AE 
 1202      E189
 1203 2744 8488A169 		.ascii	"\204\210\241i\360\260|?u\217!!\377\000\346\026\210\305"
 1203      F0B07C3F 
 1203      758F2121 
 1203      FF00E616 
 1203      88C5
 1204 2756 45611EA5 		.ascii	"Ea\036\245uF\270\250Aa\036n\240\377\000\200\377\000"
 1204      7546B8A8 
 1204      41611E6E 
 1204      A0FF0080 
 1204      FF00
 1205 2768 BC1636B2 		.ascii	"\274\0266\262\253\205E3#l5\261\271\360\314wtg\307\031"
 1205      AB854533 
 1205      236C35B1 
 1205      B9F0CC77 
 1205      7467C719 
 1206 277c E8E6F9E3 		.ascii	"\350\346\371\343\311xw\013t\224\215d\314s&\243\227\372"
 1206      C978770B 
 1206      74948D64 
 1206      CC7326A3 
 1206      97FA
 1207 278e 5511FB8E 		.ascii	"U\021\373\216\364\307G\177i\345\3213\311\360\277\342"
ARM GAS  D:\Dev\msys64\tmp\ccQoZ9BW.s 			page 91


 1207      F4C7477F 
 1207      69E5D133 
 1207      C9F0BFE2 
 1208 279e 096ED63F 		.ascii	"\011n\326?\266\012HBE'\210\034\374\276k\324\266\323"
 1208      B60A4842 
 1208      4527881C 
 1208      FCBE6BD4 
 1208      B6D3
 1209 27b0 C50D21B9 		.ascii	"\305\015!\271W\263\216\235\247\206\030]\316\241\375"
 1209      57B38E9D 
 1209      A786185D 
 1209      CEA1FD
 1210 27bf 47FA4737 		.ascii	"G\372G7\037\203z\250mT>\335P\367=\305\224\220\216\362"
 1210      1F837AA8 
 1210      6D543EDD 
 1210      50F73DC5 
 1210      94908EF2 
 1211 27d3 A261F71B 		.ascii	"\242a\367\033\377\000\354y\004\333\245w\267T\0071\242"
 1211      FF00EC79 
 1211      04DBA577 
 1211      B7540731 
 1211      A2
 1212 27e4 38236864 		.ascii	"8#hd1\216Mg\227\356\252\376\001\035md\325\323\031j^"
 1212      318E4D67 
 1212      97EEAAFE 
 1212      011D6D64 
 1212      D5D3196A 
 1213 27f9 5CEE4D6F 		.ascii	"\\\356Mo \301\320\001\320~\252\272\022\253\014\213\033"
 1213      20C1D001 
 1213      D07EAABA 
 1213      12AB0C8B 
 1213      1B
 1214 280a 8C6E0637 		.ascii	"\214n\0067\026;\315\247\205z\021^\253\330\003\015K\245"
 1214      163BCDA7 
 1214      857A115E 
 1214      ABD8030D 
 1214      4BA5
 1215 281c 6FE195A1 		.ascii	"o\341\225\241\343\363^r_\212\016\215\331\374?G\025\312"
 1215      E3F35E72 
 1215      5F8A0E8D 
 1215      D9FC3F47 
 1215      15CA
 1216 282e FD0CCFA6 		.ascii	"\375\014\317\246\247\205\335\366Or\316\020\356\026\344"
 1216      A785DDF6 
 1216      4F72CE10 
 1216      EE16E4
 1217 283d 673B733D 		.ascii	"g;s=\027QT\305\337\323\311\020{\343\343\005\241\354"
 1217      175154C5 
 1217      DFD3C910 
 1217      7BE3E305 
 1217      A1EC
 1218 284f 382DF507 		.ascii	"8-\365\007\315r\037`\227\230\355\272\2002g`6F\311\361"
 1218      CD721F60 
 1218      9798EDBA 
 1218      80326760 
 1218      3646C9F1 
 1219 2863 69F0B8FC 		.ascii	"i\360\270\374\266]Y~\271MCn\357h)\335WU/\206\030\333"
ARM GAS  D:\Dev\msys64\tmp\ccQoZ9BW.s 			page 92


 1219      B65D597E 
 1219      B94D436E 
 1219      EF6829DD 
 1219      57552F86 
 1220 2879 C89C7327 		.ascii	"\310\234s'\240X\265\321\223\2241\360r\322MV\355s\371"
 1220      A058B5D1 
 1220      939431F0 
 1220      72D24D56 
 1220      ED73F9
 1221 288c CFEE35FF 		.ascii	"\317\3565\377\000hZbZ;q\256\212\272\246\242\006<f\031"
 1221      00685A62 
 1221      5A3B71AE 
 1221      8ABAA6A2 
 1221      063C6619 
 1222 28a0 9FC5C20E 		.ascii	"\237\305\302\016\331\005z]\217H\327\333*\331\335\267"
 1222      D9057A5D 
 1222      8F48D7DB 
 1222      2AD9DDB7 
 1223 28b0 8D92FF00 		.ascii	"\215\222\377\000P\014\027g~}TZ\247R\303s\322U\364\323"
 1223      500C1767 
 1223      7E7D545A 
 1223      A752C373 
 1223      D255F4D3 
 1224 28c4 F1515C18 		.ascii	"\361Q\\\030Z\311)\337\357\037\020\344<\275V7\331\345"
 1224      5AC929DF 
 1224      EF1F10E4 
 1224      3CBD5637 
 1224      D9E5
 1225 28d6 E6B6DF76 		.ascii	"\346\266\337v\216\226\222#SOP\341\336F\321\222\315\375"
 1225      8E969223 
 1225      534F50E1 
 1225      DE46D192 
 1225      CDFD
 1226 28e8 ECAD4A36 		.ascii	"\354\255J6\331\243\224%\332\350\362\334\351\247\310"
 1226      D9A39425 
 1226      DAE8F2DC 
 1226      E9A7C8
 1227 28f7 4270EA4B 		.ascii	"Bp\352K\237\372\354\335ohsH;\2020\264,\325\002\313\252"
 1227      9FFAECDD 
 1227      6F687348 
 1227      3B8230B4 
 1227      2CD502CB 
 1228 290c 2BA4637B 		.ascii	"+\244c{\311!\235\315\215\245\330\033\036\253z\325\324"
 1228      C9219DCD 
 1228      8DA5D81B 
 1228      1EAB7AD5 
 1228      D4
 1229 291d 329A924A 		.ascii	"2\232\222J\211\210k\030\302\343\236\233-\004)\245\274"
 1229      89886B18 
 1229      C2E39E9B 
 1229      2D0429A5 
 1229      BC
 1230 292e 5CEA2A8B 		.ascii	"\\\352*\213H\206YK\313\317\"\011\344\271x\314EM\317"
 1230      4886594B 
 1230      CBCF2209 
 1230      E4B978CC 
 1230      454DCF
ARM GAS  D:\Dev\msys64\tmp\ccQoZ9BW.s 			page 93


 1231 2941 F4E3934F 		.ascii	"\364\343\223O\231S\234\253\215_\257<\033\002\015_[r"
 1231      99539CAB 
 1231      8D5FAF3C 
 1231      1B020D5F 
 1231      5B72
 1232 2953 B6B668DA 		.ascii	"\266\266h\332\332Y9\340\034\207\016Y\031\362^d\223f"
 1232      DA5939E0 
 1232      1C870E59 
 1232      19F25E64 
 1232      9366
 1233 2965 573D80B4 		.ascii	"W=\200\264\270`\374\371\375Ux\230\"\215\214g\272\321"
 1233      B860FCF9 
 1233      FD557898 
 1233      228D8C67 
 1233      BAD1
 1234 2977 8522C73D 		.ascii	"\205\"\307=\273\233\202\302=:\324\225iM\345\373\200"
 1234      BB9B82C2 
 1234      3D3AD495 
 1234      694DE5FB 
 1234      80
 1235 2988 E6B07ED8 		.ascii	"\346\260~\330\352Y\016\210\250a8t\322\261\255\037<\254"
 1235      EA590E88 
 1235      A8613874 
 1235      D2B1AD1F 
 1235      3CAC
 1236 299a E07A2D1B 		.ascii	"\340z-\033\333F\241e\302\357\025\256\225\374P\321\223"
 1236      DB46A165 
 1236      C2EF15AE 
 1236      95FC50D1 
 1236      93
 1237 29ab DE91D643 		.ascii	"\336\221\326C\3769+\323\015\323D\313\243[5*\020\275"
 1237      FE392BD3 
 1237      0DD344CB 
 1237      A35B352A 
 1237      10BD
 1238 29bd 1399DE2D 		.ascii	"\023\231\336-R5D\322\245j\362\015D\214R5D\325(\344\024"
 1238      523544D2 
 1238      A56AF20D 
 1238      448C5235 
 1238      44D528E4 
 1239 29d2 1248D523 		.ascii	"\022H\325#T,\346\246j\241$\314N-\016\005\256\000\264"
 1239      542CE6A6 
 1239      6AA124CC 
 1239      4E2D0E05 
 1239      AE00B4
 1240 29e5 EC41EA14 		.ascii	"\354A\352\024mR\216H\021\307\237\304\016\204v\224\324"
 1240      6D528E48 
 1240      11C79FC4 
 1240      0E847694 
 1240      D4
 1241 29f6 3EDD40C2 		.ascii	">\335@\302-7\007\027\267\003h\344\373\315?\250\364\312"
 1241      2D370717 
 1241      B70368E4 
 1241      FBCD3FA8 
 1241      F4CA
 1242 2a08 D35349C2 		.ascii	"\323SI\302Hn\344.\322\376%h}\263\263\243\266LU,w\303"
 1242      486EE42E 
ARM GAS  D:\Dev\msys64\tmp\ccQoZ9BW.s 			page 94


 1242      D2FE2568 
 1242      7DB3B3A3 
 1242      B64C552C 
 1243 2a1e 98FDD715 		.ascii	"\230\375\327\025N1+\211\346\016\025q\311\356\323t\254"
 1243      4E312B89 
 1243      E60E1571 
 1243      C9EED374 
 1243      AC
 1244 2a2f A937F81F 		.ascii	"\2517\370\037NN\357p\3166\003\315u\007\360\245\252-"
 1244      4E4EEF70 
 1244      CE3603CD 
 1244      7507F0A5 
 1244      AA2D
 1245 2a41 B050D658 		.ascii	"\260P\326X*\036\"\270K1\2362\343\375a\216\237\005\314"
 1245      2A1E22B8 
 1245      4B319E32 
 1245      E3FD618E 
 1245      9F05CC
 1246 2a54 2CE16307 		.ascii	",\341c\007\027>x^\255\246\262\246\202\262\012\310%0"
 1246      173E785E 
 1246      ADA6B2A6 
 1246      82B20AC8 
 1246      2530
 1247 2a66 CD03DB24 		.ascii	"\315\003\333$e\275\0109\004\241\026W\352A\243\350\300"
 1247      65BD0839 
 1247      04A11657 
 1247      EA41A3E8 
 1247      C0
 1248 2a77 390947AA 		.ascii	"9\011G\252\360t=\362=I\245m\227v\014{T-{\333\370_\217"
 1248      F0743DF2 
 1248      3D49A56D 
 1248      97760C7B 
 1248      542D7BDB 
 1249 2a8e 10F91057 		.ascii	"\020\371\020W\275\323'\220C\307k\017\014\347\356\320"
 1249      BDD32790 
 1249      43C76B0F 
 1249      0CE7EED0 
 1250 2a9e E3960D43 		.ascii	"\343\226\015CX\372\260\360\371\037\341\317\":,Q\261"
 1250      58FAB0F0 
 1250      F91FE1CF 
 1250      223A2C51 
 1250      B1
 1251 2aaf 70B4B844 		.ascii	"p\264\270D\327gr\341\314.\203\355\016\315Ow\323\225"
 1251      D76772E1 
 1251      CC2E83ED 
 1251      0ECD4F77 
 1251      D395
 1252 2ac1 1DF47996 		.ascii	"\035\364y\226\001\3361\300x\201\033\225\316\367\253"
 1252      01DE31C0 
 1252      78811B95 
 1252      CEF7AB
 1253 2ad0 9D3D9207 		.ascii	"\235=\222\007K;\272a\255\034\311\362^\016\256\231\302"
 1253      4B3BBA61 
 1253      AD1CC9F2 
 1253      5E0EAE99 
 1253      C2
 1254 2ae1 CFA7DCF4 		.ascii	"\317\247\334\364\364\262\365\027\340\255$uls\237(\201"
ARM GAS  D:\Dev\msys64\tmp\ccQoZ9BW.s 			page 95


 1254      F4B2F517 
 1254      E0AD2475 
 1254      6C739F28 
 1254      81
 1255 2af2 D164F2CE 		.ascii	"\321d\362\316@\302e\317\264\233\335\263N\315i\244\252"
 1255      40C265CF 
 1255      B49BDDB3 
 1255      4ECD69A4 
 1255      AA
 1256 2b03 8618656F 		.ascii	"\206\030eo\010\" \037\302v;\254B\345\256j+$1\322R\305"
 1256      0822201F 
 1256      C2763BAC 
 1256      42E5AE6A 
 1256      2B2431D2 
 1257 2b19 1B4F571C 		.ascii	"\033OW\034\237\212\305\356\265\363\324\313\304D$\365"
 1257      9F8AC5EE 
 1257      B5F3D4CB 
 1257      C44424F5 
 1258 2b29 C2D3A5A6 		.ascii	"\302\323\245\246\350\264\347\3027GO\376\365\301V\252"
 1258      E8B4E7C2 
 1258      37474FFE 
 1258      F5C156AA 
 1259 2b39 5EF1EE2E 		.ascii	"^\361\356.'<\276y\311Tdo\272q\226\0059s\337\341sG\236"
 1259      273CBE79 
 1259      C954646F 
 1259      BA719605 
 1259      3973DFE1 
 1260 2b50 C992377E 		.ascii	"\311\2227~\020\36003\271^\231\246i`\256\032^\360=\334"
 1260      10F03033 
 1260      B95E99A6 
 1260      6960AE1A 
 1260      5EF03DDC 
 1261 2b64 9C059EE8 		.ascii	"\234\005\236\350\013Nk|c\272\252\213\307\302F\003\232"
 1261      0B4E6B7C 
 1261      63BAAA8B 
 1261      C7C24603 
 1261      9A
 1262 2b75 7A7F734F 		.ascii	"z\177sO\237E\205F\"\177\003\235\306\330\375\327\234"
 1262      9F458546 
 1262      227F039D 
 1262      C6D8FDD7 
 1262      9C
 1263 2b86 6784FF00 		.ascii	"g\204\377\000\205\267\264\305\024\324v\212^\365\314"
 1263      85B7B4C5 
 1263      14D4768A 
 1263      5EF5CC
 1264 2b95 98161929 		.ascii	"\230\026\031)%\342\316\010\031s3\325\256o\026\336j\226"
 1264      25E2CE08 
 1264      197333D5 
 1264      AE6F16DE 
 1264      6A96
 1265 2ba7 3C22FA28 		.ascii	"<\"\372('f{6\035\222\206'G3i!\301i\022?\034\360[\303"
 1265      27667B36 
 1265      1D928627 
 1265      47336921 
 1265      C169123F 
 1266 2bbf F4C10B1F 		.ascii	"\364\301\013\037\275Z\035\355R\312\301\214a\244|\006"
ARM GAS  D:\Dev\msys64\tmp\ccQoZ9BW.s 			page 96


 1266      BD5A1DED 
 1266      52CAC18C 
 1266      61A47C06 
 1267 2bcf 56374DAC 		.ascii	"V7M\254\352\355z\342\331%\272A,/\")\343<\234\322ps\353"
 1267      EAED7AE2 
 1267      D925BA41 
 1267      2C2F2229 
 1267      E33C9CD2 
 1268 2be6 8C10B6F6 		.ascii	"\214\020\266\366\251\256\262\033K\256\215\251\210P\006"
 1268      A9AEB21B 
 1268      4BAE8DA9 
 1268      885006
 1269 2bf5 1771E738 		.ascii	"\027q\3478'\230\307\236WJ\237\323\206y>SO\351\\\347"
 1269      2798C79E 
 1269      574A9FD3 
 1269      86793E53 
 1269      4FE95CE7 
 1270 2c09 5AFA7FFA 		.ascii	"Z\372\177\372k{`\222\200\212\312F\260\317\236\027\370"
 1270      6B7B6092 
 1270      808ACA46 
 1270      B0CF9E17 
 1270      F8
 1271 2c1a 7623A823 		.ascii	"v#\250#\311m\036\304\346\246\256\272]\033\004|\020\300"
 1271      C96D1EC4 
 1271      E6A6AEBA 
 1271      5D1B047C 
 1271      10C0
 1272 2c2c E64D1B0F 		.ascii	"\346M\033\017\335.\030-\365\000\3756\\\371K\1775\367"
 1272      DD2E182D 
 1272      F500FD36 
 1272      5CF94B7F 
 1272      35F7
 1273 2c3e 59DB47C5 		.ascii	"Y\333G\305\035 .\373Y\016\356\362\300[\363\370j\241"
 1273      1D202EFB 
 1273      590EEEF2 
 1273      C05BF3F8 
 1273      6AA1
 1274 2c50 3EC77AB9 		.ascii	">\307z\271\222Kf\231\2600\037\302\321\237\335k\223\305"
 1274      924B6699 
 1274      B0301FC2 
 1274      D19FDD6B 
 1274      93C5
 1275 2c62 793C991B 		.ascii	"y<\231\033\254\363BO4\213)@H\224\362L<\220\011\325'"
 1275      ACF3424F 
 1275      348B2940 
 1275      4894F24C 
 1275      3C9009D5 
 1276 2c77 9A10A481 		.ascii	"\232\020\244\201\216P\221\223\2175#\216\370\362Q<\216"
 1276      8E509193 
 1276      8F35238E 
 1276      F8F2513C 
 1276      8E
 1277 2c88 BC958839 		.ascii	"\274\225\2109\217\265\373o\362\355uZ\346\014GT\005C"
 1277      8FB5FB6F 
 1277      F2ED755A 
 1277      E60C4754 
 1277      0543
ARM GAS  D:\Dev\msys64\tmp\ccQoZ9BW.s 			page 97


 1278 2c9a 0FFAB9AC 		.ascii	"\017\372\271\2541o\216\336l^\331e\247\272\303\036f\243"
 1278      316F8EDE 
 1278      6C5ED965 
 1278      A7BAC31E 
 1278      66A3
 1279 2cac 770485BD 		.ascii	"w\004\205\275\030y\347\346\264*\365h\226\350`\373\277"
 1279      1879E7E6 
 1279      B42AF568 
 1279      96E860FB 
 1279      BF
 1280 2cbd 17A857E9 		.ascii	"\027\250W\351\342\375\372.[\355\265\327\031\214v\372"
 1280      E2FDFA2E 
 1280      5BEDB5D7 
 1280      198C76FA 
 1281 2ccd 49EA641D 		.ascii	"I\352d\035\"fp\245\026;\251\257\024B\335U\355d\027\010"
 1281      226670A5 
 1281      163BA9AF 
 1281      1442DD55 
 1281      ED641708 
 1282 2ce1 4C443F1D 		.ascii	"LD?\035N\026\325\354\265\376\333\331\365\302\327b\256"
 1282      4E16D5EC 
 1282      B5FEDBD9 
 1282      F5C2D762 
 1282      AE
 1283 2cf2 8E8350BA 		.ascii	"\216\203P\272b\356\360\270\007\226\355\201\364^>\271"
 1283      62EEF0B8 
 1283      0796ED81 
 1283      F45E3EB9 
 1284 2d02 D43AB2CE 		.ascii	"\324:\262\316m\260])\305%\312\227\211\214\271F\356#"
 1284      6DB05D29 
 1284      C525CA97 
 1284      898CB946 
 1284      EE23
 1285 2d14 3348C11F 		.ascii	"3H\301\037?\011T\365\245\277jE?l\262V\312\270E~\367"
 1285      3F0954F5 
 1285      A5BF6A45 
 1285      3F6CB256 
 1285      CAB8457E 
 1286 2d29 CFE7F061 		.ascii	"\317\347\360a\217\322\232\201\214s\235f\256kZ2I\210"
 1286      8FD29A81 
 1286      8C739D66 
 1286      AE6B5A32 
 1286      4988
 1287 2d3b 80156A8B 		.ascii	"\200\025j\213\035\322\226\210U\324\333\252\241\245p"
 1287      1DD29688 
 1287      55D4DBAA 
 1287      A1A570
 1288 2d4a 044B2B0B 		.ascii	"\004K+\013[\276\303\177\212\333\275\247\352[\305\016"
 1288      5BBEC37F 
 1288      8ADBBDA7 
 1288      EA5BC50E 
 1289 2d5a 8BD33352 		.ascii	"\213\3233RW\2769\252\342w~\340\007\332xG5\356\352B."
 1289      57BE39AA 
 1289      E2777EE0 
 1289      07DA7847 
 1289      35EEEA42 
 1290 2d6f 5D999B59 		.ascii	"]\231\233Y\034S\177*e[<\301f\012\242\276i&\327\271\305"
ARM GAS  D:\Dev\msys64\tmp\ccQoZ9BW.s 			page 98


 1290      1C537F2A 
 1290      655B3CC1 
 1290      660AA2BE 
 1290      6926D7B9 
 1291 2d84 793B928C 		.ascii	"y;\222\214\247\025\206\376\375#B6\313tu\270\334\033"
 1291      A71586FE 
 1291      FD234236 
 1291      CB7475B8 
 1291      DC1B
 1292 2d96 6FA9F620 		.ascii	"o\251\366 \336>\374\260\206p\374QEg\272T\323:\246\212"
 1292      DE3EFCB0 
 1292      8670FC51 
 1292      4567BA54 
 1292      D33AA68A 
 1293 2daa 86AE4A71 		.ascii	"\206\256Jq\316X\230q\365[\346\354\033I\331E\302\321"
 1293      CE589871 
 1293      F55BE6EC 
 1293      1B49D945 
 1293      C2D1
 1294 2dbc 18C3A92D 		.ascii	"\030\303\251-\261\361\371\3618d\255W`\232\357\250\256"
 1294      B1F1F9F1 
 1294      3864AD57 
 1294      609AEFA8 
 1294      AE
 1295 2dcd B6C6DBE4 		.ascii	"\266\306\333\344\216\222\013sb`\215\223p\014\003\222"
 1295      8E920B73 
 1295      62608D93 
 1295      700C0392 
 1296 2ddd 40EA4F3C 		.ascii	"@\352O<.\221\265\3156\372Gju\263\276\022{V\023\357\355"
 1296      2E91B5CD 
 1296      36FA476A 
 1296      75B3BE12 
 1296      7B5613EF 
 1297 2df2 FDCC4A8E 		.ascii	"\375\314J\216\212\256\3418\202\226\236z\211F|\014is"
 1297      8AAEE138 
 1297      82969E7A 
 1297      89467C0C 
 1297      6973
 1298 2e04 879E4744 		.ascii	"\207\236GD\225\324uT3\272\012\330%\202a\315\2227\007"
 1298      95D47554 
 1298      33BA0AD8 
 1298      258261CD 
 1298      923707
 1299 2e17 D164978B 		.ascii	"\321d\227\213\357qS\250i()\337\004\225\365\234]\343"
 1299      EF7153A8 
 1299      692829DF 
 1299      0495F59C 
 1299      5DE3
 1300 2e29 7C2E0C04 		.ascii	"|.\014\004\216\014t\311\372\245\326}\354V]=Mpq}\316"
 1300      8E0C74C9 
 1300      FAA5D67D 
 1300      EC565D3D 
 1300      4D70717D 
 1301 2e3e 286474DC 		.ascii	"(dt\334g\211\355c\235\2265\304o\260\350WH\311\345/\223"
 1301      6789ED63 
 1301      9D9635C4 
 1301      6FB0E857 
ARM GAS  D:\Dev\msys64\tmp\ccQoZ9BW.s 			page 99


 1301      48C9E52F 
 1302 2e53 546D9392 		.ascii	"Tm\223\222\341$\317\016\335e\271\334\343|\226\332\012"
 1302      E124CF0E 
 1302      DD65B9DC 
 1302      E37C96DA 
 1302      0A
 1303 2e64 8AA8D870 		.ascii	"\212\250\330p\347D\314\200\177\312\262t\265\371\262"
 1303      E744CC80 
 1303      7FCAB274 
 1303      B5F9B2
 1304 2e73 363366AE 		.ascii	"63f\256\357\0342\326\030O.\253hv+\025l\272\023R\307"
 1304      EF1C32D6 
 1304      184F2EAB 
 1304      68762B15 
 1304      6CBA1352 
 1305 2e88 6B90475E 		.ascii	"k\220G^e\")\011\306\037\302:\254kV\334\365\266\231\250"
 1305      65222909 
 1305      C61FC23A 
 1305      AC6B56DC 
 1305      F5B699A8 
 1306 2e9c A596E978 		.ascii	"\245\226\351x.\221\355w\001\211\301\333gu\313\325\223"
 1306      2E91ED77 
 1306      0189C1DB 
 1306      6775CBD5 
 1306      93
 1307 2ead 938AC19B 		.ascii	"\223\212\301\233\366\313%t\252\2068\343\234\362b5zn"
 1307      F6CB2574 
 1307      AA8638E3 
 1307      9CF26235 
 1307      7A6E
 1308 2ebf F9474F24 		.ascii	"\371GO$\365v\232\330ag\277$\221\020\002\362\026\344"
 1308      F5769AD8 
 1308      6167BF24 
 1308      911002F2 
 1308      16E4
 1309 2ed1 D6D7BBAD 		.ascii	"\326\327\273\255\247\263j\033}\342\265\3657[\250"
 1309      A7B36A1B 
 1309      7DE2B5F5 
 1309      375BA8
 1310 2ee0 E394C98F 		.ascii	"\343\224\311\217\004|\360?%\247\027Je)\247\223F\212"
 1310      047CF03F 
 1310      25A7174A 
 1310      6529A793 
 1310      468A
 1311 2ef2 F9DD0729 		.ascii	"\371\335\007)\245\3368\310\251\017-\222&\313 \211\216"
 1311      A5DE38C8 
 1311      A90F2D92 
 1311      26CB2089 
 1311      8E
 1312 2f03 7BF90195 		.ascii	"{\371\001\225\324\325)\250\255\314\360u\014\234uM\217"
 1312      D4D529A8 
 1312      ADCCF075 
 1312      0C9C754D 
 1312      8F
 1313 2f14 A342AB41 		.ascii	"\243B\253Ap\250\241s\373\227\003\033\366\222)\007\033"
 1313      70A8A173 
 1313      FB97031B 
ARM GAS  D:\Dev\msys64\tmp\ccQoZ9BW.s 			page 100


 1313      F6922907 
 1313      1B
 1314 2f25 241FDC0E 		.ascii	"$\037\334\016\307\3429(j%3O$\216\346\347o\373(\324\037"
 1314      C7E23928 
 1314      6A25334F 
 1314      248EE6E7 
 1314      6FFB28D4 
 1315 2f3a 98EB350E 		.ascii	"\230\3535\016\373\345g\266OP\311j\251\336H\352(\244"
 1315      FBE567B6 
 1315      4F50C96A 
 1315      A9DE48EA 
 1315      28A4
 1316 2f4c 3B911FDA 		.ascii	";\221\037\332FO\2408#\344JN\346\321\036\357\253\252"
 1316      464FA038 
 1316      23E44A4E 
 1316      E6D11EEF 
 1316      ABAA
 1317 2f5e 9DBF8590 		.ascii	"\235\277\205\220\206\037\251+\313B\256\014\331/\327"
 1317      861FA92B 
 1317      CB42AE0C 
 1317      D92FD7
 1318 2f6d DC5D5303 		.ascii	"\334]S\003)\240\211\264\324lqx\201\2079q\373\317=O\307"
 1318      29A089B4 
 1318      D46C7178 
 1318      81873971 
 1318      FBCF3D4F 
 1319 2f82 E4A8212A 		.ascii	"\344\250!*\260\004!\010T\020\221\037\222\026.Zk\345"
 1319      B0042108 
 1319      5410911F 
 1319      92162E5A 
 1319      6BE5
 1320 2f94 B65C21AA 		.ascii	"\266\\!\252\247\367\343q\360\347\034M\352\027TvY\332"
 1320      A7F7E371 
 1320      F0E71C4D 
 1320      EA175476 
 1320      59DA
 1321 2fa6 5D2D6DA6 		.ascii	"]-m\246\010.2}\233|\015\231\337w\035\035\376W)P\322"
 1321      082E327D 
 1321      9B7C0D99 
 1321      DF771D1D 
 1321      FE572950 
 1322 2fbb C95B571D 		.ascii	"\311[W\035<9\343\220\340\036\215\035J\364+\256\222A"
 1322      3C39E390 
 1322      E01E8D1D 
 1322      4AF42BAE 
 1322      9241
 1323 2fcd 5B136D73 		.ascii	"[\023ms:\030)\007w\023\230p\035\346\357^\"\242j6\255"
 1323      3A182907 
 1323      77139870 
 1323      1DE6EF5E 
 1323      22A26A36 
 1324 2fe2 93594709 		.ascii	"\223YG\011\327-\336\255O\022_\317\354\316\314\325\232"
 1324      D72DDEAD 
 1324      4F125FCF 
 1324      ECCECCD5 
 1324      9A
 1325 2ff3 6E8B53D2 		.ascii	"n\213S\322\232\272\031\2425ma\340\221\204a\373l\034"
ARM GAS  D:\Dev\msys64\tmp\ccQoZ9BW.s 			page 101


 1325      9ABA19A2 
 1325      356D61E0 
 1325      918461FB 
 1325      6C1C
 1326 3005 BD5B7C56 		.ascii	"\275[|V\3359ic\036`\245cX\013\370\210\034N\306\344\236"
 1326      DD396963 
 1326      1E60A563 
 1326      580BF888 
 1326      1C4EC6E4 
 1327 301a AB8D28B5 		.ascii	"\253\215(\265\365\352\225\240q\261\370\030\342\301i"
 1327      F5EA95A0 
 1327      71B1F818 
 1327      E2C169
 1328 3029 FA8C28EE 		.ascii	"\372\214(\356\032\352\365X1\3372/\356nK\207\314\225"
 1328      1AEAF558 
 1328      31DF322F 
 1328      EE6E4B87 
 1328      CC95
 1329 303b C9E9F31D 		.ascii	"\311\351\363\035\216oo\306?\271\311;\025\216\305Z\335"
 1329      8E6F6FC6 
 1329      3FB9C93B 
 1329      158EC55A 
 1329      DD
 1330 304c F39FED93 		.ascii	"\363\237\355\223z\366\265\332\205$T\376\305L\\\350\013"
 1330      7AF6B5DA 
 1330      852454FE 
 1330      C54C5CE8 
 1330      0B
 1331 305d 87135A78 		.ascii	"\207\023Zx_(\375\207\352\242\322\332\246\315z\245\215"
 1331      5F28FD87 
 1331      EAA2D2DA 
 1331      A6CD7AA5 
 1331      8D
 1332 306e B4154C64 		.ascii	"\264\025Ld\255h\006\236O\013\307\236\335W4\317,\223"
 1332      AD68069E 
 1332      4F0BC79E 
 1332      DD5734CF 
 1332      2C93
 1333 3080 CAE9677B 		.ascii	"\312\351g{\344\225\307%\3569\312h$\020A \215\362\016"
 1333      E495C725 
 1333      EE39CA68 
 1333      24104120 
 1333      8DF20E
 1334 3093 14CE98B8 		.ascii	"\024\316\230\270l\217\010\355T\034%\352M\346^\377\000"
 1334      6C8F08ED 
 1334      541C25EA 
 1334      4DE65EFF 
 1334      00
 1335 30a4 8F8475D7 		.ascii	"\217\204u\327\013\216\017\016\336j\032\272\232z(L\265"
 1335      0B8E0F0E 
 1335      DE6A1ABA 
 1335      9A7A284C 
 1335      B5
 1336 30b5 93C70443 		.ascii	"\223\307\004Cr\371\035\214}W.C|\272\301\037\0047J\350"
 1336      72F91D8C 
 1336      7D572E43 
 1336      7CBAC11F 
ARM GAS  D:\Dev\msys64\tmp\ccQoZ9BW.s 			page 102


 1336      04374AE8 
 1337 30c9 D9D00A87 		.ascii	"\331\320\012\207\201\372\252\225U\225Un\342\252\251"
 1337      81FAAA95 
 1337      5595556E 
 1337      E2AAA9
 1338 30d8 9A7779C9 		.ascii	"\232wy\311!q\374\327\017\331_\311\243y\266\365\327i"
 1338      2171FCD7 
 1338      0FD95FC9 
 1338      A379B6F5 
 1338      D769
 1339 30ea D1B61928 		.ascii	"\321\266\031(t\333\263+\262\035V6k\177\320<\375V\237"
 1339      74DBB32B 
 1339      B21D5636 
 1339      6B7FD03C 
 1339      FD569F
 1340 30fd 27277277 		.ascii	"''rw\346I\311\347\237\314\246\241h\256\012\035\025o"
 1340      E649C9E7 
 1340      9FCCA6A1 
 1340      68AE0A1D 
 1340      156F
 1341 310f 22A12255 		.ascii	"\"\241\"U\320\035\340\325#T\015R\265y\006\242f\251\032"
 1341      D01DE0D5 
 1341      23540D52 
 1341      B57906A2 
 1341      66A91A
 1342 3122 542D2A46 		.ascii	"T-*F\241Rf\251\032\241j\221\245AtL\325(*&)Z\250I\217"
 1342      A15266A9 
 1342      1AA16A91 
 1342      A541744C 
 1342      D5282A26 
 1343 313b 768B69FE 		.ascii	"v\213i\376u\243.\264\\9{\241.g\305\273\205\363\372\343"
 1343      75A32EB4 
 1343      5C397BA1 
 1343      2E67C5BB 
 1343      85F3FAE3 
 1344 314f 098EE32C 		.ascii	"\011\216\343,O\030,yi\037\002\276\221\270\002\322\010"
 1344      4F182C79 
 1344      691F02BE 
 1344      91B802D2 
 1344      08
 1345 3160 C823979A 		.ascii	"\310#\227\232\341n\334\254L\323\335\247\334\351ao\014"
 1345      E16EDCAC 
 1345      4CD3DDA7 
 1345      DCE9616F 
 1345      0C
 1346 3171 123DB2C6 		.ascii	"\022=\262\306\017 \0343\372\252\373\236\206\216\316"
 1346      0F201C33 
 1346      FAAAFB9E 
 1346      868ECE
 1347 3180 1C0C0C96 		.ascii	"\034\014\014\226\265\343\033\273\030\001Y\205\316\307"
 1347      B5E31BBB 
 1347      18015985 
 1347      CEC7
 1348 318e 8B04F915 		.ascii	"\213\004\371\025\013\200l\244\236jF;\031>J\017S\246"
 1348      0B806CA4 
 1348      9E6A463B 
 1348      193E4A0F 
ARM GAS  D:\Dev\msys64\tmp\ccQoZ9BW.s 			page 103


 1348      53A6
 1349 31a0 75EFF0BF 		.ascii	"u\357\360\277{\212\273D\311l2\203=\025C\210a\346#v\343"
 1349      7B8ABB44 
 1349      C96C3283 
 1349      3D154388 
 1349      61E62376 
 1350 31b5 E59CADD4 		.ascii	"\345\234\255\324\270s\261\035[\376\311\353z9\252&,\240"
 1350      B873B11D 
 1350      5BFEC9EB 
 1350      7A39AA26 
 1350      2CA0
 1351 31c7 9CF71507 		.ascii	"\234\367\025\007\246\017_\221]\277\024\215\2266\276"
 1351      A60F5F91 
 1351      5DBF148D 
 1351      9636BE
 1352 31d6 321CC700 		.ascii	"2\034\307\000Zz\021\214\204<mU{'\237\221\265<\036\317"
 1352      5A7A118C 
 1352      843C6D55 
 1352      7B279F91 
 1352      B53C1ECF 
 1353 31ea 27784067 		.ascii	"'x@g\011\342'\226:\256\033\355*~\376\375^bw{J$\"/.\034"
 1353      09E22796 
 1353      3AAE1BED 
 1353      2A7EFEFD 
 1353      5E62777B 
 1354 3204 ECBACBB4 		.ascii	"\354\272\313\264\243x\251\241\202\202\321K,\220\324"
 1354      A378A9A1 
 1354      8282D14B 
 1354      2C90D4
 1355 3213 13ED12C7 		.ascii	"\023\355\022\307\321\277\207\346\271g\264\352X\355\267"
 1355      D1BF87E6 
 1355      B967B4EA 
 1355      58EDB7
 1356 3222 B929DF2B 		.ascii	"\271)\337+_#\033\207F\316m<\267\365\\\033\335bX7\370"
 1356      5F231B87 
 1356      46CE6D3C 
 1356      B7F55C1B 
 1356      DD625837 
 1357 3237 9C29B4FD 		.ascii	"\234)\264\375\314*9\242\212\227\307K\000.\331\256\306"
 1357      CC2A39A2 
 1357      8A97C74B 
 1357      002ED9AE 
 1357      C6
 1358 3248 0E3AAF2A 		.ascii	"\016:\257*l=\344\267\014\031\350\245\227\231-q\347\310"
 1358      6C3DE4B7 
 1358      0C19E8A5 
 1358      97992D71 
 1358      E7C8
 1359 325a 95039F9D 		.ascii	"\225\003\237\235\272\256\330=\211}\303\214\200Fq\352"
 1359      BAAED83D 
 1359      897DC38C 
 1359      804671EA 
 1360 326a 99146E9E 		.ascii	"\231\024n\236q\030sC\237\260\317R\243sx\316?E\355\330"
 1360      71187343 
 1360      9FB0CF52 
 1360      A37378CE 
 1360      3F45EDD8 
ARM GAS  D:\Dev\msys64\tmp\ccQoZ9BW.s 			page 104


 1361 327e AD2EAA9C 		.ascii	"\255.\252\2340Fd\250\003\213\270q\307z\3376;\314!\237"
 1361      304664A8 
 1361      038BB871 
 1361      C77ADF36 
 1361      3BCC219F 
 1362 3292 9B25B516 		.ascii	"\233%\265\026\255\032zJ\210\346\214\274\303P|%\222~"
 1362      AD1A7A4A 
 1362      88E68CBC 
 1362      C3507C25 
 1362      927E
 1363 32a4 21BFD0AD 		.ascii	"!\277\320\255\200\332\307\322i\333m\266 \311'51\301"
 1363      80DAC7D2 
 1363      69DB6DB6 
 1363      20C92735 
 1363      31C1
 1364 32b6 00CEE463 		.ascii	"\000\316\344c\304~\001OKg\222\243OM\013\311\222X\032"
 1364      C47E014F 
 1364      4B6792A3 
 1364      4F4D0BC9 
 1364      92581A
 1365 32c9 24A59DCD 		.ascii	"$\245\235\315\304\203\033\226?\317\320\250\364\214\024"
 1365      C4831B96 
 1365      3FCFD0A8 
 1365      F48C14
 1366 32d8 F4F71A67 		.ascii	"\364\367\032g\327\306\035,\315\343\246\225\337\365N"
 1366      D7C61D2C 
 1366      CDE3A695 
 1366      DFF54E
 1367 32e7 CF8C7CCA 		.ascii	"\317\214|\312\3439\347\203\325\252\237Ib=\236\013-\021"
 1367      E339E783 
 1367      D5AA9F49 
 1367      623D9E0B 
 1367      2D11
 1368 32f9 D1CF2BEB 		.ascii	"\321\317+\3533\304\362\356\357\200\344\001\351\353\225"
 1368      33C4F2EE 
 1368      EF80E401 
 1368      E9EB95
 1369 3308 1D1C53DC 		.ascii	"\035\034S\334\255\0254\225\357\225\326\363\227\203\033"
 1369      AD153495 
 1369      EF95D6F3 
 1369      97831B
 1370 3317 B0E611CB 		.ascii	"\260\346\021\313\036k\337\272S\232\375[OI\010s)O\023"
 1370      1E6BDFBA 
 1370      539AFD5B 
 1370      4F490873 
 1370      294F13
 1371 332a DE4742DD 		.ascii	"\336GB\335\216>k\334\222\310c\225\264\024\3406\2368"
 1371      8E3E6BDC 
 1371      92C86395 
 1371      B414E036 
 1371      9E38
 1372 333c 433C5CDE 		.ascii	"C<\\\336\363\314\237\242\205>2\313\335\247SX\366\376"
 1372      F3CC9FA2 
 1372      853E32CB 
 1372      DDA75358 
 1372      F6FE
 1373 334e A601436A 		.ascii	"\246\001Cj\024\365\324\366\333g\024\362T\0266\023\266"
ARM GAS  D:\Dev\msys64\tmp\ccQoZ9BW.s 			page 105


 1373      14F5D4F6 
 1373      DB6714F2 
 1373      54163613 
 1373      B6
 1374 335f 5C1DCB38 		.ascii	"\\\035\3138\353\222\273'\263\3757\016\225\322\364V\310"
 1374      EB92BB27 
 1374      B3FD370E 
 1374      95D2F456 
 1374      C8
 1375 3370 325EC687 		.ascii	"2^\306\207J\363\367\236w'\366Z\223\260\336\313\252\255"
 1375      4AF3F79E 
 1375      7727F65A 
 1375      93B0DECB 
 1375      AAAD
 1376 3382 F7776A1D 		.ascii	"\367wj\035A\202\370\211\024q\023\223\345\306V\376\306"
 1376      4182F889 
 1376      14711393 
 1376      E5C656FE 
 1376      C6
 1377 3393 16C94B72 		.ascii	"\026\311KrH\370k\332Si,r95\011\025\016\000\230\344\256"
 1377      48F86BDA 
 1377      53692C72 
 1377      39350915 
 1377      0E0098E4 
 1378 33a8 29B95240 		.ascii	")\271R@rMq\306\376hr\215\347u$\010\362\241q\330\343"
 1378      724D71C6 
 1378      FE68728D 
 1378      E7752408 
 1378      F2A171D8 
 1379 33bd 9A7B8A89 		.ascii	"\232{\212\211\347upV\270S\303]I=-K\003\341\231\245\217"
 1379      E7757056 
 1379      B853C35D 
 1379      493D2D4B 
 1379      03E199A5 
 1380 33d2 61EA08C1 		.ascii	"a\352\010\301\\\255\253\2543i\313\365E\276\243&6\034"
 1380      5CADABAC 
 1380      3369CBF5 
 1380      45BEA326 
 1380      361C
 1381 33e4 C721FF00 		.ascii	"\307!\377\000\254a9\007\366]X\367c\2263\352\260\276"
 1381      AC613907 
 1381      F65D58F7 
 1381      639633EA 
 1381      B0BE
 1382 33f6 D2349C7A 		.ascii	"\3224\234z\236\325\230\003[q\247\004\302\367\017x~\023"
 1382      9ED59803 
 1382      5B71A704 
 1382      C2F70F78 
 1382      7E13
 1383 3408 F15DE8B3 		.ascii	"\361]\350\263c\301\352x\235w\354\266\355\227\351f\255"
 1383      63C1EA78 
 1383      9D77ECB6 
 1383      ED97E966 
 1383      AD
 1384 3419 D194BA76 		.ascii	"\321\224\272v\353\245j)**\340\265\352\026HLU\2228\267"
 1384      EBA56A29 
 1384      2A2AE0B5 
ARM GAS  D:\Dev\msys64\tmp\ccQoZ9BW.s 			page 106


 1384      EA16484C 
 1384      559238B7 
 1385 342d 6CFF00FD 		.ascii	"l\377\000\375^\207jw\352)\364\305\222\311\005\301\227"
 1385      5E876A77 
 1385      EA29F4C5 
 1385      92C905C1 
 1385      97
 1386 343e 4ADA53C7 		.ascii	"J\332S\3075Ks\215\206\000\317^kZUA-5D\260TF\350\345"
 1386      354B738D 
 1386      8600CF5E 
 1386      6B5A5541 
 1386      2D3544B0 
 1387 3456 8DC5AE63 		.ascii	"\215\305\256c\275\341\361Qr\331kt\246\367d\372\225\242"
 1387      BDE1F151 
 1387      72D96B74 
 1387      A6F764FA 
 1387      95A2
 1388 3468 8BB55BBB 		.ascii	"\213\265[\273+96oi\367**\335\027\245)\351*\242\232h"
 1388      2B39366F 
 1388      69F72A2A 
 1388      DD17A529 
 1388      E92AA29A 
 1389 347d 23224631 		.ascii	"#\"F1\331-<\003\230YM&\245\266S\337\264\230\222\266"
 1389      D92D3C03 
 1389      98594D26 
 1389      A5B653DF 
 1389      B49892B6 
 1390 3491 07523ADC 		.ascii	"\007R:\334\352z\236'\3444\026\214\007\016\234\226\211"
 1390      EA7A9E27 
 1390      E434168C 
 1390      070E9C96 
 1390      89
 1391 34a2 C2309E82 		.ascii	"\3020\236\202k\005e\343a(*\333\353?\314\335\027\035"
 1391      6B0565E3 
 1391      61282ADB 
 1391      EB3FCCDD 
 1391      171D
 1392 34b4 45415B6C 		.ascii	"EA[l\327\2555\220\0031l4\315.\0360\326\201\267\321`"
 1392      D7AD3590 
 1392      03316C34 
 1392      CD2E1E30 
 1392      D681B7D1 
 1393 34c9 51D968AB 		.ascii	"Q\331h\253\231o\253\265\\i\351\031\335\263\332[Q?\014"
 1393      996FABB5 
 1393      5C69E919 
 1393      DDB3DA5B 
 1393      513F0C
 1394 34dc 90CA3DE3 		.ascii	"\220\312=\343\203\277\301b\230\036H\302\230\323\263"
 1394      83BFC162 
 1394      981E48C2 
 1394      98D3B3
 1395 34eb A674AB42 		.ascii	"\246t\253B\251\375\0226]=E\035\306\361}\275\333\345"
 1395      A9FD1236 
 1395      5D3D451D 
 1395      C6F17DBD 
 1395      DBE5
 1396 34fd A335C1ED 		.ascii	"\2435\301\355\206\214T\2741\243\303\274\330<\317Q\361"
ARM GAS  D:\Dev\msys64\tmp\ccQoZ9BW.s 			page 107


 1396      868C54BC 
 1396      31A3C3BC 
 1396      D83CCF51 
 1396      F1
 1397 350e 585DFE86 		.ascii	"X]\376\206\256\232qQ_WMQ$\356$\2729\204\233\372\343"
 1397      AE9A7151 
 1397      5F574D51 
 1397      24EE24BA 
 1397      39849BFA 
 1398 3523 92F2308C 		.ascii	"\222\3620\214\017%x\303k\316K\327\247\364\345\224\315"
 1398      0F2578C3 
 1398      6BCE4BD7 
 1398      A7F4E594 
 1398      CD
 1399 3534 9FD9FDD6 		.ascii	"\237\331\375\326\222\217\263]UM5\\p\325O\236\351\216"
 1399      928FB35D 
 1399      554D355C 
 1399      70D54F9E 
 1399      E98E
 1400 3546 7E1CEF08 		.ascii	"~\034\357\010\344\260=>\310\353/\226\330\253\346\305"
 1400      E4B03D3E 
 1400      C8EB2F96 
 1400      D8ABE6C5 
 1401 3556 3BA66192 		.ascii	";\246a\222I_\260nw\374\227\231\204\252\261\253ko\344"
 1401      495FB06E 
 1401      77FC9799 
 1401      84AAB1AB 
 1401      6B6FE4
 1402 3569 98E99294 		.ascii	"\230\351\222\224\345\357/\3703\256\330\357\020]\365"
 1402      E5EF2FF8 
 1402      33AED8EF 
 1402      105DF5
 1403 3578 71F63999 		.ascii	"q\3669\2315-<M\21670\344r\317\356\260d\336I\312\360"
 1403      352D3C4D 
 1403      8E3730E4 
 1403      72CFEEB0 
 1403      64DE49CA 
 1404 358d 8ED583A5 		.ascii	"\216\325\203\245\025*`\253@\274[\375^\032\332v{\316"
 1404      152A60AB 
 1404      40BC5BFD 
 1404      5E1ADA76 
 1404      7BCE
 1405 359f DDE55FB8 		.ascii	"\335\345_\270V2\216\002I\314\207\335j\305\244\220\311"
 1405      56328E02 
 1405      49CC87DD 
 1405      6AC5A490 
 1405      C9
 1406 35b0 2B9EE392 		.ascii	"+\236\343\222\343\234\376\312\307\317y\357$\253\207"
 1406      E39CFECA 
 1406      C7CF79EF 
 1406      24AB87
 1407 35bf ECF5FEA7 		.ascii	"\354\365\376\247\337\331\015B\020\240\370\321\022\244"
 1407      DFD90D42 
 1407      10A0F8D1 
 1407      12A4
 1408 35cd 42151522 		.ascii	"B\025\025\"T \004!\"\001R%W\255\024\255\251\251s\352"
 1408      54200421 
ARM GAS  D:\Dev\msys64\tmp\ccQoZ9BW.s 			page 108


 1408      22015225 
 1408      57AD14AD 
 1408      A9A973EA 
 1409 35e1 72CA681B 		.ascii	"r\312h\033\336\316\343\370F\334#\342P\261a\237\3752"
 1409      DECEE3F8 
 1409      46DC23E2 
 1409      50B1619F 
 1409      FD32
 1410 35f3 D25FFF00 		.ascii	"\322_\377\000\336W\267\003\376\316\016\2777\037\374"
 1410      DE57B703 
 1410      FECE0EBF 
 1410      371FFC
 1411 3602 A0F9AF25 		.ascii	"\240\371\257%X\270U\276\272\262J\211\000\034N\331\203"
 1411      58B855BE 
 1411      BAB24A89 
 1411      001C4ED9 
 1411      83
 1412 3613 EE379068 		.ascii	"\3567\220h\370r\371*\312\020`\225\010RTE\356\351\032"
 1412      F872F92A 
 1412      CA106095 
 1412      08525445 
 1412      EEE91A
 1413 3626 EA0A2AF9 		.ascii	"\352\012*\371\005\322\006>)X\032\036\341\236\354\376"
 1413      05D2063E 
 1413      29581A1E 
 1413      E19EECFE 
 1414 3636 CBC34298 		.ascii	"\313\303B\230\313k\311[ \254\213\213&\254cb\253\225"
 1414      CB6BC95B 
 1414      20AC8B8B 
 1414      26AC6362 
 1414      AB95
 1415 3648 8C20B03C 		.ascii	"\214 \260<\206\343\2269\205\012D\252\033\313\311h\255"
 1415      86E39639 
 1415      850A44AA 
 1415      1BCBC968 
 1415      AD
 1416 3659 A9204895 		.ascii	"\251 H\225\010\001\"T ;\265\252F\250\230vR5y\006\302"
 1416      08012254 
 1416      203BB5AA 
 1416      46A89876 
 1416      52357906 
 1417 366e 56A91AA2 		.ascii	"V\251\032\242j\221\250\011\201Oj\211\245H\325\001\022"
 1417      6A91A809 
 1417      814F6A89 
 1417      A548D501 
 1417      12
 1418 367f B0ECA661 		.ascii	"\260\354\246aU\332\245aT,N\336K\230\377\000\213\233"
 1418      55DAA561 
 1418      542C4EDE 
 1418      4B98FF00 
 1418      8B9B
 1419 3691 1965DAC7 		.ascii	"\031e\332\307|c<2\264\323H\341\370\206\343\362%t\323"
 1419      7C633C32 
 1419      B4D348E1 
 1419      F886E3F2 
 1419      2574D3
 1420 36a4 7D792C1B 		.ascii	"}y,\033\266\3155\376\324\366us"
ARM GAS  D:\Dev\msys64\tmp\ccQoZ9BW.s 			page 109


 1420      B6CD35FE 
 1420      D4F67573 
 1421 36b0 A38D81F5 		.ascii	"\243\215\201\365P\217i\200y=\2038\371\202\345\006\215"
 1421      508F6980 
 1421      793D8338 
 1421      F982E506 
 1421      8D
 1422 36c1 3CF65899 		.ascii	"<\366X\231\303u\014\361\273\361\037\321DN\330^\225D"
 1422      C3750CF1 
 1422      BBF11FD1 
 1422      444ED85E 
 1422      9544
 1423 36d3 4E2F1969 		.ascii	"N/\031i\016-9\007\241\353\372/.M\211\317C\205C\350&"
 1423      0E2D3907 
 1423      A1EBFA2F 
 1423      2E4D89CF 
 1423      438543E8 
 1424 36e8 B8C93C6F 		.ascii	"\270\311<o\015?%\331\177\303v\252v\241\320\202\226\252"
 1424      0D3F25D9 
 1424      7FC376AA 
 1424      76A1D082 
 1424      96AA
 1425 36fa 5EF2AED9 		.ascii	"^\362\256\331'p]\235\334\317\270~\233|\227\025\361\021"
 1425      27705D9D 
 1425      DCCFB87E 
 1425      9B7C9715 
 1425      F111
 1426 370c B93B7A2D 		.ascii	"\271;z-\207\331F\271:2\035C4s=\265u4}\325.\006[\336"
 1426      87D946B9 
 1426      3A321D43 
 1426      34733DB5 
 1426      75347DD5 
 1427 3724 F1733F00 		.ascii	"\361s?\000\244\305\250\253\325X:#\267.\323\333\245\351"
 1427      A4C5A8AB 
 1427      D5583A23 
 1427      B72ED3DB 
 1427      A5E9
 1428 3736 CDA2D323 		.ascii	"\315\242\323#M\332Vx\336\017\364\032\177u\311w\012\351"
 1428      4DDA5678 
 1428      DE0FF41A 
 1428      7F75C977 
 1428      0AE9
 1429 3748 2AEA249E 		.ascii	"*\352$\236y\014\222\310\342\347\270\234\222R\335\356"
 1429      790C92C8 
 1429      E2E7B89C 
 1429      9252DDEE 
 1430 3758 B5373AC9 		.ascii	"\2657:\311*\253&|\363\310K\234\367\237\021\317\232\362"
 1430      2AAB267C 
 1430      F3C84B9C 
 1430      F79F11CF 
 1430      9AF2
 1431 376a DEF436E9 		.ascii	"\336\3646\351\251Zx}\307H\374\225\017\030k\271g<\302"
 1431      A95A787D 
 1431      C748FC95 
 1431      0F186BB9 
 1431      673CC2
 1432 377d 6929B9C9 		.ascii	"i)\271\311\010L\354\344\366\351\355\304\272\007FA/\361"
ARM GAS  D:\Dev\msys64\tmp\ccQoZ9BW.s 			page 110


 1432      084CECE4 
 1432      F6E9EDC4 
 1432      BA074641 
 1432      2FF1
 1433 378f 46FE87CC 		.ascii	"F\376\207\314|V\317\323V\310\234\350\034c\034m\345\267"
 1433      7C56CFD3 
 1433      56C89CE8 
 1433      1C631C6D 
 1433      E5B7
 1434 37a1 5C73588E 		.ascii	"\\sX\216\223\247\366\213m1\003\210\265\307\344\266\255"
 1434      93A7F68B 
 1434      6D310388 
 1434      B5C7E4B6 
 1434      AD
 1435 37b2 8290434C 		.ascii	"\202\220CL\331\036\027\013${Z*\222\216\366z\321\304"
 1435      D91E170B 
 1435      247B5A2A 
 1435      928EF67A 
 1435      D1C4
 1436 37c4 238BBD2D 		.ascii	"#\213\275-\345\200}V\003p\257\216\216\027\3225\274u"
 1436      E5807D56 
 1436      0370AF8E 
 1436      8E17D235 
 1436      BC75
 1437 37d6 B04CE7D3 		.ascii	"\260L\347\323\226\364\005f7*\366\301O;\214\200BZp|\216"
 1437      96F40566 
 1437      372AF6C1 
 1437      4F3B8C80 
 1437      425A707C 
 1438 37eb 16B48049 		.ascii	"\026\264\200I%{\252\036~\331\304\217\364\216\213\232"
 1438      257BAA1E 
 1438      7ED9C48F 
 1438      F48E8B9A 
 1439 37fb 34C93324 		.ascii	"4\3113$\322\264\3622xb\227\017\221\204\3113\377\000"
 1439      D2B4F232 
 1439      7862970F 
 1439      9184C933 
 1439      FF00
 1440 380d 093C9816 		.ascii	"\011<\230\026_\024\023\325_\350\034?\341\230K_\272\361"
 1440      5F1413D5 
 1440      5FE81C3F 
 1440      E1984B5F 
 1440      BAF1
 1441 381f 34E45DCC 		.ascii	"4\344]\3149\003ws+2\322\360\031\3574\221\217\275('\352"
 1441      39037773 
 1441      2B32D2F0 
 1441      19EF3491 
 1441      8FBD2827 
 1442 3834 A3B914D4 		.ascii	"\243\271\024\324-\224\274\374\033\316\225\2028\030\032"
 1442      2D94BCFC 
 1442      1BCE9582 
 1442      38181A
 1443 3843 300370A6 		.ascii	"0\003p\246L\030\000\017\222r\330\217\316e,\266\301\311"
 1443      4C18000F 
 1443      9272D88F 
 1443      CE652CB6 
 1443      C1C9
ARM GAS  D:\Dev\msys64\tmp\ccQoZ9BW.s 			page 111


 1444 3855 B9484A69 		.ascii	"\271HJi\346\244\25094\235\220\344\327\025 \034vQ\270"
 1444      E6A4A839 
 1444      349D90E4 
 1444      D715201C 
 1444      7651B8
 1445 3868 A09513CA 		.ascii	"\240\225\023\312\261\002<\250\\R\274\250\234U\210b8"
 1445      B1023CA8 
 1445      5C52BCA8 
 1445      9C558862 
 1445      38
 1446 3879 A85EFDD2 		.ascii	"\250^\375\322\275\312\273\334\204\0307h\272\032-@\327"
 1446      BDCABBDC 
 1446      84183768 
 1446      BA1A2D40 
 1446      D7
 1447 388a 56D006C5 		.ascii	"V\320\006\305th\352p%\036\247\315h\272\332I\350j\244"
 1447      7468EA70 
 1447      251EA7CD 
 1447      68BADA49 
 1447      E86AA4
 1448 389d A7AA89D0 		.ascii	"\247\252\211\320\315\033\260Z\341\202>\036k\251^\365"
 1448      CD1BB05A 
 1448      E1823E1E 
 1448      6BA95EF5 
 1449 38ad 8F6A8D3B 		.ascii	"\217j\215;m\324\024\3745\261\2010\376\234\355\331\355"
 1449      6DD414FC 
 1449      35B18130 
 1449      FE9CEDD9 
 1449      ED
 1450 38be F9F50B45 		.ascii	"\371\365\013EZ\207\017\246]\036\347\215\362\362\323"
 1450      5A870FA6 
 1450      5D1EE78D 
 1450      F2F2D3
 1451 38cd FF00A76F 		.ascii	"\377\000\247o1\371\3709\325\013+\324\232\036\351gs\345"
 1451      31F9F839 
 1451      D50B2BD4 
 1451      9A1EE967 
 1451      73E5
 1452 38df 8A23574A 		.ascii	"\212#WJ\017\365\"\335\300z\267\367X\241\004\022\010"
 1452      0FF522DD 
 1452      C07AB7F7 
 1452      58A10412 
 1452      08
 1453 38f0 C11B1DB0 		.ascii	"\301\033\035\260B\337\031\251t}mZ\212\357\216\350<\202"
 1453      42DF19A9 
 1453      747D6D5A 
 1453      8AEF8EE8 
 1453      3C82
 1454 3902 108563A8 		.ascii	"\020\205c\250!\010@\010Bk\344lm\313\334\326\0172\205"
 1454      21084008 
 1454      426BE46C 
 1454      6DCBDCD6 
 1454      0F3285
 1455 3915 6538C399 		.ascii	"e8\303\231\012\253W\326GI\036]\274\235\0329\257>\272"
 1455      0AAB57D6 
 1455      47491E5D 
 1455      BC9D1A39 
ARM GAS  D:\Dev\msys64\tmp\ccQoZ9BW.s 			page 112


 1455      AF3EBA
 1456 3928 F01B9653 		.ascii	"\360\033\226S\002O\342<\227\215,\216\226B\367\273$\250"
 1456      024FE23C 
 1456      978D2C8E 
 1456      9642F7BB 
 1456      24A8
 1457 393a 3E73C8F9 		.ascii	">s\310\371\370V\2344\374\313\347\331\016\251\235\365"
 1457      F8569C34 
 1457      FCCBE7D9 
 1457      0EA99DF5 
 1458 394a 33192439 		.ascii	"3\031$9==\024HB\037\0339\312\3119I\345\260B\020\204"
 1458      3D3D1448 
 1458      421F1B39 
 1458      CAC93949 
 1458      E5B04210 
 1459 395f 0244A842 		.ascii	"\002D\250B\240\204\211P\017\202\027\324N\310 o\034\257"
 1459      A0848950 
 1459      0F8217D4 
 1459      4EC8206F 
 1459      1CAF
 1460 3971 706B47A9 		.ascii	"pkG\251\344\262\313\276\207\253\246}\256\032\031\031"
 1460      E4B2CBBE 
 1460      87ABA67D 
 1460      AE1A1919 
 1461 3981 53555E09 		.ascii	"SU^\011e>p\356\021\267y\344\326g\346\274\375\017\023"
 1461      653E70EE 
 1461      11B779E4 
 1461      D667E6BC 
 1461      FD0F13
 1462 3994 64BFB38C 		.ascii	"d\277\263\214\340\2627\271\244\375\323\214en\335#L."
 1462      E0B237B9 
 1462      A4FDD38C 
 1462      656EDD23 
 1462      4C2E
 1463 39a6 1DA2EA87 		.ascii	"\035\242\352\207\226}\245=C-\360\217\371q0`\017\310"
 1463      967DA53D 
 1463      432DF08F 
 1463      F9713060 
 1463      0FC8
 1464 39b8 9587C9EA 		.ascii	"\225\207\311\352\345\244\323\273\"\262\372\"\031\262"
 1464      E5A4D3BB 
 1464      22B2FA22 
 1464      19B2
 1465 39c6 D69F48C6 		.ascii	"\326\237H\306-\235\203\334\252\350\004\325\027X\"\221"
 1465      2D9D83DC 
 1465      AAE804D5 
 1465      17582291 
 1466 39d6 E32D681B 		.ascii	"\343-h\033\023\344\012\303\265\356\225\272h\352Z[}T"
 1466      13E40AC3 
 1466      B5EE95BA 
 1466      68EA5A5B 
 1466      7D54
 1467 39e8 2EEE2671 		.ascii	".\356&q\226J\226\217\014\257\373\255\364\015\037R\342"
 1467      964A968F 
 1467      0CAFFBAD 
 1467      F40D1F52 
 1467      E2
ARM GAS  D:\Dev\msys64\tmp\ccQoZ9BW.s 			page 113


 1468 39f9 57675B21 		.ascii	"Wg[!\216:w\022\334F\326\360\001\375\255Z\313\266\250"
 1468      8E3A7712 
 1468      DC46D6F0 
 1468      01FDAD5A 
 1468      CBB6A8
 1469 3a0c 29AB7495 		.ascii	")\253t\225\\\022\306\3366B\371\232\177\001\367\207\350"
 1469      5C12C6DE 
 1469      3642F99A 
 1469      7F01F787 
 1469      E8
 1470 3a1d BC38792D 		.ascii	"\2748y-E;el\263\236\032\307\3645\312\245\024rR\0209"
 1470      453B656C 
 1470      B39E1AC7 
 1470      F435CAA5 
 1470      14725210 
 1471 3a32 633918FD 		.ascii	"c9\030\375\322/\2523\212\204$@*\020\204\000\204!\000"
 1471      D22FAA33 
 1471      8A842440 
 1471      2A108400 
 1471      842100
 1472 3a45 21084009 		.ascii	"!\010@\011\020\225\012\235\322\303\272\225\245@\016"
 1472      10950A9D 
 1472      D2C3BA95 
 1472      A5400E
 1473 3a54 CA4615E4 		.ascii	"\312F\025\344\033\011\332T\215P\264\251\032P\0234\251"
 1473      1B09DA54 
 1473      8D50B4A9 
 1473      1A501334 
 1473      A9
 1474 3a65 0150B4A7 		.ascii	"\001P\264\247\202\204\2234\251\032T\015*@W2K\015)\370"
 1474      82849334 
 1474      A91A540D 
 1474      2A405732 
 1474      4B0D29F8 
 1475 3a79 1C272010 		.ascii	"\034' \020y\202\240a\331L\303\266\374\220\034q\333n"
 1475      7982A061 
 1475      D94CC3B6 
 1475      FC901C71 
 1475      DB6E
 1476 3a8b 943A6B59 		.ascii	"\224:kYV\010\243-\244\250.\251\205\3350F\343\352\265"
 1476      5608A32D 
 1476      A4A82EA9 
 1476      85DD3046 
 1476      E3EAB5
 1477 3a9e 45637BB3 		.ascii	"Ec{\263\223\317\232\354\357\342\017M6\367\242$\255\211"
 1477      93CF9AEC 
 1477      EFE20F4D 
 1477      36F7A224 
 1477      AD89
 1478 3ab0 81D576FF 		.ascii	"\201\325v\377\000\264\016\034\313\017\276?\374\276K"
 1478      00B40E1C 
 1478      CB0FBE3F 
 1478      FCBE4B
 1479 3abf 8EEEAC3D 		.ascii	"\216\356\254=\371i\033\201\205\311\2543\350t\267z\264"
 1479      F9691B81 
 1479      85C9AC33 
 1479      E874B77A 
ARM GAS  D:\Dev\msys64\tmp\ccQoZ9BW.s 			page 114


 1479      B4
 1480 3ad0 FDD1E478 		.ascii	"\375\321\344x\236s\323\252F\311\305#[\273@\351\346\245"
 1480      9E73D3AA 
 1480      46C9C523 
 1480      5BBB40E9 
 1480      E6A5
 1481 3ae2 94707807 		.ascii	"\224px\0075\010\0360\254VI\247\367,q&\022\220g%J\310"
 1481      35081E30 
 1481      AC5649A7 
 1481      F72C7126 
 1481      12906725 
 1482 3af8 CB90EDB9 		.ascii	"\313\220\355\271\310\2104\222\275;u\013\247w\210l\256"
 1482      C8883492 
 1482      BD3B750B 
 1482      A777886C 
 1482      AE
 1483 3b09 59ED1255 		.ascii	"Y\355\022UH\335\266\370,\245\276\307f\214\2275\223T"
 1483      48DDB6F8 
 1483      2CA5BEC7 
 1483      668C9735 
 1483      9354
 1484 3b1b B7945CC3 		.ascii	"\267\224\\\303?\325\376\0247\203^\236\205\234\314\367"
 1484      3FD5FE14 
 1484      37835E9E 
 1484      859CCCF7 
 1485 3b2b 7435B596 		.ascii	"t5\265\226\333c\346\271\026\303\000y-s\366\312\273u"
 1485      DB63E6B9 
 1485      16C30079 
 1485      2D73F6CA 
 1485      BB75
 1486 3b3d D6F1427B 		.ascii	"\326\361B{\253d}\340n\334Oo\205`5\267\012\273\203#\226"
 1486      AB647DE0 
 1486      6EDC4F6F 
 1486      856035B7 
 1486      0ABB8323 
 1487 3b52 B262E76E 		.ascii	"\262b\347n\000\317\205\243\240\001E\023\311>#\234\005"
 1487      00CF85A3 
 1487      A0014513 
 1487      C93E239C 
 1487      05
 1488 3b63 C1C72F2C 		.ascii	"\301\307/,\365cg\033c\321\353\335.\265w\0118\252e%\247"
 1488      F563671B 
 1488      63D1EBDD 
 1488      2EB57709 
 1488      38AA6525 
 1489 3b78 70C68C00 		.ascii	"p\306\214\000\257\330\334H\210\222\323\305\346\261\262"
 1489      AFD8DC48 
 1489      8892D3C5 
 1489      E6B1B2
 1490 3b87 FE25EB5A 		.ascii	"\376%\353Z%,\306\351\216\011\214\260\362\315\217@\370"
 1490      252CC6E9 
 1490      8E098CB0 
 1490      F2CD8F40 
 1490      F8
 1491 3b98 CC6D6818 		.ascii	"\314mh\030>\213`veK\355:\201\222\003\304\330X^O\251"
 1491      3E8B6076 
 1491      654BED3A 
ARM GAS  D:\Dev\msys64\tmp\ccQoZ9BW.s 			page 115


 1491      819203C4 
 1491      D8585E4F 
 1492 3bad E4B52515 		.ascii	"\344\265%\025[\274!\207\177E\276\273\037\2411Z\346\253"
 1492      5BBC2187 
 1492      7F45BEBB 
 1492      1FA1315A 
 1492      E6AB
 1493 3bbf 78C19486 		.ascii	"x\301\224\206\264\374\024V\276\243\207\227\275W\245"
 1493      B4FC1456 
 1493      BEA38797 
 1493      BD57A5
 1494 3bce 97DF8FE2 		.ascii	"\227\337\217\342l4\327 \224\322wZ\217\202\002Sr\207"
 1494      6C34D720 
 1494      94D2775A 
 1494      8F820253 
 1494      7287
 1495 3be0 3B0A3739 		.ascii	";\01279I\\\216q\362Q9\311\034\345\033\234\254@\022\243"
 1495      495C8E71 
 1495      F25139C9 
 1495      1CE51B9C 
 1495      AC4012A3 
 1496 3bf4 7B923DDB 		.ascii	"{\222=\333\250^\345b2\017v\352)\037\3155\357U\336\364"
 1496      A85EE562 
 1496      320F76EA 
 1496      291FCD35 
 1496      EF55DEF4 
 1497 3c08 02BDEA07 		.ascii	"\002\275\352\007\271#\334\240{\267@+\334\241{\220\367"
 1497      B923DCA0 
 1497      7BB7402B 
 1497      DCA17B90 
 1497      F7
 1498 3c19 281EE402 		.ascii	"(\036\344\002\271\313\304\273\351\273E\324\227U\321"
 1498      B9CBC4BB 
 1498      E9BB45D4 
 1498      9755D1
 1499 3c28 C5DE1FBE 		.ascii	"\305\336\037\276\301\302\357\252\365\370\223\011E,t"
 1499      C1C2EFAA 
 1499      F5F89309 
 1499      452C74
 1500 3c37 75AEC9D6 		.ascii	"u\256\311\326\363\011a\232\376\273\263Jg\270\272\206"
 1500      F309619A 
 1500      FEBBB34A 
 1500      67B8BA86 
 1501 3c47 B648867D 		.ascii	"\266H\206}\331\007\020^<\335\233\334ZOwUN\366\372\344"
 1501      D907105E 
 1501      3CDD9BDC 
 1501      5A4F7755 
 1501      4EF6FAE4 
 1502 3c5b 2DAF94D7 		.ascii	"-\257\224\327.\213Q5\356z\025\371}T?\366\317\344\324"
 1502      2E8B5135 
 1502      EE7A15F9 
 1502      7D543FF6 
 1502      CFE4D4
 1503 3c6e A3B39BAE 		.ascii	"\243\263\233\256G\333S\177\342+\032\326\366\271t\237"
 1503      47DB537F 
 1503      E22B1AD6 
 1503      F6B9749F 
ARM GAS  D:\Dev\msys64\tmp\ccQoZ9BW.s 			page 116


 1504 3c7e B1B6A5EC 		.ascii	"\261\266\245\354\235\365!\316hg!\303\217\362\267\352"
 1504      9DF521CE 
 1504      686721C3 
 1504      8FF2B7EA 
 1505 3c8e D2DFC413 		.ascii	"\322\337\304\023\263]do\2242\037\374\315]\351\276s\222"
 1505      B35D646F 
 1505      94321FFC 
 1505      CD5DE9BE 
 1505      7392
 1506 3ca0 4C9B7CEE 		.ascii	"L\233|\356\253\0345\374\015u5\346g\177I\255f~ey\363"
 1506      AB1C35FC 
 1506      0D7535E6 
 1506      677F49AD 
 1506      667E6579 
 1507 3cb5 4F24EECC 		.ascii	"O$\356\314\257/?\242\215\013i\344_\255\276\377\000\374"
 1507      AF2F3FA2 
 1507      8D0B69E4 
 1507      5FADBEFF 
 1507      00FC
 1508 3cc7 926C44A8 		.ascii	"\222lD\250B\031\201\010B\025\004!\010\001\011\022\240"
 1508      42198108 
 1508      42150421 
 1508      08010912 
 1508      A0
 1509 3cd8 112A1220 		.ascii	"\021*\022 =\033\015sh.\320N\360\356\350\345\262p\363"
 1509      3D1B0D73 
 1509      682ED04E 
 1509      F0EEE8E5 
 1509      B270F3
 1510 3ceb 0D76C48F 		.ascii	"\015v\304\217\222\335t\327y\354Z\214j\372\030\215U\272"
 1510      92DD74D7 
 1510      79EC5A8C 
 1510      6AFA188D 
 1510      55BA
 1511 3cfd A9AC6DD2 		.ascii	"\251\254m\3228<N\205\343\000M\216\255p\353\323+A\254"
 1511      383C4E85 
 1511      E3004D8E 
 1511      AD70EBD3 
 1511      2B41AC
 1512 3d10 934C6AEB 		.ascii	"\223Lj\353\215\202F\367\022=\314f\314\361\036&\017 "
 1512      8D8246F7 
 1512      123DCC66 
 1512      CCF11E26 
 1512      0F20
 1513 3d22 7911E60E 		.ascii	"y\021\346\016\313\225\364GQ[\252e\036\352\347\276'X"
 1513      CB95F447 
 1513      515BAA65 
 1513      1EEAE7BE 
 1513      2758
 1514 3d34 507687A7 		.ascii	"Pv\207\247+mBH.\364\255\200\264\036\027\273\205\300"
 1514      2B6D4248 
 1514      2EF4AD80 
 1514      B41E17BB 
 1514      85C0
 1515 3d46 7915A47B 		.ascii	"y\025\244{b\355\022\222\351\035M\272\3157~'8\226f\373"
 1515      62ED1292 
 1515      E91D4DBA 
ARM GAS  D:\Dev\msys64\tmp\ccQoZ9BW.s 			page 117


 1515      CD377E27 
 1515      389666FB 
 1516 3d5a AD60FBAD 		.ascii	"\255`\373\255=r\265\015}K\253k\252k$\015\357'\221\322"
 1516      3D72B50D 
 1516      7D4BAB6B 
 1516      AA6B240D 
 1516      EF2791D2 
 1517 3d6e BB0D03DE 		.ascii	"\273\015\003\3369\333`:\364U\327\225\017\015\025b\225"
 1517      39DB603A 
 1517      F455D795 
 1517      0F0D1562 
 1517      95
 1518 3d7f 926F6F38 		.ascii	"\222oo8\377\000\237\223D\255r@\204%^\321@H\225\010T"
 1518      FF009F93 
 1518      44AD7240 
 1518      84255ED1 
 1518      40489508 
 1519 3d94 10912A16 		.ascii	"\020\221*\026\004!\010TD\250H\200\022\241\"\003\271"
 1519      04210854 
 1519      44A84880 
 1519      12A12203 
 1519      B9
 1520 3da5 5A548D2A 		.ascii	"ZT\215*\000S\332W\220l,5\312F\271V\016Oi@Y\005=\256"
 1520      0053DA57 
 1520      906C2C35 
 1520      CA46B956 
 1520      0E4F6940 
 1521 3dbd 55C14F6B 		.ascii	"U\301Ok\220\026Z\3453J\252\327)\032\345\004\226\232"
 1521      90165AE5 
 1521      334AAAD7 
 1521      291AE504 
 1521      969A
 1522 3dcf 548D72AA 		.ascii	"T\215r\252\327)\032\344$\232h\243\251\202H&`|R4\261"
 1522      D7291AE4 
 1522      249A68A3 
 1522      A9824826 
 1522      607C5234 
 1523 3de4 ED3F7811 		.ascii	"\355?x\021\202\027\031\366\303\242_\2455C\230\306\227"
 1523      821719F6 
 1523      C3A25FA5 
 1523      354398C6 
 1523      97
 1524 3df5 504C7BD8 		.ascii	"PL{\330$\350ZO/\222\354\246\271b\335\245\351\0105\226"
 1524      24E85A4F 
 1524      2F92ECA6 
 1524      B962DDA5 
 1524      E9083596 
 1525 3e09 9C968886 		.ascii	"\234\226\210\2066\255\231}<\230\306\037\217t\374W6\215"
 1525      36AD997D 
 1525      3C98C61F 
 1525      8F74FC57 
 1525      368D
 1526 3e1b 5A3D43AA 		.ascii	"Z=C\252|\364pK\333\336H\367\2372\002kY\214,\322\373"
 1526      7CF4704B 
 1526      DBDE48F7 
 1526      9F32026B 
 1526      598C2CD2 
ARM GAS  D:\Dev\msys64\tmp\ccQoZ9BW.s 			page 118


 1527 3e30 A2EE367A 		.ascii	"\242\3566z\311)+ie\205\354$\036&\355\317\230>J\224\026"
 1527      C9292B69 
 1527      6585EC24 
 1527      1E26EDCF 
 1527      983E4A94 
 1528 3e45 1E19077A 		.ascii	"\036\031\007z\360\007\227\232\246Or5o\372\221\343RQ"
 1528      F007979A 
 1528      A64F7235 
 1528      6FFA91E3 
 1528      5251
 1529 3e57 BE67B835 		.ascii	"\276g\2705\273y\254\257N\351i\356\025P\301O\013\244"
 1529      BB79ACAF 
 1529      4EE969EE 
 1529      1550C14F 
 1529      0BA4
 1530 3e69 99FC9AC6 		.ascii	"\231\374\232\306\344\225\233\366\177\331\275\317RN\323"
 1530      E4959BF6 
 1530      7FD9BDCF 
 1530      524ED3
 1531 3e78 4F03E92D 		.ascii	"O\003\351-\355\307\025D"
 1531      EDC71544 
 1532 3e80 8DC67E1E 		.ascii	"\215\306~\036k\245\364n\214\265ijP\3128\203\352\010"
 1532      6BA5F46E 
 1532      8CB5696A 
 1532      50CA3883 
 1532      EA08
 1533 3e92 1DE4EFDD 		.ascii	"\035\344\357\335\316?\262vE\372\272\264\353\216Y\205"
 1533      CE3FB276 
 1533      45FABAB4 
 1533      EB8E5985 
 1534 3ea2 F669D94D 		.ascii	"\366i\331M-\236(\253o1\266Z\260\003\231\0176\267\324"
 1534      2D9E28AB 
 1534      6F31B65A 
 1534      B003990F 
 1534      36B7D4
 1535 3eb5 F995A13B 		.ascii	"\371\225\241;c\262\377\000#\355\027PD\301\303\024\357"
 1535      63B2FF00 
 1535      23ED1750 
 1535      44C1C314 
 1535      EF
 1536 3ec6 6D545B60 		.ascii	"mT[`\036.\177\272\355l\372-\023\374Ni\177k\265Sj\032"
 1536      1E2E7FBA 
 1536      ED6CFA2D 
 1536      13FC4E69 
 1536      7F6BB553 
 1537 3edc 56FDA52E 		.ascii	"V\375\245.\"\233\037z2v?\"\215pb\322\353'=F\353\037"
 1537      229B1F7A 
 1537      32763F22 
 1537      8D7062D2 
 1537      EB273D46 
 1538 3ef2 0CE6B8DC 		.ascii	"\014\346\270\334E,c\207\213\004\224\346\273\0038\371"
 1538      452C6387 
 1538      8B0494E6 
 1538      BB0338F9 
 1539 3f02 28299927 		.ascii	"()\231'u\3048K]\320\035\371\251^I\031?\005\317\007\322"
 1539      75C4384B 
 1539      5DD01DF9 
ARM GAS  D:\Dev\msys64\tmp\ccQoZ9BW.s 			page 119


 1539      A95E4919 
 1539      3F05CF07 
 1540 3f17 C5F0481D 		.ascii	"\305\360H\035\223\225\350\321I\3022\274\226\257J\221"
 1540      9395E8D1 
 1540      49C232BC 
 1540      96AF4A91 
 1541 3f27 AE710021 		.ascii	"\256q\000!;\314\307H\300\372\352\326\0008\267\300\013"
 1541      3BCCC748 
 1541      C0FAEAD6 
 1541      0038B7C0 
 1541      0B
 1542 3f38 ACF4F500 		.ascii	"\254\364\365\000\265\331\251)\00760qz\273\231ZS\260"
 1542      B5D9A929 
 1542      07363071 
 1542      7ABB995A 
 1542      53B0
 1543 3f4a ED3465AB 		.ascii	"\3554e\253mT\315\373*|8\377\000\253\230[\344\234zc`"
 1543      6D54CDFB 
 1543      2A7C38FF 
 1543      00AB985B 
 1543      E49C7A63 
 1544 3f5f AF5C79C9 		.ascii	"\257\\y\311\340y\275N\355\264\374r\377\000\"\222\232"
 1544      E079BD4E 
 1544      EDB4FC72 
 1544      FF002292 
 1544      9A
 1545 3f70 5DBA6B9C 		.ascii	"]\272k\234\243s\227S\300\036\367(\234\344\3279D\347"
 1545      A3739753 
 1545      C01EF728 
 1545      9CE4D739 
 1545      44E7
 1546 3f82 A903DCF5 		.ascii	"\251\003\334\365\013\344\335$\222l\240{\267V*=\362n"
 1546      0BE4DD24 
 1546      926CA07B 
 1546      B7562A3D 
 1546      F26E
 1547 3f94 A17BD35E 		.ascii	"\241{\323^\345\003\334\244\016{\224\017rk\335\272\211"
 1547      E503DCA4 
 1547      0E7B940F 
 1547      726BDDBA 
 1547      89
 1548 3fa5 EE50483D 		.ascii	"\356PH=\312\007\273t=\312\022P\221^\345\023\212W\025"
 1548      CA07BB74 
 1548      3DCA1250 
 1548      915EE513 
 1548      8A5715
 1549 3fb8 1B8A0172 		.ascii	"\033\212\001r\232JDeT\220\312i)\0174\204\356\254@\274"
 1549      9A4A4465 
 1549      5490CA69 
 1549      290F3484 
 1549      EEAC40BC 
 1550 3fcc 58DD690E 		.ascii	"X\335i\016\337\244\315\356\325\027\340\246w\376\277"
 1550      DFA4CDEE 
 1550      D517E0A6 
 1550      77FEBF
 1551 3fdb FD96EEE6 		.ascii	"\375\226\356\346\264/nsw\232\302\026~\012V\017\256J"
 1551      B42F6E73 
ARM GAS  D:\Dev\msys64\tmp\ccQoZ9BW.s 			page 120


 1551      779AC216 
 1551      7E0A560F 
 1551      AE4A
 1552 3fed EFA65F59 		.ascii	"\357\246_Y\306\316\215r\225\010^\211\304\020\204 \004"
 1552      C6CE8D72 
 1552      95085E89 
 1552      C4108420 
 1552      04
 1553 3ffe 21085410 		.ascii	"!\010T\020\204!a\022\241\010\001\010B\025\004!\"\026"
 1553      84216112 
 1553      A1080108 
 1553      42150421 
 1553      2216
 1554 4010 04254215 		.ascii	"\004%B\025\004\211P\200\022%B\001\022\241\010\004J\204"
 1554      04895080 
 1554      12254201 
 1554      12A10804 
 1554      4A84
 1555 4022 20042108 		.ascii	" \004!\010\001\010B\003\267C\223\332T)\315+\3076\340"
 1555      01084203 
 1555      B74393DA 
 1555      5429CD2B 
 1555      C736E0
 1556 4035 9C14F054 		.ascii	"\234\024\360T\000\247\202\244\202v\225#J\256\012{J\002"
 1556      00A782A4 
