ARM GAS  D:\Dev\msys64\tmp\cclk87TN.s 			page 1


   1              		.cpu cortex-m7
   2              		.eabi_attribute 27, 1
   3              		.eabi_attribute 28, 1
   4              		.eabi_attribute 20, 1
   5              		.eabi_attribute 21, 1
   6              		.eabi_attribute 23, 3
   7              		.eabi_attribute 24, 1
   8              		.eabi_attribute 25, 1
   9              		.eabi_attribute 26, 1
  10              		.eabi_attribute 30, 1
  11              		.eabi_attribute 34, 1
  12              		.eabi_attribute 18, 4
  13              		.file	"ip4.c"
  14              		.text
  15              	.Ltext0:
  16              		.cfi_sections	.debug_frame
  17              		.section	.text.ip4_input_accept,"ax",%progbits
  18              		.align	1
  19              		.arch armv7e-m
  20              		.syntax unified
  21              		.thumb
  22              		.thumb_func
  23              		.fpu fpv5-sp-d16
  25              	ip4_input_accept:
  26              	.LVL0:
  27              	.LFB26:
  28              		.file 1 "Middlewares/Third_Party/LwIP/src/core/ipv4/ip4.c"
   1:Middlewares/Third_Party/LwIP/src/core/ipv4/ip4.c **** /**
   2:Middlewares/Third_Party/LwIP/src/core/ipv4/ip4.c ****  * @file
   3:Middlewares/Third_Party/LwIP/src/core/ipv4/ip4.c ****  * This is the IPv4 layer implementation for incoming and outgoing IP traffic.
   4:Middlewares/Third_Party/LwIP/src/core/ipv4/ip4.c ****  *
   5:Middlewares/Third_Party/LwIP/src/core/ipv4/ip4.c ****  * @see ip_frag.c
   6:Middlewares/Third_Party/LwIP/src/core/ipv4/ip4.c ****  *
   7:Middlewares/Third_Party/LwIP/src/core/ipv4/ip4.c ****  */
   8:Middlewares/Third_Party/LwIP/src/core/ipv4/ip4.c **** 
   9:Middlewares/Third_Party/LwIP/src/core/ipv4/ip4.c **** /*
  10:Middlewares/Third_Party/LwIP/src/core/ipv4/ip4.c ****  * Copyright (c) 2001-2004 Swedish Institute of Computer Science.
  11:Middlewares/Third_Party/LwIP/src/core/ipv4/ip4.c ****  * All rights reserved.
  12:Middlewares/Third_Party/LwIP/src/core/ipv4/ip4.c ****  *
  13:Middlewares/Third_Party/LwIP/src/core/ipv4/ip4.c ****  * Redistribution and use in source and binary forms, with or without modification,
  14:Middlewares/Third_Party/LwIP/src/core/ipv4/ip4.c ****  * are permitted provided that the following conditions are met:
  15:Middlewares/Third_Party/LwIP/src/core/ipv4/ip4.c ****  *
  16:Middlewares/Third_Party/LwIP/src/core/ipv4/ip4.c ****  * 1. Redistributions of source code must retain the above copyright notice,
  17:Middlewares/Third_Party/LwIP/src/core/ipv4/ip4.c ****  *    this list of conditions and the following disclaimer.
  18:Middlewares/Third_Party/LwIP/src/core/ipv4/ip4.c ****  * 2. Redistributions in binary form must reproduce the above copyright notice,
  19:Middlewares/Third_Party/LwIP/src/core/ipv4/ip4.c ****  *    this list of conditions and the following disclaimer in the documentation
  20:Middlewares/Third_Party/LwIP/src/core/ipv4/ip4.c ****  *    and/or other materials provided with the distribution.
  21:Middlewares/Third_Party/LwIP/src/core/ipv4/ip4.c ****  * 3. The name of the author may not be used to endorse or promote products
  22:Middlewares/Third_Party/LwIP/src/core/ipv4/ip4.c ****  *    derived from this software without specific prior written permission.
  23:Middlewares/Third_Party/LwIP/src/core/ipv4/ip4.c ****  *
  24:Middlewares/Third_Party/LwIP/src/core/ipv4/ip4.c ****  * THIS SOFTWARE IS PROVIDED BY THE AUTHOR ``AS IS'' AND ANY EXPRESS OR IMPLIED
  25:Middlewares/Third_Party/LwIP/src/core/ipv4/ip4.c ****  * WARRANTIES, INCLUDING, BUT NOT LIMITED TO, THE IMPLIED WARRANTIES OF
  26:Middlewares/Third_Party/LwIP/src/core/ipv4/ip4.c ****  * MERCHANTABILITY AND FITNESS FOR A PARTICULAR PURPOSE ARE DISCLAIMED. IN NO EVENT
  27:Middlewares/Third_Party/LwIP/src/core/ipv4/ip4.c ****  * SHALL THE AUTHOR BE LIABLE FOR ANY DIRECT, INDIRECT, INCIDENTAL, SPECIAL,
  28:Middlewares/Third_Party/LwIP/src/core/ipv4/ip4.c ****  * EXEMPLARY, OR CONSEQUENTIAL DAMAGES (INCLUDING, BUT NOT LIMITED TO, PROCUREMENT
  29:Middlewares/Third_Party/LwIP/src/core/ipv4/ip4.c ****  * OF SUBSTITUTE GOODS OR SERVICES; LOSS OF USE, DATA, OR PROFITS; OR BUSINESS
  30:Middlewares/Third_Party/LwIP/src/core/ipv4/ip4.c ****  * INTERRUPTION) HOWEVER CAUSED AND ON ANY THEORY OF LIABILITY, WHETHER IN
ARM GAS  D:\Dev\msys64\tmp\cclk87TN.s 			page 2


  31:Middlewares/Third_Party/LwIP/src/core/ipv4/ip4.c ****  * CONTRACT, STRICT LIABILITY, OR TORT (INCLUDING NEGLIGENCE OR OTHERWISE) ARISING
  32:Middlewares/Third_Party/LwIP/src/core/ipv4/ip4.c ****  * IN ANY WAY OUT OF THE USE OF THIS SOFTWARE, EVEN IF ADVISED OF THE POSSIBILITY
  33:Middlewares/Third_Party/LwIP/src/core/ipv4/ip4.c ****  * OF SUCH DAMAGE.
  34:Middlewares/Third_Party/LwIP/src/core/ipv4/ip4.c ****  *
  35:Middlewares/Third_Party/LwIP/src/core/ipv4/ip4.c ****  * This file is part of the lwIP TCP/IP stack.
  36:Middlewares/Third_Party/LwIP/src/core/ipv4/ip4.c ****  *
  37:Middlewares/Third_Party/LwIP/src/core/ipv4/ip4.c ****  * Author: Adam Dunkels <adam@sics.se>
  38:Middlewares/Third_Party/LwIP/src/core/ipv4/ip4.c ****  *
  39:Middlewares/Third_Party/LwIP/src/core/ipv4/ip4.c ****  */
  40:Middlewares/Third_Party/LwIP/src/core/ipv4/ip4.c **** 
  41:Middlewares/Third_Party/LwIP/src/core/ipv4/ip4.c **** #include "lwip/opt.h"
  42:Middlewares/Third_Party/LwIP/src/core/ipv4/ip4.c **** 
  43:Middlewares/Third_Party/LwIP/src/core/ipv4/ip4.c **** #if LWIP_IPV4
  44:Middlewares/Third_Party/LwIP/src/core/ipv4/ip4.c **** 
  45:Middlewares/Third_Party/LwIP/src/core/ipv4/ip4.c **** #include "lwip/ip.h"
  46:Middlewares/Third_Party/LwIP/src/core/ipv4/ip4.c **** #include "lwip/def.h"
  47:Middlewares/Third_Party/LwIP/src/core/ipv4/ip4.c **** #include "lwip/mem.h"
  48:Middlewares/Third_Party/LwIP/src/core/ipv4/ip4.c **** #include "lwip/ip4_frag.h"
  49:Middlewares/Third_Party/LwIP/src/core/ipv4/ip4.c **** #include "lwip/inet_chksum.h"
  50:Middlewares/Third_Party/LwIP/src/core/ipv4/ip4.c **** #include "lwip/netif.h"
  51:Middlewares/Third_Party/LwIP/src/core/ipv4/ip4.c **** #include "lwip/icmp.h"
  52:Middlewares/Third_Party/LwIP/src/core/ipv4/ip4.c **** #include "lwip/igmp.h"
  53:Middlewares/Third_Party/LwIP/src/core/ipv4/ip4.c **** #include "lwip/priv/raw_priv.h"
  54:Middlewares/Third_Party/LwIP/src/core/ipv4/ip4.c **** #include "lwip/udp.h"
  55:Middlewares/Third_Party/LwIP/src/core/ipv4/ip4.c **** #include "lwip/priv/tcp_priv.h"
  56:Middlewares/Third_Party/LwIP/src/core/ipv4/ip4.c **** #include "lwip/autoip.h"
  57:Middlewares/Third_Party/LwIP/src/core/ipv4/ip4.c **** #include "lwip/stats.h"
  58:Middlewares/Third_Party/LwIP/src/core/ipv4/ip4.c **** #include "lwip/prot/iana.h"
  59:Middlewares/Third_Party/LwIP/src/core/ipv4/ip4.c **** 
  60:Middlewares/Third_Party/LwIP/src/core/ipv4/ip4.c **** #include <string.h>
  61:Middlewares/Third_Party/LwIP/src/core/ipv4/ip4.c **** 
  62:Middlewares/Third_Party/LwIP/src/core/ipv4/ip4.c **** #ifdef LWIP_HOOK_FILENAME
  63:Middlewares/Third_Party/LwIP/src/core/ipv4/ip4.c **** #include LWIP_HOOK_FILENAME
  64:Middlewares/Third_Party/LwIP/src/core/ipv4/ip4.c **** #endif
  65:Middlewares/Third_Party/LwIP/src/core/ipv4/ip4.c **** 
  66:Middlewares/Third_Party/LwIP/src/core/ipv4/ip4.c **** /** Set this to 0 in the rare case of wanting to call an extra function to
  67:Middlewares/Third_Party/LwIP/src/core/ipv4/ip4.c ****  * generate the IP checksum (in contrast to calculating it on-the-fly). */
  68:Middlewares/Third_Party/LwIP/src/core/ipv4/ip4.c **** #ifndef LWIP_INLINE_IP_CHKSUM
  69:Middlewares/Third_Party/LwIP/src/core/ipv4/ip4.c **** #if LWIP_CHECKSUM_CTRL_PER_NETIF
  70:Middlewares/Third_Party/LwIP/src/core/ipv4/ip4.c **** #define LWIP_INLINE_IP_CHKSUM   0
  71:Middlewares/Third_Party/LwIP/src/core/ipv4/ip4.c **** #else /* LWIP_CHECKSUM_CTRL_PER_NETIF */
  72:Middlewares/Third_Party/LwIP/src/core/ipv4/ip4.c **** #define LWIP_INLINE_IP_CHKSUM   1
  73:Middlewares/Third_Party/LwIP/src/core/ipv4/ip4.c **** #endif /* LWIP_CHECKSUM_CTRL_PER_NETIF */
  74:Middlewares/Third_Party/LwIP/src/core/ipv4/ip4.c **** #endif
  75:Middlewares/Third_Party/LwIP/src/core/ipv4/ip4.c **** 
  76:Middlewares/Third_Party/LwIP/src/core/ipv4/ip4.c **** #if LWIP_INLINE_IP_CHKSUM && CHECKSUM_GEN_IP
  77:Middlewares/Third_Party/LwIP/src/core/ipv4/ip4.c **** #define CHECKSUM_GEN_IP_INLINE  1
  78:Middlewares/Third_Party/LwIP/src/core/ipv4/ip4.c **** #else
  79:Middlewares/Third_Party/LwIP/src/core/ipv4/ip4.c **** #define CHECKSUM_GEN_IP_INLINE  0
  80:Middlewares/Third_Party/LwIP/src/core/ipv4/ip4.c **** #endif
  81:Middlewares/Third_Party/LwIP/src/core/ipv4/ip4.c **** 
  82:Middlewares/Third_Party/LwIP/src/core/ipv4/ip4.c **** #if LWIP_DHCP || defined(LWIP_IP_ACCEPT_UDP_PORT)
  83:Middlewares/Third_Party/LwIP/src/core/ipv4/ip4.c **** #define IP_ACCEPT_LINK_LAYER_ADDRESSING 1
  84:Middlewares/Third_Party/LwIP/src/core/ipv4/ip4.c **** 
  85:Middlewares/Third_Party/LwIP/src/core/ipv4/ip4.c **** /** Some defines for DHCP to let link-layer-addressed packets through while the
  86:Middlewares/Third_Party/LwIP/src/core/ipv4/ip4.c ****  * netif is down.
  87:Middlewares/Third_Party/LwIP/src/core/ipv4/ip4.c ****  * To use this in your own application/protocol, define LWIP_IP_ACCEPT_UDP_PORT(port)
ARM GAS  D:\Dev\msys64\tmp\cclk87TN.s 			page 3


  88:Middlewares/Third_Party/LwIP/src/core/ipv4/ip4.c ****  * to return 1 if the port is accepted and 0 if the port is not accepted.
  89:Middlewares/Third_Party/LwIP/src/core/ipv4/ip4.c ****  */
  90:Middlewares/Third_Party/LwIP/src/core/ipv4/ip4.c **** #if LWIP_DHCP && defined(LWIP_IP_ACCEPT_UDP_PORT)
  91:Middlewares/Third_Party/LwIP/src/core/ipv4/ip4.c **** /* accept DHCP client port and custom port */
  92:Middlewares/Third_Party/LwIP/src/core/ipv4/ip4.c **** #define IP_ACCEPT_LINK_LAYER_ADDRESSED_PORT(port) (((port) == PP_NTOHS(LWIP_IANA_PORT_DHCP_CLIENT))
  93:Middlewares/Third_Party/LwIP/src/core/ipv4/ip4.c ****          || (LWIP_IP_ACCEPT_UDP_PORT(port)))
  94:Middlewares/Third_Party/LwIP/src/core/ipv4/ip4.c **** #elif defined(LWIP_IP_ACCEPT_UDP_PORT) /* LWIP_DHCP && defined(LWIP_IP_ACCEPT_UDP_PORT) */
  95:Middlewares/Third_Party/LwIP/src/core/ipv4/ip4.c **** /* accept custom port only */
  96:Middlewares/Third_Party/LwIP/src/core/ipv4/ip4.c **** #define IP_ACCEPT_LINK_LAYER_ADDRESSED_PORT(port) (LWIP_IP_ACCEPT_UDP_PORT(port))
  97:Middlewares/Third_Party/LwIP/src/core/ipv4/ip4.c **** #else /* LWIP_DHCP && defined(LWIP_IP_ACCEPT_UDP_PORT) */
  98:Middlewares/Third_Party/LwIP/src/core/ipv4/ip4.c **** /* accept DHCP client port only */
  99:Middlewares/Third_Party/LwIP/src/core/ipv4/ip4.c **** #define IP_ACCEPT_LINK_LAYER_ADDRESSED_PORT(port) ((port) == PP_NTOHS(LWIP_IANA_PORT_DHCP_CLIENT))
 100:Middlewares/Third_Party/LwIP/src/core/ipv4/ip4.c **** #endif /* LWIP_DHCP && defined(LWIP_IP_ACCEPT_UDP_PORT) */
 101:Middlewares/Third_Party/LwIP/src/core/ipv4/ip4.c **** 
 102:Middlewares/Third_Party/LwIP/src/core/ipv4/ip4.c **** #else /* LWIP_DHCP */
 103:Middlewares/Third_Party/LwIP/src/core/ipv4/ip4.c **** #define IP_ACCEPT_LINK_LAYER_ADDRESSING 0
 104:Middlewares/Third_Party/LwIP/src/core/ipv4/ip4.c **** #endif /* LWIP_DHCP */
 105:Middlewares/Third_Party/LwIP/src/core/ipv4/ip4.c **** 
 106:Middlewares/Third_Party/LwIP/src/core/ipv4/ip4.c **** /** The IP header ID of the next outgoing IP packet */
 107:Middlewares/Third_Party/LwIP/src/core/ipv4/ip4.c **** static u16_t ip_id;
 108:Middlewares/Third_Party/LwIP/src/core/ipv4/ip4.c **** 
 109:Middlewares/Third_Party/LwIP/src/core/ipv4/ip4.c **** #if LWIP_MULTICAST_TX_OPTIONS
 110:Middlewares/Third_Party/LwIP/src/core/ipv4/ip4.c **** /** The default netif used for multicast */
 111:Middlewares/Third_Party/LwIP/src/core/ipv4/ip4.c **** static struct netif *ip4_default_multicast_netif;
 112:Middlewares/Third_Party/LwIP/src/core/ipv4/ip4.c **** 
 113:Middlewares/Third_Party/LwIP/src/core/ipv4/ip4.c **** /**
 114:Middlewares/Third_Party/LwIP/src/core/ipv4/ip4.c ****  * @ingroup ip4
 115:Middlewares/Third_Party/LwIP/src/core/ipv4/ip4.c ****  * Set a default netif for IPv4 multicast. */
 116:Middlewares/Third_Party/LwIP/src/core/ipv4/ip4.c **** void
 117:Middlewares/Third_Party/LwIP/src/core/ipv4/ip4.c **** ip4_set_default_multicast_netif(struct netif *default_multicast_netif)
 118:Middlewares/Third_Party/LwIP/src/core/ipv4/ip4.c **** {
 119:Middlewares/Third_Party/LwIP/src/core/ipv4/ip4.c ****   ip4_default_multicast_netif = default_multicast_netif;
 120:Middlewares/Third_Party/LwIP/src/core/ipv4/ip4.c **** }
 121:Middlewares/Third_Party/LwIP/src/core/ipv4/ip4.c **** #endif /* LWIP_MULTICAST_TX_OPTIONS */
 122:Middlewares/Third_Party/LwIP/src/core/ipv4/ip4.c **** 
 123:Middlewares/Third_Party/LwIP/src/core/ipv4/ip4.c **** #ifdef LWIP_HOOK_IP4_ROUTE_SRC
 124:Middlewares/Third_Party/LwIP/src/core/ipv4/ip4.c **** /**
 125:Middlewares/Third_Party/LwIP/src/core/ipv4/ip4.c ****  * Source based IPv4 routing must be fully implemented in
 126:Middlewares/Third_Party/LwIP/src/core/ipv4/ip4.c ****  * LWIP_HOOK_IP4_ROUTE_SRC(). This function only provides the parameters.
 127:Middlewares/Third_Party/LwIP/src/core/ipv4/ip4.c ****  */
 128:Middlewares/Third_Party/LwIP/src/core/ipv4/ip4.c **** struct netif *
 129:Middlewares/Third_Party/LwIP/src/core/ipv4/ip4.c **** ip4_route_src(const ip4_addr_t *src, const ip4_addr_t *dest)
 130:Middlewares/Third_Party/LwIP/src/core/ipv4/ip4.c **** {
 131:Middlewares/Third_Party/LwIP/src/core/ipv4/ip4.c ****   if (src != NULL) {
 132:Middlewares/Third_Party/LwIP/src/core/ipv4/ip4.c ****     /* when src==NULL, the hook is called from ip4_route(dest) */
 133:Middlewares/Third_Party/LwIP/src/core/ipv4/ip4.c ****     struct netif *netif = LWIP_HOOK_IP4_ROUTE_SRC(src, dest);
 134:Middlewares/Third_Party/LwIP/src/core/ipv4/ip4.c ****     if (netif != NULL) {
 135:Middlewares/Third_Party/LwIP/src/core/ipv4/ip4.c ****       return netif;
 136:Middlewares/Third_Party/LwIP/src/core/ipv4/ip4.c ****     }
 137:Middlewares/Third_Party/LwIP/src/core/ipv4/ip4.c ****   }
 138:Middlewares/Third_Party/LwIP/src/core/ipv4/ip4.c ****   return ip4_route(dest);
 139:Middlewares/Third_Party/LwIP/src/core/ipv4/ip4.c **** }
 140:Middlewares/Third_Party/LwIP/src/core/ipv4/ip4.c **** #endif /* LWIP_HOOK_IP4_ROUTE_SRC */
 141:Middlewares/Third_Party/LwIP/src/core/ipv4/ip4.c **** 
 142:Middlewares/Third_Party/LwIP/src/core/ipv4/ip4.c **** /**
 143:Middlewares/Third_Party/LwIP/src/core/ipv4/ip4.c ****  * Finds the appropriate network interface for a given IP address. It
 144:Middlewares/Third_Party/LwIP/src/core/ipv4/ip4.c ****  * searches the list of network interfaces linearly. A match is found
ARM GAS  D:\Dev\msys64\tmp\cclk87TN.s 			page 4


 145:Middlewares/Third_Party/LwIP/src/core/ipv4/ip4.c ****  * if the masked IP address of the network interface equals the masked
 146:Middlewares/Third_Party/LwIP/src/core/ipv4/ip4.c ****  * IP address given to the function.
 147:Middlewares/Third_Party/LwIP/src/core/ipv4/ip4.c ****  *
 148:Middlewares/Third_Party/LwIP/src/core/ipv4/ip4.c ****  * @param dest the destination IP address for which to find the route
 149:Middlewares/Third_Party/LwIP/src/core/ipv4/ip4.c ****  * @return the netif on which to send to reach dest
 150:Middlewares/Third_Party/LwIP/src/core/ipv4/ip4.c ****  */
 151:Middlewares/Third_Party/LwIP/src/core/ipv4/ip4.c **** struct netif *
 152:Middlewares/Third_Party/LwIP/src/core/ipv4/ip4.c **** ip4_route(const ip4_addr_t *dest)
 153:Middlewares/Third_Party/LwIP/src/core/ipv4/ip4.c **** {
 154:Middlewares/Third_Party/LwIP/src/core/ipv4/ip4.c **** #if !LWIP_SINGLE_NETIF
 155:Middlewares/Third_Party/LwIP/src/core/ipv4/ip4.c ****   struct netif *netif;
 156:Middlewares/Third_Party/LwIP/src/core/ipv4/ip4.c **** 
 157:Middlewares/Third_Party/LwIP/src/core/ipv4/ip4.c ****   LWIP_ASSERT_CORE_LOCKED();
 158:Middlewares/Third_Party/LwIP/src/core/ipv4/ip4.c **** 
 159:Middlewares/Third_Party/LwIP/src/core/ipv4/ip4.c **** #if LWIP_MULTICAST_TX_OPTIONS
 160:Middlewares/Third_Party/LwIP/src/core/ipv4/ip4.c ****   /* Use administratively selected interface for multicast by default */
 161:Middlewares/Third_Party/LwIP/src/core/ipv4/ip4.c ****   if (ip4_addr_ismulticast(dest) && ip4_default_multicast_netif) {
 162:Middlewares/Third_Party/LwIP/src/core/ipv4/ip4.c ****     return ip4_default_multicast_netif;
 163:Middlewares/Third_Party/LwIP/src/core/ipv4/ip4.c ****   }
 164:Middlewares/Third_Party/LwIP/src/core/ipv4/ip4.c **** #endif /* LWIP_MULTICAST_TX_OPTIONS */
 165:Middlewares/Third_Party/LwIP/src/core/ipv4/ip4.c **** 
 166:Middlewares/Third_Party/LwIP/src/core/ipv4/ip4.c ****   /* bug #54569: in case LWIP_SINGLE_NETIF=1 and LWIP_DEBUGF() disabled, the following loop is opti
 167:Middlewares/Third_Party/LwIP/src/core/ipv4/ip4.c ****   LWIP_UNUSED_ARG(dest);
 168:Middlewares/Third_Party/LwIP/src/core/ipv4/ip4.c **** 
 169:Middlewares/Third_Party/LwIP/src/core/ipv4/ip4.c ****   /* iterate through netifs */
 170:Middlewares/Third_Party/LwIP/src/core/ipv4/ip4.c ****   NETIF_FOREACH(netif) {
 171:Middlewares/Third_Party/LwIP/src/core/ipv4/ip4.c ****     /* is the netif up, does it have a link and a valid address? */
 172:Middlewares/Third_Party/LwIP/src/core/ipv4/ip4.c ****     if (netif_is_up(netif) && netif_is_link_up(netif) && !ip4_addr_isany_val(*netif_ip4_addr(netif)
 173:Middlewares/Third_Party/LwIP/src/core/ipv4/ip4.c ****       /* network mask matches? */
 174:Middlewares/Third_Party/LwIP/src/core/ipv4/ip4.c ****       if (ip4_addr_netcmp(dest, netif_ip4_addr(netif), netif_ip4_netmask(netif))) {
 175:Middlewares/Third_Party/LwIP/src/core/ipv4/ip4.c ****         /* return netif on which to forward IP packet */
 176:Middlewares/Third_Party/LwIP/src/core/ipv4/ip4.c ****         return netif;
 177:Middlewares/Third_Party/LwIP/src/core/ipv4/ip4.c ****       }
 178:Middlewares/Third_Party/LwIP/src/core/ipv4/ip4.c ****       /* gateway matches on a non broadcast interface? (i.e. peer in a point to point interface) */
 179:Middlewares/Third_Party/LwIP/src/core/ipv4/ip4.c ****       if (((netif->flags & NETIF_FLAG_BROADCAST) == 0) && ip4_addr_cmp(dest, netif_ip4_gw(netif))) 
 180:Middlewares/Third_Party/LwIP/src/core/ipv4/ip4.c ****         /* return netif on which to forward IP packet */
 181:Middlewares/Third_Party/LwIP/src/core/ipv4/ip4.c ****         return netif;
 182:Middlewares/Third_Party/LwIP/src/core/ipv4/ip4.c ****       }
 183:Middlewares/Third_Party/LwIP/src/core/ipv4/ip4.c ****     }
 184:Middlewares/Third_Party/LwIP/src/core/ipv4/ip4.c ****   }
 185:Middlewares/Third_Party/LwIP/src/core/ipv4/ip4.c **** 
 186:Middlewares/Third_Party/LwIP/src/core/ipv4/ip4.c **** #if LWIP_NETIF_LOOPBACK && !LWIP_HAVE_LOOPIF
 187:Middlewares/Third_Party/LwIP/src/core/ipv4/ip4.c ****   /* loopif is disabled, looopback traffic is passed through any netif */
 188:Middlewares/Third_Party/LwIP/src/core/ipv4/ip4.c ****   if (ip4_addr_isloopback(dest)) {
 189:Middlewares/Third_Party/LwIP/src/core/ipv4/ip4.c ****     /* don't check for link on loopback traffic */
 190:Middlewares/Third_Party/LwIP/src/core/ipv4/ip4.c ****     if (netif_default != NULL && netif_is_up(netif_default)) {
 191:Middlewares/Third_Party/LwIP/src/core/ipv4/ip4.c ****       return netif_default;
 192:Middlewares/Third_Party/LwIP/src/core/ipv4/ip4.c ****     }
 193:Middlewares/Third_Party/LwIP/src/core/ipv4/ip4.c ****     /* default netif is not up, just use any netif for loopback traffic */
 194:Middlewares/Third_Party/LwIP/src/core/ipv4/ip4.c ****     NETIF_FOREACH(netif) {
 195:Middlewares/Third_Party/LwIP/src/core/ipv4/ip4.c ****       if (netif_is_up(netif)) {
 196:Middlewares/Third_Party/LwIP/src/core/ipv4/ip4.c ****         return netif;
 197:Middlewares/Third_Party/LwIP/src/core/ipv4/ip4.c ****       }
 198:Middlewares/Third_Party/LwIP/src/core/ipv4/ip4.c ****     }
 199:Middlewares/Third_Party/LwIP/src/core/ipv4/ip4.c ****     return NULL;
 200:Middlewares/Third_Party/LwIP/src/core/ipv4/ip4.c ****   }
 201:Middlewares/Third_Party/LwIP/src/core/ipv4/ip4.c **** #endif /* LWIP_NETIF_LOOPBACK && !LWIP_HAVE_LOOPIF */
ARM GAS  D:\Dev\msys64\tmp\cclk87TN.s 			page 5


 202:Middlewares/Third_Party/LwIP/src/core/ipv4/ip4.c **** 
 203:Middlewares/Third_Party/LwIP/src/core/ipv4/ip4.c **** #ifdef LWIP_HOOK_IP4_ROUTE_SRC
 204:Middlewares/Third_Party/LwIP/src/core/ipv4/ip4.c ****   netif = LWIP_HOOK_IP4_ROUTE_SRC(NULL, dest);
 205:Middlewares/Third_Party/LwIP/src/core/ipv4/ip4.c ****   if (netif != NULL) {
 206:Middlewares/Third_Party/LwIP/src/core/ipv4/ip4.c ****     return netif;
 207:Middlewares/Third_Party/LwIP/src/core/ipv4/ip4.c ****   }
 208:Middlewares/Third_Party/LwIP/src/core/ipv4/ip4.c **** #elif defined(LWIP_HOOK_IP4_ROUTE)
 209:Middlewares/Third_Party/LwIP/src/core/ipv4/ip4.c ****   netif = LWIP_HOOK_IP4_ROUTE(dest);
 210:Middlewares/Third_Party/LwIP/src/core/ipv4/ip4.c ****   if (netif != NULL) {
 211:Middlewares/Third_Party/LwIP/src/core/ipv4/ip4.c ****     return netif;
 212:Middlewares/Third_Party/LwIP/src/core/ipv4/ip4.c ****   }
 213:Middlewares/Third_Party/LwIP/src/core/ipv4/ip4.c **** #endif
 214:Middlewares/Third_Party/LwIP/src/core/ipv4/ip4.c **** #endif /* !LWIP_SINGLE_NETIF */
 215:Middlewares/Third_Party/LwIP/src/core/ipv4/ip4.c **** 
 216:Middlewares/Third_Party/LwIP/src/core/ipv4/ip4.c ****   if ((netif_default == NULL) || !netif_is_up(netif_default) || !netif_is_link_up(netif_default) ||
 217:Middlewares/Third_Party/LwIP/src/core/ipv4/ip4.c ****       ip4_addr_isany_val(*netif_ip4_addr(netif_default)) || ip4_addr_isloopback(dest)) {
 218:Middlewares/Third_Party/LwIP/src/core/ipv4/ip4.c ****     /* No matching netif found and default netif is not usable.
 219:Middlewares/Third_Party/LwIP/src/core/ipv4/ip4.c ****        If this is not good enough for you, use LWIP_HOOK_IP4_ROUTE() */
 220:Middlewares/Third_Party/LwIP/src/core/ipv4/ip4.c ****     LWIP_DEBUGF(IP_DEBUG | LWIP_DBG_LEVEL_SERIOUS, ("ip4_route: No route to %"U16_F".%"U16_F".%"U16
 221:Middlewares/Third_Party/LwIP/src/core/ipv4/ip4.c ****                 ip4_addr1_16(dest), ip4_addr2_16(dest), ip4_addr3_16(dest), ip4_addr4_16(dest)));
 222:Middlewares/Third_Party/LwIP/src/core/ipv4/ip4.c ****     IP_STATS_INC(ip.rterr);
 223:Middlewares/Third_Party/LwIP/src/core/ipv4/ip4.c ****     MIB2_STATS_INC(mib2.ipoutnoroutes);
 224:Middlewares/Third_Party/LwIP/src/core/ipv4/ip4.c ****     return NULL;
 225:Middlewares/Third_Party/LwIP/src/core/ipv4/ip4.c ****   }
 226:Middlewares/Third_Party/LwIP/src/core/ipv4/ip4.c **** 
 227:Middlewares/Third_Party/LwIP/src/core/ipv4/ip4.c ****   return netif_default;
 228:Middlewares/Third_Party/LwIP/src/core/ipv4/ip4.c **** }
 229:Middlewares/Third_Party/LwIP/src/core/ipv4/ip4.c **** 
 230:Middlewares/Third_Party/LwIP/src/core/ipv4/ip4.c **** #if IP_FORWARD
 231:Middlewares/Third_Party/LwIP/src/core/ipv4/ip4.c **** /**
 232:Middlewares/Third_Party/LwIP/src/core/ipv4/ip4.c ****  * Determine whether an IP address is in a reserved set of addresses
 233:Middlewares/Third_Party/LwIP/src/core/ipv4/ip4.c ****  * that may not be forwarded, or whether datagrams to that destination
 234:Middlewares/Third_Party/LwIP/src/core/ipv4/ip4.c ****  * may be forwarded.
 235:Middlewares/Third_Party/LwIP/src/core/ipv4/ip4.c ****  * @param p the packet to forward
 236:Middlewares/Third_Party/LwIP/src/core/ipv4/ip4.c ****  * @return 1: can forward 0: discard
 237:Middlewares/Third_Party/LwIP/src/core/ipv4/ip4.c ****  */
 238:Middlewares/Third_Party/LwIP/src/core/ipv4/ip4.c **** static int
 239:Middlewares/Third_Party/LwIP/src/core/ipv4/ip4.c **** ip4_canforward(struct pbuf *p)
 240:Middlewares/Third_Party/LwIP/src/core/ipv4/ip4.c **** {
 241:Middlewares/Third_Party/LwIP/src/core/ipv4/ip4.c ****   u32_t addr = lwip_htonl(ip4_addr_get_u32(ip4_current_dest_addr()));
 242:Middlewares/Third_Party/LwIP/src/core/ipv4/ip4.c **** 
 243:Middlewares/Third_Party/LwIP/src/core/ipv4/ip4.c **** #ifdef LWIP_HOOK_IP4_CANFORWARD
 244:Middlewares/Third_Party/LwIP/src/core/ipv4/ip4.c ****   int ret = LWIP_HOOK_IP4_CANFORWARD(p, addr);
 245:Middlewares/Third_Party/LwIP/src/core/ipv4/ip4.c ****   if (ret >= 0) {
 246:Middlewares/Third_Party/LwIP/src/core/ipv4/ip4.c ****     return ret;
 247:Middlewares/Third_Party/LwIP/src/core/ipv4/ip4.c ****   }
 248:Middlewares/Third_Party/LwIP/src/core/ipv4/ip4.c **** #endif /* LWIP_HOOK_IP4_CANFORWARD */
 249:Middlewares/Third_Party/LwIP/src/core/ipv4/ip4.c **** 
 250:Middlewares/Third_Party/LwIP/src/core/ipv4/ip4.c ****   if (p->flags & PBUF_FLAG_LLBCAST) {
 251:Middlewares/Third_Party/LwIP/src/core/ipv4/ip4.c ****     /* don't route link-layer broadcasts */
 252:Middlewares/Third_Party/LwIP/src/core/ipv4/ip4.c ****     return 0;
 253:Middlewares/Third_Party/LwIP/src/core/ipv4/ip4.c ****   }
 254:Middlewares/Third_Party/LwIP/src/core/ipv4/ip4.c ****   if ((p->flags & PBUF_FLAG_LLMCAST) || IP_MULTICAST(addr)) {
 255:Middlewares/Third_Party/LwIP/src/core/ipv4/ip4.c ****     /* don't route link-layer multicasts (use LWIP_HOOK_IP4_CANFORWARD instead) */
 256:Middlewares/Third_Party/LwIP/src/core/ipv4/ip4.c ****     return 0;
 257:Middlewares/Third_Party/LwIP/src/core/ipv4/ip4.c ****   }
 258:Middlewares/Third_Party/LwIP/src/core/ipv4/ip4.c ****   if (IP_EXPERIMENTAL(addr)) {
ARM GAS  D:\Dev\msys64\tmp\cclk87TN.s 			page 6


 259:Middlewares/Third_Party/LwIP/src/core/ipv4/ip4.c ****     return 0;
 260:Middlewares/Third_Party/LwIP/src/core/ipv4/ip4.c ****   }
 261:Middlewares/Third_Party/LwIP/src/core/ipv4/ip4.c ****   if (IP_CLASSA(addr)) {
 262:Middlewares/Third_Party/LwIP/src/core/ipv4/ip4.c ****     u32_t net = addr & IP_CLASSA_NET;
 263:Middlewares/Third_Party/LwIP/src/core/ipv4/ip4.c ****     if ((net == 0) || (net == ((u32_t)IP_LOOPBACKNET << IP_CLASSA_NSHIFT))) {
 264:Middlewares/Third_Party/LwIP/src/core/ipv4/ip4.c ****       /* don't route loopback packets */
 265:Middlewares/Third_Party/LwIP/src/core/ipv4/ip4.c ****       return 0;
 266:Middlewares/Third_Party/LwIP/src/core/ipv4/ip4.c ****     }
 267:Middlewares/Third_Party/LwIP/src/core/ipv4/ip4.c ****   }
 268:Middlewares/Third_Party/LwIP/src/core/ipv4/ip4.c ****   return 1;
 269:Middlewares/Third_Party/LwIP/src/core/ipv4/ip4.c **** }
 270:Middlewares/Third_Party/LwIP/src/core/ipv4/ip4.c **** 
 271:Middlewares/Third_Party/LwIP/src/core/ipv4/ip4.c **** /**
 272:Middlewares/Third_Party/LwIP/src/core/ipv4/ip4.c ****  * Forwards an IP packet. It finds an appropriate route for the
 273:Middlewares/Third_Party/LwIP/src/core/ipv4/ip4.c ****  * packet, decrements the TTL value of the packet, adjusts the
 274:Middlewares/Third_Party/LwIP/src/core/ipv4/ip4.c ****  * checksum and outputs the packet on the appropriate interface.
 275:Middlewares/Third_Party/LwIP/src/core/ipv4/ip4.c ****  *
 276:Middlewares/Third_Party/LwIP/src/core/ipv4/ip4.c ****  * @param p the packet to forward (p->payload points to IP header)
 277:Middlewares/Third_Party/LwIP/src/core/ipv4/ip4.c ****  * @param iphdr the IP header of the input packet
 278:Middlewares/Third_Party/LwIP/src/core/ipv4/ip4.c ****  * @param inp the netif on which this packet was received
 279:Middlewares/Third_Party/LwIP/src/core/ipv4/ip4.c ****  */
 280:Middlewares/Third_Party/LwIP/src/core/ipv4/ip4.c **** static void
 281:Middlewares/Third_Party/LwIP/src/core/ipv4/ip4.c **** ip4_forward(struct pbuf *p, struct ip_hdr *iphdr, struct netif *inp)
 282:Middlewares/Third_Party/LwIP/src/core/ipv4/ip4.c **** {
 283:Middlewares/Third_Party/LwIP/src/core/ipv4/ip4.c ****   struct netif *netif;
 284:Middlewares/Third_Party/LwIP/src/core/ipv4/ip4.c **** 
 285:Middlewares/Third_Party/LwIP/src/core/ipv4/ip4.c ****   PERF_START;
 286:Middlewares/Third_Party/LwIP/src/core/ipv4/ip4.c ****   LWIP_UNUSED_ARG(inp);
 287:Middlewares/Third_Party/LwIP/src/core/ipv4/ip4.c **** 
 288:Middlewares/Third_Party/LwIP/src/core/ipv4/ip4.c ****   if (!ip4_canforward(p)) {
 289:Middlewares/Third_Party/LwIP/src/core/ipv4/ip4.c ****     goto return_noroute;
 290:Middlewares/Third_Party/LwIP/src/core/ipv4/ip4.c ****   }
 291:Middlewares/Third_Party/LwIP/src/core/ipv4/ip4.c **** 
 292:Middlewares/Third_Party/LwIP/src/core/ipv4/ip4.c ****   /* RFC3927 2.7: do not forward link-local addresses */
 293:Middlewares/Third_Party/LwIP/src/core/ipv4/ip4.c ****   if (ip4_addr_islinklocal(ip4_current_dest_addr())) {
 294:Middlewares/Third_Party/LwIP/src/core/ipv4/ip4.c ****     LWIP_DEBUGF(IP_DEBUG, ("ip4_forward: not forwarding LLA %"U16_F".%"U16_F".%"U16_F".%"U16_F"\n",
 295:Middlewares/Third_Party/LwIP/src/core/ipv4/ip4.c ****                            ip4_addr1_16(ip4_current_dest_addr()), ip4_addr2_16(ip4_current_dest_add
 296:Middlewares/Third_Party/LwIP/src/core/ipv4/ip4.c ****                            ip4_addr3_16(ip4_current_dest_addr()), ip4_addr4_16(ip4_current_dest_add
 297:Middlewares/Third_Party/LwIP/src/core/ipv4/ip4.c ****     goto return_noroute;
 298:Middlewares/Third_Party/LwIP/src/core/ipv4/ip4.c ****   }
 299:Middlewares/Third_Party/LwIP/src/core/ipv4/ip4.c **** 
 300:Middlewares/Third_Party/LwIP/src/core/ipv4/ip4.c ****   /* Find network interface where to forward this IP packet to. */
 301:Middlewares/Third_Party/LwIP/src/core/ipv4/ip4.c ****   netif = ip4_route_src(ip4_current_src_addr(), ip4_current_dest_addr());
 302:Middlewares/Third_Party/LwIP/src/core/ipv4/ip4.c ****   if (netif == NULL) {
 303:Middlewares/Third_Party/LwIP/src/core/ipv4/ip4.c ****     LWIP_DEBUGF(IP_DEBUG, ("ip4_forward: no forwarding route for %"U16_F".%"U16_F".%"U16_F".%"U16_F
 304:Middlewares/Third_Party/LwIP/src/core/ipv4/ip4.c ****                            ip4_addr1_16(ip4_current_dest_addr()), ip4_addr2_16(ip4_current_dest_add
 305:Middlewares/Third_Party/LwIP/src/core/ipv4/ip4.c ****                            ip4_addr3_16(ip4_current_dest_addr()), ip4_addr4_16(ip4_current_dest_add
 306:Middlewares/Third_Party/LwIP/src/core/ipv4/ip4.c ****     /* @todo: send ICMP_DUR_NET? */
 307:Middlewares/Third_Party/LwIP/src/core/ipv4/ip4.c ****     goto return_noroute;
 308:Middlewares/Third_Party/LwIP/src/core/ipv4/ip4.c ****   }
 309:Middlewares/Third_Party/LwIP/src/core/ipv4/ip4.c **** #if !IP_FORWARD_ALLOW_TX_ON_RX_NETIF
 310:Middlewares/Third_Party/LwIP/src/core/ipv4/ip4.c ****   /* Do not forward packets onto the same network interface on which
 311:Middlewares/Third_Party/LwIP/src/core/ipv4/ip4.c ****    * they arrived. */
 312:Middlewares/Third_Party/LwIP/src/core/ipv4/ip4.c ****   if (netif == inp) {
 313:Middlewares/Third_Party/LwIP/src/core/ipv4/ip4.c ****     LWIP_DEBUGF(IP_DEBUG, ("ip4_forward: not bouncing packets back on incoming interface.\n"));
 314:Middlewares/Third_Party/LwIP/src/core/ipv4/ip4.c ****     goto return_noroute;
 315:Middlewares/Third_Party/LwIP/src/core/ipv4/ip4.c ****   }
ARM GAS  D:\Dev\msys64\tmp\cclk87TN.s 			page 7


 316:Middlewares/Third_Party/LwIP/src/core/ipv4/ip4.c **** #endif /* IP_FORWARD_ALLOW_TX_ON_RX_NETIF */
 317:Middlewares/Third_Party/LwIP/src/core/ipv4/ip4.c **** 
 318:Middlewares/Third_Party/LwIP/src/core/ipv4/ip4.c ****   /* decrement TTL */
 319:Middlewares/Third_Party/LwIP/src/core/ipv4/ip4.c ****   IPH_TTL_SET(iphdr, IPH_TTL(iphdr) - 1);
 320:Middlewares/Third_Party/LwIP/src/core/ipv4/ip4.c ****   /* send ICMP if TTL == 0 */
 321:Middlewares/Third_Party/LwIP/src/core/ipv4/ip4.c ****   if (IPH_TTL(iphdr) == 0) {
 322:Middlewares/Third_Party/LwIP/src/core/ipv4/ip4.c ****     MIB2_STATS_INC(mib2.ipinhdrerrors);
 323:Middlewares/Third_Party/LwIP/src/core/ipv4/ip4.c **** #if LWIP_ICMP
 324:Middlewares/Third_Party/LwIP/src/core/ipv4/ip4.c ****     /* Don't send ICMP messages in response to ICMP messages */
 325:Middlewares/Third_Party/LwIP/src/core/ipv4/ip4.c ****     if (IPH_PROTO(iphdr) != IP_PROTO_ICMP) {
 326:Middlewares/Third_Party/LwIP/src/core/ipv4/ip4.c ****       icmp_time_exceeded(p, ICMP_TE_TTL);
 327:Middlewares/Third_Party/LwIP/src/core/ipv4/ip4.c ****     }
 328:Middlewares/Third_Party/LwIP/src/core/ipv4/ip4.c **** #endif /* LWIP_ICMP */
 329:Middlewares/Third_Party/LwIP/src/core/ipv4/ip4.c ****     return;
 330:Middlewares/Third_Party/LwIP/src/core/ipv4/ip4.c ****   }
 331:Middlewares/Third_Party/LwIP/src/core/ipv4/ip4.c **** 
 332:Middlewares/Third_Party/LwIP/src/core/ipv4/ip4.c ****   /* Incrementally update the IP checksum. */
 333:Middlewares/Third_Party/LwIP/src/core/ipv4/ip4.c ****   if (IPH_CHKSUM(iphdr) >= PP_HTONS(0xffffU - 0x100)) {
 334:Middlewares/Third_Party/LwIP/src/core/ipv4/ip4.c ****     IPH_CHKSUM_SET(iphdr, (u16_t)(IPH_CHKSUM(iphdr) + PP_HTONS(0x100) + 1));
 335:Middlewares/Third_Party/LwIP/src/core/ipv4/ip4.c ****   } else {
 336:Middlewares/Third_Party/LwIP/src/core/ipv4/ip4.c ****     IPH_CHKSUM_SET(iphdr, (u16_t)(IPH_CHKSUM(iphdr) + PP_HTONS(0x100)));
 337:Middlewares/Third_Party/LwIP/src/core/ipv4/ip4.c ****   }
 338:Middlewares/Third_Party/LwIP/src/core/ipv4/ip4.c **** 
 339:Middlewares/Third_Party/LwIP/src/core/ipv4/ip4.c ****   LWIP_DEBUGF(IP_DEBUG, ("ip4_forward: forwarding packet to %"U16_F".%"U16_F".%"U16_F".%"U16_F"\n",
 340:Middlewares/Third_Party/LwIP/src/core/ipv4/ip4.c ****                          ip4_addr1_16(ip4_current_dest_addr()), ip4_addr2_16(ip4_current_dest_addr(
 341:Middlewares/Third_Party/LwIP/src/core/ipv4/ip4.c ****                          ip4_addr3_16(ip4_current_dest_addr()), ip4_addr4_16(ip4_current_dest_addr(
 342:Middlewares/Third_Party/LwIP/src/core/ipv4/ip4.c **** 
 343:Middlewares/Third_Party/LwIP/src/core/ipv4/ip4.c ****   IP_STATS_INC(ip.fw);
 344:Middlewares/Third_Party/LwIP/src/core/ipv4/ip4.c ****   MIB2_STATS_INC(mib2.ipforwdatagrams);
 345:Middlewares/Third_Party/LwIP/src/core/ipv4/ip4.c ****   IP_STATS_INC(ip.xmit);
 346:Middlewares/Third_Party/LwIP/src/core/ipv4/ip4.c **** 
 347:Middlewares/Third_Party/LwIP/src/core/ipv4/ip4.c ****   PERF_STOP("ip4_forward");
 348:Middlewares/Third_Party/LwIP/src/core/ipv4/ip4.c ****   /* don't fragment if interface has mtu set to 0 [loopif] */
 349:Middlewares/Third_Party/LwIP/src/core/ipv4/ip4.c ****   if (netif->mtu && (p->tot_len > netif->mtu)) {
 350:Middlewares/Third_Party/LwIP/src/core/ipv4/ip4.c ****     if ((IPH_OFFSET(iphdr) & PP_NTOHS(IP_DF)) == 0) {
 351:Middlewares/Third_Party/LwIP/src/core/ipv4/ip4.c **** #if IP_FRAG
 352:Middlewares/Third_Party/LwIP/src/core/ipv4/ip4.c ****       ip4_frag(p, netif, ip4_current_dest_addr());
 353:Middlewares/Third_Party/LwIP/src/core/ipv4/ip4.c **** #else /* IP_FRAG */
 354:Middlewares/Third_Party/LwIP/src/core/ipv4/ip4.c ****       /* @todo: send ICMP Destination Unreachable code 13 "Communication administratively prohibite
 355:Middlewares/Third_Party/LwIP/src/core/ipv4/ip4.c **** #endif /* IP_FRAG */
 356:Middlewares/Third_Party/LwIP/src/core/ipv4/ip4.c ****     } else {
 357:Middlewares/Third_Party/LwIP/src/core/ipv4/ip4.c **** #if LWIP_ICMP
 358:Middlewares/Third_Party/LwIP/src/core/ipv4/ip4.c ****       /* send ICMP Destination Unreachable code 4: "Fragmentation Needed and DF Set" */
 359:Middlewares/Third_Party/LwIP/src/core/ipv4/ip4.c ****       icmp_dest_unreach(p, ICMP_DUR_FRAG);
 360:Middlewares/Third_Party/LwIP/src/core/ipv4/ip4.c **** #endif /* LWIP_ICMP */
 361:Middlewares/Third_Party/LwIP/src/core/ipv4/ip4.c ****     }
 362:Middlewares/Third_Party/LwIP/src/core/ipv4/ip4.c ****     return;
 363:Middlewares/Third_Party/LwIP/src/core/ipv4/ip4.c ****   }
 364:Middlewares/Third_Party/LwIP/src/core/ipv4/ip4.c ****   /* transmit pbuf on chosen interface */
 365:Middlewares/Third_Party/LwIP/src/core/ipv4/ip4.c ****   netif->output(netif, p, ip4_current_dest_addr());
 366:Middlewares/Third_Party/LwIP/src/core/ipv4/ip4.c ****   return;
 367:Middlewares/Third_Party/LwIP/src/core/ipv4/ip4.c **** return_noroute:
 368:Middlewares/Third_Party/LwIP/src/core/ipv4/ip4.c ****   MIB2_STATS_INC(mib2.ipoutnoroutes);
 369:Middlewares/Third_Party/LwIP/src/core/ipv4/ip4.c **** }
 370:Middlewares/Third_Party/LwIP/src/core/ipv4/ip4.c **** #endif /* IP_FORWARD */
 371:Middlewares/Third_Party/LwIP/src/core/ipv4/ip4.c **** 
 372:Middlewares/Third_Party/LwIP/src/core/ipv4/ip4.c **** /** Return true if the current input packet should be accepted on this netif */
ARM GAS  D:\Dev\msys64\tmp\cclk87TN.s 			page 8


 373:Middlewares/Third_Party/LwIP/src/core/ipv4/ip4.c **** static int
 374:Middlewares/Third_Party/LwIP/src/core/ipv4/ip4.c **** ip4_input_accept(struct netif *netif)
 375:Middlewares/Third_Party/LwIP/src/core/ipv4/ip4.c **** {
  29              		.loc 1 375 1 view -0
  30              		.cfi_startproc
  31              		@ args = 0, pretend = 0, frame = 0
  32              		@ frame_needed = 0, uses_anonymous_args = 0
  33              		.loc 1 375 1 is_stmt 0 view .LVU1
  34 0000 08B5     		push	{r3, lr}
  35              	.LCFI0:
  36              		.cfi_def_cfa_offset 8
  37              		.cfi_offset 3, -8
  38              		.cfi_offset 14, -4
 376:Middlewares/Third_Party/LwIP/src/core/ipv4/ip4.c ****   LWIP_DEBUGF(IP_DEBUG, ("ip_input: iphdr->dest 0x%"X32_F" netif->ip_addr 0x%"X32_F" (0x%"X32_F", 0
 377:Middlewares/Third_Party/LwIP/src/core/ipv4/ip4.c ****                          ip4_addr_get_u32(ip4_current_dest_addr()), ip4_addr_get_u32(netif_ip4_addr
 378:Middlewares/Third_Party/LwIP/src/core/ipv4/ip4.c ****                          ip4_addr_get_u32(ip4_current_dest_addr()) & ip4_addr_get_u32(netif_ip4_net
 379:Middlewares/Third_Party/LwIP/src/core/ipv4/ip4.c ****                          ip4_addr_get_u32(netif_ip4_addr(netif)) & ip4_addr_get_u32(netif_ip4_netma
 380:Middlewares/Third_Party/LwIP/src/core/ipv4/ip4.c ****                          ip4_addr_get_u32(ip4_current_dest_addr()) & ~ip4_addr_get_u32(netif_ip4_ne
  39              		.loc 1 380 115 is_stmt 1 view .LVU2
 381:Middlewares/Third_Party/LwIP/src/core/ipv4/ip4.c **** 
 382:Middlewares/Third_Party/LwIP/src/core/ipv4/ip4.c ****   /* interface is up and configured? */
 383:Middlewares/Third_Party/LwIP/src/core/ipv4/ip4.c ****   if ((netif_is_up(netif)) && (!ip4_addr_isany_val(*netif_ip4_addr(netif)))) {
  40              		.loc 1 383 3 view .LVU3
  41              		.loc 1 383 8 is_stmt 0 view .LVU4
  42 0002 90F83130 		ldrb	r3, [r0, #49]	@ zero_extendqisi2
  43              		.loc 1 383 6 view .LVU5
  44 0006 13F0010F 		tst	r3, #1
  45 000a 0DD0     		beq	.L4
  46 000c 0146     		mov	r1, r0
  47              		.loc 1 383 33 discriminator 1 view .LVU6
  48 000e 4368     		ldr	r3, [r0, #4]
  49              		.loc 1 383 28 discriminator 1 view .LVU7
  50 0010 63B1     		cbz	r3, .L5
 384:Middlewares/Third_Party/LwIP/src/core/ipv4/ip4.c ****     /* unicast to this interface address? */
 385:Middlewares/Third_Party/LwIP/src/core/ipv4/ip4.c ****     if (ip4_addr_cmp(ip4_current_dest_addr(), netif_ip4_addr(netif)) ||
  51              		.loc 1 385 5 is_stmt 1 view .LVU8
  52              		.loc 1 385 9 is_stmt 0 view .LVU9
  53 0012 074A     		ldr	r2, .L8
  54 0014 5069     		ldr	r0, [r2, #20]
  55              	.LVL1:
  56              		.loc 1 385 8 view .LVU10
  57 0016 8342     		cmp	r3, r0
  58 0018 04D0     		beq	.L3
 386:Middlewares/Third_Party/LwIP/src/core/ipv4/ip4.c ****         /* or broadcast on this interface network address? */
 387:Middlewares/Third_Party/LwIP/src/core/ipv4/ip4.c ****         ip4_addr_isbroadcast(ip4_current_dest_addr(), netif)
  59              		.loc 1 387 9 discriminator 1 view .LVU11
  60 001a FFF7FEFF 		bl	ip4_addr_isbroadcast_u32
  61              	.LVL2:
 385:Middlewares/Third_Party/LwIP/src/core/ipv4/ip4.c ****         /* or broadcast on this interface network address? */
  62              		.loc 1 385 70 discriminator 1 view .LVU12
  63 001e 08B9     		cbnz	r0, .L3
 388:Middlewares/Third_Party/LwIP/src/core/ipv4/ip4.c **** #if LWIP_NETIF_LOOPBACK && !LWIP_HAVE_LOOPIF
 389:Middlewares/Third_Party/LwIP/src/core/ipv4/ip4.c ****         || (ip4_addr_get_u32(ip4_current_dest_addr()) == PP_HTONL(IPADDR_LOOPBACK))
 390:Middlewares/Third_Party/LwIP/src/core/ipv4/ip4.c **** #endif /* LWIP_NETIF_LOOPBACK && !LWIP_HAVE_LOOPIF */
 391:Middlewares/Third_Party/LwIP/src/core/ipv4/ip4.c ****        ) {
 392:Middlewares/Third_Party/LwIP/src/core/ipv4/ip4.c ****       LWIP_DEBUGF(IP_DEBUG, ("ip4_input: packet accepted on interface %c%c\n",
 393:Middlewares/Third_Party/LwIP/src/core/ipv4/ip4.c ****                              netif->name[0], netif->name[1]));
ARM GAS  D:\Dev\msys64\tmp\cclk87TN.s 			page 9


 394:Middlewares/Third_Party/LwIP/src/core/ipv4/ip4.c ****       /* accept on this netif */
 395:Middlewares/Third_Party/LwIP/src/core/ipv4/ip4.c ****       return 1;
 396:Middlewares/Third_Party/LwIP/src/core/ipv4/ip4.c ****     }
 397:Middlewares/Third_Party/LwIP/src/core/ipv4/ip4.c **** #if LWIP_AUTOIP
 398:Middlewares/Third_Party/LwIP/src/core/ipv4/ip4.c ****     /* connections to link-local addresses must persist after changing
 399:Middlewares/Third_Party/LwIP/src/core/ipv4/ip4.c ****         the netif's address (RFC3927 ch. 1.9) */
 400:Middlewares/Third_Party/LwIP/src/core/ipv4/ip4.c ****     if (autoip_accept_packet(netif, ip4_current_dest_addr())) {
 401:Middlewares/Third_Party/LwIP/src/core/ipv4/ip4.c ****       LWIP_DEBUGF(IP_DEBUG, ("ip4_input: LLA packet accepted on interface %c%c\n",
 402:Middlewares/Third_Party/LwIP/src/core/ipv4/ip4.c ****                              netif->name[0], netif->name[1]));
 403:Middlewares/Third_Party/LwIP/src/core/ipv4/ip4.c ****       /* accept on this netif */
 404:Middlewares/Third_Party/LwIP/src/core/ipv4/ip4.c ****       return 1;
 405:Middlewares/Third_Party/LwIP/src/core/ipv4/ip4.c ****     }
 406:Middlewares/Third_Party/LwIP/src/core/ipv4/ip4.c **** #endif /* LWIP_AUTOIP */
 407:Middlewares/Third_Party/LwIP/src/core/ipv4/ip4.c ****   }
 408:Middlewares/Third_Party/LwIP/src/core/ipv4/ip4.c ****   return 0;
  64              		.loc 1 408 10 view .LVU13
  65 0020 0020     		movs	r0, #0
  66 0022 02E0     		b	.L1
  67              	.L3:
 393:Middlewares/Third_Party/LwIP/src/core/ipv4/ip4.c ****       /* accept on this netif */
  68              		.loc 1 393 62 is_stmt 1 view .LVU14
 395:Middlewares/Third_Party/LwIP/src/core/ipv4/ip4.c ****     }
  69              		.loc 1 395 7 view .LVU15
 395:Middlewares/Third_Party/LwIP/src/core/ipv4/ip4.c ****     }
  70              		.loc 1 395 14 is_stmt 0 view .LVU16
  71 0024 0120     		movs	r0, #1
  72 0026 00E0     		b	.L1
  73              	.LVL3:
  74              	.L4:
  75              		.loc 1 408 10 view .LVU17
  76 0028 0020     		movs	r0, #0
  77              	.LVL4:
  78              	.L1:
 409:Middlewares/Third_Party/LwIP/src/core/ipv4/ip4.c **** }
  79              		.loc 1 409 1 view .LVU18
  80 002a 08BD     		pop	{r3, pc}
  81              	.LVL5:
  82              	.L5:
 408:Middlewares/Third_Party/LwIP/src/core/ipv4/ip4.c **** }
  83              		.loc 1 408 10 view .LVU19
  84 002c 0020     		movs	r0, #0
  85              	.LVL6:
 408:Middlewares/Third_Party/LwIP/src/core/ipv4/ip4.c **** }
  86              		.loc 1 408 10 view .LVU20
  87 002e FCE7     		b	.L1
  88              	.L9:
  89              		.align	2
  90              	.L8:
  91 0030 00000000 		.word	ip_data
  92              		.cfi_endproc
  93              	.LFE26:
  95              		.section	.text.ip4_route,"ax",%progbits
  96              		.align	1
  97              		.global	ip4_route
  98              		.syntax unified
  99              		.thumb
 100              		.thumb_func
ARM GAS  D:\Dev\msys64\tmp\cclk87TN.s 			page 10


 101              		.fpu fpv5-sp-d16
 103              	ip4_route:
 104              	.LVL7:
 105              	.LFB25:
 153:Middlewares/Third_Party/LwIP/src/core/ipv4/ip4.c **** #if !LWIP_SINGLE_NETIF
 106              		.loc 1 153 1 is_stmt 1 view -0
 107              		.cfi_startproc
 108              		@ args = 0, pretend = 0, frame = 0
 109              		@ frame_needed = 0, uses_anonymous_args = 0
 110              		@ link register save eliminated.
 153:Middlewares/Third_Party/LwIP/src/core/ipv4/ip4.c **** #if !LWIP_SINGLE_NETIF
 111              		.loc 1 153 1 is_stmt 0 view .LVU22
 112 0000 30B4     		push	{r4, r5}
 113              	.LCFI1:
 114              		.cfi_def_cfa_offset 8
 115              		.cfi_offset 4, -8
 116              		.cfi_offset 5, -4
 117 0002 0446     		mov	r4, r0
 155:Middlewares/Third_Party/LwIP/src/core/ipv4/ip4.c **** 
 118              		.loc 1 155 3 is_stmt 1 view .LVU23
 157:Middlewares/Third_Party/LwIP/src/core/ipv4/ip4.c **** 
 119              		.loc 1 157 28 view .LVU24
 167:Middlewares/Third_Party/LwIP/src/core/ipv4/ip4.c **** 
 120              		.loc 1 167 3 view .LVU25
 170:Middlewares/Third_Party/LwIP/src/core/ipv4/ip4.c ****     /* is the netif up, does it have a link and a valid address? */
 121              		.loc 1 170 3 view .LVU26
 122 0004 164B     		ldr	r3, .L17
 123 0006 1868     		ldr	r0, [r3]
 124              	.LVL8:
 170:Middlewares/Third_Party/LwIP/src/core/ipv4/ip4.c ****     /* is the netif up, does it have a link and a valid address? */
 125              		.loc 1 170 3 is_stmt 0 view .LVU27
 126 0008 00E0     		b	.L11
 127              	.L12:
 170:Middlewares/Third_Party/LwIP/src/core/ipv4/ip4.c ****     /* is the netif up, does it have a link and a valid address? */
 128              		.loc 1 170 3 is_stmt 1 discriminator 2 view .LVU28
 129 000a 0068     		ldr	r0, [r0]
 130              	.LVL9:
 131              	.L11:
 170:Middlewares/Third_Party/LwIP/src/core/ipv4/ip4.c ****     /* is the netif up, does it have a link and a valid address? */
 132              		.loc 1 170 3 discriminator 1 view .LVU29
 133 000c B0B1     		cbz	r0, .L16
 172:Middlewares/Third_Party/LwIP/src/core/ipv4/ip4.c ****       /* network mask matches? */
 134              		.loc 1 172 5 view .LVU30
 172:Middlewares/Third_Party/LwIP/src/core/ipv4/ip4.c ****       /* network mask matches? */
 135              		.loc 1 172 9 is_stmt 0 view .LVU31
 136 000e 90F83130 		ldrb	r3, [r0, #49]	@ zero_extendqisi2
 172:Middlewares/Third_Party/LwIP/src/core/ipv4/ip4.c ****       /* network mask matches? */
 137              		.loc 1 172 8 view .LVU32
 138 0012 13F0010F 		tst	r3, #1
 139 0016 F8D0     		beq	.L12
 172:Middlewares/Third_Party/LwIP/src/core/ipv4/ip4.c ****       /* network mask matches? */
 140              		.loc 1 172 28 discriminator 1 view .LVU33
 141 0018 13F0040F 		tst	r3, #4
 142 001c F5D0     		beq	.L12
 172:Middlewares/Third_Party/LwIP/src/core/ipv4/ip4.c ****       /* network mask matches? */
 143              		.loc 1 172 59 discriminator 2 view .LVU34
 144 001e 4268     		ldr	r2, [r0, #4]
ARM GAS  D:\Dev\msys64\tmp\cclk87TN.s 			page 11


 172:Middlewares/Third_Party/LwIP/src/core/ipv4/ip4.c ****       /* network mask matches? */
 145              		.loc 1 172 55 discriminator 2 view .LVU35
 146 0020 002A     		cmp	r2, #0
 147 0022 F2D0     		beq	.L12
 174:Middlewares/Third_Party/LwIP/src/core/ipv4/ip4.c ****         /* return netif on which to forward IP packet */
 148              		.loc 1 174 7 is_stmt 1 view .LVU36
 174:Middlewares/Third_Party/LwIP/src/core/ipv4/ip4.c ****         /* return netif on which to forward IP packet */
 149              		.loc 1 174 11 is_stmt 0 view .LVU37
 150 0024 2168     		ldr	r1, [r4]
 151 0026 8568     		ldr	r5, [r0, #8]
 152 0028 4A40     		eors	r2, r2, r1
 174:Middlewares/Third_Party/LwIP/src/core/ipv4/ip4.c ****         /* return netif on which to forward IP packet */
 153              		.loc 1 174 10 view .LVU38
 154 002a 2A42     		tst	r2, r5
 155 002c 15D0     		beq	.L10
 179:Middlewares/Third_Party/LwIP/src/core/ipv4/ip4.c ****         /* return netif on which to forward IP packet */
 156              		.loc 1 179 7 is_stmt 1 view .LVU39
 179:Middlewares/Third_Party/LwIP/src/core/ipv4/ip4.c ****         /* return netif on which to forward IP packet */
 157              		.loc 1 179 10 is_stmt 0 view .LVU40
 158 002e 13F0020F 		tst	r3, #2
 159 0032 EAD1     		bne	.L12
 179:Middlewares/Third_Party/LwIP/src/core/ipv4/ip4.c ****         /* return netif on which to forward IP packet */
 160              		.loc 1 179 59 discriminator 1 view .LVU41
 161 0034 C368     		ldr	r3, [r0, #12]
 179:Middlewares/Third_Party/LwIP/src/core/ipv4/ip4.c ****         /* return netif on which to forward IP packet */
 162              		.loc 1 179 56 discriminator 1 view .LVU42
 163 0036 9942     		cmp	r1, r3
 164 0038 E7D1     		bne	.L12
 165 003a 0EE0     		b	.L10
 166              	.L16:
 216:Middlewares/Third_Party/LwIP/src/core/ipv4/ip4.c ****       ip4_addr_isany_val(*netif_ip4_addr(netif_default)) || ip4_addr_isloopback(dest)) {
 167              		.loc 1 216 3 is_stmt 1 view .LVU43
 216:Middlewares/Third_Party/LwIP/src/core/ipv4/ip4.c ****       ip4_addr_isany_val(*netif_ip4_addr(netif_default)) || ip4_addr_isloopback(dest)) {
 168              		.loc 1 216 22 is_stmt 0 view .LVU44
 169 003c 094B     		ldr	r3, .L17+4
 170 003e 1B68     		ldr	r3, [r3]
 216:Middlewares/Third_Party/LwIP/src/core/ipv4/ip4.c ****       ip4_addr_isany_val(*netif_ip4_addr(netif_default)) || ip4_addr_isloopback(dest)) {
 171              		.loc 1 216 6 view .LVU45
 172 0040 5BB1     		cbz	r3, .L10
 216:Middlewares/Third_Party/LwIP/src/core/ipv4/ip4.c ****       ip4_addr_isany_val(*netif_ip4_addr(netif_default)) || ip4_addr_isloopback(dest)) {
 173              		.loc 1 216 35 discriminator 1 view .LVU46
 174 0042 93F83120 		ldrb	r2, [r3, #49]	@ zero_extendqisi2
 216:Middlewares/Third_Party/LwIP/src/core/ipv4/ip4.c ****       ip4_addr_isany_val(*netif_ip4_addr(netif_default)) || ip4_addr_isloopback(dest)) {
 175              		.loc 1 216 62 discriminator 1 view .LVU47
 176 0046 02F00502 		and	r2, r2, #5
 177 004a 052A     		cmp	r2, #5
 178 004c 05D1     		bne	.L10
 217:Middlewares/Third_Party/LwIP/src/core/ipv4/ip4.c ****     /* No matching netif found and default netif is not usable.
 179              		.loc 1 217 7 discriminator 2 view .LVU48
 180 004e 5A68     		ldr	r2, [r3, #4]
 216:Middlewares/Third_Party/LwIP/src/core/ipv4/ip4.c ****       ip4_addr_isany_val(*netif_ip4_addr(netif_default)) || ip4_addr_isloopback(dest)) {
 181              		.loc 1 216 98 discriminator 2 view .LVU49
 182 0050 1AB1     		cbz	r2, .L10
 217:Middlewares/Third_Party/LwIP/src/core/ipv4/ip4.c ****     /* No matching netif found and default netif is not usable.
 183              		.loc 1 217 61 view .LVU50
 184 0052 2278     		ldrb	r2, [r4]	@ zero_extendqisi2
 217:Middlewares/Third_Party/LwIP/src/core/ipv4/ip4.c ****     /* No matching netif found and default netif is not usable.
ARM GAS  D:\Dev\msys64\tmp\cclk87TN.s 			page 12


 185              		.loc 1 217 58 view .LVU51
 186 0054 7F2A     		cmp	r2, #127
 187 0056 00D0     		beq	.L10
 227:Middlewares/Third_Party/LwIP/src/core/ipv4/ip4.c **** }
 188              		.loc 1 227 10 view .LVU52
 189 0058 1846     		mov	r0, r3
 190              	.LVL10:
 191              	.L10:
 228:Middlewares/Third_Party/LwIP/src/core/ipv4/ip4.c **** 
 192              		.loc 1 228 1 view .LVU53
 193 005a 30BC     		pop	{r4, r5}
 194              	.LCFI2:
 195              		.cfi_restore 5
 196              		.cfi_restore 4
 197              		.cfi_def_cfa_offset 0
 198              	.LVL11:
 228:Middlewares/Third_Party/LwIP/src/core/ipv4/ip4.c **** 
 199              		.loc 1 228 1 view .LVU54
 200 005c 7047     		bx	lr
 201              	.L18:
 202 005e 00BF     		.align	2
 203              	.L17:
 204 0060 00000000 		.word	netif_list
 205 0064 00000000 		.word	netif_default
 206              		.cfi_endproc
 207              	.LFE25:
 209              		.section	.text.ip4_input,"ax",%progbits
 210              		.align	1
 211              		.global	ip4_input
 212              		.syntax unified
 213              		.thumb
 214              		.thumb_func
 215              		.fpu fpv5-sp-d16
 217              	ip4_input:
 218              	.LVL12:
 219              	.LFB27:
 410:Middlewares/Third_Party/LwIP/src/core/ipv4/ip4.c **** 
 411:Middlewares/Third_Party/LwIP/src/core/ipv4/ip4.c **** /**
 412:Middlewares/Third_Party/LwIP/src/core/ipv4/ip4.c ****  * This function is called by the network interface device driver when
 413:Middlewares/Third_Party/LwIP/src/core/ipv4/ip4.c ****  * an IP packet is received. The function does the basic checks of the
 414:Middlewares/Third_Party/LwIP/src/core/ipv4/ip4.c ****  * IP header such as packet size being at least larger than the header
 415:Middlewares/Third_Party/LwIP/src/core/ipv4/ip4.c ****  * size etc. If the packet was not destined for us, the packet is
 416:Middlewares/Third_Party/LwIP/src/core/ipv4/ip4.c ****  * forwarded (using ip_forward). The IP checksum is always checked.
 417:Middlewares/Third_Party/LwIP/src/core/ipv4/ip4.c ****  *
 418:Middlewares/Third_Party/LwIP/src/core/ipv4/ip4.c ****  * Finally, the packet is sent to the upper layer protocol input function.
 419:Middlewares/Third_Party/LwIP/src/core/ipv4/ip4.c ****  *
 420:Middlewares/Third_Party/LwIP/src/core/ipv4/ip4.c ****  * @param p the received IP packet (p->payload points to IP header)
 421:Middlewares/Third_Party/LwIP/src/core/ipv4/ip4.c ****  * @param inp the netif on which this packet was received
 422:Middlewares/Third_Party/LwIP/src/core/ipv4/ip4.c ****  * @return ERR_OK if the packet was processed (could return ERR_* if it wasn't
 423:Middlewares/Third_Party/LwIP/src/core/ipv4/ip4.c ****  *         processed, but currently always returns ERR_OK)
 424:Middlewares/Third_Party/LwIP/src/core/ipv4/ip4.c ****  */
 425:Middlewares/Third_Party/LwIP/src/core/ipv4/ip4.c **** err_t
 426:Middlewares/Third_Party/LwIP/src/core/ipv4/ip4.c **** ip4_input(struct pbuf *p, struct netif *inp)
 427:Middlewares/Third_Party/LwIP/src/core/ipv4/ip4.c **** {
 220              		.loc 1 427 1 is_stmt 1 view -0
 221              		.cfi_startproc
 222              		@ args = 0, pretend = 0, frame = 0
ARM GAS  D:\Dev\msys64\tmp\cclk87TN.s 			page 13


 223              		@ frame_needed = 0, uses_anonymous_args = 0
 224              		.loc 1 427 1 is_stmt 0 view .LVU56
 225 0000 2DE9F843 		push	{r3, r4, r5, r6, r7, r8, r9, lr}
 226              	.LCFI3:
 227              		.cfi_def_cfa_offset 32
 228              		.cfi_offset 3, -32
 229              		.cfi_offset 4, -28
 230              		.cfi_offset 5, -24
 231              		.cfi_offset 6, -20
 232              		.cfi_offset 7, -16
 233              		.cfi_offset 8, -12
 234              		.cfi_offset 9, -8
 235              		.cfi_offset 14, -4
 236 0004 0446     		mov	r4, r0
 428:Middlewares/Third_Party/LwIP/src/core/ipv4/ip4.c ****   const struct ip_hdr *iphdr;
 237              		.loc 1 428 3 is_stmt 1 view .LVU57
 429:Middlewares/Third_Party/LwIP/src/core/ipv4/ip4.c ****   struct netif *netif;
 238              		.loc 1 429 3 view .LVU58
 430:Middlewares/Third_Party/LwIP/src/core/ipv4/ip4.c ****   u16_t iphdr_hlen;
 239              		.loc 1 430 3 view .LVU59
 431:Middlewares/Third_Party/LwIP/src/core/ipv4/ip4.c ****   u16_t iphdr_len;
 240              		.loc 1 431 3 view .LVU60
 432:Middlewares/Third_Party/LwIP/src/core/ipv4/ip4.c **** #if IP_ACCEPT_LINK_LAYER_ADDRESSING || LWIP_IGMP
 433:Middlewares/Third_Party/LwIP/src/core/ipv4/ip4.c ****   int check_ip_src = 1;
 241              		.loc 1 433 3 view .LVU61
 242              	.LVL13:
 434:Middlewares/Third_Party/LwIP/src/core/ipv4/ip4.c **** #endif /* IP_ACCEPT_LINK_LAYER_ADDRESSING || LWIP_IGMP */
 435:Middlewares/Third_Party/LwIP/src/core/ipv4/ip4.c **** #if LWIP_RAW
 436:Middlewares/Third_Party/LwIP/src/core/ipv4/ip4.c ****   raw_input_state_t raw_status;
 437:Middlewares/Third_Party/LwIP/src/core/ipv4/ip4.c **** #endif /* LWIP_RAW */
 438:Middlewares/Third_Party/LwIP/src/core/ipv4/ip4.c **** 
 439:Middlewares/Third_Party/LwIP/src/core/ipv4/ip4.c ****   LWIP_ASSERT_CORE_LOCKED();
 243              		.loc 1 439 28 view .LVU62
 440:Middlewares/Third_Party/LwIP/src/core/ipv4/ip4.c **** 
 441:Middlewares/Third_Party/LwIP/src/core/ipv4/ip4.c ****   IP_STATS_INC(ip.recv);
 244              		.loc 1 441 24 view .LVU63
 442:Middlewares/Third_Party/LwIP/src/core/ipv4/ip4.c ****   MIB2_STATS_INC(mib2.ipinreceives);
 245              		.loc 1 442 36 view .LVU64
 443:Middlewares/Third_Party/LwIP/src/core/ipv4/ip4.c **** 
 444:Middlewares/Third_Party/LwIP/src/core/ipv4/ip4.c ****   /* identify the IP header */
 445:Middlewares/Third_Party/LwIP/src/core/ipv4/ip4.c ****   iphdr = (struct ip_hdr *)p->payload;
 246              		.loc 1 445 3 view .LVU65
 247              		.loc 1 445 9 is_stmt 0 view .LVU66
 248 0006 D0F80480 		ldr	r8, [r0, #4]
 249              	.LVL14:
 446:Middlewares/Third_Party/LwIP/src/core/ipv4/ip4.c ****   if (IPH_V(iphdr) != 4) {
 250              		.loc 1 446 3 is_stmt 1 view .LVU67
 251              		.loc 1 446 7 is_stmt 0 view .LVU68
 252 000a 98F80030 		ldrb	r3, [r8]	@ zero_extendqisi2
 253              		.loc 1 446 20 view .LVU69
 254 000e 1A09     		lsrs	r2, r3, #4
 255              		.loc 1 446 6 view .LVU70
 256 0010 042A     		cmp	r2, #4
 257 0012 04D0     		beq	.L20
 447:Middlewares/Third_Party/LwIP/src/core/ipv4/ip4.c ****     LWIP_DEBUGF(IP_DEBUG | LWIP_DBG_LEVEL_WARNING, ("IP packet dropped due to bad version number %"
 258              		.loc 1 447 132 is_stmt 1 view .LVU71
 448:Middlewares/Third_Party/LwIP/src/core/ipv4/ip4.c ****     ip4_debug_print(p);
ARM GAS  D:\Dev\msys64\tmp\cclk87TN.s 			page 14


 259              		.loc 1 448 23 view .LVU72
 449:Middlewares/Third_Party/LwIP/src/core/ipv4/ip4.c ****     pbuf_free(p);
 260              		.loc 1 449 5 view .LVU73
 261 0014 FFF7FEFF 		bl	pbuf_free
 262              	.LVL15:
 450:Middlewares/Third_Party/LwIP/src/core/ipv4/ip4.c ****     IP_STATS_INC(ip.err);
 263              		.loc 1 450 25 view .LVU74
 451:Middlewares/Third_Party/LwIP/src/core/ipv4/ip4.c ****     IP_STATS_INC(ip.drop);
 264              		.loc 1 451 26 view .LVU75
 452:Middlewares/Third_Party/LwIP/src/core/ipv4/ip4.c ****     MIB2_STATS_INC(mib2.ipinhdrerrors);
 265              		.loc 1 452 39 view .LVU76
 453:Middlewares/Third_Party/LwIP/src/core/ipv4/ip4.c ****     return ERR_OK;
 266              		.loc 1 453 5 view .LVU77
 267              	.L21:
 454:Middlewares/Third_Party/LwIP/src/core/ipv4/ip4.c ****   }
 455:Middlewares/Third_Party/LwIP/src/core/ipv4/ip4.c **** 
 456:Middlewares/Third_Party/LwIP/src/core/ipv4/ip4.c **** #ifdef LWIP_HOOK_IP4_INPUT
 457:Middlewares/Third_Party/LwIP/src/core/ipv4/ip4.c ****   if (LWIP_HOOK_IP4_INPUT(p, inp)) {
 458:Middlewares/Third_Party/LwIP/src/core/ipv4/ip4.c ****     /* the packet has been eaten */
 459:Middlewares/Third_Party/LwIP/src/core/ipv4/ip4.c ****     return ERR_OK;
 460:Middlewares/Third_Party/LwIP/src/core/ipv4/ip4.c ****   }
 461:Middlewares/Third_Party/LwIP/src/core/ipv4/ip4.c **** #endif
 462:Middlewares/Third_Party/LwIP/src/core/ipv4/ip4.c **** 
 463:Middlewares/Third_Party/LwIP/src/core/ipv4/ip4.c ****   /* obtain IP header length in bytes */
 464:Middlewares/Third_Party/LwIP/src/core/ipv4/ip4.c ****   iphdr_hlen = IPH_HL_BYTES(iphdr);
 465:Middlewares/Third_Party/LwIP/src/core/ipv4/ip4.c ****   /* obtain ip length in bytes */
 466:Middlewares/Third_Party/LwIP/src/core/ipv4/ip4.c ****   iphdr_len = lwip_ntohs(IPH_LEN(iphdr));
 467:Middlewares/Third_Party/LwIP/src/core/ipv4/ip4.c **** 
 468:Middlewares/Third_Party/LwIP/src/core/ipv4/ip4.c ****   /* Trim pbuf. This is especially required for packets < 60 bytes. */
 469:Middlewares/Third_Party/LwIP/src/core/ipv4/ip4.c ****   if (iphdr_len < p->tot_len) {
 470:Middlewares/Third_Party/LwIP/src/core/ipv4/ip4.c ****     pbuf_realloc(p, iphdr_len);
 471:Middlewares/Third_Party/LwIP/src/core/ipv4/ip4.c ****   }
 472:Middlewares/Third_Party/LwIP/src/core/ipv4/ip4.c **** 
 473:Middlewares/Third_Party/LwIP/src/core/ipv4/ip4.c ****   /* header length exceeds first pbuf length, or ip length exceeds total pbuf length? */
 474:Middlewares/Third_Party/LwIP/src/core/ipv4/ip4.c ****   if ((iphdr_hlen > p->len) || (iphdr_len > p->tot_len) || (iphdr_hlen < IP_HLEN)) {
 475:Middlewares/Third_Party/LwIP/src/core/ipv4/ip4.c ****     if (iphdr_hlen < IP_HLEN) {
 476:Middlewares/Third_Party/LwIP/src/core/ipv4/ip4.c ****       LWIP_DEBUGF(IP_DEBUG | LWIP_DBG_LEVEL_SERIOUS,
 477:Middlewares/Third_Party/LwIP/src/core/ipv4/ip4.c ****                   ("ip4_input: short IP header (%"U16_F" bytes) received, IP packet dropped\n", iph
 478:Middlewares/Third_Party/LwIP/src/core/ipv4/ip4.c ****     }
 479:Middlewares/Third_Party/LwIP/src/core/ipv4/ip4.c ****     if (iphdr_hlen > p->len) {
 480:Middlewares/Third_Party/LwIP/src/core/ipv4/ip4.c ****       LWIP_DEBUGF(IP_DEBUG | LWIP_DBG_LEVEL_SERIOUS,
 481:Middlewares/Third_Party/LwIP/src/core/ipv4/ip4.c ****                   ("IP header (len %"U16_F") does not fit in first pbuf (len %"U16_F"), IP packet d
 482:Middlewares/Third_Party/LwIP/src/core/ipv4/ip4.c ****                    iphdr_hlen, p->len));
 483:Middlewares/Third_Party/LwIP/src/core/ipv4/ip4.c ****     }
 484:Middlewares/Third_Party/LwIP/src/core/ipv4/ip4.c ****     if (iphdr_len > p->tot_len) {
 485:Middlewares/Third_Party/LwIP/src/core/ipv4/ip4.c ****       LWIP_DEBUGF(IP_DEBUG | LWIP_DBG_LEVEL_SERIOUS,
 486:Middlewares/Third_Party/LwIP/src/core/ipv4/ip4.c ****                   ("IP (len %"U16_F") is longer than pbuf (len %"U16_F"), IP packet dropped.\n",
 487:Middlewares/Third_Party/LwIP/src/core/ipv4/ip4.c ****                    iphdr_len, p->tot_len));
 488:Middlewares/Third_Party/LwIP/src/core/ipv4/ip4.c ****     }
 489:Middlewares/Third_Party/LwIP/src/core/ipv4/ip4.c ****     /* free (drop) packet pbufs */
 490:Middlewares/Third_Party/LwIP/src/core/ipv4/ip4.c ****     pbuf_free(p);
 491:Middlewares/Third_Party/LwIP/src/core/ipv4/ip4.c ****     IP_STATS_INC(ip.lenerr);
 492:Middlewares/Third_Party/LwIP/src/core/ipv4/ip4.c ****     IP_STATS_INC(ip.drop);
 493:Middlewares/Third_Party/LwIP/src/core/ipv4/ip4.c ****     MIB2_STATS_INC(mib2.ipindiscards);
 494:Middlewares/Third_Party/LwIP/src/core/ipv4/ip4.c ****     return ERR_OK;
 495:Middlewares/Third_Party/LwIP/src/core/ipv4/ip4.c ****   }
 496:Middlewares/Third_Party/LwIP/src/core/ipv4/ip4.c **** 
ARM GAS  D:\Dev\msys64\tmp\cclk87TN.s 			page 15


 497:Middlewares/Third_Party/LwIP/src/core/ipv4/ip4.c ****   /* verify checksum */
 498:Middlewares/Third_Party/LwIP/src/core/ipv4/ip4.c **** #if CHECKSUM_CHECK_IP
 499:Middlewares/Third_Party/LwIP/src/core/ipv4/ip4.c ****   IF__NETIF_CHECKSUM_ENABLED(inp, NETIF_CHECKSUM_CHECK_IP) {
 500:Middlewares/Third_Party/LwIP/src/core/ipv4/ip4.c ****     if (inet_chksum(iphdr, iphdr_hlen) != 0) {
 501:Middlewares/Third_Party/LwIP/src/core/ipv4/ip4.c **** 
 502:Middlewares/Third_Party/LwIP/src/core/ipv4/ip4.c ****       LWIP_DEBUGF(IP_DEBUG | LWIP_DBG_LEVEL_SERIOUS,
 503:Middlewares/Third_Party/LwIP/src/core/ipv4/ip4.c ****                   ("Checksum (0x%"X16_F") failed, IP packet dropped.\n", inet_chksum(iphdr, iphdr_h
 504:Middlewares/Third_Party/LwIP/src/core/ipv4/ip4.c ****       ip4_debug_print(p);
 505:Middlewares/Third_Party/LwIP/src/core/ipv4/ip4.c ****       pbuf_free(p);
 506:Middlewares/Third_Party/LwIP/src/core/ipv4/ip4.c ****       IP_STATS_INC(ip.chkerr);
 507:Middlewares/Third_Party/LwIP/src/core/ipv4/ip4.c ****       IP_STATS_INC(ip.drop);
 508:Middlewares/Third_Party/LwIP/src/core/ipv4/ip4.c ****       MIB2_STATS_INC(mib2.ipinhdrerrors);
 509:Middlewares/Third_Party/LwIP/src/core/ipv4/ip4.c ****       return ERR_OK;
 510:Middlewares/Third_Party/LwIP/src/core/ipv4/ip4.c ****     }
 511:Middlewares/Third_Party/LwIP/src/core/ipv4/ip4.c ****   }
 512:Middlewares/Third_Party/LwIP/src/core/ipv4/ip4.c **** #endif
 513:Middlewares/Third_Party/LwIP/src/core/ipv4/ip4.c **** 
 514:Middlewares/Third_Party/LwIP/src/core/ipv4/ip4.c ****   /* copy IP addresses to aligned ip_addr_t */
 515:Middlewares/Third_Party/LwIP/src/core/ipv4/ip4.c ****   ip_addr_copy_from_ip4(ip_data.current_iphdr_dest, iphdr->dest);
 516:Middlewares/Third_Party/LwIP/src/core/ipv4/ip4.c ****   ip_addr_copy_from_ip4(ip_data.current_iphdr_src, iphdr->src);
 517:Middlewares/Third_Party/LwIP/src/core/ipv4/ip4.c **** 
 518:Middlewares/Third_Party/LwIP/src/core/ipv4/ip4.c ****   /* match packet against an interface, i.e. is this packet for us? */
 519:Middlewares/Third_Party/LwIP/src/core/ipv4/ip4.c ****   if (ip4_addr_ismulticast(ip4_current_dest_addr())) {
 520:Middlewares/Third_Party/LwIP/src/core/ipv4/ip4.c **** #if LWIP_IGMP
 521:Middlewares/Third_Party/LwIP/src/core/ipv4/ip4.c ****     if ((inp->flags & NETIF_FLAG_IGMP) && (igmp_lookfor_group(inp, ip4_current_dest_addr()))) {
 522:Middlewares/Third_Party/LwIP/src/core/ipv4/ip4.c ****       /* IGMP snooping switches need 0.0.0.0 to be allowed as source address (RFC 4541) */
 523:Middlewares/Third_Party/LwIP/src/core/ipv4/ip4.c ****       ip4_addr_t allsystems;
 524:Middlewares/Third_Party/LwIP/src/core/ipv4/ip4.c ****       IP4_ADDR(&allsystems, 224, 0, 0, 1);
 525:Middlewares/Third_Party/LwIP/src/core/ipv4/ip4.c ****       if (ip4_addr_cmp(ip4_current_dest_addr(), &allsystems) &&
 526:Middlewares/Third_Party/LwIP/src/core/ipv4/ip4.c ****           ip4_addr_isany(ip4_current_src_addr())) {
 527:Middlewares/Third_Party/LwIP/src/core/ipv4/ip4.c ****         check_ip_src = 0;
 528:Middlewares/Third_Party/LwIP/src/core/ipv4/ip4.c ****       }
 529:Middlewares/Third_Party/LwIP/src/core/ipv4/ip4.c ****       netif = inp;
 530:Middlewares/Third_Party/LwIP/src/core/ipv4/ip4.c ****     } else {
 531:Middlewares/Third_Party/LwIP/src/core/ipv4/ip4.c ****       netif = NULL;
 532:Middlewares/Third_Party/LwIP/src/core/ipv4/ip4.c ****     }
 533:Middlewares/Third_Party/LwIP/src/core/ipv4/ip4.c **** #else /* LWIP_IGMP */
 534:Middlewares/Third_Party/LwIP/src/core/ipv4/ip4.c ****     if ((netif_is_up(inp)) && (!ip4_addr_isany_val(*netif_ip4_addr(inp)))) {
 535:Middlewares/Third_Party/LwIP/src/core/ipv4/ip4.c ****       netif = inp;
 536:Middlewares/Third_Party/LwIP/src/core/ipv4/ip4.c ****     } else {
 537:Middlewares/Third_Party/LwIP/src/core/ipv4/ip4.c ****       netif = NULL;
 538:Middlewares/Third_Party/LwIP/src/core/ipv4/ip4.c ****     }
 539:Middlewares/Third_Party/LwIP/src/core/ipv4/ip4.c **** #endif /* LWIP_IGMP */
 540:Middlewares/Third_Party/LwIP/src/core/ipv4/ip4.c ****   } else {
 541:Middlewares/Third_Party/LwIP/src/core/ipv4/ip4.c ****     /* start trying with inp. if that's not acceptable, start walking the
 542:Middlewares/Third_Party/LwIP/src/core/ipv4/ip4.c ****        list of configured netifs. */
 543:Middlewares/Third_Party/LwIP/src/core/ipv4/ip4.c ****     if (ip4_input_accept(inp)) {
 544:Middlewares/Third_Party/LwIP/src/core/ipv4/ip4.c ****       netif = inp;
 545:Middlewares/Third_Party/LwIP/src/core/ipv4/ip4.c ****     } else {
 546:Middlewares/Third_Party/LwIP/src/core/ipv4/ip4.c ****       netif = NULL;
 547:Middlewares/Third_Party/LwIP/src/core/ipv4/ip4.c **** #if !LWIP_NETIF_LOOPBACK || LWIP_HAVE_LOOPIF
 548:Middlewares/Third_Party/LwIP/src/core/ipv4/ip4.c ****       /* Packets sent to the loopback address must not be accepted on an
 549:Middlewares/Third_Party/LwIP/src/core/ipv4/ip4.c ****        * interface that does not have the loopback address assigned to it,
 550:Middlewares/Third_Party/LwIP/src/core/ipv4/ip4.c ****        * unless a non-loopback interface is used for loopback traffic. */
 551:Middlewares/Third_Party/LwIP/src/core/ipv4/ip4.c ****       if (!ip4_addr_isloopback(ip4_current_dest_addr()))
 552:Middlewares/Third_Party/LwIP/src/core/ipv4/ip4.c **** #endif /* !LWIP_NETIF_LOOPBACK || LWIP_HAVE_LOOPIF */
 553:Middlewares/Third_Party/LwIP/src/core/ipv4/ip4.c ****       {
ARM GAS  D:\Dev\msys64\tmp\cclk87TN.s 			page 16


 554:Middlewares/Third_Party/LwIP/src/core/ipv4/ip4.c **** #if !LWIP_SINGLE_NETIF
 555:Middlewares/Third_Party/LwIP/src/core/ipv4/ip4.c ****         NETIF_FOREACH(netif) {
 556:Middlewares/Third_Party/LwIP/src/core/ipv4/ip4.c ****           if (netif == inp) {
 557:Middlewares/Third_Party/LwIP/src/core/ipv4/ip4.c ****             /* we checked that before already */
 558:Middlewares/Third_Party/LwIP/src/core/ipv4/ip4.c ****             continue;
 559:Middlewares/Third_Party/LwIP/src/core/ipv4/ip4.c ****           }
 560:Middlewares/Third_Party/LwIP/src/core/ipv4/ip4.c ****           if (ip4_input_accept(netif)) {
 561:Middlewares/Third_Party/LwIP/src/core/ipv4/ip4.c ****             break;
 562:Middlewares/Third_Party/LwIP/src/core/ipv4/ip4.c ****           }
 563:Middlewares/Third_Party/LwIP/src/core/ipv4/ip4.c ****         }
 564:Middlewares/Third_Party/LwIP/src/core/ipv4/ip4.c **** #endif /* !LWIP_SINGLE_NETIF */
 565:Middlewares/Third_Party/LwIP/src/core/ipv4/ip4.c ****       }
 566:Middlewares/Third_Party/LwIP/src/core/ipv4/ip4.c ****     }
 567:Middlewares/Third_Party/LwIP/src/core/ipv4/ip4.c ****   }
 568:Middlewares/Third_Party/LwIP/src/core/ipv4/ip4.c **** 
 569:Middlewares/Third_Party/LwIP/src/core/ipv4/ip4.c **** #if IP_ACCEPT_LINK_LAYER_ADDRESSING
 570:Middlewares/Third_Party/LwIP/src/core/ipv4/ip4.c ****   /* Pass DHCP messages regardless of destination address. DHCP traffic is addressed
 571:Middlewares/Third_Party/LwIP/src/core/ipv4/ip4.c ****    * using link layer addressing (such as Ethernet MAC) so we must not filter on IP.
 572:Middlewares/Third_Party/LwIP/src/core/ipv4/ip4.c ****    * According to RFC 1542 section 3.1.1, referred by RFC 2131).
 573:Middlewares/Third_Party/LwIP/src/core/ipv4/ip4.c ****    *
 574:Middlewares/Third_Party/LwIP/src/core/ipv4/ip4.c ****    * If you want to accept private broadcast communication while a netif is down,
 575:Middlewares/Third_Party/LwIP/src/core/ipv4/ip4.c ****    * define LWIP_IP_ACCEPT_UDP_PORT(dst_port), e.g.:
 576:Middlewares/Third_Party/LwIP/src/core/ipv4/ip4.c ****    *
 577:Middlewares/Third_Party/LwIP/src/core/ipv4/ip4.c ****    * #define LWIP_IP_ACCEPT_UDP_PORT(dst_port) ((dst_port) == PP_NTOHS(12345))
 578:Middlewares/Third_Party/LwIP/src/core/ipv4/ip4.c ****    */
 579:Middlewares/Third_Party/LwIP/src/core/ipv4/ip4.c ****   if (netif == NULL) {
 580:Middlewares/Third_Party/LwIP/src/core/ipv4/ip4.c ****     /* remote port is DHCP server? */
 581:Middlewares/Third_Party/LwIP/src/core/ipv4/ip4.c ****     if (IPH_PROTO(iphdr) == IP_PROTO_UDP) {
 582:Middlewares/Third_Party/LwIP/src/core/ipv4/ip4.c ****       const struct udp_hdr *udphdr = (const struct udp_hdr *)((const u8_t *)iphdr + iphdr_hlen);
 583:Middlewares/Third_Party/LwIP/src/core/ipv4/ip4.c ****       LWIP_DEBUGF(IP_DEBUG | LWIP_DBG_TRACE, ("ip4_input: UDP packet to DHCP client port %"U16_F"\n
 584:Middlewares/Third_Party/LwIP/src/core/ipv4/ip4.c ****                                               lwip_ntohs(udphdr->dest)));
 585:Middlewares/Third_Party/LwIP/src/core/ipv4/ip4.c ****       if (IP_ACCEPT_LINK_LAYER_ADDRESSED_PORT(udphdr->dest)) {
 586:Middlewares/Third_Party/LwIP/src/core/ipv4/ip4.c ****         LWIP_DEBUGF(IP_DEBUG | LWIP_DBG_TRACE, ("ip4_input: DHCP packet accepted.\n"));
 587:Middlewares/Third_Party/LwIP/src/core/ipv4/ip4.c ****         netif = inp;
 588:Middlewares/Third_Party/LwIP/src/core/ipv4/ip4.c ****         check_ip_src = 0;
 589:Middlewares/Third_Party/LwIP/src/core/ipv4/ip4.c ****       }
 590:Middlewares/Third_Party/LwIP/src/core/ipv4/ip4.c ****     }
 591:Middlewares/Third_Party/LwIP/src/core/ipv4/ip4.c ****   }
 592:Middlewares/Third_Party/LwIP/src/core/ipv4/ip4.c **** #endif /* IP_ACCEPT_LINK_LAYER_ADDRESSING */
 593:Middlewares/Third_Party/LwIP/src/core/ipv4/ip4.c **** 
 594:Middlewares/Third_Party/LwIP/src/core/ipv4/ip4.c ****   /* broadcast or multicast packet source address? Compliant with RFC 1122: 3.2.1.3 */
 595:Middlewares/Third_Party/LwIP/src/core/ipv4/ip4.c **** #if LWIP_IGMP || IP_ACCEPT_LINK_LAYER_ADDRESSING
 596:Middlewares/Third_Party/LwIP/src/core/ipv4/ip4.c ****   if (check_ip_src
 597:Middlewares/Third_Party/LwIP/src/core/ipv4/ip4.c **** #if IP_ACCEPT_LINK_LAYER_ADDRESSING
 598:Middlewares/Third_Party/LwIP/src/core/ipv4/ip4.c ****       /* DHCP servers need 0.0.0.0 to be allowed as source address (RFC 1.1.2.2: 3.2.1.3/a) */
 599:Middlewares/Third_Party/LwIP/src/core/ipv4/ip4.c ****       && !ip4_addr_isany_val(*ip4_current_src_addr())
 600:Middlewares/Third_Party/LwIP/src/core/ipv4/ip4.c **** #endif /* IP_ACCEPT_LINK_LAYER_ADDRESSING */
 601:Middlewares/Third_Party/LwIP/src/core/ipv4/ip4.c ****      )
 602:Middlewares/Third_Party/LwIP/src/core/ipv4/ip4.c **** #endif /* LWIP_IGMP || IP_ACCEPT_LINK_LAYER_ADDRESSING */
 603:Middlewares/Third_Party/LwIP/src/core/ipv4/ip4.c ****   {
 604:Middlewares/Third_Party/LwIP/src/core/ipv4/ip4.c ****     if ((ip4_addr_isbroadcast(ip4_current_src_addr(), inp)) ||
 605:Middlewares/Third_Party/LwIP/src/core/ipv4/ip4.c ****         (ip4_addr_ismulticast(ip4_current_src_addr()))) {
 606:Middlewares/Third_Party/LwIP/src/core/ipv4/ip4.c ****       /* packet source is not valid */
 607:Middlewares/Third_Party/LwIP/src/core/ipv4/ip4.c ****       LWIP_DEBUGF(IP_DEBUG | LWIP_DBG_TRACE | LWIP_DBG_LEVEL_WARNING, ("ip4_input: packet source is
 608:Middlewares/Third_Party/LwIP/src/core/ipv4/ip4.c ****       /* free (drop) packet pbufs */
 609:Middlewares/Third_Party/LwIP/src/core/ipv4/ip4.c ****       pbuf_free(p);
 610:Middlewares/Third_Party/LwIP/src/core/ipv4/ip4.c ****       IP_STATS_INC(ip.drop);
ARM GAS  D:\Dev\msys64\tmp\cclk87TN.s 			page 17


 611:Middlewares/Third_Party/LwIP/src/core/ipv4/ip4.c ****       MIB2_STATS_INC(mib2.ipinaddrerrors);
 612:Middlewares/Third_Party/LwIP/src/core/ipv4/ip4.c ****       MIB2_STATS_INC(mib2.ipindiscards);
 613:Middlewares/Third_Party/LwIP/src/core/ipv4/ip4.c ****       return ERR_OK;
 614:Middlewares/Third_Party/LwIP/src/core/ipv4/ip4.c ****     }
 615:Middlewares/Third_Party/LwIP/src/core/ipv4/ip4.c ****   }
 616:Middlewares/Third_Party/LwIP/src/core/ipv4/ip4.c **** 
 617:Middlewares/Third_Party/LwIP/src/core/ipv4/ip4.c ****   /* packet not for us? */
 618:Middlewares/Third_Party/LwIP/src/core/ipv4/ip4.c ****   if (netif == NULL) {
 619:Middlewares/Third_Party/LwIP/src/core/ipv4/ip4.c ****     /* packet not for us, route or discard */
 620:Middlewares/Third_Party/LwIP/src/core/ipv4/ip4.c ****     LWIP_DEBUGF(IP_DEBUG | LWIP_DBG_TRACE, ("ip4_input: packet not for us.\n"));
 621:Middlewares/Third_Party/LwIP/src/core/ipv4/ip4.c **** #if IP_FORWARD
 622:Middlewares/Third_Party/LwIP/src/core/ipv4/ip4.c ****     /* non-broadcast packet? */
 623:Middlewares/Third_Party/LwIP/src/core/ipv4/ip4.c ****     if (!ip4_addr_isbroadcast(ip4_current_dest_addr(), inp)) {
 624:Middlewares/Third_Party/LwIP/src/core/ipv4/ip4.c ****       /* try to forward IP packet on (other) interfaces */
 625:Middlewares/Third_Party/LwIP/src/core/ipv4/ip4.c ****       ip4_forward(p, (struct ip_hdr *)p->payload, inp);
 626:Middlewares/Third_Party/LwIP/src/core/ipv4/ip4.c ****     } else
 627:Middlewares/Third_Party/LwIP/src/core/ipv4/ip4.c **** #endif /* IP_FORWARD */
 628:Middlewares/Third_Party/LwIP/src/core/ipv4/ip4.c ****     {
 629:Middlewares/Third_Party/LwIP/src/core/ipv4/ip4.c ****       IP_STATS_INC(ip.drop);
 630:Middlewares/Third_Party/LwIP/src/core/ipv4/ip4.c ****       MIB2_STATS_INC(mib2.ipinaddrerrors);
 631:Middlewares/Third_Party/LwIP/src/core/ipv4/ip4.c ****       MIB2_STATS_INC(mib2.ipindiscards);
 632:Middlewares/Third_Party/LwIP/src/core/ipv4/ip4.c ****     }
 633:Middlewares/Third_Party/LwIP/src/core/ipv4/ip4.c ****     pbuf_free(p);
 634:Middlewares/Third_Party/LwIP/src/core/ipv4/ip4.c ****     return ERR_OK;
 635:Middlewares/Third_Party/LwIP/src/core/ipv4/ip4.c ****   }
 636:Middlewares/Third_Party/LwIP/src/core/ipv4/ip4.c ****   /* packet consists of multiple fragments? */
 637:Middlewares/Third_Party/LwIP/src/core/ipv4/ip4.c ****   if ((IPH_OFFSET(iphdr) & PP_HTONS(IP_OFFMASK | IP_MF)) != 0) {
 638:Middlewares/Third_Party/LwIP/src/core/ipv4/ip4.c **** #if IP_REASSEMBLY /* packet fragment reassembly code present? */
 639:Middlewares/Third_Party/LwIP/src/core/ipv4/ip4.c ****     LWIP_DEBUGF(IP_DEBUG, ("IP packet is a fragment (id=0x%04"X16_F" tot_len=%"U16_F" len=%"U16_F" 
 640:Middlewares/Third_Party/LwIP/src/core/ipv4/ip4.c ****                            lwip_ntohs(IPH_ID(iphdr)), p->tot_len, lwip_ntohs(IPH_LEN(iphdr)), (u16_
 641:Middlewares/Third_Party/LwIP/src/core/ipv4/ip4.c ****     /* reassemble the packet*/
 642:Middlewares/Third_Party/LwIP/src/core/ipv4/ip4.c ****     p = ip4_reass(p);
 643:Middlewares/Third_Party/LwIP/src/core/ipv4/ip4.c ****     /* packet not fully reassembled yet? */
 644:Middlewares/Third_Party/LwIP/src/core/ipv4/ip4.c ****     if (p == NULL) {
 645:Middlewares/Third_Party/LwIP/src/core/ipv4/ip4.c ****       return ERR_OK;
 646:Middlewares/Third_Party/LwIP/src/core/ipv4/ip4.c ****     }
 647:Middlewares/Third_Party/LwIP/src/core/ipv4/ip4.c ****     iphdr = (const struct ip_hdr *)p->payload;
 648:Middlewares/Third_Party/LwIP/src/core/ipv4/ip4.c **** #else /* IP_REASSEMBLY == 0, no packet fragment reassembly code present */
 649:Middlewares/Third_Party/LwIP/src/core/ipv4/ip4.c ****     pbuf_free(p);
 650:Middlewares/Third_Party/LwIP/src/core/ipv4/ip4.c ****     LWIP_DEBUGF(IP_DEBUG | LWIP_DBG_LEVEL_SERIOUS, ("IP packet dropped since it was fragmented (0x%
 651:Middlewares/Third_Party/LwIP/src/core/ipv4/ip4.c ****                 lwip_ntohs(IPH_OFFSET(iphdr))));
 652:Middlewares/Third_Party/LwIP/src/core/ipv4/ip4.c ****     IP_STATS_INC(ip.opterr);
 653:Middlewares/Third_Party/LwIP/src/core/ipv4/ip4.c ****     IP_STATS_INC(ip.drop);
 654:Middlewares/Third_Party/LwIP/src/core/ipv4/ip4.c ****     /* unsupported protocol feature */
 655:Middlewares/Third_Party/LwIP/src/core/ipv4/ip4.c ****     MIB2_STATS_INC(mib2.ipinunknownprotos);
 656:Middlewares/Third_Party/LwIP/src/core/ipv4/ip4.c ****     return ERR_OK;
 657:Middlewares/Third_Party/LwIP/src/core/ipv4/ip4.c **** #endif /* IP_REASSEMBLY */
 658:Middlewares/Third_Party/LwIP/src/core/ipv4/ip4.c ****   }
 659:Middlewares/Third_Party/LwIP/src/core/ipv4/ip4.c **** 
 660:Middlewares/Third_Party/LwIP/src/core/ipv4/ip4.c **** #if IP_OPTIONS_ALLOWED == 0 /* no support for IP options in the IP header? */
 661:Middlewares/Third_Party/LwIP/src/core/ipv4/ip4.c **** 
 662:Middlewares/Third_Party/LwIP/src/core/ipv4/ip4.c **** #if LWIP_IGMP
 663:Middlewares/Third_Party/LwIP/src/core/ipv4/ip4.c ****   /* there is an extra "router alert" option in IGMP messages which we allow for but do not police 
 664:Middlewares/Third_Party/LwIP/src/core/ipv4/ip4.c ****   if ((iphdr_hlen > IP_HLEN) &&  (IPH_PROTO(iphdr) != IP_PROTO_IGMP)) {
 665:Middlewares/Third_Party/LwIP/src/core/ipv4/ip4.c **** #else
 666:Middlewares/Third_Party/LwIP/src/core/ipv4/ip4.c ****   if (iphdr_hlen > IP_HLEN) {
 667:Middlewares/Third_Party/LwIP/src/core/ipv4/ip4.c **** #endif /* LWIP_IGMP */
ARM GAS  D:\Dev\msys64\tmp\cclk87TN.s 			page 18


 668:Middlewares/Third_Party/LwIP/src/core/ipv4/ip4.c ****     LWIP_DEBUGF(IP_DEBUG | LWIP_DBG_LEVEL_SERIOUS, ("IP packet dropped since there were IP options 
 669:Middlewares/Third_Party/LwIP/src/core/ipv4/ip4.c ****     pbuf_free(p);
 670:Middlewares/Third_Party/LwIP/src/core/ipv4/ip4.c ****     IP_STATS_INC(ip.opterr);
 671:Middlewares/Third_Party/LwIP/src/core/ipv4/ip4.c ****     IP_STATS_INC(ip.drop);
 672:Middlewares/Third_Party/LwIP/src/core/ipv4/ip4.c ****     /* unsupported protocol feature */
 673:Middlewares/Third_Party/LwIP/src/core/ipv4/ip4.c ****     MIB2_STATS_INC(mib2.ipinunknownprotos);
 674:Middlewares/Third_Party/LwIP/src/core/ipv4/ip4.c ****     return ERR_OK;
 675:Middlewares/Third_Party/LwIP/src/core/ipv4/ip4.c ****   }
 676:Middlewares/Third_Party/LwIP/src/core/ipv4/ip4.c **** #endif /* IP_OPTIONS_ALLOWED == 0 */
 677:Middlewares/Third_Party/LwIP/src/core/ipv4/ip4.c **** 
 678:Middlewares/Third_Party/LwIP/src/core/ipv4/ip4.c ****   /* send to upper layers */
 679:Middlewares/Third_Party/LwIP/src/core/ipv4/ip4.c ****   LWIP_DEBUGF(IP_DEBUG, ("ip4_input: \n"));
 680:Middlewares/Third_Party/LwIP/src/core/ipv4/ip4.c ****   ip4_debug_print(p);
 681:Middlewares/Third_Party/LwIP/src/core/ipv4/ip4.c ****   LWIP_DEBUGF(IP_DEBUG, ("ip4_input: p->len %"U16_F" p->tot_len %"U16_F"\n", p->len, p->tot_len));
 682:Middlewares/Third_Party/LwIP/src/core/ipv4/ip4.c **** 
 683:Middlewares/Third_Party/LwIP/src/core/ipv4/ip4.c ****   ip_data.current_netif = netif;
 684:Middlewares/Third_Party/LwIP/src/core/ipv4/ip4.c ****   ip_data.current_input_netif = inp;
 685:Middlewares/Third_Party/LwIP/src/core/ipv4/ip4.c ****   ip_data.current_ip4_header = iphdr;
 686:Middlewares/Third_Party/LwIP/src/core/ipv4/ip4.c ****   ip_data.current_ip_header_tot_len = IPH_HL_BYTES(iphdr);
 687:Middlewares/Third_Party/LwIP/src/core/ipv4/ip4.c **** 
 688:Middlewares/Third_Party/LwIP/src/core/ipv4/ip4.c **** #if LWIP_RAW
 689:Middlewares/Third_Party/LwIP/src/core/ipv4/ip4.c ****   /* raw input did not eat the packet? */
 690:Middlewares/Third_Party/LwIP/src/core/ipv4/ip4.c ****   raw_status = raw_input(p, inp);
 691:Middlewares/Third_Party/LwIP/src/core/ipv4/ip4.c ****   if (raw_status != RAW_INPUT_EATEN)
 692:Middlewares/Third_Party/LwIP/src/core/ipv4/ip4.c **** #endif /* LWIP_RAW */
 693:Middlewares/Third_Party/LwIP/src/core/ipv4/ip4.c ****   {
 694:Middlewares/Third_Party/LwIP/src/core/ipv4/ip4.c ****     pbuf_remove_header(p, iphdr_hlen); /* Move to payload, no check necessary. */
 695:Middlewares/Third_Party/LwIP/src/core/ipv4/ip4.c **** 
 696:Middlewares/Third_Party/LwIP/src/core/ipv4/ip4.c ****     switch (IPH_PROTO(iphdr)) {
 697:Middlewares/Third_Party/LwIP/src/core/ipv4/ip4.c **** #if LWIP_UDP
 698:Middlewares/Third_Party/LwIP/src/core/ipv4/ip4.c ****       case IP_PROTO_UDP:
 699:Middlewares/Third_Party/LwIP/src/core/ipv4/ip4.c **** #if LWIP_UDPLITE
 700:Middlewares/Third_Party/LwIP/src/core/ipv4/ip4.c ****       case IP_PROTO_UDPLITE:
 701:Middlewares/Third_Party/LwIP/src/core/ipv4/ip4.c **** #endif /* LWIP_UDPLITE */
 702:Middlewares/Third_Party/LwIP/src/core/ipv4/ip4.c ****         MIB2_STATS_INC(mib2.ipindelivers);
 703:Middlewares/Third_Party/LwIP/src/core/ipv4/ip4.c ****         udp_input(p, inp);
 704:Middlewares/Third_Party/LwIP/src/core/ipv4/ip4.c ****         break;
 705:Middlewares/Third_Party/LwIP/src/core/ipv4/ip4.c **** #endif /* LWIP_UDP */
 706:Middlewares/Third_Party/LwIP/src/core/ipv4/ip4.c **** #if LWIP_TCP
 707:Middlewares/Third_Party/LwIP/src/core/ipv4/ip4.c ****       case IP_PROTO_TCP:
 708:Middlewares/Third_Party/LwIP/src/core/ipv4/ip4.c ****         MIB2_STATS_INC(mib2.ipindelivers);
 709:Middlewares/Third_Party/LwIP/src/core/ipv4/ip4.c ****         tcp_input(p, inp);
 710:Middlewares/Third_Party/LwIP/src/core/ipv4/ip4.c ****         break;
 711:Middlewares/Third_Party/LwIP/src/core/ipv4/ip4.c **** #endif /* LWIP_TCP */
 712:Middlewares/Third_Party/LwIP/src/core/ipv4/ip4.c **** #if LWIP_ICMP
 713:Middlewares/Third_Party/LwIP/src/core/ipv4/ip4.c ****       case IP_PROTO_ICMP:
 714:Middlewares/Third_Party/LwIP/src/core/ipv4/ip4.c ****         MIB2_STATS_INC(mib2.ipindelivers);
 715:Middlewares/Third_Party/LwIP/src/core/ipv4/ip4.c ****         icmp_input(p, inp);
 716:Middlewares/Third_Party/LwIP/src/core/ipv4/ip4.c ****         break;
 717:Middlewares/Third_Party/LwIP/src/core/ipv4/ip4.c **** #endif /* LWIP_ICMP */
 718:Middlewares/Third_Party/LwIP/src/core/ipv4/ip4.c **** #if LWIP_IGMP
 719:Middlewares/Third_Party/LwIP/src/core/ipv4/ip4.c ****       case IP_PROTO_IGMP:
 720:Middlewares/Third_Party/LwIP/src/core/ipv4/ip4.c ****         igmp_input(p, inp, ip4_current_dest_addr());
 721:Middlewares/Third_Party/LwIP/src/core/ipv4/ip4.c ****         break;
 722:Middlewares/Third_Party/LwIP/src/core/ipv4/ip4.c **** #endif /* LWIP_IGMP */
 723:Middlewares/Third_Party/LwIP/src/core/ipv4/ip4.c ****       default:
 724:Middlewares/Third_Party/LwIP/src/core/ipv4/ip4.c **** #if LWIP_RAW
ARM GAS  D:\Dev\msys64\tmp\cclk87TN.s 			page 19


 725:Middlewares/Third_Party/LwIP/src/core/ipv4/ip4.c ****         if (raw_status == RAW_INPUT_DELIVERED) {
 726:Middlewares/Third_Party/LwIP/src/core/ipv4/ip4.c ****           MIB2_STATS_INC(mib2.ipindelivers);
 727:Middlewares/Third_Party/LwIP/src/core/ipv4/ip4.c ****         } else
 728:Middlewares/Third_Party/LwIP/src/core/ipv4/ip4.c **** #endif /* LWIP_RAW */
 729:Middlewares/Third_Party/LwIP/src/core/ipv4/ip4.c ****         {
 730:Middlewares/Third_Party/LwIP/src/core/ipv4/ip4.c **** #if LWIP_ICMP
 731:Middlewares/Third_Party/LwIP/src/core/ipv4/ip4.c ****           /* send ICMP destination protocol unreachable unless is was a broadcast */
 732:Middlewares/Third_Party/LwIP/src/core/ipv4/ip4.c ****           if (!ip4_addr_isbroadcast(ip4_current_dest_addr(), netif) &&
 733:Middlewares/Third_Party/LwIP/src/core/ipv4/ip4.c ****               !ip4_addr_ismulticast(ip4_current_dest_addr())) {
 734:Middlewares/Third_Party/LwIP/src/core/ipv4/ip4.c ****             pbuf_header_force(p, (s16_t)iphdr_hlen); /* Move to ip header, no check necessary. */
 735:Middlewares/Third_Party/LwIP/src/core/ipv4/ip4.c ****             icmp_dest_unreach(p, ICMP_DUR_PROTO);
 736:Middlewares/Third_Party/LwIP/src/core/ipv4/ip4.c ****           }
 737:Middlewares/Third_Party/LwIP/src/core/ipv4/ip4.c **** #endif /* LWIP_ICMP */
 738:Middlewares/Third_Party/LwIP/src/core/ipv4/ip4.c **** 
 739:Middlewares/Third_Party/LwIP/src/core/ipv4/ip4.c ****           LWIP_DEBUGF(IP_DEBUG | LWIP_DBG_LEVEL_SERIOUS, ("Unsupported transport protocol %"U16_F"\
 740:Middlewares/Third_Party/LwIP/src/core/ipv4/ip4.c **** 
 741:Middlewares/Third_Party/LwIP/src/core/ipv4/ip4.c ****           IP_STATS_INC(ip.proterr);
 742:Middlewares/Third_Party/LwIP/src/core/ipv4/ip4.c ****           IP_STATS_INC(ip.drop);
 743:Middlewares/Third_Party/LwIP/src/core/ipv4/ip4.c ****           MIB2_STATS_INC(mib2.ipinunknownprotos);
 744:Middlewares/Third_Party/LwIP/src/core/ipv4/ip4.c ****         }
 745:Middlewares/Third_Party/LwIP/src/core/ipv4/ip4.c ****         pbuf_free(p);
 746:Middlewares/Third_Party/LwIP/src/core/ipv4/ip4.c ****         break;
 747:Middlewares/Third_Party/LwIP/src/core/ipv4/ip4.c ****     }
 748:Middlewares/Third_Party/LwIP/src/core/ipv4/ip4.c ****   }
 749:Middlewares/Third_Party/LwIP/src/core/ipv4/ip4.c **** 
 750:Middlewares/Third_Party/LwIP/src/core/ipv4/ip4.c ****   /* @todo: this is not really necessary... */
 751:Middlewares/Third_Party/LwIP/src/core/ipv4/ip4.c ****   ip_data.current_netif = NULL;
 752:Middlewares/Third_Party/LwIP/src/core/ipv4/ip4.c ****   ip_data.current_input_netif = NULL;
 753:Middlewares/Third_Party/LwIP/src/core/ipv4/ip4.c ****   ip_data.current_ip4_header = NULL;
 754:Middlewares/Third_Party/LwIP/src/core/ipv4/ip4.c ****   ip_data.current_ip_header_tot_len = 0;
 755:Middlewares/Third_Party/LwIP/src/core/ipv4/ip4.c ****   ip4_addr_set_any(ip4_current_src_addr());
 756:Middlewares/Third_Party/LwIP/src/core/ipv4/ip4.c ****   ip4_addr_set_any(ip4_current_dest_addr());
 757:Middlewares/Third_Party/LwIP/src/core/ipv4/ip4.c **** 
 758:Middlewares/Third_Party/LwIP/src/core/ipv4/ip4.c ****   return ERR_OK;
 759:Middlewares/Third_Party/LwIP/src/core/ipv4/ip4.c **** }
 268              		.loc 1 759 1 is_stmt 0 view .LVU78
 269 0018 0020     		movs	r0, #0
 270 001a BDE8F883 		pop	{r3, r4, r5, r6, r7, r8, r9, pc}
 271              	.LVL16:
 272              	.L20:
 273              		.loc 1 759 1 view .LVU79
 274 001e 0F46     		mov	r7, r1
 464:Middlewares/Third_Party/LwIP/src/core/ipv4/ip4.c ****   /* obtain ip length in bytes */
 275              		.loc 1 464 3 is_stmt 1 view .LVU80
 464:Middlewares/Third_Party/LwIP/src/core/ipv4/ip4.c ****   /* obtain ip length in bytes */
 276              		.loc 1 464 16 is_stmt 0 view .LVU81
 277 0020 03F00F03 		and	r3, r3, #15
 278 0024 4FEA8309 		lsl	r9, r3, #2
 464:Middlewares/Third_Party/LwIP/src/core/ipv4/ip4.c ****   /* obtain ip length in bytes */
 279              		.loc 1 464 14 view .LVU82
 280 0028 4D46     		mov	r5, r9
 281              	.LVL17:
 466:Middlewares/Third_Party/LwIP/src/core/ipv4/ip4.c **** 
 282              		.loc 1 466 3 is_stmt 1 view .LVU83
 466:Middlewares/Third_Party/LwIP/src/core/ipv4/ip4.c **** 
 283              		.loc 1 466 15 is_stmt 0 view .LVU84
 284 002a B8F80200 		ldrh	r0, [r8, #2]	@ unaligned
ARM GAS  D:\Dev\msys64\tmp\cclk87TN.s 			page 20


 285              	.LVL18:
 466:Middlewares/Third_Party/LwIP/src/core/ipv4/ip4.c **** 
 286              		.loc 1 466 15 view .LVU85
 287 002e FFF7FEFF 		bl	lwip_htons
 288              	.LVL19:
 466:Middlewares/Third_Party/LwIP/src/core/ipv4/ip4.c **** 
 289              		.loc 1 466 15 view .LVU86
 290 0032 0646     		mov	r6, r0
 291              	.LVL20:
 469:Middlewares/Third_Party/LwIP/src/core/ipv4/ip4.c ****     pbuf_realloc(p, iphdr_len);
 292              		.loc 1 469 3 is_stmt 1 view .LVU87
 469:Middlewares/Third_Party/LwIP/src/core/ipv4/ip4.c ****     pbuf_realloc(p, iphdr_len);
 293              		.loc 1 469 20 is_stmt 0 view .LVU88
 294 0034 2389     		ldrh	r3, [r4, #8]
 469:Middlewares/Third_Party/LwIP/src/core/ipv4/ip4.c ****     pbuf_realloc(p, iphdr_len);
 295              		.loc 1 469 6 view .LVU89
 296 0036 8342     		cmp	r3, r0
 297 0038 1BD8     		bhi	.L49
 298              	.LVL21:
 299              	.L22:
 474:Middlewares/Third_Party/LwIP/src/core/ipv4/ip4.c ****     if (iphdr_hlen < IP_HLEN) {
 300              		.loc 1 474 3 is_stmt 1 view .LVU90
 474:Middlewares/Third_Party/LwIP/src/core/ipv4/ip4.c ****     if (iphdr_hlen < IP_HLEN) {
 301              		.loc 1 474 22 is_stmt 0 view .LVU91
 302 003a 6389     		ldrh	r3, [r4, #10]
 474:Middlewares/Third_Party/LwIP/src/core/ipv4/ip4.c ****     if (iphdr_hlen < IP_HLEN) {
 303              		.loc 1 474 6 view .LVU92
 304 003c AB42     		cmp	r3, r5
 305 003e 1DD3     		bcc	.L23
 474:Middlewares/Third_Party/LwIP/src/core/ipv4/ip4.c ****     if (iphdr_hlen < IP_HLEN) {
 306              		.loc 1 474 46 discriminator 1 view .LVU93
 307 0040 2389     		ldrh	r3, [r4, #8]
 474:Middlewares/Third_Party/LwIP/src/core/ipv4/ip4.c ****     if (iphdr_hlen < IP_HLEN) {
 308              		.loc 1 474 29 discriminator 1 view .LVU94
 309 0042 B342     		cmp	r3, r6
 310 0044 1AD3     		bcc	.L23
 474:Middlewares/Third_Party/LwIP/src/core/ipv4/ip4.c ****     if (iphdr_hlen < IP_HLEN) {
 311              		.loc 1 474 57 discriminator 2 view .LVU95
 312 0046 132D     		cmp	r5, #19
 313 0048 18D9     		bls	.L23
 515:Middlewares/Third_Party/LwIP/src/core/ipv4/ip4.c ****   ip_addr_copy_from_ip4(ip_data.current_iphdr_src, iphdr->src);
 314              		.loc 1 515 3 is_stmt 1 view .LVU96
 315 004a D8F81030 		ldr	r3, [r8, #16]	@ unaligned
 316 004e 584A     		ldr	r2, .L55
 317 0050 5361     		str	r3, [r2, #20]
 516:Middlewares/Third_Party/LwIP/src/core/ipv4/ip4.c **** 
 318              		.loc 1 516 3 view .LVU97
 319 0052 D8F80C10 		ldr	r1, [r8, #12]	@ unaligned
 320 0056 1161     		str	r1, [r2, #16]
 519:Middlewares/Third_Party/LwIP/src/core/ipv4/ip4.c **** #if LWIP_IGMP
 321              		.loc 1 519 3 view .LVU98
 519:Middlewares/Third_Party/LwIP/src/core/ipv4/ip4.c **** #if LWIP_IGMP
 322              		.loc 1 519 7 is_stmt 0 view .LVU99
 323 0058 03F0F003 		and	r3, r3, #240
 519:Middlewares/Third_Party/LwIP/src/core/ipv4/ip4.c **** #if LWIP_IGMP
 324              		.loc 1 519 6 view .LVU100
 325 005c E02B     		cmp	r3, #224
ARM GAS  D:\Dev\msys64\tmp\cclk87TN.s 			page 21


 326 005e 11D1     		bne	.L25
 534:Middlewares/Third_Party/LwIP/src/core/ipv4/ip4.c ****       netif = inp;
 327              		.loc 1 534 5 is_stmt 1 view .LVU101
 534:Middlewares/Third_Party/LwIP/src/core/ipv4/ip4.c ****       netif = inp;
 328              		.loc 1 534 10 is_stmt 0 view .LVU102
 329 0060 97F83130 		ldrb	r3, [r7, #49]	@ zero_extendqisi2
 534:Middlewares/Third_Party/LwIP/src/core/ipv4/ip4.c ****       netif = inp;
 330              		.loc 1 534 8 view .LVU103
 331 0064 13F0010F 		tst	r3, #1
 332 0068 26D0     		beq	.L42
 534:Middlewares/Third_Party/LwIP/src/core/ipv4/ip4.c ****       netif = inp;
 333              		.loc 1 534 33 discriminator 1 view .LVU104
 334 006a 7B68     		ldr	r3, [r7, #4]
 534:Middlewares/Third_Party/LwIP/src/core/ipv4/ip4.c ****       netif = inp;
 335              		.loc 1 534 28 discriminator 1 view .LVU105
 336 006c FBB9     		cbnz	r3, .L43
 537:Middlewares/Third_Party/LwIP/src/core/ipv4/ip4.c ****     }
 337              		.loc 1 537 13 view .LVU106
 338 006e 0025     		movs	r5, #0
 339 0070 23E0     		b	.L26
 340              	.LVL22:
 341              	.L49:
 470:Middlewares/Third_Party/LwIP/src/core/ipv4/ip4.c ****   }
 342              		.loc 1 470 5 is_stmt 1 view .LVU107
 343 0072 0146     		mov	r1, r0
 344 0074 2046     		mov	r0, r4
 345              	.LVL23:
 470:Middlewares/Third_Party/LwIP/src/core/ipv4/ip4.c ****   }
 346              		.loc 1 470 5 is_stmt 0 view .LVU108
 347 0076 FFF7FEFF 		bl	pbuf_realloc
 348              	.LVL24:
 349 007a DEE7     		b	.L22
 350              	.L23:
 475:Middlewares/Third_Party/LwIP/src/core/ipv4/ip4.c ****       LWIP_DEBUGF(IP_DEBUG | LWIP_DBG_LEVEL_SERIOUS,
 351              		.loc 1 475 5 is_stmt 1 view .LVU109
 477:Middlewares/Third_Party/LwIP/src/core/ipv4/ip4.c ****     }
 352              		.loc 1 477 109 view .LVU110
 479:Middlewares/Third_Party/LwIP/src/core/ipv4/ip4.c ****       LWIP_DEBUGF(IP_DEBUG | LWIP_DBG_LEVEL_SERIOUS,
 353              		.loc 1 479 5 view .LVU111
 482:Middlewares/Third_Party/LwIP/src/core/ipv4/ip4.c ****     }
 354              		.loc 1 482 40 view .LVU112
 484:Middlewares/Third_Party/LwIP/src/core/ipv4/ip4.c ****       LWIP_DEBUGF(IP_DEBUG | LWIP_DBG_LEVEL_SERIOUS,
 355              		.loc 1 484 5 view .LVU113
 487:Middlewares/Third_Party/LwIP/src/core/ipv4/ip4.c ****     }
 356              		.loc 1 487 43 view .LVU114
 490:Middlewares/Third_Party/LwIP/src/core/ipv4/ip4.c ****     IP_STATS_INC(ip.lenerr);
 357              		.loc 1 490 5 view .LVU115
 358 007c 2046     		mov	r0, r4
 359 007e FFF7FEFF 		bl	pbuf_free
 360              	.LVL25:
 491:Middlewares/Third_Party/LwIP/src/core/ipv4/ip4.c ****     IP_STATS_INC(ip.drop);
 361              		.loc 1 491 28 view .LVU116
 492:Middlewares/Third_Party/LwIP/src/core/ipv4/ip4.c ****     MIB2_STATS_INC(mib2.ipindiscards);
 362              		.loc 1 492 26 view .LVU117
 493:Middlewares/Third_Party/LwIP/src/core/ipv4/ip4.c ****     return ERR_OK;
 363              		.loc 1 493 38 view .LVU118
 494:Middlewares/Third_Party/LwIP/src/core/ipv4/ip4.c ****   }
ARM GAS  D:\Dev\msys64\tmp\cclk87TN.s 			page 22


 364              		.loc 1 494 5 view .LVU119
 494:Middlewares/Third_Party/LwIP/src/core/ipv4/ip4.c ****   }
 365              		.loc 1 494 12 is_stmt 0 view .LVU120
 366 0082 C9E7     		b	.L21
 367              	.L25:
 543:Middlewares/Third_Party/LwIP/src/core/ipv4/ip4.c ****       netif = inp;
 368              		.loc 1 543 5 is_stmt 1 view .LVU121
 543:Middlewares/Third_Party/LwIP/src/core/ipv4/ip4.c ****       netif = inp;
 369              		.loc 1 543 9 is_stmt 0 view .LVU122
 370 0084 3846     		mov	r0, r7
 371 0086 FFF7FEFF 		bl	ip4_input_accept
 372              	.LVL26:
 543:Middlewares/Third_Party/LwIP/src/core/ipv4/ip4.c ****       netif = inp;
 373              		.loc 1 543 8 view .LVU123
 374 008a 90B9     		cbnz	r0, .L44
 546:Middlewares/Third_Party/LwIP/src/core/ipv4/ip4.c **** #if !LWIP_NETIF_LOOPBACK || LWIP_HAVE_LOOPIF
 375              		.loc 1 546 7 is_stmt 1 view .LVU124
 376              	.LVL27:
 551:Middlewares/Third_Party/LwIP/src/core/ipv4/ip4.c **** #endif /* !LWIP_NETIF_LOOPBACK || LWIP_HAVE_LOOPIF */
 377              		.loc 1 551 7 view .LVU125
 551:Middlewares/Third_Party/LwIP/src/core/ipv4/ip4.c **** #endif /* !LWIP_NETIF_LOOPBACK || LWIP_HAVE_LOOPIF */
 378              		.loc 1 551 12 is_stmt 0 view .LVU126
 379 008c 484B     		ldr	r3, .L55
 380 008e 1B7D     		ldrb	r3, [r3, #20]	@ zero_extendqisi2
 551:Middlewares/Third_Party/LwIP/src/core/ipv4/ip4.c **** #endif /* !LWIP_NETIF_LOOPBACK || LWIP_HAVE_LOOPIF */
 381              		.loc 1 551 10 view .LVU127
 382 0090 7F2B     		cmp	r3, #127
 383 0092 51D0     		beq	.L45
 555:Middlewares/Third_Party/LwIP/src/core/ipv4/ip4.c ****           if (netif == inp) {
 384              		.loc 1 555 9 is_stmt 1 view .LVU128
 385 0094 474B     		ldr	r3, .L55+4
 386 0096 1D68     		ldr	r5, [r3]
 387              	.LVL28:
 555:Middlewares/Third_Party/LwIP/src/core/ipv4/ip4.c ****           if (netif == inp) {
 388              		.loc 1 555 9 is_stmt 0 view .LVU129
 389 0098 00E0     		b	.L28
 390              	.L29:
 555:Middlewares/Third_Party/LwIP/src/core/ipv4/ip4.c ****           if (netif == inp) {
 391              		.loc 1 555 9 is_stmt 1 discriminator 2 view .LVU130
 392 009a 2D68     		ldr	r5, [r5]
 393              	.LVL29:
 394              	.L28:
 555:Middlewares/Third_Party/LwIP/src/core/ipv4/ip4.c ****           if (netif == inp) {
 395              		.loc 1 555 9 discriminator 1 view .LVU131
 396 009c 55B1     		cbz	r5, .L27
 556:Middlewares/Third_Party/LwIP/src/core/ipv4/ip4.c ****             /* we checked that before already */
 397              		.loc 1 556 11 view .LVU132
 556:Middlewares/Third_Party/LwIP/src/core/ipv4/ip4.c ****             /* we checked that before already */
 398              		.loc 1 556 14 is_stmt 0 view .LVU133
 399 009e BD42     		cmp	r5, r7
 400 00a0 FBD0     		beq	.L29
 560:Middlewares/Third_Party/LwIP/src/core/ipv4/ip4.c ****             break;
 401              		.loc 1 560 11 is_stmt 1 view .LVU134
 560:Middlewares/Third_Party/LwIP/src/core/ipv4/ip4.c ****             break;
 402              		.loc 1 560 15 is_stmt 0 view .LVU135
 403 00a2 2846     		mov	r0, r5
 404 00a4 FFF7FEFF 		bl	ip4_input_accept
ARM GAS  D:\Dev\msys64\tmp\cclk87TN.s 			page 23


 405              	.LVL30:
 560:Middlewares/Third_Party/LwIP/src/core/ipv4/ip4.c ****             break;
 406              		.loc 1 560 14 view .LVU136
 407 00a8 0028     		cmp	r0, #0
 408 00aa F6D0     		beq	.L29
 409 00ac 02E0     		b	.L27
 410              	.LVL31:
 411              	.L43:
 535:Middlewares/Third_Party/LwIP/src/core/ipv4/ip4.c ****     } else {
 412              		.loc 1 535 13 view .LVU137
 413 00ae 3D46     		mov	r5, r7
 414 00b0 00E0     		b	.L27
 415              	.L44:
 544:Middlewares/Third_Party/LwIP/src/core/ipv4/ip4.c ****     } else {
 416              		.loc 1 544 13 view .LVU138
 417 00b2 3D46     		mov	r5, r7
 418              	.L27:
 419              	.LVL32:
 579:Middlewares/Third_Party/LwIP/src/core/ipv4/ip4.c ****     /* remote port is DHCP server? */
 420              		.loc 1 579 3 is_stmt 1 view .LVU139
 579:Middlewares/Third_Party/LwIP/src/core/ipv4/ip4.c ****     /* remote port is DHCP server? */
 421              		.loc 1 579 6 is_stmt 0 view .LVU140
 422 00b4 2DB9     		cbnz	r5, .L31
 423 00b6 00E0     		b	.L26
 424              	.LVL33:
 425              	.L42:
 537:Middlewares/Third_Party/LwIP/src/core/ipv4/ip4.c ****     }
 426              		.loc 1 537 13 view .LVU141
 427 00b8 0025     		movs	r5, #0
 428              	.L26:
 581:Middlewares/Third_Party/LwIP/src/core/ipv4/ip4.c ****       const struct udp_hdr *udphdr = (const struct udp_hdr *)((const u8_t *)iphdr + iphdr_hlen);
 429              		.loc 1 581 5 is_stmt 1 view .LVU142
 581:Middlewares/Third_Party/LwIP/src/core/ipv4/ip4.c ****       const struct udp_hdr *udphdr = (const struct udp_hdr *)((const u8_t *)iphdr + iphdr_hlen);
 430              		.loc 1 581 9 is_stmt 0 view .LVU143
 431 00ba 98F80930 		ldrb	r3, [r8, #9]	@ zero_extendqisi2
 581:Middlewares/Third_Party/LwIP/src/core/ipv4/ip4.c ****       const struct udp_hdr *udphdr = (const struct udp_hdr *)((const u8_t *)iphdr + iphdr_hlen);
 432              		.loc 1 581 8 view .LVU144
 433 00be 112B     		cmp	r3, #17
 434 00c0 3CD0     		beq	.L50
 435              	.L31:
 436              	.LVL34:
 599:Middlewares/Third_Party/LwIP/src/core/ipv4/ip4.c **** #endif /* IP_ACCEPT_LINK_LAYER_ADDRESSING */
 437              		.loc 1 599 11 view .LVU145
 438 00c2 3B4B     		ldr	r3, .L55
 439 00c4 1869     		ldr	r0, [r3, #16]
 599:Middlewares/Third_Party/LwIP/src/core/ipv4/ip4.c **** #endif /* IP_ACCEPT_LINK_LAYER_ADDRESSING */
 440              		.loc 1 599 7 view .LVU146
 441 00c6 0028     		cmp	r0, #0
 442 00c8 40D1     		bne	.L51
 443              	.L32:
 618:Middlewares/Third_Party/LwIP/src/core/ipv4/ip4.c ****     /* packet not for us, route or discard */
 444              		.loc 1 618 3 is_stmt 1 view .LVU147
 618:Middlewares/Third_Party/LwIP/src/core/ipv4/ip4.c ****     /* packet not for us, route or discard */
 445              		.loc 1 618 6 is_stmt 0 view .LVU148
 446 00ca 002D     		cmp	r5, #0
 447 00cc 4CD0     		beq	.L52
 637:Middlewares/Third_Party/LwIP/src/core/ipv4/ip4.c **** #if IP_REASSEMBLY /* packet fragment reassembly code present? */
ARM GAS  D:\Dev\msys64\tmp\cclk87TN.s 			page 24


 448              		.loc 1 637 3 is_stmt 1 view .LVU149
 637:Middlewares/Third_Party/LwIP/src/core/ipv4/ip4.c **** #if IP_REASSEMBLY /* packet fragment reassembly code present? */
 449              		.loc 1 637 8 is_stmt 0 view .LVU150
 450 00ce B8F80630 		ldrh	r3, [r8, #6]	@ unaligned
 637:Middlewares/Third_Party/LwIP/src/core/ipv4/ip4.c **** #if IP_REASSEMBLY /* packet fragment reassembly code present? */
 451              		.loc 1 637 6 view .LVU151
 452 00d2 23F0C003 		bic	r3, r3, #192
 453 00d6 9BB2     		uxth	r3, r3
 454 00d8 3BB1     		cbz	r3, .L35
 640:Middlewares/Third_Party/LwIP/src/core/ipv4/ip4.c ****     /* reassemble the packet*/
 455              		.loc 1 640 202 is_stmt 1 view .LVU152
 642:Middlewares/Third_Party/LwIP/src/core/ipv4/ip4.c ****     /* packet not fully reassembled yet? */
 456              		.loc 1 642 5 view .LVU153
 642:Middlewares/Third_Party/LwIP/src/core/ipv4/ip4.c ****     /* packet not fully reassembled yet? */
 457              		.loc 1 642 9 is_stmt 0 view .LVU154
 458 00da 2046     		mov	r0, r4
 459 00dc FFF7FEFF 		bl	ip4_reass
 460              	.LVL35:
 644:Middlewares/Third_Party/LwIP/src/core/ipv4/ip4.c ****       return ERR_OK;
 461              		.loc 1 644 5 is_stmt 1 view .LVU155
 644:Middlewares/Third_Party/LwIP/src/core/ipv4/ip4.c ****       return ERR_OK;
 462              		.loc 1 644 8 is_stmt 0 view .LVU156
 463 00e0 0446     		mov	r4, r0
 464 00e2 0028     		cmp	r0, #0
 465 00e4 98D0     		beq	.L21
 647:Middlewares/Third_Party/LwIP/src/core/ipv4/ip4.c **** #else /* IP_REASSEMBLY == 0, no packet fragment reassembly code present */
 466              		.loc 1 647 5 is_stmt 1 view .LVU157
 647:Middlewares/Third_Party/LwIP/src/core/ipv4/ip4.c **** #else /* IP_REASSEMBLY == 0, no packet fragment reassembly code present */
 467              		.loc 1 647 11 is_stmt 0 view .LVU158
 468 00e6 D0F80480 		ldr	r8, [r0, #4]
 469              	.LVL36:
 470              	.L35:
 679:Middlewares/Third_Party/LwIP/src/core/ipv4/ip4.c ****   ip4_debug_print(p);
 471              		.loc 1 679 43 is_stmt 1 view .LVU159
 680:Middlewares/Third_Party/LwIP/src/core/ipv4/ip4.c ****   LWIP_DEBUGF(IP_DEBUG, ("ip4_input: p->len %"U16_F" p->tot_len %"U16_F"\n", p->len, p->tot_len));
 472              		.loc 1 680 21 view .LVU160
 681:Middlewares/Third_Party/LwIP/src/core/ipv4/ip4.c **** 
 473              		.loc 1 681 98 view .LVU161
 683:Middlewares/Third_Party/LwIP/src/core/ipv4/ip4.c ****   ip_data.current_input_netif = inp;
 474              		.loc 1 683 3 view .LVU162
 683:Middlewares/Third_Party/LwIP/src/core/ipv4/ip4.c ****   ip_data.current_input_netif = inp;
 475              		.loc 1 683 25 is_stmt 0 view .LVU163
 476 00ea 314A     		ldr	r2, .L55
 477 00ec 1560     		str	r5, [r2]
 684:Middlewares/Third_Party/LwIP/src/core/ipv4/ip4.c ****   ip_data.current_ip4_header = iphdr;
 478              		.loc 1 684 3 is_stmt 1 view .LVU164
 684:Middlewares/Third_Party/LwIP/src/core/ipv4/ip4.c ****   ip_data.current_ip4_header = iphdr;
 479              		.loc 1 684 31 is_stmt 0 view .LVU165
 480 00ee 5760     		str	r7, [r2, #4]
 685:Middlewares/Third_Party/LwIP/src/core/ipv4/ip4.c ****   ip_data.current_ip_header_tot_len = IPH_HL_BYTES(iphdr);
 481              		.loc 1 685 3 is_stmt 1 view .LVU166
 685:Middlewares/Third_Party/LwIP/src/core/ipv4/ip4.c ****   ip_data.current_ip_header_tot_len = IPH_HL_BYTES(iphdr);
 482              		.loc 1 685 30 is_stmt 0 view .LVU167
 483 00f0 C2F80880 		str	r8, [r2, #8]
 686:Middlewares/Third_Party/LwIP/src/core/ipv4/ip4.c **** 
 484              		.loc 1 686 3 is_stmt 1 view .LVU168
 686:Middlewares/Third_Party/LwIP/src/core/ipv4/ip4.c **** 
ARM GAS  D:\Dev\msys64\tmp\cclk87TN.s 			page 25


 485              		.loc 1 686 39 is_stmt 0 view .LVU169
 486 00f4 98F80030 		ldrb	r3, [r8]	@ zero_extendqisi2
 487 00f8 03F00F03 		and	r3, r3, #15
 488 00fc 9B00     		lsls	r3, r3, #2
 686:Middlewares/Third_Party/LwIP/src/core/ipv4/ip4.c **** 
 489              		.loc 1 686 37 view .LVU170
 490 00fe 9381     		strh	r3, [r2, #12]	@ movhi
 694:Middlewares/Third_Party/LwIP/src/core/ipv4/ip4.c **** 
 491              		.loc 1 694 5 is_stmt 1 view .LVU171
 492 0100 4946     		mov	r1, r9
 493 0102 2046     		mov	r0, r4
 494 0104 FFF7FEFF 		bl	pbuf_remove_header
 495              	.LVL37:
 696:Middlewares/Third_Party/LwIP/src/core/ipv4/ip4.c **** #if LWIP_UDP
 496              		.loc 1 696 5 view .LVU172
 696:Middlewares/Third_Party/LwIP/src/core/ipv4/ip4.c **** #if LWIP_UDP
 497              		.loc 1 696 13 is_stmt 0 view .LVU173
 498 0108 98F80930 		ldrb	r3, [r8, #9]	@ zero_extendqisi2
 696:Middlewares/Third_Party/LwIP/src/core/ipv4/ip4.c **** #if LWIP_UDP
 499              		.loc 1 696 5 view .LVU174
 500 010c 062B     		cmp	r3, #6
 501 010e 3CD0     		beq	.L36
 696:Middlewares/Third_Party/LwIP/src/core/ipv4/ip4.c **** #if LWIP_UDP
 502              		.loc 1 696 5 view .LVU175
 503 0110 112B     		cmp	r3, #17
 504 0112 2DD0     		beq	.L37
 505 0114 012B     		cmp	r3, #1
 506 0116 3DD0     		beq	.L53
 732:Middlewares/Third_Party/LwIP/src/core/ipv4/ip4.c ****               !ip4_addr_ismulticast(ip4_current_dest_addr())) {
 507              		.loc 1 732 11 is_stmt 1 view .LVU176
 732:Middlewares/Third_Party/LwIP/src/core/ipv4/ip4.c ****               !ip4_addr_ismulticast(ip4_current_dest_addr())) {
 508              		.loc 1 732 16 is_stmt 0 view .LVU177
 509 0118 2946     		mov	r1, r5
 510 011a 254B     		ldr	r3, .L55
 511 011c 5869     		ldr	r0, [r3, #20]
 512 011e FFF7FEFF 		bl	ip4_addr_isbroadcast_u32
 513              	.LVL38:
 732:Middlewares/Third_Party/LwIP/src/core/ipv4/ip4.c ****               !ip4_addr_ismulticast(ip4_current_dest_addr())) {
 514              		.loc 1 732 14 view .LVU178
 515 0122 28B9     		cbnz	r0, .L41
 733:Middlewares/Third_Party/LwIP/src/core/ipv4/ip4.c ****             pbuf_header_force(p, (s16_t)iphdr_hlen); /* Move to ip header, no check necessary. */
 516              		.loc 1 733 16 discriminator 1 view .LVU179
 517 0124 224B     		ldr	r3, .L55
 518 0126 5B69     		ldr	r3, [r3, #20]
 519 0128 03F0F003 		and	r3, r3, #240
 732:Middlewares/Third_Party/LwIP/src/core/ipv4/ip4.c ****               !ip4_addr_ismulticast(ip4_current_dest_addr())) {
 520              		.loc 1 732 69 discriminator 1 view .LVU180
 521 012c E02B     		cmp	r3, #224
 522 012e 36D1     		bne	.L54
 523              	.L41:
 739:Middlewares/Third_Party/LwIP/src/core/ipv4/ip4.c **** 
 524              		.loc 1 739 129 is_stmt 1 view .LVU181
 741:Middlewares/Third_Party/LwIP/src/core/ipv4/ip4.c ****           IP_STATS_INC(ip.drop);
 525              		.loc 1 741 35 view .LVU182
 742:Middlewares/Third_Party/LwIP/src/core/ipv4/ip4.c ****           MIB2_STATS_INC(mib2.ipinunknownprotos);
 526              		.loc 1 742 32 view .LVU183
 743:Middlewares/Third_Party/LwIP/src/core/ipv4/ip4.c ****         }
ARM GAS  D:\Dev\msys64\tmp\cclk87TN.s 			page 26


 527              		.loc 1 743 49 view .LVU184
 745:Middlewares/Third_Party/LwIP/src/core/ipv4/ip4.c ****         break;
 528              		.loc 1 745 9 view .LVU185
 529 0130 2046     		mov	r0, r4
 530 0132 FFF7FEFF 		bl	pbuf_free
 531              	.LVL39:
 746:Middlewares/Third_Party/LwIP/src/core/ipv4/ip4.c ****     }
 532              		.loc 1 746 9 view .LVU186
 533 0136 1FE0     		b	.L40
 534              	.LVL40:
 535              	.L45:
 546:Middlewares/Third_Party/LwIP/src/core/ipv4/ip4.c **** #if !LWIP_NETIF_LOOPBACK || LWIP_HAVE_LOOPIF
 536              		.loc 1 546 13 is_stmt 0 view .LVU187
 537 0138 0025     		movs	r5, #0
 538 013a BEE7     		b	.L26
 539              	.LVL41:
 540              	.L50:
 541              	.LBB2:
 582:Middlewares/Third_Party/LwIP/src/core/ipv4/ip4.c ****       LWIP_DEBUGF(IP_DEBUG | LWIP_DBG_TRACE, ("ip4_input: UDP packet to DHCP client port %"U16_F"\n
 542              		.loc 1 582 7 is_stmt 1 view .LVU188
 582:Middlewares/Third_Party/LwIP/src/core/ipv4/ip4.c ****       LWIP_DEBUGF(IP_DEBUG | LWIP_DBG_TRACE, ("ip4_input: UDP packet to DHCP client port %"U16_F"\n
 543              		.loc 1 582 29 is_stmt 0 view .LVU189
 544 013c 08EB0903 		add	r3, r8, r9
 545              	.LVL42:
 584:Middlewares/Third_Party/LwIP/src/core/ipv4/ip4.c ****       if (IP_ACCEPT_LINK_LAYER_ADDRESSED_PORT(udphdr->dest)) {
 546              		.loc 1 584 73 is_stmt 1 view .LVU190
 585:Middlewares/Third_Party/LwIP/src/core/ipv4/ip4.c ****         LWIP_DEBUGF(IP_DEBUG | LWIP_DBG_TRACE, ("ip4_input: DHCP packet accepted.\n"));
 547              		.loc 1 585 7 view .LVU191
 585:Middlewares/Third_Party/LwIP/src/core/ipv4/ip4.c ****         LWIP_DEBUGF(IP_DEBUG | LWIP_DBG_TRACE, ("ip4_input: DHCP packet accepted.\n"));
 548              		.loc 1 585 11 is_stmt 0 view .LVU192
 549 0140 5B88     		ldrh	r3, [r3, #2]	@ unaligned
 550              	.LVL43:
 585:Middlewares/Third_Party/LwIP/src/core/ipv4/ip4.c ****         LWIP_DEBUGF(IP_DEBUG | LWIP_DBG_TRACE, ("ip4_input: DHCP packet accepted.\n"));
 551              		.loc 1 585 10 view .LVU193
 552 0142 B3F5884F 		cmp	r3, #17408
 553 0146 BCD1     		bne	.L31
 587:Middlewares/Third_Party/LwIP/src/core/ipv4/ip4.c ****         check_ip_src = 0;
 554              		.loc 1 587 15 view .LVU194
 555 0148 3D46     		mov	r5, r7
 556 014a BEE7     		b	.L32
 557              	.LVL44:
 558              	.L51:
 587:Middlewares/Third_Party/LwIP/src/core/ipv4/ip4.c ****         check_ip_src = 0;
 559              		.loc 1 587 15 view .LVU195
 560              	.LBE2:
 604:Middlewares/Third_Party/LwIP/src/core/ipv4/ip4.c ****         (ip4_addr_ismulticast(ip4_current_src_addr()))) {
 561              		.loc 1 604 5 is_stmt 1 view .LVU196
 604:Middlewares/Third_Party/LwIP/src/core/ipv4/ip4.c ****         (ip4_addr_ismulticast(ip4_current_src_addr()))) {
 562              		.loc 1 604 10 is_stmt 0 view .LVU197
 563 014c 3946     		mov	r1, r7
 564 014e FFF7FEFF 		bl	ip4_addr_isbroadcast_u32
 565              	.LVL45:
 604:Middlewares/Third_Party/LwIP/src/core/ipv4/ip4.c ****         (ip4_addr_ismulticast(ip4_current_src_addr()))) {
 566              		.loc 1 604 8 view .LVU198
 567 0152 28B9     		cbnz	r0, .L33
 605:Middlewares/Third_Party/LwIP/src/core/ipv4/ip4.c ****       /* packet source is not valid */
 568              		.loc 1 605 10 discriminator 1 view .LVU199
ARM GAS  D:\Dev\msys64\tmp\cclk87TN.s 			page 27


 569 0154 164B     		ldr	r3, .L55
 570 0156 1B69     		ldr	r3, [r3, #16]
 571 0158 03F0F003 		and	r3, r3, #240
 604:Middlewares/Third_Party/LwIP/src/core/ipv4/ip4.c ****         (ip4_addr_ismulticast(ip4_current_src_addr()))) {
 572              		.loc 1 604 61 discriminator 1 view .LVU200
 573 015c E02B     		cmp	r3, #224
 574 015e B4D1     		bne	.L32
 575              	.L33:
 607:Middlewares/Third_Party/LwIP/src/core/ipv4/ip4.c ****       /* free (drop) packet pbufs */
 576              		.loc 1 607 116 is_stmt 1 view .LVU201
 609:Middlewares/Third_Party/LwIP/src/core/ipv4/ip4.c ****       IP_STATS_INC(ip.drop);
 577              		.loc 1 609 7 view .LVU202
 578 0160 2046     		mov	r0, r4
 579 0162 FFF7FEFF 		bl	pbuf_free
 580              	.LVL46:
 610:Middlewares/Third_Party/LwIP/src/core/ipv4/ip4.c ****       MIB2_STATS_INC(mib2.ipinaddrerrors);
 581              		.loc 1 610 28 view .LVU203
 611:Middlewares/Third_Party/LwIP/src/core/ipv4/ip4.c ****       MIB2_STATS_INC(mib2.ipindiscards);
 582              		.loc 1 611 42 view .LVU204
 612:Middlewares/Third_Party/LwIP/src/core/ipv4/ip4.c ****       return ERR_OK;
 583              		.loc 1 612 40 view .LVU205
 613:Middlewares/Third_Party/LwIP/src/core/ipv4/ip4.c ****     }
 584              		.loc 1 613 7 view .LVU206
 613:Middlewares/Third_Party/LwIP/src/core/ipv4/ip4.c ****     }
 585              		.loc 1 613 14 is_stmt 0 view .LVU207
 586 0166 57E7     		b	.L21
 587              	.L52:
 620:Middlewares/Third_Party/LwIP/src/core/ipv4/ip4.c **** #if IP_FORWARD
 588              		.loc 1 620 80 is_stmt 1 view .LVU208
 629:Middlewares/Third_Party/LwIP/src/core/ipv4/ip4.c ****       MIB2_STATS_INC(mib2.ipinaddrerrors);
 589              		.loc 1 629 28 view .LVU209
 630:Middlewares/Third_Party/LwIP/src/core/ipv4/ip4.c ****       MIB2_STATS_INC(mib2.ipindiscards);
 590              		.loc 1 630 42 view .LVU210
 631:Middlewares/Third_Party/LwIP/src/core/ipv4/ip4.c ****     }
 591              		.loc 1 631 40 view .LVU211
 633:Middlewares/Third_Party/LwIP/src/core/ipv4/ip4.c ****     return ERR_OK;
 592              		.loc 1 633 5 view .LVU212
 593 0168 2046     		mov	r0, r4
 594 016a FFF7FEFF 		bl	pbuf_free
 595              	.LVL47:
 634:Middlewares/Third_Party/LwIP/src/core/ipv4/ip4.c ****   }
 596              		.loc 1 634 5 view .LVU213
 634:Middlewares/Third_Party/LwIP/src/core/ipv4/ip4.c ****   }
 597              		.loc 1 634 12 is_stmt 0 view .LVU214
 598 016e 53E7     		b	.L21
 599              	.L37:
 702:Middlewares/Third_Party/LwIP/src/core/ipv4/ip4.c ****         udp_input(p, inp);
 600              		.loc 1 702 42 is_stmt 1 view .LVU215
 703:Middlewares/Third_Party/LwIP/src/core/ipv4/ip4.c ****         break;
 601              		.loc 1 703 9 view .LVU216
 602 0170 3946     		mov	r1, r7
 603 0172 2046     		mov	r0, r4
 604 0174 FFF7FEFF 		bl	udp_input
 605              	.LVL48:
 704:Middlewares/Third_Party/LwIP/src/core/ipv4/ip4.c **** #endif /* LWIP_UDP */
 606              		.loc 1 704 9 view .LVU217
 607              	.L40:
ARM GAS  D:\Dev\msys64\tmp\cclk87TN.s 			page 28


 751:Middlewares/Third_Party/LwIP/src/core/ipv4/ip4.c ****   ip_data.current_input_netif = NULL;
 608              		.loc 1 751 3 view .LVU218
 751:Middlewares/Third_Party/LwIP/src/core/ipv4/ip4.c ****   ip_data.current_input_netif = NULL;
 609              		.loc 1 751 25 is_stmt 0 view .LVU219
 610 0178 0D4B     		ldr	r3, .L55
 611 017a 0022     		movs	r2, #0
 612 017c 1A60     		str	r2, [r3]
 752:Middlewares/Third_Party/LwIP/src/core/ipv4/ip4.c ****   ip_data.current_ip4_header = NULL;
 613              		.loc 1 752 3 is_stmt 1 view .LVU220
 752:Middlewares/Third_Party/LwIP/src/core/ipv4/ip4.c ****   ip_data.current_ip4_header = NULL;
 614              		.loc 1 752 31 is_stmt 0 view .LVU221
 615 017e 5A60     		str	r2, [r3, #4]
 753:Middlewares/Third_Party/LwIP/src/core/ipv4/ip4.c ****   ip_data.current_ip_header_tot_len = 0;
 616              		.loc 1 753 3 is_stmt 1 view .LVU222
 753:Middlewares/Third_Party/LwIP/src/core/ipv4/ip4.c ****   ip_data.current_ip_header_tot_len = 0;
 617              		.loc 1 753 30 is_stmt 0 view .LVU223
 618 0180 9A60     		str	r2, [r3, #8]
 754:Middlewares/Third_Party/LwIP/src/core/ipv4/ip4.c ****   ip4_addr_set_any(ip4_current_src_addr());
 619              		.loc 1 754 3 is_stmt 1 view .LVU224
 754:Middlewares/Third_Party/LwIP/src/core/ipv4/ip4.c ****   ip4_addr_set_any(ip4_current_src_addr());
 620              		.loc 1 754 37 is_stmt 0 view .LVU225
 621 0182 9A81     		strh	r2, [r3, #12]	@ movhi
 755:Middlewares/Third_Party/LwIP/src/core/ipv4/ip4.c ****   ip4_addr_set_any(ip4_current_dest_addr());
 622              		.loc 1 755 3 is_stmt 1 view .LVU226
 623 0184 1A61     		str	r2, [r3, #16]
 756:Middlewares/Third_Party/LwIP/src/core/ipv4/ip4.c **** 
 624              		.loc 1 756 3 view .LVU227
 625 0186 5A61     		str	r2, [r3, #20]
 758:Middlewares/Third_Party/LwIP/src/core/ipv4/ip4.c **** }
 626              		.loc 1 758 3 view .LVU228
 758:Middlewares/Third_Party/LwIP/src/core/ipv4/ip4.c **** }
 627              		.loc 1 758 10 is_stmt 0 view .LVU229
 628 0188 46E7     		b	.L21
 629              	.L36:
 708:Middlewares/Third_Party/LwIP/src/core/ipv4/ip4.c ****         tcp_input(p, inp);
 630              		.loc 1 708 42 is_stmt 1 view .LVU230
 709:Middlewares/Third_Party/LwIP/src/core/ipv4/ip4.c ****         break;
 631              		.loc 1 709 9 view .LVU231
 632 018a 3946     		mov	r1, r7
 633 018c 2046     		mov	r0, r4
 634 018e FFF7FEFF 		bl	tcp_input
 635              	.LVL49:
 710:Middlewares/Third_Party/LwIP/src/core/ipv4/ip4.c **** #endif /* LWIP_TCP */
 636              		.loc 1 710 9 view .LVU232
 637 0192 F1E7     		b	.L40
 638              	.L53:
 714:Middlewares/Third_Party/LwIP/src/core/ipv4/ip4.c ****         icmp_input(p, inp);
 639              		.loc 1 714 42 view .LVU233
 715:Middlewares/Third_Party/LwIP/src/core/ipv4/ip4.c ****         break;
 640              		.loc 1 715 9 view .LVU234
 641 0194 3946     		mov	r1, r7
 642 0196 2046     		mov	r0, r4
 643 0198 FFF7FEFF 		bl	icmp_input
 644              	.LVL50:
 716:Middlewares/Third_Party/LwIP/src/core/ipv4/ip4.c **** #endif /* LWIP_ICMP */
 645              		.loc 1 716 9 view .LVU235
 646 019c ECE7     		b	.L40
ARM GAS  D:\Dev\msys64\tmp\cclk87TN.s 			page 29


 647              	.L54:
 734:Middlewares/Third_Party/LwIP/src/core/ipv4/ip4.c ****             icmp_dest_unreach(p, ICMP_DUR_PROTO);
 648              		.loc 1 734 13 view .LVU236
 649 019e 4946     		mov	r1, r9
 650 01a0 2046     		mov	r0, r4
 651 01a2 FFF7FEFF 		bl	pbuf_header_force
 652              	.LVL51:
 735:Middlewares/Third_Party/LwIP/src/core/ipv4/ip4.c ****           }
 653              		.loc 1 735 13 view .LVU237
 654 01a6 0221     		movs	r1, #2
 655 01a8 2046     		mov	r0, r4
 656 01aa FFF7FEFF 		bl	icmp_dest_unreach
 657              	.LVL52:
 658 01ae BFE7     		b	.L41
 659              	.L56:
 660              		.align	2
 661              	.L55:
 662 01b0 00000000 		.word	ip_data
 663 01b4 00000000 		.word	netif_list
 664              		.cfi_endproc
 665              	.LFE27:
 667              		.section	.rodata.ip4_output_if_src.str1.4,"aMS",%progbits,1
 668              		.align	2
 669              	.LC0:
 670 0000 4D696464 		.ascii	"Middlewares/Third_Party/LwIP/src/core/ipv4/ip4.c\000"
 670      6C657761 
 670      7265732F 
 670      54686972 
 670      645F5061 
 671 0031 000000   		.align	2
 672              	.LC1:
 673 0034 702D3E72 		.ascii	"p->ref == 1\000"
 673      6566203D 
 673      3D203100 
 674              		.align	2
 675              	.LC2:
 676 0040 41737365 		.ascii	"Assertion \"%s\" failed at line %d in %s\012\000"
 676      7274696F 
 676      6E202225 
 676      73222066 
 676      61696C65 
 677              		.align	2
 678              	.LC3:
 679 0068 63686563 		.ascii	"check that first pbuf can hold struct ip_hdr\000"
 679      6B207468 
 679      61742066 
 679      69727374 
 679      20706275 
 680              		.section	.text.ip4_output_if_src,"ax",%progbits
 681              		.align	1
 682              		.global	ip4_output_if_src
 683              		.syntax unified
 684              		.thumb
 685              		.thumb_func
 686              		.fpu fpv5-sp-d16
 688              	ip4_output_if_src:
 689              	.LVL53:
ARM GAS  D:\Dev\msys64\tmp\cclk87TN.s 			page 30


 690              	.LFB29:
 760:Middlewares/Third_Party/LwIP/src/core/ipv4/ip4.c **** 
 761:Middlewares/Third_Party/LwIP/src/core/ipv4/ip4.c **** /**
 762:Middlewares/Third_Party/LwIP/src/core/ipv4/ip4.c ****  * Sends an IP packet on a network interface. This function constructs
 763:Middlewares/Third_Party/LwIP/src/core/ipv4/ip4.c ****  * the IP header and calculates the IP header checksum. If the source
 764:Middlewares/Third_Party/LwIP/src/core/ipv4/ip4.c ****  * IP address is NULL, the IP address of the outgoing network
 765:Middlewares/Third_Party/LwIP/src/core/ipv4/ip4.c ****  * interface is filled in as source address.
 766:Middlewares/Third_Party/LwIP/src/core/ipv4/ip4.c ****  * If the destination IP address is LWIP_IP_HDRINCL, p is assumed to already
 767:Middlewares/Third_Party/LwIP/src/core/ipv4/ip4.c ****  * include an IP header and p->payload points to it instead of the data.
 768:Middlewares/Third_Party/LwIP/src/core/ipv4/ip4.c ****  *
 769:Middlewares/Third_Party/LwIP/src/core/ipv4/ip4.c ****  * @param p the packet to send (p->payload points to the data, e.g. next
 770:Middlewares/Third_Party/LwIP/src/core/ipv4/ip4.c ****             protocol header; if dest == LWIP_IP_HDRINCL, p already includes an
 771:Middlewares/Third_Party/LwIP/src/core/ipv4/ip4.c ****             IP header and p->payload points to that IP header)
 772:Middlewares/Third_Party/LwIP/src/core/ipv4/ip4.c ****  * @param src the source IP address to send from (if src == IP4_ADDR_ANY, the
 773:Middlewares/Third_Party/LwIP/src/core/ipv4/ip4.c ****  *         IP  address of the netif used to send is used as source address)
 774:Middlewares/Third_Party/LwIP/src/core/ipv4/ip4.c ****  * @param dest the destination IP address to send the packet to
 775:Middlewares/Third_Party/LwIP/src/core/ipv4/ip4.c ****  * @param ttl the TTL value to be set in the IP header
 776:Middlewares/Third_Party/LwIP/src/core/ipv4/ip4.c ****  * @param tos the TOS value to be set in the IP header
 777:Middlewares/Third_Party/LwIP/src/core/ipv4/ip4.c ****  * @param proto the PROTOCOL to be set in the IP header
 778:Middlewares/Third_Party/LwIP/src/core/ipv4/ip4.c ****  * @param netif the netif on which to send this packet
 779:Middlewares/Third_Party/LwIP/src/core/ipv4/ip4.c ****  * @return ERR_OK if the packet was sent OK
 780:Middlewares/Third_Party/LwIP/src/core/ipv4/ip4.c ****  *         ERR_BUF if p doesn't have enough space for IP/LINK headers
 781:Middlewares/Third_Party/LwIP/src/core/ipv4/ip4.c ****  *         returns errors returned by netif->output
 782:Middlewares/Third_Party/LwIP/src/core/ipv4/ip4.c ****  *
 783:Middlewares/Third_Party/LwIP/src/core/ipv4/ip4.c ****  * @note ip_id: RFC791 "some host may be able to simply use
 784:Middlewares/Third_Party/LwIP/src/core/ipv4/ip4.c ****  *  unique identifiers independent of destination"
 785:Middlewares/Third_Party/LwIP/src/core/ipv4/ip4.c ****  */
 786:Middlewares/Third_Party/LwIP/src/core/ipv4/ip4.c **** err_t
 787:Middlewares/Third_Party/LwIP/src/core/ipv4/ip4.c **** ip4_output_if(struct pbuf *p, const ip4_addr_t *src, const ip4_addr_t *dest,
 788:Middlewares/Third_Party/LwIP/src/core/ipv4/ip4.c ****               u8_t ttl, u8_t tos,
 789:Middlewares/Third_Party/LwIP/src/core/ipv4/ip4.c ****               u8_t proto, struct netif *netif)
 790:Middlewares/Third_Party/LwIP/src/core/ipv4/ip4.c **** {
 791:Middlewares/Third_Party/LwIP/src/core/ipv4/ip4.c **** #if IP_OPTIONS_SEND
 792:Middlewares/Third_Party/LwIP/src/core/ipv4/ip4.c ****   return ip4_output_if_opt(p, src, dest, ttl, tos, proto, netif, NULL, 0);
 793:Middlewares/Third_Party/LwIP/src/core/ipv4/ip4.c **** }
 794:Middlewares/Third_Party/LwIP/src/core/ipv4/ip4.c **** 
 795:Middlewares/Third_Party/LwIP/src/core/ipv4/ip4.c **** /**
 796:Middlewares/Third_Party/LwIP/src/core/ipv4/ip4.c ****  * Same as ip_output_if() but with the possibility to include IP options:
 797:Middlewares/Third_Party/LwIP/src/core/ipv4/ip4.c ****  *
 798:Middlewares/Third_Party/LwIP/src/core/ipv4/ip4.c ****  * @ param ip_options pointer to the IP options, copied into the IP header
 799:Middlewares/Third_Party/LwIP/src/core/ipv4/ip4.c ****  * @ param optlen length of ip_options
 800:Middlewares/Third_Party/LwIP/src/core/ipv4/ip4.c ****  */
 801:Middlewares/Third_Party/LwIP/src/core/ipv4/ip4.c **** err_t
 802:Middlewares/Third_Party/LwIP/src/core/ipv4/ip4.c **** ip4_output_if_opt(struct pbuf *p, const ip4_addr_t *src, const ip4_addr_t *dest,
 803:Middlewares/Third_Party/LwIP/src/core/ipv4/ip4.c ****                   u8_t ttl, u8_t tos, u8_t proto, struct netif *netif, void *ip_options,
 804:Middlewares/Third_Party/LwIP/src/core/ipv4/ip4.c ****                   u16_t optlen)
 805:Middlewares/Third_Party/LwIP/src/core/ipv4/ip4.c **** {
 806:Middlewares/Third_Party/LwIP/src/core/ipv4/ip4.c **** #endif /* IP_OPTIONS_SEND */
 807:Middlewares/Third_Party/LwIP/src/core/ipv4/ip4.c ****   const ip4_addr_t *src_used = src;
 808:Middlewares/Third_Party/LwIP/src/core/ipv4/ip4.c ****   if (dest != LWIP_IP_HDRINCL) {
 809:Middlewares/Third_Party/LwIP/src/core/ipv4/ip4.c ****     if (ip4_addr_isany(src)) {
 810:Middlewares/Third_Party/LwIP/src/core/ipv4/ip4.c ****       src_used = netif_ip4_addr(netif);
 811:Middlewares/Third_Party/LwIP/src/core/ipv4/ip4.c ****     }
 812:Middlewares/Third_Party/LwIP/src/core/ipv4/ip4.c ****   }
 813:Middlewares/Third_Party/LwIP/src/core/ipv4/ip4.c **** 
 814:Middlewares/Third_Party/LwIP/src/core/ipv4/ip4.c **** #if IP_OPTIONS_SEND
 815:Middlewares/Third_Party/LwIP/src/core/ipv4/ip4.c ****   return ip4_output_if_opt_src(p, src_used, dest, ttl, tos, proto, netif,
ARM GAS  D:\Dev\msys64\tmp\cclk87TN.s 			page 31


 816:Middlewares/Third_Party/LwIP/src/core/ipv4/ip4.c ****                                ip_options, optlen);
 817:Middlewares/Third_Party/LwIP/src/core/ipv4/ip4.c **** #else /* IP_OPTIONS_SEND */
 818:Middlewares/Third_Party/LwIP/src/core/ipv4/ip4.c ****   return ip4_output_if_src(p, src_used, dest, ttl, tos, proto, netif);
 819:Middlewares/Third_Party/LwIP/src/core/ipv4/ip4.c **** #endif /* IP_OPTIONS_SEND */
 820:Middlewares/Third_Party/LwIP/src/core/ipv4/ip4.c **** }
 821:Middlewares/Third_Party/LwIP/src/core/ipv4/ip4.c **** 
 822:Middlewares/Third_Party/LwIP/src/core/ipv4/ip4.c **** /**
 823:Middlewares/Third_Party/LwIP/src/core/ipv4/ip4.c ****  * Same as ip_output_if() but 'src' address is not replaced by netif address
 824:Middlewares/Third_Party/LwIP/src/core/ipv4/ip4.c ****  * when it is 'any'.
 825:Middlewares/Third_Party/LwIP/src/core/ipv4/ip4.c ****  */
 826:Middlewares/Third_Party/LwIP/src/core/ipv4/ip4.c **** err_t
 827:Middlewares/Third_Party/LwIP/src/core/ipv4/ip4.c **** ip4_output_if_src(struct pbuf *p, const ip4_addr_t *src, const ip4_addr_t *dest,
 828:Middlewares/Third_Party/LwIP/src/core/ipv4/ip4.c ****                   u8_t ttl, u8_t tos,
 829:Middlewares/Third_Party/LwIP/src/core/ipv4/ip4.c ****                   u8_t proto, struct netif *netif)
 830:Middlewares/Third_Party/LwIP/src/core/ipv4/ip4.c **** {
 691              		.loc 1 830 1 view -0
 692              		.cfi_startproc
 693              		@ args = 12, pretend = 0, frame = 8
 694              		@ frame_needed = 0, uses_anonymous_args = 0
 695              		.loc 1 830 1 is_stmt 0 view .LVU239
 696 0000 2DE9F043 		push	{r4, r5, r6, r7, r8, r9, lr}
 697              	.LCFI4:
 698              		.cfi_def_cfa_offset 28
 699              		.cfi_offset 4, -28
 700              		.cfi_offset 5, -24
 701              		.cfi_offset 6, -20
 702              		.cfi_offset 7, -16
 703              		.cfi_offset 8, -12
 704              		.cfi_offset 9, -8
 705              		.cfi_offset 14, -4
 706 0004 83B0     		sub	sp, sp, #12
 707              	.LCFI5:
 708              		.cfi_def_cfa_offset 40
 709 0006 0446     		mov	r4, r0
 710 0008 0F46     		mov	r7, r1
 711 000a 1646     		mov	r6, r2
 712 000c 9946     		mov	r9, r3
 713 000e DDF83080 		ldr	r8, [sp, #48]
 831:Middlewares/Third_Party/LwIP/src/core/ipv4/ip4.c **** #if IP_OPTIONS_SEND
 832:Middlewares/Third_Party/LwIP/src/core/ipv4/ip4.c ****   return ip4_output_if_opt_src(p, src, dest, ttl, tos, proto, netif, NULL, 0);
 833:Middlewares/Third_Party/LwIP/src/core/ipv4/ip4.c **** }
 834:Middlewares/Third_Party/LwIP/src/core/ipv4/ip4.c **** 
 835:Middlewares/Third_Party/LwIP/src/core/ipv4/ip4.c **** /**
 836:Middlewares/Third_Party/LwIP/src/core/ipv4/ip4.c ****  * Same as ip_output_if_opt() but 'src' address is not replaced by netif address
 837:Middlewares/Third_Party/LwIP/src/core/ipv4/ip4.c ****  * when it is 'any'.
 838:Middlewares/Third_Party/LwIP/src/core/ipv4/ip4.c ****  */
 839:Middlewares/Third_Party/LwIP/src/core/ipv4/ip4.c **** err_t
 840:Middlewares/Third_Party/LwIP/src/core/ipv4/ip4.c **** ip4_output_if_opt_src(struct pbuf *p, const ip4_addr_t *src, const ip4_addr_t *dest,
 841:Middlewares/Third_Party/LwIP/src/core/ipv4/ip4.c ****                       u8_t ttl, u8_t tos, u8_t proto, struct netif *netif, void *ip_options,
 842:Middlewares/Third_Party/LwIP/src/core/ipv4/ip4.c ****                       u16_t optlen)
 843:Middlewares/Third_Party/LwIP/src/core/ipv4/ip4.c **** {
 844:Middlewares/Third_Party/LwIP/src/core/ipv4/ip4.c **** #endif /* IP_OPTIONS_SEND */
 845:Middlewares/Third_Party/LwIP/src/core/ipv4/ip4.c ****   struct ip_hdr *iphdr;
 714              		.loc 1 845 3 is_stmt 1 view .LVU240
 846:Middlewares/Third_Party/LwIP/src/core/ipv4/ip4.c ****   ip4_addr_t dest_addr;
 715              		.loc 1 846 3 view .LVU241
 847:Middlewares/Third_Party/LwIP/src/core/ipv4/ip4.c **** #if CHECKSUM_GEN_IP_INLINE
ARM GAS  D:\Dev\msys64\tmp\cclk87TN.s 			page 32


 848:Middlewares/Third_Party/LwIP/src/core/ipv4/ip4.c ****   u32_t chk_sum = 0;
 849:Middlewares/Third_Party/LwIP/src/core/ipv4/ip4.c **** #endif /* CHECKSUM_GEN_IP_INLINE */
 850:Middlewares/Third_Party/LwIP/src/core/ipv4/ip4.c **** 
 851:Middlewares/Third_Party/LwIP/src/core/ipv4/ip4.c ****   LWIP_ASSERT_CORE_LOCKED();
 716              		.loc 1 851 28 view .LVU242
 852:Middlewares/Third_Party/LwIP/src/core/ipv4/ip4.c ****   LWIP_IP_CHECK_PBUF_REF_COUNT_FOR_TX(p);
 717              		.loc 1 852 3 view .LVU243
 718              		.loc 1 852 3 view .LVU244
 719 0012 827B     		ldrb	r2, [r0, #14]	@ zero_extendqisi2
 720              	.LVL54:
 721              		.loc 1 852 3 is_stmt 0 view .LVU245
 722 0014 012A     		cmp	r2, #1
 723 0016 3FD1     		bne	.L69
 724              	.LVL55:
 725              	.L58:
 726              		.loc 1 852 3 is_stmt 1 discriminator 3 view .LVU246
 727              		.loc 1 852 3 discriminator 3 view .LVU247
 853:Middlewares/Third_Party/LwIP/src/core/ipv4/ip4.c **** 
 854:Middlewares/Third_Party/LwIP/src/core/ipv4/ip4.c ****   MIB2_STATS_INC(mib2.ipoutrequests);
 728              		.loc 1 854 37 discriminator 3 view .LVU248
 855:Middlewares/Third_Party/LwIP/src/core/ipv4/ip4.c **** 
 856:Middlewares/Third_Party/LwIP/src/core/ipv4/ip4.c ****   /* Should the IP header be generated or is it already included in p? */
 857:Middlewares/Third_Party/LwIP/src/core/ipv4/ip4.c ****   if (dest != LWIP_IP_HDRINCL) {
 729              		.loc 1 857 3 discriminator 3 view .LVU249
 730              		.loc 1 857 6 is_stmt 0 discriminator 3 view .LVU250
 731 0018 002E     		cmp	r6, #0
 732 001a 51D0     		beq	.L59
 733              	.LBB3:
 858:Middlewares/Third_Party/LwIP/src/core/ipv4/ip4.c ****     u16_t ip_hlen = IP_HLEN;
 734              		.loc 1 858 5 is_stmt 1 view .LVU251
 735              	.LVL56:
 859:Middlewares/Third_Party/LwIP/src/core/ipv4/ip4.c **** #if IP_OPTIONS_SEND
 860:Middlewares/Third_Party/LwIP/src/core/ipv4/ip4.c ****     u16_t optlen_aligned = 0;
 861:Middlewares/Third_Party/LwIP/src/core/ipv4/ip4.c ****     if (optlen != 0) {
 862:Middlewares/Third_Party/LwIP/src/core/ipv4/ip4.c **** #if CHECKSUM_GEN_IP_INLINE
 863:Middlewares/Third_Party/LwIP/src/core/ipv4/ip4.c ****       int i;
 864:Middlewares/Third_Party/LwIP/src/core/ipv4/ip4.c **** #endif /* CHECKSUM_GEN_IP_INLINE */
 865:Middlewares/Third_Party/LwIP/src/core/ipv4/ip4.c ****       if (optlen > (IP_HLEN_MAX - IP_HLEN)) {
 866:Middlewares/Third_Party/LwIP/src/core/ipv4/ip4.c ****         /* optlen too long */
 867:Middlewares/Third_Party/LwIP/src/core/ipv4/ip4.c ****         LWIP_DEBUGF(IP_DEBUG | LWIP_DBG_LEVEL_SERIOUS, ("ip4_output_if_opt: optlen too long\n"));
 868:Middlewares/Third_Party/LwIP/src/core/ipv4/ip4.c ****         IP_STATS_INC(ip.err);
 869:Middlewares/Third_Party/LwIP/src/core/ipv4/ip4.c ****         MIB2_STATS_INC(mib2.ipoutdiscards);
 870:Middlewares/Third_Party/LwIP/src/core/ipv4/ip4.c ****         return ERR_VAL;
 871:Middlewares/Third_Party/LwIP/src/core/ipv4/ip4.c ****       }
 872:Middlewares/Third_Party/LwIP/src/core/ipv4/ip4.c ****       /* round up to a multiple of 4 */
 873:Middlewares/Third_Party/LwIP/src/core/ipv4/ip4.c ****       optlen_aligned = (u16_t)((optlen + 3) & ~3);
 874:Middlewares/Third_Party/LwIP/src/core/ipv4/ip4.c ****       ip_hlen = (u16_t)(ip_hlen + optlen_aligned);
 875:Middlewares/Third_Party/LwIP/src/core/ipv4/ip4.c ****       /* First write in the IP options */
 876:Middlewares/Third_Party/LwIP/src/core/ipv4/ip4.c ****       if (pbuf_add_header(p, optlen_aligned)) {
 877:Middlewares/Third_Party/LwIP/src/core/ipv4/ip4.c ****         LWIP_DEBUGF(IP_DEBUG | LWIP_DBG_LEVEL_SERIOUS, ("ip4_output_if_opt: not enough room for IP 
 878:Middlewares/Third_Party/LwIP/src/core/ipv4/ip4.c ****         IP_STATS_INC(ip.err);
 879:Middlewares/Third_Party/LwIP/src/core/ipv4/ip4.c ****         MIB2_STATS_INC(mib2.ipoutdiscards);
 880:Middlewares/Third_Party/LwIP/src/core/ipv4/ip4.c ****         return ERR_BUF;
 881:Middlewares/Third_Party/LwIP/src/core/ipv4/ip4.c ****       }
 882:Middlewares/Third_Party/LwIP/src/core/ipv4/ip4.c ****       MEMCPY(p->payload, ip_options, optlen);
 883:Middlewares/Third_Party/LwIP/src/core/ipv4/ip4.c ****       if (optlen < optlen_aligned) {
 884:Middlewares/Third_Party/LwIP/src/core/ipv4/ip4.c ****         /* zero the remaining bytes */
ARM GAS  D:\Dev\msys64\tmp\cclk87TN.s 			page 33


 885:Middlewares/Third_Party/LwIP/src/core/ipv4/ip4.c ****         memset(((char *)p->payload) + optlen, 0, (size_t)(optlen_aligned - optlen));
 886:Middlewares/Third_Party/LwIP/src/core/ipv4/ip4.c ****       }
 887:Middlewares/Third_Party/LwIP/src/core/ipv4/ip4.c **** #if CHECKSUM_GEN_IP_INLINE
 888:Middlewares/Third_Party/LwIP/src/core/ipv4/ip4.c ****       for (i = 0; i < optlen_aligned / 2; i++) {
 889:Middlewares/Third_Party/LwIP/src/core/ipv4/ip4.c ****         chk_sum += ((u16_t *)p->payload)[i];
 890:Middlewares/Third_Party/LwIP/src/core/ipv4/ip4.c ****       }
 891:Middlewares/Third_Party/LwIP/src/core/ipv4/ip4.c **** #endif /* CHECKSUM_GEN_IP_INLINE */
 892:Middlewares/Third_Party/LwIP/src/core/ipv4/ip4.c ****     }
 893:Middlewares/Third_Party/LwIP/src/core/ipv4/ip4.c **** #endif /* IP_OPTIONS_SEND */
 894:Middlewares/Third_Party/LwIP/src/core/ipv4/ip4.c ****     /* generate IP header */
 895:Middlewares/Third_Party/LwIP/src/core/ipv4/ip4.c ****     if (pbuf_add_header(p, IP_HLEN)) {
 736              		.loc 1 895 5 view .LVU252
 737              		.loc 1 895 9 is_stmt 0 view .LVU253
 738 001c 1421     		movs	r1, #20
 739 001e 2046     		mov	r0, r4
 740 0020 FFF7FEFF 		bl	pbuf_add_header
 741              	.LVL57:
 742              		.loc 1 895 8 view .LVU254
 743 0024 0028     		cmp	r0, #0
 744 0026 59D1     		bne	.L66
 896:Middlewares/Third_Party/LwIP/src/core/ipv4/ip4.c ****       LWIP_DEBUGF(IP_DEBUG | LWIP_DBG_LEVEL_SERIOUS, ("ip4_output: not enough room for IP header in
 897:Middlewares/Third_Party/LwIP/src/core/ipv4/ip4.c **** 
 898:Middlewares/Third_Party/LwIP/src/core/ipv4/ip4.c ****       IP_STATS_INC(ip.err);
 899:Middlewares/Third_Party/LwIP/src/core/ipv4/ip4.c ****       MIB2_STATS_INC(mib2.ipoutdiscards);
 900:Middlewares/Third_Party/LwIP/src/core/ipv4/ip4.c ****       return ERR_BUF;
 901:Middlewares/Third_Party/LwIP/src/core/ipv4/ip4.c ****     }
 902:Middlewares/Third_Party/LwIP/src/core/ipv4/ip4.c **** 
 903:Middlewares/Third_Party/LwIP/src/core/ipv4/ip4.c ****     iphdr = (struct ip_hdr *)p->payload;
 745              		.loc 1 903 5 is_stmt 1 view .LVU255
 746              		.loc 1 903 11 is_stmt 0 view .LVU256
 747 0028 6568     		ldr	r5, [r4, #4]
 748              	.LVL58:
 904:Middlewares/Third_Party/LwIP/src/core/ipv4/ip4.c ****     LWIP_ASSERT("check that first pbuf can hold struct ip_hdr",
 749              		.loc 1 904 5 is_stmt 1 view .LVU257
 750              		.loc 1 904 5 view .LVU258
 751 002a 6389     		ldrh	r3, [r4, #10]
 752 002c 132B     		cmp	r3, #19
 753 002e 3BD9     		bls	.L70
 754              	.L61:
 755              		.loc 1 904 5 discriminator 3 view .LVU259
 756              		.loc 1 904 5 discriminator 3 view .LVU260
 905:Middlewares/Third_Party/LwIP/src/core/ipv4/ip4.c ****                 (p->len >= sizeof(struct ip_hdr)));
 906:Middlewares/Third_Party/LwIP/src/core/ipv4/ip4.c **** 
 907:Middlewares/Third_Party/LwIP/src/core/ipv4/ip4.c ****     IPH_TTL_SET(iphdr, ttl);
 757              		.loc 1 907 5 discriminator 3 view .LVU261
 758 0030 85F80890 		strb	r9, [r5, #8]
 908:Middlewares/Third_Party/LwIP/src/core/ipv4/ip4.c ****     IPH_PROTO_SET(iphdr, proto);
 759              		.loc 1 908 5 discriminator 3 view .LVU262
 760 0034 9DF82C30 		ldrb	r3, [sp, #44]	@ zero_extendqisi2
 761 0038 6B72     		strb	r3, [r5, #9]
 909:Middlewares/Third_Party/LwIP/src/core/ipv4/ip4.c **** #if CHECKSUM_GEN_IP_INLINE
 910:Middlewares/Third_Party/LwIP/src/core/ipv4/ip4.c ****     chk_sum += PP_NTOHS(proto | (ttl << 8));
 911:Middlewares/Third_Party/LwIP/src/core/ipv4/ip4.c **** #endif /* CHECKSUM_GEN_IP_INLINE */
 912:Middlewares/Third_Party/LwIP/src/core/ipv4/ip4.c **** 
 913:Middlewares/Third_Party/LwIP/src/core/ipv4/ip4.c ****     /* dest cannot be NULL here */
 914:Middlewares/Third_Party/LwIP/src/core/ipv4/ip4.c ****     ip4_addr_copy(iphdr->dest, *dest);
 762              		.loc 1 914 5 discriminator 3 view .LVU263
ARM GAS  D:\Dev\msys64\tmp\cclk87TN.s 			page 34


 763 003a 3368     		ldr	r3, [r6]
 764 003c 2B61     		str	r3, [r5, #16]	@ unaligned
 915:Middlewares/Third_Party/LwIP/src/core/ipv4/ip4.c **** #if CHECKSUM_GEN_IP_INLINE
 916:Middlewares/Third_Party/LwIP/src/core/ipv4/ip4.c ****     chk_sum += ip4_addr_get_u32(&iphdr->dest) & 0xFFFF;
 917:Middlewares/Third_Party/LwIP/src/core/ipv4/ip4.c ****     chk_sum += ip4_addr_get_u32(&iphdr->dest) >> 16;
 918:Middlewares/Third_Party/LwIP/src/core/ipv4/ip4.c **** #endif /* CHECKSUM_GEN_IP_INLINE */
 919:Middlewares/Third_Party/LwIP/src/core/ipv4/ip4.c **** 
 920:Middlewares/Third_Party/LwIP/src/core/ipv4/ip4.c ****     IPH_VHL_SET(iphdr, 4, ip_hlen / 4);
 765              		.loc 1 920 5 discriminator 3 view .LVU264
 766 003e 4523     		movs	r3, #69
 767 0040 2B70     		strb	r3, [r5]
 921:Middlewares/Third_Party/LwIP/src/core/ipv4/ip4.c ****     IPH_TOS_SET(iphdr, tos);
 768              		.loc 1 921 5 discriminator 3 view .LVU265
 769 0042 9DF82830 		ldrb	r3, [sp, #40]	@ zero_extendqisi2
 770 0046 6B70     		strb	r3, [r5, #1]
 922:Middlewares/Third_Party/LwIP/src/core/ipv4/ip4.c **** #if CHECKSUM_GEN_IP_INLINE
 923:Middlewares/Third_Party/LwIP/src/core/ipv4/ip4.c ****     chk_sum += PP_NTOHS(tos | (iphdr->_v_hl << 8));
 924:Middlewares/Third_Party/LwIP/src/core/ipv4/ip4.c **** #endif /* CHECKSUM_GEN_IP_INLINE */
 925:Middlewares/Third_Party/LwIP/src/core/ipv4/ip4.c ****     IPH_LEN_SET(iphdr, lwip_htons(p->tot_len));
 771              		.loc 1 925 5 discriminator 3 view .LVU266
 772 0048 2089     		ldrh	r0, [r4, #8]
 773 004a FFF7FEFF 		bl	lwip_htons
 774              	.LVL59:
 775 004e 6880     		strh	r0, [r5, #2]	@ unaligned
 926:Middlewares/Third_Party/LwIP/src/core/ipv4/ip4.c **** #if CHECKSUM_GEN_IP_INLINE
 927:Middlewares/Third_Party/LwIP/src/core/ipv4/ip4.c ****     chk_sum += iphdr->_len;
 928:Middlewares/Third_Party/LwIP/src/core/ipv4/ip4.c **** #endif /* CHECKSUM_GEN_IP_INLINE */
 929:Middlewares/Third_Party/LwIP/src/core/ipv4/ip4.c ****     IPH_OFFSET_SET(iphdr, 0);
 776              		.loc 1 929 5 discriminator 3 view .LVU267
 777 0050 0023     		movs	r3, #0
 778 0052 AB71     		strb	r3, [r5, #6]
 779 0054 EB71     		strb	r3, [r5, #7]
 930:Middlewares/Third_Party/LwIP/src/core/ipv4/ip4.c ****     IPH_ID_SET(iphdr, lwip_htons(ip_id));
 780              		.loc 1 930 5 discriminator 3 view .LVU268
 781 0056 DFF8A490 		ldr	r9, .L73+20
 782 005a B9F80000 		ldrh	r0, [r9]
 783 005e FFF7FEFF 		bl	lwip_htons
 784              	.LVL60:
 785 0062 A880     		strh	r0, [r5, #4]	@ unaligned
 931:Middlewares/Third_Party/LwIP/src/core/ipv4/ip4.c **** #if CHECKSUM_GEN_IP_INLINE
 932:Middlewares/Third_Party/LwIP/src/core/ipv4/ip4.c ****     chk_sum += iphdr->_id;
 933:Middlewares/Third_Party/LwIP/src/core/ipv4/ip4.c **** #endif /* CHECKSUM_GEN_IP_INLINE */
 934:Middlewares/Third_Party/LwIP/src/core/ipv4/ip4.c ****     ++ip_id;
 786              		.loc 1 934 5 discriminator 3 view .LVU269
 787 0064 B9F80030 		ldrh	r3, [r9]
 788 0068 0133     		adds	r3, r3, #1
 789 006a A9F80030 		strh	r3, [r9]	@ movhi
 935:Middlewares/Third_Party/LwIP/src/core/ipv4/ip4.c **** 
 936:Middlewares/Third_Party/LwIP/src/core/ipv4/ip4.c ****     if (src == NULL) {
 790              		.loc 1 936 5 discriminator 3 view .LVU270
 791              		.loc 1 936 8 is_stmt 0 discriminator 3 view .LVU271
 792 006e 1FB3     		cbz	r7, .L71
 937:Middlewares/Third_Party/LwIP/src/core/ipv4/ip4.c ****       ip4_addr_copy(iphdr->src, *IP4_ADDR_ANY4);
 938:Middlewares/Third_Party/LwIP/src/core/ipv4/ip4.c ****     } else {
 939:Middlewares/Third_Party/LwIP/src/core/ipv4/ip4.c ****       /* src cannot be NULL here */
 940:Middlewares/Third_Party/LwIP/src/core/ipv4/ip4.c ****       ip4_addr_copy(iphdr->src, *src);
 793              		.loc 1 940 7 is_stmt 1 view .LVU272
ARM GAS  D:\Dev\msys64\tmp\cclk87TN.s 			page 35


 794 0070 3B68     		ldr	r3, [r7]
 795 0072 EB60     		str	r3, [r5, #12]	@ unaligned
 796              	.L63:
 941:Middlewares/Third_Party/LwIP/src/core/ipv4/ip4.c ****     }
 942:Middlewares/Third_Party/LwIP/src/core/ipv4/ip4.c **** 
 943:Middlewares/Third_Party/LwIP/src/core/ipv4/ip4.c **** #if CHECKSUM_GEN_IP_INLINE
 944:Middlewares/Third_Party/LwIP/src/core/ipv4/ip4.c ****     chk_sum += ip4_addr_get_u32(&iphdr->src) & 0xFFFF;
 945:Middlewares/Third_Party/LwIP/src/core/ipv4/ip4.c ****     chk_sum += ip4_addr_get_u32(&iphdr->src) >> 16;
 946:Middlewares/Third_Party/LwIP/src/core/ipv4/ip4.c ****     chk_sum = (chk_sum >> 16) + (chk_sum & 0xFFFF);
 947:Middlewares/Third_Party/LwIP/src/core/ipv4/ip4.c ****     chk_sum = (chk_sum >> 16) + chk_sum;
 948:Middlewares/Third_Party/LwIP/src/core/ipv4/ip4.c ****     chk_sum = ~chk_sum;
 949:Middlewares/Third_Party/LwIP/src/core/ipv4/ip4.c ****     IF__NETIF_CHECKSUM_ENABLED(netif, NETIF_CHECKSUM_GEN_IP) {
 950:Middlewares/Third_Party/LwIP/src/core/ipv4/ip4.c ****       iphdr->_chksum = (u16_t)chk_sum; /* network order */
 951:Middlewares/Third_Party/LwIP/src/core/ipv4/ip4.c ****     }
 952:Middlewares/Third_Party/LwIP/src/core/ipv4/ip4.c **** #if LWIP_CHECKSUM_CTRL_PER_NETIF
 953:Middlewares/Third_Party/LwIP/src/core/ipv4/ip4.c ****     else {
 954:Middlewares/Third_Party/LwIP/src/core/ipv4/ip4.c ****       IPH_CHKSUM_SET(iphdr, 0);
 955:Middlewares/Third_Party/LwIP/src/core/ipv4/ip4.c ****     }
 956:Middlewares/Third_Party/LwIP/src/core/ipv4/ip4.c **** #endif /* LWIP_CHECKSUM_CTRL_PER_NETIF*/
 957:Middlewares/Third_Party/LwIP/src/core/ipv4/ip4.c **** #else /* CHECKSUM_GEN_IP_INLINE */
 958:Middlewares/Third_Party/LwIP/src/core/ipv4/ip4.c ****     IPH_CHKSUM_SET(iphdr, 0);
 797              		.loc 1 958 5 view .LVU273
 798 0074 0023     		movs	r3, #0
 799 0076 AB72     		strb	r3, [r5, #10]
 800 0078 EB72     		strb	r3, [r5, #11]
 801              	.LVL61:
 802              	.L64:
 803              		.loc 1 958 5 is_stmt 0 view .LVU274
 804              	.LBE3:
 959:Middlewares/Third_Party/LwIP/src/core/ipv4/ip4.c **** #if CHECKSUM_GEN_IP
 960:Middlewares/Third_Party/LwIP/src/core/ipv4/ip4.c ****     IF__NETIF_CHECKSUM_ENABLED(netif, NETIF_CHECKSUM_GEN_IP) {
 961:Middlewares/Third_Party/LwIP/src/core/ipv4/ip4.c ****       IPH_CHKSUM_SET(iphdr, inet_chksum(iphdr, ip_hlen));
 962:Middlewares/Third_Party/LwIP/src/core/ipv4/ip4.c ****     }
 963:Middlewares/Third_Party/LwIP/src/core/ipv4/ip4.c **** #endif /* CHECKSUM_GEN_IP */
 964:Middlewares/Third_Party/LwIP/src/core/ipv4/ip4.c **** #endif /* CHECKSUM_GEN_IP_INLINE */
 965:Middlewares/Third_Party/LwIP/src/core/ipv4/ip4.c ****   } else {
 966:Middlewares/Third_Party/LwIP/src/core/ipv4/ip4.c ****     /* IP header already included in p */
 967:Middlewares/Third_Party/LwIP/src/core/ipv4/ip4.c ****     if (p->len < IP_HLEN) {
 968:Middlewares/Third_Party/LwIP/src/core/ipv4/ip4.c ****       LWIP_DEBUGF(IP_DEBUG | LWIP_DBG_LEVEL_SERIOUS, ("ip4_output: LWIP_IP_HDRINCL but pbuf is too 
 969:Middlewares/Third_Party/LwIP/src/core/ipv4/ip4.c ****       IP_STATS_INC(ip.err);
 970:Middlewares/Third_Party/LwIP/src/core/ipv4/ip4.c ****       MIB2_STATS_INC(mib2.ipoutdiscards);
 971:Middlewares/Third_Party/LwIP/src/core/ipv4/ip4.c ****       return ERR_BUF;
 972:Middlewares/Third_Party/LwIP/src/core/ipv4/ip4.c ****     }
 973:Middlewares/Third_Party/LwIP/src/core/ipv4/ip4.c ****     iphdr = (struct ip_hdr *)p->payload;
 974:Middlewares/Third_Party/LwIP/src/core/ipv4/ip4.c ****     ip4_addr_copy(dest_addr, iphdr->dest);
 975:Middlewares/Third_Party/LwIP/src/core/ipv4/ip4.c ****     dest = &dest_addr;
 976:Middlewares/Third_Party/LwIP/src/core/ipv4/ip4.c ****   }
 977:Middlewares/Third_Party/LwIP/src/core/ipv4/ip4.c **** 
 978:Middlewares/Third_Party/LwIP/src/core/ipv4/ip4.c ****   IP_STATS_INC(ip.xmit);
 805              		.loc 1 978 24 is_stmt 1 view .LVU275
 979:Middlewares/Third_Party/LwIP/src/core/ipv4/ip4.c **** 
 980:Middlewares/Third_Party/LwIP/src/core/ipv4/ip4.c ****   LWIP_DEBUGF(IP_DEBUG, ("ip4_output_if: %c%c%"U16_F"\n", netif->name[0], netif->name[1], (u16_t)ne
 806              		.loc 1 980 110 view .LVU276
 981:Middlewares/Third_Party/LwIP/src/core/ipv4/ip4.c ****   ip4_debug_print(p);
 807              		.loc 1 981 21 view .LVU277
 982:Middlewares/Third_Party/LwIP/src/core/ipv4/ip4.c **** 
 983:Middlewares/Third_Party/LwIP/src/core/ipv4/ip4.c **** #if ENABLE_LOOPBACK
ARM GAS  D:\Dev\msys64\tmp\cclk87TN.s 			page 36


 984:Middlewares/Third_Party/LwIP/src/core/ipv4/ip4.c ****   if (ip4_addr_cmp(dest, netif_ip4_addr(netif))
 985:Middlewares/Third_Party/LwIP/src/core/ipv4/ip4.c **** #if !LWIP_HAVE_LOOPIF
 986:Middlewares/Third_Party/LwIP/src/core/ipv4/ip4.c ****       || ip4_addr_isloopback(dest)
 987:Middlewares/Third_Party/LwIP/src/core/ipv4/ip4.c **** #endif /* !LWIP_HAVE_LOOPIF */
 988:Middlewares/Third_Party/LwIP/src/core/ipv4/ip4.c ****      ) {
 989:Middlewares/Third_Party/LwIP/src/core/ipv4/ip4.c ****     /* Packet to self, enqueue it for loopback */
 990:Middlewares/Third_Party/LwIP/src/core/ipv4/ip4.c ****     LWIP_DEBUGF(IP_DEBUG, ("netif_loop_output()"));
 991:Middlewares/Third_Party/LwIP/src/core/ipv4/ip4.c ****     return netif_loop_output(netif, p);
 992:Middlewares/Third_Party/LwIP/src/core/ipv4/ip4.c ****   }
 993:Middlewares/Third_Party/LwIP/src/core/ipv4/ip4.c **** #if LWIP_MULTICAST_TX_OPTIONS
 994:Middlewares/Third_Party/LwIP/src/core/ipv4/ip4.c ****   if ((p->flags & PBUF_FLAG_MCASTLOOP) != 0) {
 995:Middlewares/Third_Party/LwIP/src/core/ipv4/ip4.c ****     netif_loop_output(netif, p);
 996:Middlewares/Third_Party/LwIP/src/core/ipv4/ip4.c ****   }
 997:Middlewares/Third_Party/LwIP/src/core/ipv4/ip4.c **** #endif /* LWIP_MULTICAST_TX_OPTIONS */
 998:Middlewares/Third_Party/LwIP/src/core/ipv4/ip4.c **** #endif /* ENABLE_LOOPBACK */
 999:Middlewares/Third_Party/LwIP/src/core/ipv4/ip4.c **** #if IP_FRAG
1000:Middlewares/Third_Party/LwIP/src/core/ipv4/ip4.c ****   /* don't fragment if interface has mtu set to 0 [loopif] */
1001:Middlewares/Third_Party/LwIP/src/core/ipv4/ip4.c ****   if (netif->mtu && (p->tot_len > netif->mtu)) {
 808              		.loc 1 1001 3 view .LVU278
 809              		.loc 1 1001 12 is_stmt 0 view .LVU279
 810 007a B8F82830 		ldrh	r3, [r8, #40]
 811              		.loc 1 1001 6 view .LVU280
 812 007e 13B1     		cbz	r3, .L65
 813              		.loc 1 1001 23 discriminator 1 view .LVU281
 814 0080 2289     		ldrh	r2, [r4, #8]
 815              		.loc 1 1001 18 discriminator 1 view .LVU282
 816 0082 9342     		cmp	r3, r2
 817 0084 24D3     		bcc	.L72
 818              	.L65:
1002:Middlewares/Third_Party/LwIP/src/core/ipv4/ip4.c ****     return ip4_frag(p, netif, dest);
1003:Middlewares/Third_Party/LwIP/src/core/ipv4/ip4.c ****   }
1004:Middlewares/Third_Party/LwIP/src/core/ipv4/ip4.c **** #endif /* IP_FRAG */
1005:Middlewares/Third_Party/LwIP/src/core/ipv4/ip4.c **** 
1006:Middlewares/Third_Party/LwIP/src/core/ipv4/ip4.c ****   LWIP_DEBUGF(IP_DEBUG, ("ip4_output_if: call netif->output()\n"));
 819              		.loc 1 1006 67 is_stmt 1 view .LVU283
1007:Middlewares/Third_Party/LwIP/src/core/ipv4/ip4.c ****   return netif->output(netif, p, dest);
 820              		.loc 1 1007 3 view .LVU284
 821              		.loc 1 1007 15 is_stmt 0 view .LVU285
 822 0086 D8F81430 		ldr	r3, [r8, #20]
 823              		.loc 1 1007 10 view .LVU286
 824 008a 3246     		mov	r2, r6
 825 008c 2146     		mov	r1, r4
 826 008e 4046     		mov	r0, r8
 827 0090 9847     		blx	r3
 828              	.LVL62:
 829              	.L60:
1008:Middlewares/Third_Party/LwIP/src/core/ipv4/ip4.c **** }
 830              		.loc 1 1008 1 view .LVU287
 831 0092 03B0     		add	sp, sp, #12
 832              	.LCFI6:
 833              		.cfi_remember_state
 834              		.cfi_def_cfa_offset 28
 835              		@ sp needed
 836 0094 BDE8F083 		pop	{r4, r5, r6, r7, r8, r9, pc}
 837              	.LVL63:
 838              	.L69:
 839              	.LCFI7:
ARM GAS  D:\Dev\msys64\tmp\cclk87TN.s 			page 37


 840              		.cfi_restore_state
 852:Middlewares/Third_Party/LwIP/src/core/ipv4/ip4.c **** 
 841              		.loc 1 852 3 is_stmt 1 discriminator 1 view .LVU288
 852:Middlewares/Third_Party/LwIP/src/core/ipv4/ip4.c **** 
 842              		.loc 1 852 3 discriminator 1 view .LVU289
 843 0098 134B     		ldr	r3, .L73
 844              	.LVL64:
 852:Middlewares/Third_Party/LwIP/src/core/ipv4/ip4.c **** 
 845              		.loc 1 852 3 is_stmt 0 discriminator 1 view .LVU290
 846 009a 4FF45572 		mov	r2, #852
 847 009e 1349     		ldr	r1, .L73+4
 848              	.LVL65:
 852:Middlewares/Third_Party/LwIP/src/core/ipv4/ip4.c **** 
 849              		.loc 1 852 3 discriminator 1 view .LVU291
 850 00a0 1348     		ldr	r0, .L73+8
 851              	.LVL66:
 852:Middlewares/Third_Party/LwIP/src/core/ipv4/ip4.c **** 
 852              		.loc 1 852 3 discriminator 1 view .LVU292
 853 00a2 FFF7FEFF 		bl	printf
 854              	.LVL67:
 855 00a6 B7E7     		b	.L58
 856              	.LVL68:
 857              	.L70:
 858              	.LBB4:
 904:Middlewares/Third_Party/LwIP/src/core/ipv4/ip4.c ****                 (p->len >= sizeof(struct ip_hdr)));
 859              		.loc 1 904 5 is_stmt 1 discriminator 1 view .LVU293
 904:Middlewares/Third_Party/LwIP/src/core/ipv4/ip4.c ****                 (p->len >= sizeof(struct ip_hdr)));
 860              		.loc 1 904 5 discriminator 1 view .LVU294
 861 00a8 0F4B     		ldr	r3, .L73
 862 00aa 4FF46272 		mov	r2, #904
 863 00ae 1149     		ldr	r1, .L73+12
 864 00b0 0F48     		ldr	r0, .L73+8
 865 00b2 FFF7FEFF 		bl	printf
 866              	.LVL69:
 867 00b6 BBE7     		b	.L61
 868              	.L71:
 937:Middlewares/Third_Party/LwIP/src/core/ipv4/ip4.c ****     } else {
 869              		.loc 1 937 7 view .LVU295
 870 00b8 0F4B     		ldr	r3, .L73+16
 871 00ba 1B68     		ldr	r3, [r3]
 872 00bc EB60     		str	r3, [r5, #12]	@ unaligned
 873 00be D9E7     		b	.L63
 874              	.LVL70:
 875              	.L59:
 937:Middlewares/Third_Party/LwIP/src/core/ipv4/ip4.c ****     } else {
 876              		.loc 1 937 7 is_stmt 0 view .LVU296
 877              	.LBE4:
 967:Middlewares/Third_Party/LwIP/src/core/ipv4/ip4.c ****       LWIP_DEBUGF(IP_DEBUG | LWIP_DBG_LEVEL_SERIOUS, ("ip4_output: LWIP_IP_HDRINCL but pbuf is too 
 878              		.loc 1 967 5 is_stmt 1 view .LVU297
 967:Middlewares/Third_Party/LwIP/src/core/ipv4/ip4.c ****       LWIP_DEBUGF(IP_DEBUG | LWIP_DBG_LEVEL_SERIOUS, ("ip4_output: LWIP_IP_HDRINCL but pbuf is too 
 879              		.loc 1 967 10 is_stmt 0 view .LVU298
 880 00c0 6389     		ldrh	r3, [r4, #10]
 967:Middlewares/Third_Party/LwIP/src/core/ipv4/ip4.c ****       LWIP_DEBUGF(IP_DEBUG | LWIP_DBG_LEVEL_SERIOUS, ("ip4_output: LWIP_IP_HDRINCL but pbuf is too 
 881              		.loc 1 967 8 view .LVU299
 882 00c2 132B     		cmp	r3, #19
 883 00c4 0DD9     		bls	.L67
 973:Middlewares/Third_Party/LwIP/src/core/ipv4/ip4.c ****     ip4_addr_copy(dest_addr, iphdr->dest);
ARM GAS  D:\Dev\msys64\tmp\cclk87TN.s 			page 38


 884              		.loc 1 973 5 is_stmt 1 view .LVU300
 973:Middlewares/Third_Party/LwIP/src/core/ipv4/ip4.c ****     ip4_addr_copy(dest_addr, iphdr->dest);
 885              		.loc 1 973 11 is_stmt 0 view .LVU301
 886 00c6 6368     		ldr	r3, [r4, #4]
 887              	.LVL71:
 974:Middlewares/Third_Party/LwIP/src/core/ipv4/ip4.c ****     dest = &dest_addr;
 888              		.loc 1 974 5 is_stmt 1 view .LVU302
 889 00c8 1B69     		ldr	r3, [r3, #16]	@ unaligned
 890              	.LVL72:
 974:Middlewares/Third_Party/LwIP/src/core/ipv4/ip4.c ****     dest = &dest_addr;
 891              		.loc 1 974 5 is_stmt 0 view .LVU303
 892 00ca 0193     		str	r3, [sp, #4]
 975:Middlewares/Third_Party/LwIP/src/core/ipv4/ip4.c ****   }
 893              		.loc 1 975 5 is_stmt 1 view .LVU304
 894              	.LVL73:
 975:Middlewares/Third_Party/LwIP/src/core/ipv4/ip4.c ****   }
 895              		.loc 1 975 10 is_stmt 0 view .LVU305
 896 00cc 01AE     		add	r6, sp, #4
 897              	.LVL74:
 975:Middlewares/Third_Party/LwIP/src/core/ipv4/ip4.c ****   }
 898              		.loc 1 975 10 view .LVU306
 899 00ce D4E7     		b	.L64
 900              	.LVL75:
 901              	.L72:
1002:Middlewares/Third_Party/LwIP/src/core/ipv4/ip4.c ****   }
 902              		.loc 1 1002 5 is_stmt 1 view .LVU307
1002:Middlewares/Third_Party/LwIP/src/core/ipv4/ip4.c ****   }
 903              		.loc 1 1002 12 is_stmt 0 view .LVU308
 904 00d0 3246     		mov	r2, r6
 905 00d2 4146     		mov	r1, r8
 906 00d4 2046     		mov	r0, r4
 907 00d6 FFF7FEFF 		bl	ip4_frag
 908              	.LVL76:
 909 00da DAE7     		b	.L60
 910              	.LVL77:
 911              	.L66:
 912              	.LBB5:
 900:Middlewares/Third_Party/LwIP/src/core/ipv4/ip4.c ****     }
 913              		.loc 1 900 14 view .LVU309
 914 00dc 6FF00100 		mvn	r0, #1
 915 00e0 D7E7     		b	.L60
 916              	.LVL78:
 917              	.L67:
 900:Middlewares/Third_Party/LwIP/src/core/ipv4/ip4.c ****     }
 918              		.loc 1 900 14 view .LVU310
 919              	.LBE5:
 971:Middlewares/Third_Party/LwIP/src/core/ipv4/ip4.c ****     }
 920              		.loc 1 971 14 view .LVU311
 921 00e2 6FF00100 		mvn	r0, #1
 922 00e6 D4E7     		b	.L60
 923              	.L74:
 924              		.align	2
 925              	.L73:
 926 00e8 00000000 		.word	.LC0
 927 00ec 34000000 		.word	.LC1
 928 00f0 40000000 		.word	.LC2
 929 00f4 68000000 		.word	.LC3
ARM GAS  D:\Dev\msys64\tmp\cclk87TN.s 			page 39


 930 00f8 00000000 		.word	ip_addr_any
 931 00fc 00000000 		.word	.LANCHOR0
 932              		.cfi_endproc
 933              	.LFE29:
 935              		.section	.text.ip4_output_if,"ax",%progbits
 936              		.align	1
 937              		.global	ip4_output_if
 938              		.syntax unified
 939              		.thumb
 940              		.thumb_func
 941              		.fpu fpv5-sp-d16
 943              	ip4_output_if:
 944              	.LVL79:
 945              	.LFB28:
 790:Middlewares/Third_Party/LwIP/src/core/ipv4/ip4.c **** #if IP_OPTIONS_SEND
 946              		.loc 1 790 1 is_stmt 1 view -0
 947              		.cfi_startproc
 948              		@ args = 12, pretend = 0, frame = 0
 949              		@ frame_needed = 0, uses_anonymous_args = 0
 790:Middlewares/Third_Party/LwIP/src/core/ipv4/ip4.c **** #if IP_OPTIONS_SEND
 950              		.loc 1 790 1 is_stmt 0 view .LVU313
 951 0000 30B5     		push	{r4, r5, lr}
 952              	.LCFI8:
 953              		.cfi_def_cfa_offset 12
 954              		.cfi_offset 4, -12
 955              		.cfi_offset 5, -8
 956              		.cfi_offset 14, -4
 957 0002 85B0     		sub	sp, sp, #20
 958              	.LCFI9:
 959              		.cfi_def_cfa_offset 32
 960 0004 0A9C     		ldr	r4, [sp, #40]
 807:Middlewares/Third_Party/LwIP/src/core/ipv4/ip4.c ****   if (dest != LWIP_IP_HDRINCL) {
 961              		.loc 1 807 3 is_stmt 1 view .LVU314
 962              	.LVL80:
 808:Middlewares/Third_Party/LwIP/src/core/ipv4/ip4.c ****     if (ip4_addr_isany(src)) {
 963              		.loc 1 808 3 view .LVU315
 808:Middlewares/Third_Party/LwIP/src/core/ipv4/ip4.c ****     if (ip4_addr_isany(src)) {
 964              		.loc 1 808 6 is_stmt 0 view .LVU316
 965 0006 1546     		mov	r5, r2
 966 0008 1AB1     		cbz	r2, .L76
 809:Middlewares/Third_Party/LwIP/src/core/ipv4/ip4.c ****       src_used = netif_ip4_addr(netif);
 967              		.loc 1 809 5 is_stmt 1 view .LVU317
 809:Middlewares/Third_Party/LwIP/src/core/ipv4/ip4.c ****       src_used = netif_ip4_addr(netif);
 968              		.loc 1 809 8 is_stmt 0 view .LVU318
 969 000a 09B1     		cbz	r1, .L77
 809:Middlewares/Third_Party/LwIP/src/core/ipv4/ip4.c ****       src_used = netif_ip4_addr(netif);
 970              		.loc 1 809 9 discriminator 1 view .LVU319
 971 000c 0A68     		ldr	r2, [r1]
 972              	.LVL81:
 809:Middlewares/Third_Party/LwIP/src/core/ipv4/ip4.c ****       src_used = netif_ip4_addr(netif);
 973              		.loc 1 809 9 discriminator 1 view .LVU320
 974 000e 02B9     		cbnz	r2, .L76
 975              	.L77:
 810:Middlewares/Third_Party/LwIP/src/core/ipv4/ip4.c ****     }
 976              		.loc 1 810 7 is_stmt 1 view .LVU321
 810:Middlewares/Third_Party/LwIP/src/core/ipv4/ip4.c ****     }
 977              		.loc 1 810 16 is_stmt 0 view .LVU322
ARM GAS  D:\Dev\msys64\tmp\cclk87TN.s 			page 40


 978 0010 211D     		adds	r1, r4, #4
 979              	.LVL82:
 980              	.L76:
 818:Middlewares/Third_Party/LwIP/src/core/ipv4/ip4.c **** #endif /* IP_OPTIONS_SEND */
 981              		.loc 1 818 3 is_stmt 1 view .LVU323
 818:Middlewares/Third_Party/LwIP/src/core/ipv4/ip4.c **** #endif /* IP_OPTIONS_SEND */
 982              		.loc 1 818 10 is_stmt 0 view .LVU324
 983 0012 0294     		str	r4, [sp, #8]
 984 0014 9DF82420 		ldrb	r2, [sp, #36]	@ zero_extendqisi2
 985 0018 0192     		str	r2, [sp, #4]
 986 001a 9DF82020 		ldrb	r2, [sp, #32]	@ zero_extendqisi2
 987 001e 0092     		str	r2, [sp]
 988 0020 2A46     		mov	r2, r5
 989 0022 FFF7FEFF 		bl	ip4_output_if_src
 990              	.LVL83:
 820:Middlewares/Third_Party/LwIP/src/core/ipv4/ip4.c **** 
 991              		.loc 1 820 1 view .LVU325
 992 0026 05B0     		add	sp, sp, #20
 993              	.LCFI10:
 994              		.cfi_def_cfa_offset 12
 995              		@ sp needed
 996 0028 30BD     		pop	{r4, r5, pc}
 820:Middlewares/Third_Party/LwIP/src/core/ipv4/ip4.c **** 
 997              		.loc 1 820 1 view .LVU326
 998              		.cfi_endproc
 999              	.LFE28:
 1001              		.section	.text.ip4_output,"ax",%progbits
 1002              		.align	1
 1003              		.global	ip4_output
 1004              		.syntax unified
 1005              		.thumb
 1006              		.thumb_func
 1007              		.fpu fpv5-sp-d16
 1009              	ip4_output:
 1010              	.LVL84:
 1011              	.LFB30:
1009:Middlewares/Third_Party/LwIP/src/core/ipv4/ip4.c **** 
1010:Middlewares/Third_Party/LwIP/src/core/ipv4/ip4.c **** /**
1011:Middlewares/Third_Party/LwIP/src/core/ipv4/ip4.c ****  * Simple interface to ip_output_if. It finds the outgoing network
1012:Middlewares/Third_Party/LwIP/src/core/ipv4/ip4.c ****  * interface and calls upon ip_output_if to do the actual work.
1013:Middlewares/Third_Party/LwIP/src/core/ipv4/ip4.c ****  *
1014:Middlewares/Third_Party/LwIP/src/core/ipv4/ip4.c ****  * @param p the packet to send (p->payload points to the data, e.g. next
1015:Middlewares/Third_Party/LwIP/src/core/ipv4/ip4.c ****             protocol header; if dest == LWIP_IP_HDRINCL, p already includes an
1016:Middlewares/Third_Party/LwIP/src/core/ipv4/ip4.c ****             IP header and p->payload points to that IP header)
1017:Middlewares/Third_Party/LwIP/src/core/ipv4/ip4.c ****  * @param src the source IP address to send from (if src == IP4_ADDR_ANY, the
1018:Middlewares/Third_Party/LwIP/src/core/ipv4/ip4.c ****  *         IP  address of the netif used to send is used as source address)
1019:Middlewares/Third_Party/LwIP/src/core/ipv4/ip4.c ****  * @param dest the destination IP address to send the packet to
1020:Middlewares/Third_Party/LwIP/src/core/ipv4/ip4.c ****  * @param ttl the TTL value to be set in the IP header
1021:Middlewares/Third_Party/LwIP/src/core/ipv4/ip4.c ****  * @param tos the TOS value to be set in the IP header
1022:Middlewares/Third_Party/LwIP/src/core/ipv4/ip4.c ****  * @param proto the PROTOCOL to be set in the IP header
1023:Middlewares/Third_Party/LwIP/src/core/ipv4/ip4.c ****  *
1024:Middlewares/Third_Party/LwIP/src/core/ipv4/ip4.c ****  * @return ERR_RTE if no route is found
1025:Middlewares/Third_Party/LwIP/src/core/ipv4/ip4.c ****  *         see ip_output_if() for more return values
1026:Middlewares/Third_Party/LwIP/src/core/ipv4/ip4.c ****  */
1027:Middlewares/Third_Party/LwIP/src/core/ipv4/ip4.c **** err_t
1028:Middlewares/Third_Party/LwIP/src/core/ipv4/ip4.c **** ip4_output(struct pbuf *p, const ip4_addr_t *src, const ip4_addr_t *dest,
1029:Middlewares/Third_Party/LwIP/src/core/ipv4/ip4.c ****            u8_t ttl, u8_t tos, u8_t proto)
ARM GAS  D:\Dev\msys64\tmp\cclk87TN.s 			page 41


1030:Middlewares/Third_Party/LwIP/src/core/ipv4/ip4.c **** {
 1012              		.loc 1 1030 1 is_stmt 1 view -0
 1013              		.cfi_startproc
 1014              		@ args = 8, pretend = 0, frame = 0
 1015              		@ frame_needed = 0, uses_anonymous_args = 0
 1016              		.loc 1 1030 1 is_stmt 0 view .LVU328
 1017 0000 F0B5     		push	{r4, r5, r6, r7, lr}
 1018              	.LCFI11:
 1019              		.cfi_def_cfa_offset 20
 1020              		.cfi_offset 4, -20
 1021              		.cfi_offset 5, -16
 1022              		.cfi_offset 6, -12
 1023              		.cfi_offset 7, -8
 1024              		.cfi_offset 14, -4
 1025 0002 85B0     		sub	sp, sp, #20
 1026              	.LCFI12:
 1027              		.cfi_def_cfa_offset 40
 1028 0004 0446     		mov	r4, r0
 1029 0006 0F46     		mov	r7, r1
 1030 0008 1546     		mov	r5, r2
 1031 000a 1E46     		mov	r6, r3
1031:Middlewares/Third_Party/LwIP/src/core/ipv4/ip4.c ****   struct netif *netif;
 1032              		.loc 1 1031 3 is_stmt 1 view .LVU329
1032:Middlewares/Third_Party/LwIP/src/core/ipv4/ip4.c **** 
1033:Middlewares/Third_Party/LwIP/src/core/ipv4/ip4.c ****   LWIP_IP_CHECK_PBUF_REF_COUNT_FOR_TX(p);
 1033              		.loc 1 1033 3 view .LVU330
 1034              		.loc 1 1033 3 view .LVU331
 1035 000c 827B     		ldrb	r2, [r0, #14]	@ zero_extendqisi2
 1036              	.LVL85:
 1037              		.loc 1 1033 3 is_stmt 0 view .LVU332
 1038 000e 012A     		cmp	r2, #1
 1039 0010 12D1     		bne	.L84
 1040              	.LVL86:
 1041              	.L80:
 1042              		.loc 1 1033 3 is_stmt 1 discriminator 3 view .LVU333
 1043              		.loc 1 1033 3 discriminator 3 view .LVU334
1034:Middlewares/Third_Party/LwIP/src/core/ipv4/ip4.c **** 
1035:Middlewares/Third_Party/LwIP/src/core/ipv4/ip4.c ****   if ((netif = ip4_route_src(src, dest)) == NULL) {
 1044              		.loc 1 1035 3 discriminator 3 view .LVU335
 1045              		.loc 1 1035 16 is_stmt 0 discriminator 3 view .LVU336
 1046 0012 2846     		mov	r0, r5
 1047 0014 FFF7FEFF 		bl	ip4_route
 1048              	.LVL87:
 1049              		.loc 1 1035 6 discriminator 3 view .LVU337
 1050 0018 B0B1     		cbz	r0, .L82
1036:Middlewares/Third_Party/LwIP/src/core/ipv4/ip4.c ****     LWIP_DEBUGF(IP_DEBUG, ("ip4_output: No route to %"U16_F".%"U16_F".%"U16_F".%"U16_F"\n",
1037:Middlewares/Third_Party/LwIP/src/core/ipv4/ip4.c ****                            ip4_addr1_16(dest), ip4_addr2_16(dest), ip4_addr3_16(dest), ip4_addr4_16
1038:Middlewares/Third_Party/LwIP/src/core/ipv4/ip4.c ****     IP_STATS_INC(ip.rterr);
1039:Middlewares/Third_Party/LwIP/src/core/ipv4/ip4.c ****     return ERR_RTE;
1040:Middlewares/Third_Party/LwIP/src/core/ipv4/ip4.c ****   }
1041:Middlewares/Third_Party/LwIP/src/core/ipv4/ip4.c **** 
1042:Middlewares/Third_Party/LwIP/src/core/ipv4/ip4.c ****   return ip4_output_if(p, src, dest, ttl, tos, proto, netif);
 1051              		.loc 1 1042 3 is_stmt 1 view .LVU338
 1052              		.loc 1 1042 10 is_stmt 0 view .LVU339
 1053 001a 0290     		str	r0, [sp, #8]
 1054 001c 9DF82C30 		ldrb	r3, [sp, #44]	@ zero_extendqisi2
 1055 0020 0193     		str	r3, [sp, #4]
ARM GAS  D:\Dev\msys64\tmp\cclk87TN.s 			page 42


 1056 0022 9DF82830 		ldrb	r3, [sp, #40]	@ zero_extendqisi2
 1057 0026 0093     		str	r3, [sp]
 1058 0028 3346     		mov	r3, r6
 1059 002a 2A46     		mov	r2, r5
 1060 002c 3946     		mov	r1, r7
 1061 002e 2046     		mov	r0, r4
 1062              	.LVL88:
 1063              		.loc 1 1042 10 view .LVU340
 1064 0030 FFF7FEFF 		bl	ip4_output_if
 1065              	.LVL89:
 1066              	.L81:
1043:Middlewares/Third_Party/LwIP/src/core/ipv4/ip4.c **** }
 1067              		.loc 1 1043 1 view .LVU341
 1068 0034 05B0     		add	sp, sp, #20
 1069              	.LCFI13:
 1070              		.cfi_remember_state
 1071              		.cfi_def_cfa_offset 20
 1072              		@ sp needed
 1073 0036 F0BD     		pop	{r4, r5, r6, r7, pc}
 1074              	.LVL90:
 1075              	.L84:
 1076              	.LCFI14:
 1077              		.cfi_restore_state
1033:Middlewares/Third_Party/LwIP/src/core/ipv4/ip4.c **** 
 1078              		.loc 1 1033 3 is_stmt 1 discriminator 1 view .LVU342
1033:Middlewares/Third_Party/LwIP/src/core/ipv4/ip4.c **** 
 1079              		.loc 1 1033 3 discriminator 1 view .LVU343
 1080 0038 054B     		ldr	r3, .L85
 1081              	.LVL91:
1033:Middlewares/Third_Party/LwIP/src/core/ipv4/ip4.c **** 
 1082              		.loc 1 1033 3 is_stmt 0 discriminator 1 view .LVU344
 1083 003a 40F20942 		movw	r2, #1033
 1084 003e 0549     		ldr	r1, .L85+4
 1085              	.LVL92:
1033:Middlewares/Third_Party/LwIP/src/core/ipv4/ip4.c **** 
 1086              		.loc 1 1033 3 discriminator 1 view .LVU345
 1087 0040 0548     		ldr	r0, .L85+8
 1088              	.LVL93:
1033:Middlewares/Third_Party/LwIP/src/core/ipv4/ip4.c **** 
 1089              		.loc 1 1033 3 discriminator 1 view .LVU346
 1090 0042 FFF7FEFF 		bl	printf
 1091              	.LVL94:
 1092 0046 E4E7     		b	.L80
 1093              	.LVL95:
 1094              	.L82:
1039:Middlewares/Third_Party/LwIP/src/core/ipv4/ip4.c ****   }
 1095              		.loc 1 1039 12 view .LVU347
 1096 0048 6FF00300 		mvn	r0, #3
 1097              	.LVL96:
1039:Middlewares/Third_Party/LwIP/src/core/ipv4/ip4.c ****   }
 1098              		.loc 1 1039 12 view .LVU348
 1099 004c F2E7     		b	.L81
 1100              	.L86:
 1101 004e 00BF     		.align	2
 1102              	.L85:
 1103 0050 00000000 		.word	.LC0
 1104 0054 34000000 		.word	.LC1
ARM GAS  D:\Dev\msys64\tmp\cclk87TN.s 			page 43


 1105 0058 40000000 		.word	.LC2
 1106              		.cfi_endproc
 1107              	.LFE30:
 1109              		.section	.bss.ip_id,"aw",%nobits
 1110              		.align	1
 1111              		.set	.LANCHOR0,. + 0
 1114              	ip_id:
 1115 0000 0000     		.space	2
 1116              		.text
 1117              	.Letext0:
 1118              		.file 2 "d:\\dev\\gcc-arm-none-eabi\\9_2019_q4-major\\arm-none-eabi\\include\\machine\\_default_ty
 1119              		.file 3 "d:\\dev\\gcc-arm-none-eabi\\9_2019_q4-major\\arm-none-eabi\\include\\sys\\lock.h"
 1120              		.file 4 "d:\\dev\\gcc-arm-none-eabi\\9_2019_q4-major\\arm-none-eabi\\include\\sys\\_types.h"
 1121              		.file 5 "d:\\dev\\gcc-arm-none-eabi\\9_2019_q4-major\\lib\\gcc\\arm-none-eabi\\9.2.1\\include\\std
 1122              		.file 6 "d:\\dev\\gcc-arm-none-eabi\\9_2019_q4-major\\arm-none-eabi\\include\\sys\\reent.h"
 1123              		.file 7 "d:\\dev\\gcc-arm-none-eabi\\9_2019_q4-major\\arm-none-eabi\\include\\stdlib.h"
 1124              		.file 8 "d:\\dev\\gcc-arm-none-eabi\\9_2019_q4-major\\arm-none-eabi\\include\\sys\\_stdint.h"
 1125              		.file 9 "d:\\dev\\gcc-arm-none-eabi\\9_2019_q4-major\\arm-none-eabi\\include\\time.h"
 1126              		.file 10 "Middlewares/Third_Party/LwIP/src/include/lwip/arch.h"
 1127              		.file 11 "d:\\dev\\gcc-arm-none-eabi\\9_2019_q4-major\\arm-none-eabi\\include\\ctype.h"
 1128              		.file 12 "Middlewares/Third_Party/LwIP/src/include/lwip/err.h"
 1129              		.file 13 "Middlewares/Third_Party/LwIP/src/include/lwip/pbuf.h"
 1130              		.file 14 "Middlewares/Third_Party/LwIP/src/include/lwip/ip4_addr.h"
 1131              		.file 15 "Middlewares/Third_Party/LwIP/src/include/lwip/ip_addr.h"
 1132              		.file 16 "Middlewares/Third_Party/LwIP/src/include/lwip/memp.h"
 1133              		.file 17 "Middlewares/Third_Party/LwIP/src/include/lwip/priv/memp_priv.h"
 1134              		.file 18 "Middlewares/Third_Party/LwIP/src/include/lwip/netif.h"
 1135              		.file 19 "Middlewares/Third_Party/LwIP/src/include/lwip/prot/ip4.h"
 1136              		.file 20 "Middlewares/Third_Party/LwIP/src/include/lwip/ip.h"
 1137              		.file 21 "Middlewares/Third_Party/LwIP/src/include/lwip/icmp.h"
 1138              		.file 22 "Middlewares/Third_Party/LwIP/src/include/lwip/prot/udp.h"
 1139              		.file 23 "Middlewares/Third_Party/LwIP/src/include/lwip/udp.h"
 1140              		.file 24 "Middlewares/Third_Party/LwIP/src/include/lwip/tcpbase.h"
 1141              		.file 25 "Middlewares/Third_Party/LwIP/src/include/lwip/tcp.h"
 1142              		.file 26 "Middlewares/Third_Party/LwIP/src/include/lwip/priv/tcp_priv.h"
 1143              		.file 27 "Middlewares/Third_Party/LwIP/src/include/lwip/prot/tcp.h"
 1144              		.file 28 "Middlewares/Third_Party/LwIP/src/include/lwip/prot/iana.h"
 1145              		.file 29 "d:\\dev\\gcc-arm-none-eabi\\9_2019_q4-major\\arm-none-eabi\\include\\stdio.h"
 1146              		.file 30 "Middlewares/Third_Party/LwIP/src/include/lwip/def.h"
 1147              		.file 31 "Middlewares/Third_Party/LwIP/src/include/lwip/ip4_frag.h"
ARM GAS  D:\Dev\msys64\tmp\cclk87TN.s 			page 44

