ARM GAS  D:\Dev\msys64\tmp\ccB7TkM7.s 			page 1


   1              		.cpu cortex-m7
   2              		.eabi_attribute 27, 1
   3              		.eabi_attribute 28, 1
   4              		.eabi_attribute 20, 1
   5              		.eabi_attribute 21, 1
   6              		.eabi_attribute 23, 3
   7              		.eabi_attribute 24, 1
   8              		.eabi_attribute 25, 1
   9              		.eabi_attribute 26, 1
  10              		.eabi_attribute 30, 1
  11              		.eabi_attribute 34, 1
  12              		.eabi_attribute 18, 4
  13              		.file	"mqtt.c"
  14              		.text
  15              	.Ltext0:
  16              		.cfi_sections	.debug_frame
  17              		.section	.text.msg_generate_packet_id,"ax",%progbits
  18              		.align	1
  19              		.arch armv7e-m
  20              		.syntax unified
  21              		.thumb
  22              		.thumb_func
  23              		.fpu fpv5-sp-d16
  25              	msg_generate_packet_id:
  26              	.LVL0:
  27              	.LFB30:
  28              		.file 1 "Middlewares/Third_Party/LwIP/src/apps/mqtt/mqtt.c"
   1:Middlewares/Third_Party/LwIP/src/apps/mqtt/mqtt.c **** /**
   2:Middlewares/Third_Party/LwIP/src/apps/mqtt/mqtt.c ****  * @file
   3:Middlewares/Third_Party/LwIP/src/apps/mqtt/mqtt.c ****  * MQTT client
   4:Middlewares/Third_Party/LwIP/src/apps/mqtt/mqtt.c ****  *
   5:Middlewares/Third_Party/LwIP/src/apps/mqtt/mqtt.c ****  * @defgroup mqtt MQTT client
   6:Middlewares/Third_Party/LwIP/src/apps/mqtt/mqtt.c ****  * @ingroup apps
   7:Middlewares/Third_Party/LwIP/src/apps/mqtt/mqtt.c ****  * @verbinclude mqtt_client.txt
   8:Middlewares/Third_Party/LwIP/src/apps/mqtt/mqtt.c ****  */
   9:Middlewares/Third_Party/LwIP/src/apps/mqtt/mqtt.c **** 
  10:Middlewares/Third_Party/LwIP/src/apps/mqtt/mqtt.c **** /*
  11:Middlewares/Third_Party/LwIP/src/apps/mqtt/mqtt.c ****  * Copyright (c) 2016 Erik Andersson <erian747@gmail.com>
  12:Middlewares/Third_Party/LwIP/src/apps/mqtt/mqtt.c ****  * All rights reserved.
  13:Middlewares/Third_Party/LwIP/src/apps/mqtt/mqtt.c ****  *
  14:Middlewares/Third_Party/LwIP/src/apps/mqtt/mqtt.c ****  * Redistribution and use in source and binary forms, with or without modification,
  15:Middlewares/Third_Party/LwIP/src/apps/mqtt/mqtt.c ****  * are permitted provided that the following conditions are met:
  16:Middlewares/Third_Party/LwIP/src/apps/mqtt/mqtt.c ****  *
  17:Middlewares/Third_Party/LwIP/src/apps/mqtt/mqtt.c ****  * 1. Redistributions of source code must retain the above copyright notice,
  18:Middlewares/Third_Party/LwIP/src/apps/mqtt/mqtt.c ****  *    this list of conditions and the following disclaimer.
  19:Middlewares/Third_Party/LwIP/src/apps/mqtt/mqtt.c ****  * 2. Redistributions in binary form must reproduce the above copyright notice,
  20:Middlewares/Third_Party/LwIP/src/apps/mqtt/mqtt.c ****  *    this list of conditions and the following disclaimer in the documentation
  21:Middlewares/Third_Party/LwIP/src/apps/mqtt/mqtt.c ****  *    and/or other materials provided with the distribution.
  22:Middlewares/Third_Party/LwIP/src/apps/mqtt/mqtt.c ****  * 3. The name of the author may not be used to endorse or promote products
  23:Middlewares/Third_Party/LwIP/src/apps/mqtt/mqtt.c ****  *    derived from this software without specific prior written permission.
  24:Middlewares/Third_Party/LwIP/src/apps/mqtt/mqtt.c ****  *
  25:Middlewares/Third_Party/LwIP/src/apps/mqtt/mqtt.c ****  * THIS SOFTWARE IS PROVIDED BY THE AUTHOR ``AS IS'' AND ANY EXPRESS OR IMPLIED
  26:Middlewares/Third_Party/LwIP/src/apps/mqtt/mqtt.c ****  * WARRANTIES, INCLUDING, BUT NOT LIMITED TO, THE IMPLIED WARRANTIES OF
  27:Middlewares/Third_Party/LwIP/src/apps/mqtt/mqtt.c ****  * MERCHANTABILITY AND FITNESS FOR A PARTICULAR PURPOSE ARE DISCLAIMED. IN NO EVENT
  28:Middlewares/Third_Party/LwIP/src/apps/mqtt/mqtt.c ****  * SHALL THE AUTHOR BE LIABLE FOR ANY DIRECT, INDIRECT, INCIDENTAL, SPECIAL,
  29:Middlewares/Third_Party/LwIP/src/apps/mqtt/mqtt.c ****  * EXEMPLARY, OR CONSEQUENTIAL DAMAGES (INCLUDING, BUT NOT LIMITED TO, PROCUREMENT
  30:Middlewares/Third_Party/LwIP/src/apps/mqtt/mqtt.c ****  * OF SUBSTITUTE GOODS OR SERVICES; LOSS OF USE, DATA, OR PROFITS; OR BUSINESS
ARM GAS  D:\Dev\msys64\tmp\ccB7TkM7.s 			page 2


  31:Middlewares/Third_Party/LwIP/src/apps/mqtt/mqtt.c ****  * INTERRUPTION) HOWEVER CAUSED AND ON ANY THEORY OF LIABILITY, WHETHER IN
  32:Middlewares/Third_Party/LwIP/src/apps/mqtt/mqtt.c ****  * CONTRACT, STRICT LIABILITY, OR TORT (INCLUDING NEGLIGENCE OR OTHERWISE) ARISING
  33:Middlewares/Third_Party/LwIP/src/apps/mqtt/mqtt.c ****  * IN ANY WAY OUT OF THE USE OF THIS SOFTWARE, EVEN IF ADVISED OF THE POSSIBILITY
  34:Middlewares/Third_Party/LwIP/src/apps/mqtt/mqtt.c ****  * OF SUCH DAMAGE.
  35:Middlewares/Third_Party/LwIP/src/apps/mqtt/mqtt.c ****  *
  36:Middlewares/Third_Party/LwIP/src/apps/mqtt/mqtt.c ****  * This file is part of the lwIP TCP/IP stack
  37:Middlewares/Third_Party/LwIP/src/apps/mqtt/mqtt.c ****  *
  38:Middlewares/Third_Party/LwIP/src/apps/mqtt/mqtt.c ****  * Author: Erik Andersson <erian747@gmail.com>
  39:Middlewares/Third_Party/LwIP/src/apps/mqtt/mqtt.c ****  *
  40:Middlewares/Third_Party/LwIP/src/apps/mqtt/mqtt.c ****  *
  41:Middlewares/Third_Party/LwIP/src/apps/mqtt/mqtt.c ****  * @todo:
  42:Middlewares/Third_Party/LwIP/src/apps/mqtt/mqtt.c ****  * - Handle large outgoing payloads for PUBLISH messages
  43:Middlewares/Third_Party/LwIP/src/apps/mqtt/mqtt.c ****  * - Fix restriction of a single topic in each (UN)SUBSCRIBE message (protocol has support for mult
  44:Middlewares/Third_Party/LwIP/src/apps/mqtt/mqtt.c ****  * - Add support for legacy MQTT protocol version
  45:Middlewares/Third_Party/LwIP/src/apps/mqtt/mqtt.c ****  *
  46:Middlewares/Third_Party/LwIP/src/apps/mqtt/mqtt.c ****  * Please coordinate changes and requests with Erik Andersson
  47:Middlewares/Third_Party/LwIP/src/apps/mqtt/mqtt.c ****  * Erik Andersson <erian747@gmail.com>
  48:Middlewares/Third_Party/LwIP/src/apps/mqtt/mqtt.c ****  *
  49:Middlewares/Third_Party/LwIP/src/apps/mqtt/mqtt.c ****  */
  50:Middlewares/Third_Party/LwIP/src/apps/mqtt/mqtt.c **** #include "lwip/apps/mqtt.h"
  51:Middlewares/Third_Party/LwIP/src/apps/mqtt/mqtt.c **** #include "lwip/apps/mqtt_priv.h"
  52:Middlewares/Third_Party/LwIP/src/apps/mqtt/mqtt.c **** #include "lwip/timeouts.h"
  53:Middlewares/Third_Party/LwIP/src/apps/mqtt/mqtt.c **** #include "lwip/ip_addr.h"
  54:Middlewares/Third_Party/LwIP/src/apps/mqtt/mqtt.c **** #include "lwip/mem.h"
  55:Middlewares/Third_Party/LwIP/src/apps/mqtt/mqtt.c **** #include "lwip/err.h"
  56:Middlewares/Third_Party/LwIP/src/apps/mqtt/mqtt.c **** #include "lwip/pbuf.h"
  57:Middlewares/Third_Party/LwIP/src/apps/mqtt/mqtt.c **** #include "lwip/altcp.h"
  58:Middlewares/Third_Party/LwIP/src/apps/mqtt/mqtt.c **** #include "lwip/altcp_tcp.h"
  59:Middlewares/Third_Party/LwIP/src/apps/mqtt/mqtt.c **** #include "lwip/altcp_tls.h"
  60:Middlewares/Third_Party/LwIP/src/apps/mqtt/mqtt.c **** #include <string.h>
  61:Middlewares/Third_Party/LwIP/src/apps/mqtt/mqtt.c **** 
  62:Middlewares/Third_Party/LwIP/src/apps/mqtt/mqtt.c **** #if LWIP_TCP && LWIP_CALLBACK_API
  63:Middlewares/Third_Party/LwIP/src/apps/mqtt/mqtt.c **** 
  64:Middlewares/Third_Party/LwIP/src/apps/mqtt/mqtt.c **** /**
  65:Middlewares/Third_Party/LwIP/src/apps/mqtt/mqtt.c ****  * MQTT_DEBUG: Default is off.
  66:Middlewares/Third_Party/LwIP/src/apps/mqtt/mqtt.c ****  */
  67:Middlewares/Third_Party/LwIP/src/apps/mqtt/mqtt.c **** #if !defined MQTT_DEBUG || defined __DOXYGEN__
  68:Middlewares/Third_Party/LwIP/src/apps/mqtt/mqtt.c **** #define MQTT_DEBUG                  LWIP_DBG_OFF
  69:Middlewares/Third_Party/LwIP/src/apps/mqtt/mqtt.c **** #endif
  70:Middlewares/Third_Party/LwIP/src/apps/mqtt/mqtt.c **** 
  71:Middlewares/Third_Party/LwIP/src/apps/mqtt/mqtt.c **** #define MQTT_DEBUG_TRACE        (MQTT_DEBUG | LWIP_DBG_TRACE)
  72:Middlewares/Third_Party/LwIP/src/apps/mqtt/mqtt.c **** #define MQTT_DEBUG_STATE        (MQTT_DEBUG | LWIP_DBG_STATE)
  73:Middlewares/Third_Party/LwIP/src/apps/mqtt/mqtt.c **** #define MQTT_DEBUG_WARN         (MQTT_DEBUG | LWIP_DBG_LEVEL_WARNING)
  74:Middlewares/Third_Party/LwIP/src/apps/mqtt/mqtt.c **** #define MQTT_DEBUG_WARN_STATE   (MQTT_DEBUG | LWIP_DBG_LEVEL_WARNING | LWIP_DBG_STATE)
  75:Middlewares/Third_Party/LwIP/src/apps/mqtt/mqtt.c **** #define MQTT_DEBUG_SERIOUS      (MQTT_DEBUG | LWIP_DBG_LEVEL_SERIOUS)
  76:Middlewares/Third_Party/LwIP/src/apps/mqtt/mqtt.c **** 
  77:Middlewares/Third_Party/LwIP/src/apps/mqtt/mqtt.c **** 
  78:Middlewares/Third_Party/LwIP/src/apps/mqtt/mqtt.c **** 
  79:Middlewares/Third_Party/LwIP/src/apps/mqtt/mqtt.c **** /**
  80:Middlewares/Third_Party/LwIP/src/apps/mqtt/mqtt.c ****  * MQTT client connection states
  81:Middlewares/Third_Party/LwIP/src/apps/mqtt/mqtt.c ****  */
  82:Middlewares/Third_Party/LwIP/src/apps/mqtt/mqtt.c **** enum {
  83:Middlewares/Third_Party/LwIP/src/apps/mqtt/mqtt.c ****   TCP_DISCONNECTED,
  84:Middlewares/Third_Party/LwIP/src/apps/mqtt/mqtt.c ****   TCP_CONNECTING,
  85:Middlewares/Third_Party/LwIP/src/apps/mqtt/mqtt.c ****   MQTT_CONNECTING,
  86:Middlewares/Third_Party/LwIP/src/apps/mqtt/mqtt.c ****   MQTT_CONNECTED
  87:Middlewares/Third_Party/LwIP/src/apps/mqtt/mqtt.c **** };
ARM GAS  D:\Dev\msys64\tmp\ccB7TkM7.s 			page 3


  88:Middlewares/Third_Party/LwIP/src/apps/mqtt/mqtt.c **** 
  89:Middlewares/Third_Party/LwIP/src/apps/mqtt/mqtt.c **** /**
  90:Middlewares/Third_Party/LwIP/src/apps/mqtt/mqtt.c ****  * MQTT control message types
  91:Middlewares/Third_Party/LwIP/src/apps/mqtt/mqtt.c ****  */
  92:Middlewares/Third_Party/LwIP/src/apps/mqtt/mqtt.c **** enum mqtt_message_type {
  93:Middlewares/Third_Party/LwIP/src/apps/mqtt/mqtt.c ****   MQTT_MSG_TYPE_CONNECT = 1,
  94:Middlewares/Third_Party/LwIP/src/apps/mqtt/mqtt.c ****   MQTT_MSG_TYPE_CONNACK = 2,
  95:Middlewares/Third_Party/LwIP/src/apps/mqtt/mqtt.c ****   MQTT_MSG_TYPE_PUBLISH = 3,
  96:Middlewares/Third_Party/LwIP/src/apps/mqtt/mqtt.c ****   MQTT_MSG_TYPE_PUBACK = 4,
  97:Middlewares/Third_Party/LwIP/src/apps/mqtt/mqtt.c ****   MQTT_MSG_TYPE_PUBREC = 5,
  98:Middlewares/Third_Party/LwIP/src/apps/mqtt/mqtt.c ****   MQTT_MSG_TYPE_PUBREL = 6,
  99:Middlewares/Third_Party/LwIP/src/apps/mqtt/mqtt.c ****   MQTT_MSG_TYPE_PUBCOMP = 7,
 100:Middlewares/Third_Party/LwIP/src/apps/mqtt/mqtt.c ****   MQTT_MSG_TYPE_SUBSCRIBE = 8,
 101:Middlewares/Third_Party/LwIP/src/apps/mqtt/mqtt.c ****   MQTT_MSG_TYPE_SUBACK = 9,
 102:Middlewares/Third_Party/LwIP/src/apps/mqtt/mqtt.c ****   MQTT_MSG_TYPE_UNSUBSCRIBE = 10,
 103:Middlewares/Third_Party/LwIP/src/apps/mqtt/mqtt.c ****   MQTT_MSG_TYPE_UNSUBACK = 11,
 104:Middlewares/Third_Party/LwIP/src/apps/mqtt/mqtt.c ****   MQTT_MSG_TYPE_PINGREQ = 12,
 105:Middlewares/Third_Party/LwIP/src/apps/mqtt/mqtt.c ****   MQTT_MSG_TYPE_PINGRESP = 13,
 106:Middlewares/Third_Party/LwIP/src/apps/mqtt/mqtt.c ****   MQTT_MSG_TYPE_DISCONNECT = 14
 107:Middlewares/Third_Party/LwIP/src/apps/mqtt/mqtt.c **** };
 108:Middlewares/Third_Party/LwIP/src/apps/mqtt/mqtt.c **** 
 109:Middlewares/Third_Party/LwIP/src/apps/mqtt/mqtt.c **** /** Helpers to extract control packet type and qos from first byte in fixed header */
 110:Middlewares/Third_Party/LwIP/src/apps/mqtt/mqtt.c **** #define MQTT_CTL_PACKET_TYPE(fixed_hdr_byte0) ((fixed_hdr_byte0 & 0xf0) >> 4)
 111:Middlewares/Third_Party/LwIP/src/apps/mqtt/mqtt.c **** #define MQTT_CTL_PACKET_QOS(fixed_hdr_byte0) ((fixed_hdr_byte0 & 0x6) >> 1)
 112:Middlewares/Third_Party/LwIP/src/apps/mqtt/mqtt.c **** 
 113:Middlewares/Third_Party/LwIP/src/apps/mqtt/mqtt.c **** /**
 114:Middlewares/Third_Party/LwIP/src/apps/mqtt/mqtt.c ****  * MQTT connect flags, only used in CONNECT message
 115:Middlewares/Third_Party/LwIP/src/apps/mqtt/mqtt.c ****  */
 116:Middlewares/Third_Party/LwIP/src/apps/mqtt/mqtt.c **** enum mqtt_connect_flag {
 117:Middlewares/Third_Party/LwIP/src/apps/mqtt/mqtt.c ****   MQTT_CONNECT_FLAG_USERNAME = 1 << 7,
 118:Middlewares/Third_Party/LwIP/src/apps/mqtt/mqtt.c ****   MQTT_CONNECT_FLAG_PASSWORD = 1 << 6,
 119:Middlewares/Third_Party/LwIP/src/apps/mqtt/mqtt.c ****   MQTT_CONNECT_FLAG_WILL_RETAIN = 1 << 5,
 120:Middlewares/Third_Party/LwIP/src/apps/mqtt/mqtt.c ****   MQTT_CONNECT_FLAG_WILL = 1 << 2,
 121:Middlewares/Third_Party/LwIP/src/apps/mqtt/mqtt.c ****   MQTT_CONNECT_FLAG_CLEAN_SESSION = 1 << 1
 122:Middlewares/Third_Party/LwIP/src/apps/mqtt/mqtt.c **** };
 123:Middlewares/Third_Party/LwIP/src/apps/mqtt/mqtt.c **** 
 124:Middlewares/Third_Party/LwIP/src/apps/mqtt/mqtt.c **** 
 125:Middlewares/Third_Party/LwIP/src/apps/mqtt/mqtt.c **** static void mqtt_cyclic_timer(void *arg);
 126:Middlewares/Third_Party/LwIP/src/apps/mqtt/mqtt.c **** 
 127:Middlewares/Third_Party/LwIP/src/apps/mqtt/mqtt.c **** #if defined(LWIP_DEBUG)
 128:Middlewares/Third_Party/LwIP/src/apps/mqtt/mqtt.c **** static const char *const mqtt_message_type_str[15] = {
 129:Middlewares/Third_Party/LwIP/src/apps/mqtt/mqtt.c ****   "UNDEFINED",
 130:Middlewares/Third_Party/LwIP/src/apps/mqtt/mqtt.c ****   "CONNECT",
 131:Middlewares/Third_Party/LwIP/src/apps/mqtt/mqtt.c ****   "CONNACK",
 132:Middlewares/Third_Party/LwIP/src/apps/mqtt/mqtt.c ****   "PUBLISH",
 133:Middlewares/Third_Party/LwIP/src/apps/mqtt/mqtt.c ****   "PUBACK",
 134:Middlewares/Third_Party/LwIP/src/apps/mqtt/mqtt.c ****   "PUBREC",
 135:Middlewares/Third_Party/LwIP/src/apps/mqtt/mqtt.c ****   "PUBREL",
 136:Middlewares/Third_Party/LwIP/src/apps/mqtt/mqtt.c ****   "PUBCOMP",
 137:Middlewares/Third_Party/LwIP/src/apps/mqtt/mqtt.c ****   "SUBSCRIBE",
 138:Middlewares/Third_Party/LwIP/src/apps/mqtt/mqtt.c ****   "SUBACK",
 139:Middlewares/Third_Party/LwIP/src/apps/mqtt/mqtt.c ****   "UNSUBSCRIBE",
 140:Middlewares/Third_Party/LwIP/src/apps/mqtt/mqtt.c ****   "UNSUBACK",
 141:Middlewares/Third_Party/LwIP/src/apps/mqtt/mqtt.c ****   "PINGREQ",
 142:Middlewares/Third_Party/LwIP/src/apps/mqtt/mqtt.c ****   "PINGRESP",
 143:Middlewares/Third_Party/LwIP/src/apps/mqtt/mqtt.c ****   "DISCONNECT"
 144:Middlewares/Third_Party/LwIP/src/apps/mqtt/mqtt.c **** };
ARM GAS  D:\Dev\msys64\tmp\ccB7TkM7.s 			page 4


 145:Middlewares/Third_Party/LwIP/src/apps/mqtt/mqtt.c **** 
 146:Middlewares/Third_Party/LwIP/src/apps/mqtt/mqtt.c **** /**
 147:Middlewares/Third_Party/LwIP/src/apps/mqtt/mqtt.c ****  * Message type value to string
 148:Middlewares/Third_Party/LwIP/src/apps/mqtt/mqtt.c ****  * @param msg_type see enum mqtt_message_type
 149:Middlewares/Third_Party/LwIP/src/apps/mqtt/mqtt.c ****  *
 150:Middlewares/Third_Party/LwIP/src/apps/mqtt/mqtt.c ****  * @return Control message type text string
 151:Middlewares/Third_Party/LwIP/src/apps/mqtt/mqtt.c ****  */
 152:Middlewares/Third_Party/LwIP/src/apps/mqtt/mqtt.c **** static const char *
 153:Middlewares/Third_Party/LwIP/src/apps/mqtt/mqtt.c **** mqtt_msg_type_to_str(u8_t msg_type)
 154:Middlewares/Third_Party/LwIP/src/apps/mqtt/mqtt.c **** {
 155:Middlewares/Third_Party/LwIP/src/apps/mqtt/mqtt.c ****   if (msg_type >= LWIP_ARRAYSIZE(mqtt_message_type_str)) {
 156:Middlewares/Third_Party/LwIP/src/apps/mqtt/mqtt.c ****     msg_type = 0;
 157:Middlewares/Third_Party/LwIP/src/apps/mqtt/mqtt.c ****   }
 158:Middlewares/Third_Party/LwIP/src/apps/mqtt/mqtt.c ****   return mqtt_message_type_str[msg_type];
 159:Middlewares/Third_Party/LwIP/src/apps/mqtt/mqtt.c **** }
 160:Middlewares/Third_Party/LwIP/src/apps/mqtt/mqtt.c **** 
 161:Middlewares/Third_Party/LwIP/src/apps/mqtt/mqtt.c **** #endif
 162:Middlewares/Third_Party/LwIP/src/apps/mqtt/mqtt.c **** 
 163:Middlewares/Third_Party/LwIP/src/apps/mqtt/mqtt.c **** 
 164:Middlewares/Third_Party/LwIP/src/apps/mqtt/mqtt.c **** /**
 165:Middlewares/Third_Party/LwIP/src/apps/mqtt/mqtt.c ****  * Generate MQTT packet identifier
 166:Middlewares/Third_Party/LwIP/src/apps/mqtt/mqtt.c ****  * @param client MQTT client
 167:Middlewares/Third_Party/LwIP/src/apps/mqtt/mqtt.c ****  * @return New packet identifier, range 1 to 65535
 168:Middlewares/Third_Party/LwIP/src/apps/mqtt/mqtt.c ****  */
 169:Middlewares/Third_Party/LwIP/src/apps/mqtt/mqtt.c **** static u16_t
 170:Middlewares/Third_Party/LwIP/src/apps/mqtt/mqtt.c **** msg_generate_packet_id(mqtt_client_t *client)
 171:Middlewares/Third_Party/LwIP/src/apps/mqtt/mqtt.c **** {
  29              		.loc 1 171 1 view -0
  30              		.cfi_startproc
  31              		@ args = 0, pretend = 0, frame = 0
  32              		@ frame_needed = 0, uses_anonymous_args = 0
  33              		@ link register save eliminated.
 172:Middlewares/Third_Party/LwIP/src/apps/mqtt/mqtt.c ****   client->pkt_id_seq++;
  34              		.loc 1 172 3 view .LVU1
  35              		.loc 1 172 9 is_stmt 0 view .LVU2
  36 0000 C388     		ldrh	r3, [r0, #6]
  37              		.loc 1 172 21 view .LVU3
  38 0002 0133     		adds	r3, r3, #1
  39 0004 9BB2     		uxth	r3, r3
  40 0006 C380     		strh	r3, [r0, #6]	@ movhi
 173:Middlewares/Third_Party/LwIP/src/apps/mqtt/mqtt.c ****   if (client->pkt_id_seq == 0) {
  41              		.loc 1 173 3 is_stmt 1 view .LVU4
  42              		.loc 1 173 6 is_stmt 0 view .LVU5
  43 0008 0BB9     		cbnz	r3, .L2
 174:Middlewares/Third_Party/LwIP/src/apps/mqtt/mqtt.c ****     client->pkt_id_seq++;
  44              		.loc 1 174 5 is_stmt 1 view .LVU6
  45              		.loc 1 174 23 is_stmt 0 view .LVU7
  46 000a 0133     		adds	r3, r3, #1
  47 000c C380     		strh	r3, [r0, #6]	@ movhi
  48              	.L2:
 175:Middlewares/Third_Party/LwIP/src/apps/mqtt/mqtt.c ****   }
 176:Middlewares/Third_Party/LwIP/src/apps/mqtt/mqtt.c ****   return client->pkt_id_seq;
  49              		.loc 1 176 3 is_stmt 1 view .LVU8
 177:Middlewares/Third_Party/LwIP/src/apps/mqtt/mqtt.c **** }
  50              		.loc 1 177 1 is_stmt 0 view .LVU9
  51 000e C088     		ldrh	r0, [r0, #6]
  52              	.LVL1:
ARM GAS  D:\Dev\msys64\tmp\ccB7TkM7.s 			page 5


  53              		.loc 1 177 1 view .LVU10
  54 0010 7047     		bx	lr
  55              		.cfi_endproc
  56              	.LFE30:
  58              		.section	.text.mqtt_ringbuf_put,"ax",%progbits
  59              		.align	1
  60              		.syntax unified
  61              		.thumb
  62              		.thumb_func
  63              		.fpu fpv5-sp-d16
  65              	mqtt_ringbuf_put:
  66              	.LVL2:
  67              	.LFB31:
 178:Middlewares/Third_Party/LwIP/src/apps/mqtt/mqtt.c **** 
 179:Middlewares/Third_Party/LwIP/src/apps/mqtt/mqtt.c **** /*-------------------------------------------------------------------------------------------------
 180:Middlewares/Third_Party/LwIP/src/apps/mqtt/mqtt.c **** /* Output ring buffer */
 181:Middlewares/Third_Party/LwIP/src/apps/mqtt/mqtt.c **** 
 182:Middlewares/Third_Party/LwIP/src/apps/mqtt/mqtt.c **** /** Add single item to ring buffer */
 183:Middlewares/Third_Party/LwIP/src/apps/mqtt/mqtt.c **** static void
 184:Middlewares/Third_Party/LwIP/src/apps/mqtt/mqtt.c **** mqtt_ringbuf_put(struct mqtt_ringbuf_t *rb, u8_t item)
 185:Middlewares/Third_Party/LwIP/src/apps/mqtt/mqtt.c **** {
  68              		.loc 1 185 1 is_stmt 1 view -0
  69              		.cfi_startproc
  70              		@ args = 0, pretend = 0, frame = 0
  71              		@ frame_needed = 0, uses_anonymous_args = 0
  72              		@ link register save eliminated.
 186:Middlewares/Third_Party/LwIP/src/apps/mqtt/mqtt.c ****   rb->buf[rb->put] = item;
  73              		.loc 1 186 3 view .LVU12
  74              		.loc 1 186 13 is_stmt 0 view .LVU13
  75 0000 0388     		ldrh	r3, [r0]
  76              		.loc 1 186 20 view .LVU14
  77 0002 C218     		adds	r2, r0, r3
  78 0004 1171     		strb	r1, [r2, #4]
 187:Middlewares/Third_Party/LwIP/src/apps/mqtt/mqtt.c ****   rb->put++;
  79              		.loc 1 187 3 is_stmt 1 view .LVU15
  80              		.loc 1 187 10 is_stmt 0 view .LVU16
  81 0006 0133     		adds	r3, r3, #1
  82 0008 9BB2     		uxth	r3, r3
  83 000a 0380     		strh	r3, [r0]	@ movhi
 188:Middlewares/Third_Party/LwIP/src/apps/mqtt/mqtt.c ****   if (rb->put >= MQTT_OUTPUT_RINGBUF_SIZE) {
  84              		.loc 1 188 3 is_stmt 1 view .LVU17
  85              		.loc 1 188 6 is_stmt 0 view .LVU18
  86 000c FF2B     		cmp	r3, #255
  87 000e 01D9     		bls	.L3
 189:Middlewares/Third_Party/LwIP/src/apps/mqtt/mqtt.c ****     rb->put = 0;
  88              		.loc 1 189 5 is_stmt 1 view .LVU19
  89              		.loc 1 189 13 is_stmt 0 view .LVU20
  90 0010 0023     		movs	r3, #0
  91 0012 0380     		strh	r3, [r0]	@ movhi
  92              	.L3:
 190:Middlewares/Third_Party/LwIP/src/apps/mqtt/mqtt.c ****   }
 191:Middlewares/Third_Party/LwIP/src/apps/mqtt/mqtt.c **** }
  93              		.loc 1 191 1 view .LVU21
  94 0014 7047     		bx	lr
  95              		.cfi_endproc
  96              	.LFE31:
  98              		.section	.text.mqtt_ringbuf_get_ptr,"ax",%progbits
ARM GAS  D:\Dev\msys64\tmp\ccB7TkM7.s 			page 6


  99              		.align	1
 100              		.syntax unified
 101              		.thumb
 102              		.thumb_func
 103              		.fpu fpv5-sp-d16
 105              	mqtt_ringbuf_get_ptr:
 106              	.LVL3:
 107              	.LFB32:
 192:Middlewares/Third_Party/LwIP/src/apps/mqtt/mqtt.c **** 
 193:Middlewares/Third_Party/LwIP/src/apps/mqtt/mqtt.c **** /** Return pointer to ring buffer get position */
 194:Middlewares/Third_Party/LwIP/src/apps/mqtt/mqtt.c **** static u8_t *
 195:Middlewares/Third_Party/LwIP/src/apps/mqtt/mqtt.c **** mqtt_ringbuf_get_ptr(struct mqtt_ringbuf_t *rb)
 196:Middlewares/Third_Party/LwIP/src/apps/mqtt/mqtt.c **** {
 108              		.loc 1 196 1 is_stmt 1 view -0
 109              		.cfi_startproc
 110              		@ args = 0, pretend = 0, frame = 0
 111              		@ frame_needed = 0, uses_anonymous_args = 0
 112              		@ link register save eliminated.
 197:Middlewares/Third_Party/LwIP/src/apps/mqtt/mqtt.c ****   return &rb->buf[rb->get];
 113              		.loc 1 197 3 view .LVU23
 114              		.loc 1 197 21 is_stmt 0 view .LVU24
 115 0000 4388     		ldrh	r3, [r0, #2]
 116              		.loc 1 197 10 view .LVU25
 117 0002 1844     		add	r0, r0, r3
 118              	.LVL4:
 198:Middlewares/Third_Party/LwIP/src/apps/mqtt/mqtt.c **** }
 119              		.loc 1 198 1 view .LVU26
 120 0004 0430     		adds	r0, r0, #4
 121 0006 7047     		bx	lr
 122              		.cfi_endproc
 123              	.LFE32:
 125              		.section	.text.mqtt_ringbuf_len,"ax",%progbits
 126              		.align	1
 127              		.syntax unified
 128              		.thumb
 129              		.thumb_func
 130              		.fpu fpv5-sp-d16
 132              	mqtt_ringbuf_len:
 133              	.LVL5:
 134              	.LFB34:
 199:Middlewares/Third_Party/LwIP/src/apps/mqtt/mqtt.c **** 
 200:Middlewares/Third_Party/LwIP/src/apps/mqtt/mqtt.c **** static void
 201:Middlewares/Third_Party/LwIP/src/apps/mqtt/mqtt.c **** mqtt_ringbuf_advance_get_idx(struct mqtt_ringbuf_t *rb, u16_t len)
 202:Middlewares/Third_Party/LwIP/src/apps/mqtt/mqtt.c **** {
 203:Middlewares/Third_Party/LwIP/src/apps/mqtt/mqtt.c ****   LWIP_ASSERT("mqtt_ringbuf_advance_get_idx: len < MQTT_OUTPUT_RINGBUF_SIZE", len < MQTT_OUTPUT_RIN
 204:Middlewares/Third_Party/LwIP/src/apps/mqtt/mqtt.c **** 
 205:Middlewares/Third_Party/LwIP/src/apps/mqtt/mqtt.c ****   rb->get += len;
 206:Middlewares/Third_Party/LwIP/src/apps/mqtt/mqtt.c ****   if (rb->get >= MQTT_OUTPUT_RINGBUF_SIZE) {
 207:Middlewares/Third_Party/LwIP/src/apps/mqtt/mqtt.c ****     rb->get = rb->get - MQTT_OUTPUT_RINGBUF_SIZE;
 208:Middlewares/Third_Party/LwIP/src/apps/mqtt/mqtt.c ****   }
 209:Middlewares/Third_Party/LwIP/src/apps/mqtt/mqtt.c **** }
 210:Middlewares/Third_Party/LwIP/src/apps/mqtt/mqtt.c **** 
 211:Middlewares/Third_Party/LwIP/src/apps/mqtt/mqtt.c **** /** Return number of bytes in ring buffer */
 212:Middlewares/Third_Party/LwIP/src/apps/mqtt/mqtt.c **** static u16_t
 213:Middlewares/Third_Party/LwIP/src/apps/mqtt/mqtt.c **** mqtt_ringbuf_len(struct mqtt_ringbuf_t *rb)
 214:Middlewares/Third_Party/LwIP/src/apps/mqtt/mqtt.c **** {
 135              		.loc 1 214 1 is_stmt 1 view -0
ARM GAS  D:\Dev\msys64\tmp\ccB7TkM7.s 			page 7


 136              		.cfi_startproc
 137              		@ args = 0, pretend = 0, frame = 0
 138              		@ frame_needed = 0, uses_anonymous_args = 0
 139              		@ link register save eliminated.
 215:Middlewares/Third_Party/LwIP/src/apps/mqtt/mqtt.c ****   u32_t len = rb->put - rb->get;
 140              		.loc 1 215 3 view .LVU28
 141              		.loc 1 215 17 is_stmt 0 view .LVU29
 142 0000 0388     		ldrh	r3, [r0]
 143              		.loc 1 215 27 view .LVU30
 144 0002 4088     		ldrh	r0, [r0, #2]
 145              	.LVL6:
 146              		.loc 1 215 23 view .LVU31
 147 0004 181A     		subs	r0, r3, r0
 148              	.LVL7:
 216:Middlewares/Third_Party/LwIP/src/apps/mqtt/mqtt.c ****   if (len > 0xFFFF) {
 149              		.loc 1 216 3 is_stmt 1 view .LVU32
 150              		.loc 1 216 6 is_stmt 0 view .LVU33
 151 0006 B0F5803F 		cmp	r0, #65536
 152 000a 01D3     		bcc	.L7
 217:Middlewares/Third_Party/LwIP/src/apps/mqtt/mqtt.c ****     len += MQTT_OUTPUT_RINGBUF_SIZE;
 153              		.loc 1 217 5 is_stmt 1 view .LVU34
 154              		.loc 1 217 9 is_stmt 0 view .LVU35
 155 000c 00F58070 		add	r0, r0, #256
 156              	.LVL8:
 157              	.L7:
 218:Middlewares/Third_Party/LwIP/src/apps/mqtt/mqtt.c ****   }
 219:Middlewares/Third_Party/LwIP/src/apps/mqtt/mqtt.c ****   return (u16_t)len;
 158              		.loc 1 219 3 is_stmt 1 view .LVU36
 220:Middlewares/Third_Party/LwIP/src/apps/mqtt/mqtt.c **** }
 159              		.loc 1 220 1 is_stmt 0 view .LVU37
 160 0010 80B2     		uxth	r0, r0
 161              	.LVL9:
 162              		.loc 1 220 1 view .LVU38
 163 0012 7047     		bx	lr
 164              		.cfi_endproc
 165              	.LFE34:
 167              		.section	.text.mqtt_delete_request,"ax",%progbits
 168              		.align	1
 169              		.syntax unified
 170              		.thumb
 171              		.thumb_func
 172              		.fpu fpv5-sp-d16
 174              	mqtt_delete_request:
 175              	.LVL10:
 176              	.LFB38:
 221:Middlewares/Third_Party/LwIP/src/apps/mqtt/mqtt.c **** 
 222:Middlewares/Third_Party/LwIP/src/apps/mqtt/mqtt.c **** /** Return number of bytes free in ring buffer */
 223:Middlewares/Third_Party/LwIP/src/apps/mqtt/mqtt.c **** #define mqtt_ringbuf_free(rb) (MQTT_OUTPUT_RINGBUF_SIZE - mqtt_ringbuf_len(rb))
 224:Middlewares/Third_Party/LwIP/src/apps/mqtt/mqtt.c **** 
 225:Middlewares/Third_Party/LwIP/src/apps/mqtt/mqtt.c **** /** Return number of bytes possible to read without wrapping around */
 226:Middlewares/Third_Party/LwIP/src/apps/mqtt/mqtt.c **** #define mqtt_ringbuf_linear_read_length(rb) LWIP_MIN(mqtt_ringbuf_len(rb), (MQTT_OUTPUT_RINGBUF_SIZ
 227:Middlewares/Third_Party/LwIP/src/apps/mqtt/mqtt.c **** 
 228:Middlewares/Third_Party/LwIP/src/apps/mqtt/mqtt.c **** /**
 229:Middlewares/Third_Party/LwIP/src/apps/mqtt/mqtt.c ****  * Try send as many bytes as possible from output ring buffer
 230:Middlewares/Third_Party/LwIP/src/apps/mqtt/mqtt.c ****  * @param rb Output ring buffer
 231:Middlewares/Third_Party/LwIP/src/apps/mqtt/mqtt.c ****  * @param tpcb TCP connection handle
 232:Middlewares/Third_Party/LwIP/src/apps/mqtt/mqtt.c ****  */
ARM GAS  D:\Dev\msys64\tmp\ccB7TkM7.s 			page 8


 233:Middlewares/Third_Party/LwIP/src/apps/mqtt/mqtt.c **** static void
 234:Middlewares/Third_Party/LwIP/src/apps/mqtt/mqtt.c **** mqtt_output_send(struct mqtt_ringbuf_t *rb, struct altcp_pcb *tpcb)
 235:Middlewares/Third_Party/LwIP/src/apps/mqtt/mqtt.c **** {
 236:Middlewares/Third_Party/LwIP/src/apps/mqtt/mqtt.c ****   err_t err;
 237:Middlewares/Third_Party/LwIP/src/apps/mqtt/mqtt.c ****   u8_t wrap = 0;
 238:Middlewares/Third_Party/LwIP/src/apps/mqtt/mqtt.c ****   u16_t ringbuf_lin_len = mqtt_ringbuf_linear_read_length(rb);
 239:Middlewares/Third_Party/LwIP/src/apps/mqtt/mqtt.c ****   u16_t send_len = altcp_sndbuf(tpcb);
 240:Middlewares/Third_Party/LwIP/src/apps/mqtt/mqtt.c ****   LWIP_ASSERT("mqtt_output_send: tpcb != NULL", tpcb != NULL);
 241:Middlewares/Third_Party/LwIP/src/apps/mqtt/mqtt.c **** 
 242:Middlewares/Third_Party/LwIP/src/apps/mqtt/mqtt.c ****   if (send_len == 0 || ringbuf_lin_len == 0) {
 243:Middlewares/Third_Party/LwIP/src/apps/mqtt/mqtt.c ****     return;
 244:Middlewares/Third_Party/LwIP/src/apps/mqtt/mqtt.c ****   }
 245:Middlewares/Third_Party/LwIP/src/apps/mqtt/mqtt.c **** 
 246:Middlewares/Third_Party/LwIP/src/apps/mqtt/mqtt.c ****   LWIP_DEBUGF(MQTT_DEBUG_TRACE, ("mqtt_output_send: tcp_sndbuf: %d bytes, ringbuf_linear_available:
 247:Middlewares/Third_Party/LwIP/src/apps/mqtt/mqtt.c ****                                  send_len, ringbuf_lin_len, rb->get, rb->put));
 248:Middlewares/Third_Party/LwIP/src/apps/mqtt/mqtt.c **** 
 249:Middlewares/Third_Party/LwIP/src/apps/mqtt/mqtt.c ****   if (send_len > ringbuf_lin_len) {
 250:Middlewares/Third_Party/LwIP/src/apps/mqtt/mqtt.c ****     /* Space in TCP output buffer is larger than available in ring buffer linear portion */
 251:Middlewares/Third_Party/LwIP/src/apps/mqtt/mqtt.c ****     send_len = ringbuf_lin_len;
 252:Middlewares/Third_Party/LwIP/src/apps/mqtt/mqtt.c ****     /* Wrap around if more data in ring buffer after linear portion */
 253:Middlewares/Third_Party/LwIP/src/apps/mqtt/mqtt.c ****     wrap = (mqtt_ringbuf_len(rb) > ringbuf_lin_len);
 254:Middlewares/Third_Party/LwIP/src/apps/mqtt/mqtt.c ****   }
 255:Middlewares/Third_Party/LwIP/src/apps/mqtt/mqtt.c ****   err = altcp_write(tpcb, mqtt_ringbuf_get_ptr(rb), send_len, TCP_WRITE_FLAG_COPY | (wrap ? TCP_WRI
 256:Middlewares/Third_Party/LwIP/src/apps/mqtt/mqtt.c ****   if ((err == ERR_OK) && wrap) {
 257:Middlewares/Third_Party/LwIP/src/apps/mqtt/mqtt.c ****     mqtt_ringbuf_advance_get_idx(rb, send_len);
 258:Middlewares/Third_Party/LwIP/src/apps/mqtt/mqtt.c ****     /* Use the lesser one of ring buffer linear length and TCP send buffer size */
 259:Middlewares/Third_Party/LwIP/src/apps/mqtt/mqtt.c ****     send_len = LWIP_MIN(altcp_sndbuf(tpcb), mqtt_ringbuf_linear_read_length(rb));
 260:Middlewares/Third_Party/LwIP/src/apps/mqtt/mqtt.c ****     err = altcp_write(tpcb, mqtt_ringbuf_get_ptr(rb), send_len, TCP_WRITE_FLAG_COPY);
 261:Middlewares/Third_Party/LwIP/src/apps/mqtt/mqtt.c ****   }
 262:Middlewares/Third_Party/LwIP/src/apps/mqtt/mqtt.c **** 
 263:Middlewares/Third_Party/LwIP/src/apps/mqtt/mqtt.c ****   if (err == ERR_OK) {
 264:Middlewares/Third_Party/LwIP/src/apps/mqtt/mqtt.c ****     mqtt_ringbuf_advance_get_idx(rb, send_len);
 265:Middlewares/Third_Party/LwIP/src/apps/mqtt/mqtt.c ****     /* Flush */
 266:Middlewares/Third_Party/LwIP/src/apps/mqtt/mqtt.c ****     altcp_output(tpcb);
 267:Middlewares/Third_Party/LwIP/src/apps/mqtt/mqtt.c ****   } else {
 268:Middlewares/Third_Party/LwIP/src/apps/mqtt/mqtt.c ****     LWIP_DEBUGF(MQTT_DEBUG_WARN, ("mqtt_output_send: Send failed with err %d (\"%s\")\n", err, lwip
 269:Middlewares/Third_Party/LwIP/src/apps/mqtt/mqtt.c ****   }
 270:Middlewares/Third_Party/LwIP/src/apps/mqtt/mqtt.c **** }
 271:Middlewares/Third_Party/LwIP/src/apps/mqtt/mqtt.c **** 
 272:Middlewares/Third_Party/LwIP/src/apps/mqtt/mqtt.c **** 
 273:Middlewares/Third_Party/LwIP/src/apps/mqtt/mqtt.c **** 
 274:Middlewares/Third_Party/LwIP/src/apps/mqtt/mqtt.c **** /*-------------------------------------------------------------------------------------------------
 275:Middlewares/Third_Party/LwIP/src/apps/mqtt/mqtt.c **** /* Request queue */
 276:Middlewares/Third_Party/LwIP/src/apps/mqtt/mqtt.c **** 
 277:Middlewares/Third_Party/LwIP/src/apps/mqtt/mqtt.c **** /**
 278:Middlewares/Third_Party/LwIP/src/apps/mqtt/mqtt.c ****  * Create request item
 279:Middlewares/Third_Party/LwIP/src/apps/mqtt/mqtt.c ****  * @param r_objs Pointer to request objects
 280:Middlewares/Third_Party/LwIP/src/apps/mqtt/mqtt.c ****  * @param r_objs_len Number of array entries
 281:Middlewares/Third_Party/LwIP/src/apps/mqtt/mqtt.c ****  * @param pkt_id Packet identifier of request
 282:Middlewares/Third_Party/LwIP/src/apps/mqtt/mqtt.c ****  * @param cb Packet callback to call when requests lifetime ends
 283:Middlewares/Third_Party/LwIP/src/apps/mqtt/mqtt.c ****  * @param arg Parameter following callback
 284:Middlewares/Third_Party/LwIP/src/apps/mqtt/mqtt.c ****  * @return Request or NULL if failed to create
 285:Middlewares/Third_Party/LwIP/src/apps/mqtt/mqtt.c ****  */
 286:Middlewares/Third_Party/LwIP/src/apps/mqtt/mqtt.c **** static struct mqtt_request_t *
 287:Middlewares/Third_Party/LwIP/src/apps/mqtt/mqtt.c **** mqtt_create_request(struct mqtt_request_t *r_objs, size_t r_objs_len, u16_t pkt_id, mqtt_request_cb
 288:Middlewares/Third_Party/LwIP/src/apps/mqtt/mqtt.c **** {
 289:Middlewares/Third_Party/LwIP/src/apps/mqtt/mqtt.c ****   struct mqtt_request_t *r = NULL;
ARM GAS  D:\Dev\msys64\tmp\ccB7TkM7.s 			page 9


 290:Middlewares/Third_Party/LwIP/src/apps/mqtt/mqtt.c ****   u8_t n;
 291:Middlewares/Third_Party/LwIP/src/apps/mqtt/mqtt.c ****   LWIP_ASSERT("mqtt_create_request: r_objs != NULL", r_objs != NULL);
 292:Middlewares/Third_Party/LwIP/src/apps/mqtt/mqtt.c ****   for (n = 0; n < r_objs_len; n++) {
 293:Middlewares/Third_Party/LwIP/src/apps/mqtt/mqtt.c ****     /* Item point to itself if not in use */
 294:Middlewares/Third_Party/LwIP/src/apps/mqtt/mqtt.c ****     if (r_objs[n].next == &r_objs[n]) {
 295:Middlewares/Third_Party/LwIP/src/apps/mqtt/mqtt.c ****       r = &r_objs[n];
 296:Middlewares/Third_Party/LwIP/src/apps/mqtt/mqtt.c ****       r->next = NULL;
 297:Middlewares/Third_Party/LwIP/src/apps/mqtt/mqtt.c ****       r->cb = cb;
 298:Middlewares/Third_Party/LwIP/src/apps/mqtt/mqtt.c ****       r->arg = arg;
 299:Middlewares/Third_Party/LwIP/src/apps/mqtt/mqtt.c ****       r->pkt_id = pkt_id;
 300:Middlewares/Third_Party/LwIP/src/apps/mqtt/mqtt.c ****       break;
 301:Middlewares/Third_Party/LwIP/src/apps/mqtt/mqtt.c ****     }
 302:Middlewares/Third_Party/LwIP/src/apps/mqtt/mqtt.c ****   }
 303:Middlewares/Third_Party/LwIP/src/apps/mqtt/mqtt.c ****   return r;
 304:Middlewares/Third_Party/LwIP/src/apps/mqtt/mqtt.c **** }
 305:Middlewares/Third_Party/LwIP/src/apps/mqtt/mqtt.c **** 
 306:Middlewares/Third_Party/LwIP/src/apps/mqtt/mqtt.c **** 
 307:Middlewares/Third_Party/LwIP/src/apps/mqtt/mqtt.c **** /**
 308:Middlewares/Third_Party/LwIP/src/apps/mqtt/mqtt.c ****  * Append request to pending request queue
 309:Middlewares/Third_Party/LwIP/src/apps/mqtt/mqtt.c ****  * @param tail Pointer to request queue tail pointer
 310:Middlewares/Third_Party/LwIP/src/apps/mqtt/mqtt.c ****  * @param r Request to append
 311:Middlewares/Third_Party/LwIP/src/apps/mqtt/mqtt.c ****  */
 312:Middlewares/Third_Party/LwIP/src/apps/mqtt/mqtt.c **** static void
 313:Middlewares/Third_Party/LwIP/src/apps/mqtt/mqtt.c **** mqtt_append_request(struct mqtt_request_t **tail, struct mqtt_request_t *r)
 314:Middlewares/Third_Party/LwIP/src/apps/mqtt/mqtt.c **** {
 315:Middlewares/Third_Party/LwIP/src/apps/mqtt/mqtt.c ****   struct mqtt_request_t *head = NULL;
 316:Middlewares/Third_Party/LwIP/src/apps/mqtt/mqtt.c ****   s16_t time_before = 0;
 317:Middlewares/Third_Party/LwIP/src/apps/mqtt/mqtt.c ****   struct mqtt_request_t *iter;
 318:Middlewares/Third_Party/LwIP/src/apps/mqtt/mqtt.c **** 
 319:Middlewares/Third_Party/LwIP/src/apps/mqtt/mqtt.c ****   LWIP_ASSERT("mqtt_append_request: tail != NULL", tail != NULL);
 320:Middlewares/Third_Party/LwIP/src/apps/mqtt/mqtt.c **** 
 321:Middlewares/Third_Party/LwIP/src/apps/mqtt/mqtt.c ****   /* Iterate trough queue to find head, and count total timeout time */
 322:Middlewares/Third_Party/LwIP/src/apps/mqtt/mqtt.c ****   for (iter = *tail; iter != NULL; iter = iter->next) {
 323:Middlewares/Third_Party/LwIP/src/apps/mqtt/mqtt.c ****     time_before += iter->timeout_diff;
 324:Middlewares/Third_Party/LwIP/src/apps/mqtt/mqtt.c ****     head = iter;
 325:Middlewares/Third_Party/LwIP/src/apps/mqtt/mqtt.c ****   }
 326:Middlewares/Third_Party/LwIP/src/apps/mqtt/mqtt.c **** 
 327:Middlewares/Third_Party/LwIP/src/apps/mqtt/mqtt.c ****   LWIP_ASSERT("mqtt_append_request: time_before <= MQTT_REQ_TIMEOUT", time_before <= MQTT_REQ_TIMEO
 328:Middlewares/Third_Party/LwIP/src/apps/mqtt/mqtt.c ****   r->timeout_diff = MQTT_REQ_TIMEOUT - time_before;
 329:Middlewares/Third_Party/LwIP/src/apps/mqtt/mqtt.c ****   if (head == NULL) {
 330:Middlewares/Third_Party/LwIP/src/apps/mqtt/mqtt.c ****     *tail = r;
 331:Middlewares/Third_Party/LwIP/src/apps/mqtt/mqtt.c ****   } else {
 332:Middlewares/Third_Party/LwIP/src/apps/mqtt/mqtt.c ****     head->next = r;
 333:Middlewares/Third_Party/LwIP/src/apps/mqtt/mqtt.c ****   }
 334:Middlewares/Third_Party/LwIP/src/apps/mqtt/mqtt.c **** }
 335:Middlewares/Third_Party/LwIP/src/apps/mqtt/mqtt.c **** 
 336:Middlewares/Third_Party/LwIP/src/apps/mqtt/mqtt.c **** 
 337:Middlewares/Third_Party/LwIP/src/apps/mqtt/mqtt.c **** /**
 338:Middlewares/Third_Party/LwIP/src/apps/mqtt/mqtt.c ****  * Delete request item
 339:Middlewares/Third_Party/LwIP/src/apps/mqtt/mqtt.c ****  * @param r Request item to delete
 340:Middlewares/Third_Party/LwIP/src/apps/mqtt/mqtt.c ****  */
 341:Middlewares/Third_Party/LwIP/src/apps/mqtt/mqtt.c **** static void
 342:Middlewares/Third_Party/LwIP/src/apps/mqtt/mqtt.c **** mqtt_delete_request(struct mqtt_request_t *r)
 343:Middlewares/Third_Party/LwIP/src/apps/mqtt/mqtt.c **** {
 177              		.loc 1 343 1 is_stmt 1 view -0
 178              		.cfi_startproc
 179              		@ args = 0, pretend = 0, frame = 0
ARM GAS  D:\Dev\msys64\tmp\ccB7TkM7.s 			page 10


 180              		@ frame_needed = 0, uses_anonymous_args = 0
 181              		@ link register save eliminated.
 344:Middlewares/Third_Party/LwIP/src/apps/mqtt/mqtt.c ****   if (r != NULL) {
 182              		.loc 1 344 3 view .LVU40
 183              		.loc 1 344 6 is_stmt 0 view .LVU41
 184 0000 0346     		mov	r3, r0
 185 0002 00B1     		cbz	r0, .L8
 345:Middlewares/Third_Party/LwIP/src/apps/mqtt/mqtt.c ****     r->next = r;
 186              		.loc 1 345 5 is_stmt 1 view .LVU42
 187              		.loc 1 345 13 is_stmt 0 view .LVU43
 188 0004 1860     		str	r0, [r3]
 189              	.L8:
 346:Middlewares/Third_Party/LwIP/src/apps/mqtt/mqtt.c ****   }
 347:Middlewares/Third_Party/LwIP/src/apps/mqtt/mqtt.c **** }
 190              		.loc 1 347 1 view .LVU44
 191 0006 7047     		bx	lr
 192              		.cfi_endproc
 193              	.LFE38:
 195              		.section	.text.mqtt_output_append_u8,"ax",%progbits
 196              		.align	1
 197              		.syntax unified
 198              		.thumb
 199              		.thumb_func
 200              		.fpu fpv5-sp-d16
 202              	mqtt_output_append_u8:
 203              	.LVL11:
 204              	.LFB43:
 348:Middlewares/Third_Party/LwIP/src/apps/mqtt/mqtt.c **** 
 349:Middlewares/Third_Party/LwIP/src/apps/mqtt/mqtt.c **** /**
 350:Middlewares/Third_Party/LwIP/src/apps/mqtt/mqtt.c ****  * Remove a request item with a specific packet identifier from request queue
 351:Middlewares/Third_Party/LwIP/src/apps/mqtt/mqtt.c ****  * @param tail Pointer to request queue tail pointer
 352:Middlewares/Third_Party/LwIP/src/apps/mqtt/mqtt.c ****  * @param pkt_id Packet identifier of request to take
 353:Middlewares/Third_Party/LwIP/src/apps/mqtt/mqtt.c ****  * @return Request item if found, NULL if not
 354:Middlewares/Third_Party/LwIP/src/apps/mqtt/mqtt.c ****  */
 355:Middlewares/Third_Party/LwIP/src/apps/mqtt/mqtt.c **** static struct mqtt_request_t *
 356:Middlewares/Third_Party/LwIP/src/apps/mqtt/mqtt.c **** mqtt_take_request(struct mqtt_request_t **tail, u16_t pkt_id)
 357:Middlewares/Third_Party/LwIP/src/apps/mqtt/mqtt.c **** {
 358:Middlewares/Third_Party/LwIP/src/apps/mqtt/mqtt.c ****   struct mqtt_request_t *iter = NULL, *prev = NULL;
 359:Middlewares/Third_Party/LwIP/src/apps/mqtt/mqtt.c ****   LWIP_ASSERT("mqtt_take_request: tail != NULL", tail != NULL);
 360:Middlewares/Third_Party/LwIP/src/apps/mqtt/mqtt.c ****   /* Search all request for pkt_id */
 361:Middlewares/Third_Party/LwIP/src/apps/mqtt/mqtt.c ****   for (iter = *tail; iter != NULL; iter = iter->next) {
 362:Middlewares/Third_Party/LwIP/src/apps/mqtt/mqtt.c ****     if (iter->pkt_id == pkt_id) {
 363:Middlewares/Third_Party/LwIP/src/apps/mqtt/mqtt.c ****       break;
 364:Middlewares/Third_Party/LwIP/src/apps/mqtt/mqtt.c ****     }
 365:Middlewares/Third_Party/LwIP/src/apps/mqtt/mqtt.c ****     prev = iter;
 366:Middlewares/Third_Party/LwIP/src/apps/mqtt/mqtt.c ****   }
 367:Middlewares/Third_Party/LwIP/src/apps/mqtt/mqtt.c **** 
 368:Middlewares/Third_Party/LwIP/src/apps/mqtt/mqtt.c ****   /* If request was found */
 369:Middlewares/Third_Party/LwIP/src/apps/mqtt/mqtt.c ****   if (iter != NULL) {
 370:Middlewares/Third_Party/LwIP/src/apps/mqtt/mqtt.c ****     /* unchain */
 371:Middlewares/Third_Party/LwIP/src/apps/mqtt/mqtt.c ****     if (prev == NULL) {
 372:Middlewares/Third_Party/LwIP/src/apps/mqtt/mqtt.c ****       *tail = iter->next;
 373:Middlewares/Third_Party/LwIP/src/apps/mqtt/mqtt.c ****     } else {
 374:Middlewares/Third_Party/LwIP/src/apps/mqtt/mqtt.c ****       prev->next = iter->next;
 375:Middlewares/Third_Party/LwIP/src/apps/mqtt/mqtt.c ****     }
 376:Middlewares/Third_Party/LwIP/src/apps/mqtt/mqtt.c ****     /* If exists, add remaining timeout time for the request to next */
 377:Middlewares/Third_Party/LwIP/src/apps/mqtt/mqtt.c ****     if (iter->next != NULL) {
ARM GAS  D:\Dev\msys64\tmp\ccB7TkM7.s 			page 11


 378:Middlewares/Third_Party/LwIP/src/apps/mqtt/mqtt.c ****       iter->next->timeout_diff += iter->timeout_diff;
 379:Middlewares/Third_Party/LwIP/src/apps/mqtt/mqtt.c ****     }
 380:Middlewares/Third_Party/LwIP/src/apps/mqtt/mqtt.c ****     iter->next = NULL;
 381:Middlewares/Third_Party/LwIP/src/apps/mqtt/mqtt.c ****   }
 382:Middlewares/Third_Party/LwIP/src/apps/mqtt/mqtt.c ****   return iter;
 383:Middlewares/Third_Party/LwIP/src/apps/mqtt/mqtt.c **** }
 384:Middlewares/Third_Party/LwIP/src/apps/mqtt/mqtt.c **** 
 385:Middlewares/Third_Party/LwIP/src/apps/mqtt/mqtt.c **** /**
 386:Middlewares/Third_Party/LwIP/src/apps/mqtt/mqtt.c ****  * Handle requests timeout
 387:Middlewares/Third_Party/LwIP/src/apps/mqtt/mqtt.c ****  * @param tail Pointer to request queue tail pointer
 388:Middlewares/Third_Party/LwIP/src/apps/mqtt/mqtt.c ****  * @param t Time since last call in seconds
 389:Middlewares/Third_Party/LwIP/src/apps/mqtt/mqtt.c ****  */
 390:Middlewares/Third_Party/LwIP/src/apps/mqtt/mqtt.c **** static void
 391:Middlewares/Third_Party/LwIP/src/apps/mqtt/mqtt.c **** mqtt_request_time_elapsed(struct mqtt_request_t **tail, u8_t t)
 392:Middlewares/Third_Party/LwIP/src/apps/mqtt/mqtt.c **** {
 393:Middlewares/Third_Party/LwIP/src/apps/mqtt/mqtt.c ****   struct mqtt_request_t *r;
 394:Middlewares/Third_Party/LwIP/src/apps/mqtt/mqtt.c ****   LWIP_ASSERT("mqtt_request_time_elapsed: tail != NULL", tail != NULL);
 395:Middlewares/Third_Party/LwIP/src/apps/mqtt/mqtt.c ****   r = *tail;
 396:Middlewares/Third_Party/LwIP/src/apps/mqtt/mqtt.c ****   while (t > 0 && r != NULL) {
 397:Middlewares/Third_Party/LwIP/src/apps/mqtt/mqtt.c ****     if (t >= r->timeout_diff) {
 398:Middlewares/Third_Party/LwIP/src/apps/mqtt/mqtt.c ****       t -= (u8_t)r->timeout_diff;
 399:Middlewares/Third_Party/LwIP/src/apps/mqtt/mqtt.c ****       /* Unchain */
 400:Middlewares/Third_Party/LwIP/src/apps/mqtt/mqtt.c ****       *tail = r->next;
 401:Middlewares/Third_Party/LwIP/src/apps/mqtt/mqtt.c ****       /* Notify upper layer about timeout */
 402:Middlewares/Third_Party/LwIP/src/apps/mqtt/mqtt.c ****       if (r->cb != NULL) {
 403:Middlewares/Third_Party/LwIP/src/apps/mqtt/mqtt.c ****         r->cb(r->arg, ERR_TIMEOUT);
 404:Middlewares/Third_Party/LwIP/src/apps/mqtt/mqtt.c ****       }
 405:Middlewares/Third_Party/LwIP/src/apps/mqtt/mqtt.c ****       mqtt_delete_request(r);
 406:Middlewares/Third_Party/LwIP/src/apps/mqtt/mqtt.c ****       /* Tail might be be modified in callback, so re-read it in every iteration */
 407:Middlewares/Third_Party/LwIP/src/apps/mqtt/mqtt.c ****       r = *(struct mqtt_request_t *const volatile *)tail;
 408:Middlewares/Third_Party/LwIP/src/apps/mqtt/mqtt.c ****     } else {
 409:Middlewares/Third_Party/LwIP/src/apps/mqtt/mqtt.c ****       r->timeout_diff -= t;
 410:Middlewares/Third_Party/LwIP/src/apps/mqtt/mqtt.c ****       t = 0;
 411:Middlewares/Third_Party/LwIP/src/apps/mqtt/mqtt.c ****     }
 412:Middlewares/Third_Party/LwIP/src/apps/mqtt/mqtt.c ****   }
 413:Middlewares/Third_Party/LwIP/src/apps/mqtt/mqtt.c **** }
 414:Middlewares/Third_Party/LwIP/src/apps/mqtt/mqtt.c **** 
 415:Middlewares/Third_Party/LwIP/src/apps/mqtt/mqtt.c **** /**
 416:Middlewares/Third_Party/LwIP/src/apps/mqtt/mqtt.c ****  * Free all request items
 417:Middlewares/Third_Party/LwIP/src/apps/mqtt/mqtt.c ****  * @param tail Pointer to request queue tail pointer
 418:Middlewares/Third_Party/LwIP/src/apps/mqtt/mqtt.c ****  */
 419:Middlewares/Third_Party/LwIP/src/apps/mqtt/mqtt.c **** static void
 420:Middlewares/Third_Party/LwIP/src/apps/mqtt/mqtt.c **** mqtt_clear_requests(struct mqtt_request_t **tail)
 421:Middlewares/Third_Party/LwIP/src/apps/mqtt/mqtt.c **** {
 422:Middlewares/Third_Party/LwIP/src/apps/mqtt/mqtt.c ****   struct mqtt_request_t *iter, *next;
 423:Middlewares/Third_Party/LwIP/src/apps/mqtt/mqtt.c ****   LWIP_ASSERT("mqtt_clear_requests: tail != NULL", tail != NULL);
 424:Middlewares/Third_Party/LwIP/src/apps/mqtt/mqtt.c ****   for (iter = *tail; iter != NULL; iter = next) {
 425:Middlewares/Third_Party/LwIP/src/apps/mqtt/mqtt.c ****     next = iter->next;
 426:Middlewares/Third_Party/LwIP/src/apps/mqtt/mqtt.c ****     mqtt_delete_request(iter);
 427:Middlewares/Third_Party/LwIP/src/apps/mqtt/mqtt.c ****   }
 428:Middlewares/Third_Party/LwIP/src/apps/mqtt/mqtt.c ****   *tail = NULL;
 429:Middlewares/Third_Party/LwIP/src/apps/mqtt/mqtt.c **** }
 430:Middlewares/Third_Party/LwIP/src/apps/mqtt/mqtt.c **** /**
 431:Middlewares/Third_Party/LwIP/src/apps/mqtt/mqtt.c ****  * Initialize all request items
 432:Middlewares/Third_Party/LwIP/src/apps/mqtt/mqtt.c ****  * @param r_objs Pointer to request objects
 433:Middlewares/Third_Party/LwIP/src/apps/mqtt/mqtt.c ****  * @param r_objs_len Number of array entries
 434:Middlewares/Third_Party/LwIP/src/apps/mqtt/mqtt.c ****  */
ARM GAS  D:\Dev\msys64\tmp\ccB7TkM7.s 			page 12


 435:Middlewares/Third_Party/LwIP/src/apps/mqtt/mqtt.c **** static void
 436:Middlewares/Third_Party/LwIP/src/apps/mqtt/mqtt.c **** mqtt_init_requests(struct mqtt_request_t *r_objs, size_t r_objs_len)
 437:Middlewares/Third_Party/LwIP/src/apps/mqtt/mqtt.c **** {
 438:Middlewares/Third_Party/LwIP/src/apps/mqtt/mqtt.c ****   u8_t n;
 439:Middlewares/Third_Party/LwIP/src/apps/mqtt/mqtt.c ****   LWIP_ASSERT("mqtt_init_requests: r_objs != NULL", r_objs != NULL);
 440:Middlewares/Third_Party/LwIP/src/apps/mqtt/mqtt.c ****   for (n = 0; n < r_objs_len; n++) {
 441:Middlewares/Third_Party/LwIP/src/apps/mqtt/mqtt.c ****     /* Item pointing to itself indicates unused */
 442:Middlewares/Third_Party/LwIP/src/apps/mqtt/mqtt.c ****     r_objs[n].next = &r_objs[n];
 443:Middlewares/Third_Party/LwIP/src/apps/mqtt/mqtt.c ****   }
 444:Middlewares/Third_Party/LwIP/src/apps/mqtt/mqtt.c **** }
 445:Middlewares/Third_Party/LwIP/src/apps/mqtt/mqtt.c **** 
 446:Middlewares/Third_Party/LwIP/src/apps/mqtt/mqtt.c **** /*-------------------------------------------------------------------------------------------------
 447:Middlewares/Third_Party/LwIP/src/apps/mqtt/mqtt.c **** /* Output message build helpers */
 448:Middlewares/Third_Party/LwIP/src/apps/mqtt/mqtt.c **** 
 449:Middlewares/Third_Party/LwIP/src/apps/mqtt/mqtt.c **** 
 450:Middlewares/Third_Party/LwIP/src/apps/mqtt/mqtt.c **** static void
 451:Middlewares/Third_Party/LwIP/src/apps/mqtt/mqtt.c **** mqtt_output_append_u8(struct mqtt_ringbuf_t *rb, u8_t value)
 452:Middlewares/Third_Party/LwIP/src/apps/mqtt/mqtt.c **** {
 205              		.loc 1 452 1 is_stmt 1 view -0
 206              		.cfi_startproc
 207              		@ args = 0, pretend = 0, frame = 0
 208              		@ frame_needed = 0, uses_anonymous_args = 0
 209              		.loc 1 452 1 is_stmt 0 view .LVU46
 210 0000 08B5     		push	{r3, lr}
 211              	.LCFI0:
 212              		.cfi_def_cfa_offset 8
 213              		.cfi_offset 3, -8
 214              		.cfi_offset 14, -4
 453:Middlewares/Third_Party/LwIP/src/apps/mqtt/mqtt.c ****   mqtt_ringbuf_put(rb, value);
 215              		.loc 1 453 3 is_stmt 1 view .LVU47
 216 0002 FFF7FEFF 		bl	mqtt_ringbuf_put
 217              	.LVL12:
 454:Middlewares/Third_Party/LwIP/src/apps/mqtt/mqtt.c **** }
 218              		.loc 1 454 1 is_stmt 0 view .LVU48
 219 0006 08BD     		pop	{r3, pc}
 220              		.cfi_endproc
 221              	.LFE43:
 223              		.section	.text.mqtt_output_append_u16,"ax",%progbits
 224              		.align	1
 225              		.syntax unified
 226              		.thumb
 227              		.thumb_func
 228              		.fpu fpv5-sp-d16
 230              	mqtt_output_append_u16:
 231              	.LVL13:
 232              	.LFB44:
 455:Middlewares/Third_Party/LwIP/src/apps/mqtt/mqtt.c **** 
 456:Middlewares/Third_Party/LwIP/src/apps/mqtt/mqtt.c **** static
 457:Middlewares/Third_Party/LwIP/src/apps/mqtt/mqtt.c **** void mqtt_output_append_u16(struct mqtt_ringbuf_t *rb, u16_t value)
 458:Middlewares/Third_Party/LwIP/src/apps/mqtt/mqtt.c **** {
 233              		.loc 1 458 1 is_stmt 1 view -0
 234              		.cfi_startproc
 235              		@ args = 0, pretend = 0, frame = 0
 236              		@ frame_needed = 0, uses_anonymous_args = 0
 237              		.loc 1 458 1 is_stmt 0 view .LVU50
 238 0000 38B5     		push	{r3, r4, r5, lr}
 239              	.LCFI1:
ARM GAS  D:\Dev\msys64\tmp\ccB7TkM7.s 			page 13


 240              		.cfi_def_cfa_offset 16
 241              		.cfi_offset 3, -16
 242              		.cfi_offset 4, -12
 243              		.cfi_offset 5, -8
 244              		.cfi_offset 14, -4
 245 0002 0546     		mov	r5, r0
 246 0004 0C46     		mov	r4, r1
 459:Middlewares/Third_Party/LwIP/src/apps/mqtt/mqtt.c ****   mqtt_ringbuf_put(rb, value >> 8);
 247              		.loc 1 459 3 is_stmt 1 view .LVU51
 248 0006 090A     		lsrs	r1, r1, #8
 249              	.LVL14:
 250              		.loc 1 459 3 is_stmt 0 view .LVU52
 251 0008 FFF7FEFF 		bl	mqtt_ringbuf_put
 252              	.LVL15:
 460:Middlewares/Third_Party/LwIP/src/apps/mqtt/mqtt.c ****   mqtt_ringbuf_put(rb, value & 0xff);
 253              		.loc 1 460 3 is_stmt 1 view .LVU53
 254 000c E1B2     		uxtb	r1, r4
 255 000e 2846     		mov	r0, r5
 256 0010 FFF7FEFF 		bl	mqtt_ringbuf_put
 257              	.LVL16:
 461:Middlewares/Third_Party/LwIP/src/apps/mqtt/mqtt.c **** }
 258              		.loc 1 461 1 is_stmt 0 view .LVU54
 259 0014 38BD     		pop	{r3, r4, r5, pc}
 260              		.loc 1 461 1 view .LVU55
 261              		.cfi_endproc
 262              	.LFE44:
 264              		.section	.text.mqtt_output_append_buf,"ax",%progbits
 265              		.align	1
 266              		.syntax unified
 267              		.thumb
 268              		.thumb_func
 269              		.fpu fpv5-sp-d16
 271              	mqtt_output_append_buf:
 272              	.LVL17:
 273              	.LFB45:
 462:Middlewares/Third_Party/LwIP/src/apps/mqtt/mqtt.c **** 
 463:Middlewares/Third_Party/LwIP/src/apps/mqtt/mqtt.c **** static void
 464:Middlewares/Third_Party/LwIP/src/apps/mqtt/mqtt.c **** mqtt_output_append_buf(struct mqtt_ringbuf_t *rb, const void *data, u16_t length)
 465:Middlewares/Third_Party/LwIP/src/apps/mqtt/mqtt.c **** {
 274              		.loc 1 465 1 is_stmt 1 view -0
 275              		.cfi_startproc
 276              		@ args = 0, pretend = 0, frame = 0
 277              		@ frame_needed = 0, uses_anonymous_args = 0
 278              		.loc 1 465 1 is_stmt 0 view .LVU57
 279 0000 F8B5     		push	{r3, r4, r5, r6, r7, lr}
 280              	.LCFI2:
 281              		.cfi_def_cfa_offset 24
 282              		.cfi_offset 3, -24
 283              		.cfi_offset 4, -20
 284              		.cfi_offset 5, -16
 285              		.cfi_offset 6, -12
 286              		.cfi_offset 7, -8
 287              		.cfi_offset 14, -4
 288 0002 0746     		mov	r7, r0
 289 0004 0E46     		mov	r6, r1
 290 0006 1546     		mov	r5, r2
 466:Middlewares/Third_Party/LwIP/src/apps/mqtt/mqtt.c ****   u16_t n;
ARM GAS  D:\Dev\msys64\tmp\ccB7TkM7.s 			page 14


 291              		.loc 1 466 3 is_stmt 1 view .LVU58
 467:Middlewares/Third_Party/LwIP/src/apps/mqtt/mqtt.c ****   for (n = 0; n < length; n++) {
 292              		.loc 1 467 3 view .LVU59
 293              	.LVL18:
 294              		.loc 1 467 10 is_stmt 0 view .LVU60
 295 0008 0024     		movs	r4, #0
 296              	.LVL19:
 297              	.L15:
 298              		.loc 1 467 15 is_stmt 1 discriminator 1 view .LVU61
 299              		.loc 1 467 3 is_stmt 0 discriminator 1 view .LVU62
 300 000a AC42     		cmp	r4, r5
 301 000c 06D2     		bcs	.L18
 468:Middlewares/Third_Party/LwIP/src/apps/mqtt/mqtt.c ****     mqtt_ringbuf_put(rb, ((const u8_t *)data)[n]);
 302              		.loc 1 468 5 is_stmt 1 discriminator 3 view .LVU63
 303 000e 315D     		ldrb	r1, [r6, r4]	@ zero_extendqisi2
 304 0010 3846     		mov	r0, r7
 305 0012 FFF7FEFF 		bl	mqtt_ringbuf_put
 306              	.LVL20:
 467:Middlewares/Third_Party/LwIP/src/apps/mqtt/mqtt.c ****   for (n = 0; n < length; n++) {
 307              		.loc 1 467 27 discriminator 3 view .LVU64
 467:Middlewares/Third_Party/LwIP/src/apps/mqtt/mqtt.c ****   for (n = 0; n < length; n++) {
 308              		.loc 1 467 28 is_stmt 0 discriminator 3 view .LVU65
 309 0016 0134     		adds	r4, r4, #1
 310              	.LVL21:
 467:Middlewares/Third_Party/LwIP/src/apps/mqtt/mqtt.c ****   for (n = 0; n < length; n++) {
 311              		.loc 1 467 28 discriminator 3 view .LVU66
 312 0018 A4B2     		uxth	r4, r4
 313              	.LVL22:
 467:Middlewares/Third_Party/LwIP/src/apps/mqtt/mqtt.c ****   for (n = 0; n < length; n++) {
 314              		.loc 1 467 28 discriminator 3 view .LVU67
 315 001a F6E7     		b	.L15
 316              	.L18:
 469:Middlewares/Third_Party/LwIP/src/apps/mqtt/mqtt.c ****   }
 470:Middlewares/Third_Party/LwIP/src/apps/mqtt/mqtt.c **** }
 317              		.loc 1 470 1 view .LVU68
 318 001c F8BD     		pop	{r3, r4, r5, r6, r7, pc}
 319              		.loc 1 470 1 view .LVU69
 320              		.cfi_endproc
 321              	.LFE45:
 323              		.section	.text.mqtt_output_append_string,"ax",%progbits
 324              		.align	1
 325              		.syntax unified
 326              		.thumb
 327              		.thumb_func
 328              		.fpu fpv5-sp-d16
 330              	mqtt_output_append_string:
 331              	.LVL23:
 332              	.LFB46:
 471:Middlewares/Third_Party/LwIP/src/apps/mqtt/mqtt.c **** 
 472:Middlewares/Third_Party/LwIP/src/apps/mqtt/mqtt.c **** static void
 473:Middlewares/Third_Party/LwIP/src/apps/mqtt/mqtt.c **** mqtt_output_append_string(struct mqtt_ringbuf_t *rb, const char *str, u16_t length)
 474:Middlewares/Third_Party/LwIP/src/apps/mqtt/mqtt.c **** {
 333              		.loc 1 474 1 is_stmt 1 view -0
 334              		.cfi_startproc
 335              		@ args = 0, pretend = 0, frame = 0
 336              		@ frame_needed = 0, uses_anonymous_args = 0
 337              		.loc 1 474 1 is_stmt 0 view .LVU71
ARM GAS  D:\Dev\msys64\tmp\ccB7TkM7.s 			page 15


 338 0000 F8B5     		push	{r3, r4, r5, r6, r7, lr}
 339              	.LCFI3:
 340              		.cfi_def_cfa_offset 24
 341              		.cfi_offset 3, -24
 342              		.cfi_offset 4, -20
 343              		.cfi_offset 5, -16
 344              		.cfi_offset 6, -12
 345              		.cfi_offset 7, -8
 346              		.cfi_offset 14, -4
 347 0002 0646     		mov	r6, r0
 348 0004 0F46     		mov	r7, r1
 349 0006 1546     		mov	r5, r2
 475:Middlewares/Third_Party/LwIP/src/apps/mqtt/mqtt.c ****   u16_t n;
 350              		.loc 1 475 3 is_stmt 1 view .LVU72
 476:Middlewares/Third_Party/LwIP/src/apps/mqtt/mqtt.c ****   mqtt_ringbuf_put(rb, length >> 8);
 351              		.loc 1 476 3 view .LVU73
 352 0008 110A     		lsrs	r1, r2, #8
 353              	.LVL24:
 354              		.loc 1 476 3 is_stmt 0 view .LVU74
 355 000a FFF7FEFF 		bl	mqtt_ringbuf_put
 356              	.LVL25:
 477:Middlewares/Third_Party/LwIP/src/apps/mqtt/mqtt.c ****   mqtt_ringbuf_put(rb, length & 0xff);
 357              		.loc 1 477 3 is_stmt 1 view .LVU75
 358 000e E9B2     		uxtb	r1, r5
 359 0010 3046     		mov	r0, r6
 360 0012 FFF7FEFF 		bl	mqtt_ringbuf_put
 361              	.LVL26:
 478:Middlewares/Third_Party/LwIP/src/apps/mqtt/mqtt.c ****   for (n = 0; n < length; n++) {
 362              		.loc 1 478 3 view .LVU76
 363              		.loc 1 478 10 is_stmt 0 view .LVU77
 364 0016 0024     		movs	r4, #0
 365              	.LVL27:
 366              	.L20:
 367              		.loc 1 478 15 is_stmt 1 discriminator 1 view .LVU78
 368              		.loc 1 478 3 is_stmt 0 discriminator 1 view .LVU79
 369 0018 AC42     		cmp	r4, r5
 370 001a 06D2     		bcs	.L23
 479:Middlewares/Third_Party/LwIP/src/apps/mqtt/mqtt.c ****     mqtt_ringbuf_put(rb, str[n]);
 371              		.loc 1 479 5 is_stmt 1 discriminator 3 view .LVU80
 372 001c 395D     		ldrb	r1, [r7, r4]	@ zero_extendqisi2
 373 001e 3046     		mov	r0, r6
 374 0020 FFF7FEFF 		bl	mqtt_ringbuf_put
 375              	.LVL28:
 478:Middlewares/Third_Party/LwIP/src/apps/mqtt/mqtt.c ****   for (n = 0; n < length; n++) {
 376              		.loc 1 478 27 discriminator 3 view .LVU81
 478:Middlewares/Third_Party/LwIP/src/apps/mqtt/mqtt.c ****   for (n = 0; n < length; n++) {
 377              		.loc 1 478 28 is_stmt 0 discriminator 3 view .LVU82
 378 0024 0134     		adds	r4, r4, #1
 379              	.LVL29:
 478:Middlewares/Third_Party/LwIP/src/apps/mqtt/mqtt.c ****   for (n = 0; n < length; n++) {
 380              		.loc 1 478 28 discriminator 3 view .LVU83
 381 0026 A4B2     		uxth	r4, r4
 382              	.LVL30:
 478:Middlewares/Third_Party/LwIP/src/apps/mqtt/mqtt.c ****   for (n = 0; n < length; n++) {
 383              		.loc 1 478 28 discriminator 3 view .LVU84
 384 0028 F6E7     		b	.L20
 385              	.L23:
ARM GAS  D:\Dev\msys64\tmp\ccB7TkM7.s 			page 16


 480:Middlewares/Third_Party/LwIP/src/apps/mqtt/mqtt.c ****   }
 481:Middlewares/Third_Party/LwIP/src/apps/mqtt/mqtt.c **** }
 386              		.loc 1 481 1 view .LVU85
 387 002a F8BD     		pop	{r3, r4, r5, r6, r7, pc}
 388              		.loc 1 481 1 view .LVU86
 389              		.cfi_endproc
 390              	.LFE46:
 392              		.section	.text.mqtt_output_append_fixed_header,"ax",%progbits
 393              		.align	1
 394              		.syntax unified
 395              		.thumb
 396              		.thumb_func
 397              		.fpu fpv5-sp-d16
 399              	mqtt_output_append_fixed_header:
 400              	.LVL31:
 401              	.LFB47:
 482:Middlewares/Third_Party/LwIP/src/apps/mqtt/mqtt.c **** 
 483:Middlewares/Third_Party/LwIP/src/apps/mqtt/mqtt.c **** /**
 484:Middlewares/Third_Party/LwIP/src/apps/mqtt/mqtt.c ****  * Append fixed header
 485:Middlewares/Third_Party/LwIP/src/apps/mqtt/mqtt.c ****  * @param rb Output ring buffer
 486:Middlewares/Third_Party/LwIP/src/apps/mqtt/mqtt.c ****  * @param msg_type see enum mqtt_message_type
 487:Middlewares/Third_Party/LwIP/src/apps/mqtt/mqtt.c ****  * @param fdup MQTT DUP flag
 488:Middlewares/Third_Party/LwIP/src/apps/mqtt/mqtt.c ****  * @param fqos MQTT QoS field
 489:Middlewares/Third_Party/LwIP/src/apps/mqtt/mqtt.c ****  * @param fretain MQTT retain flag
 490:Middlewares/Third_Party/LwIP/src/apps/mqtt/mqtt.c ****  * @param r_length Remaining length after fixed header
 491:Middlewares/Third_Party/LwIP/src/apps/mqtt/mqtt.c ****  */
 492:Middlewares/Third_Party/LwIP/src/apps/mqtt/mqtt.c **** 
 493:Middlewares/Third_Party/LwIP/src/apps/mqtt/mqtt.c **** static void
 494:Middlewares/Third_Party/LwIP/src/apps/mqtt/mqtt.c **** mqtt_output_append_fixed_header(struct mqtt_ringbuf_t *rb, u8_t msg_type, u8_t fdup,
 495:Middlewares/Third_Party/LwIP/src/apps/mqtt/mqtt.c ****                                 u8_t fqos, u8_t fretain, u16_t r_length)
 496:Middlewares/Third_Party/LwIP/src/apps/mqtt/mqtt.c **** {
 402              		.loc 1 496 1 is_stmt 1 view -0
 403              		.cfi_startproc
 404              		@ args = 8, pretend = 0, frame = 0
 405              		@ frame_needed = 0, uses_anonymous_args = 0
 406              		.loc 1 496 1 is_stmt 0 view .LVU88
 407 0000 38B5     		push	{r3, r4, r5, lr}
 408              	.LCFI4:
 409              		.cfi_def_cfa_offset 16
 410              		.cfi_offset 3, -16
 411              		.cfi_offset 4, -12
 412              		.cfi_offset 5, -8
 413              		.cfi_offset 14, -4
 414 0002 0546     		mov	r5, r0
 415 0004 BDF81440 		ldrh	r4, [sp, #20]
 497:Middlewares/Third_Party/LwIP/src/apps/mqtt/mqtt.c ****   /* Start with control byte */
 498:Middlewares/Third_Party/LwIP/src/apps/mqtt/mqtt.c ****   mqtt_output_append_u8(rb, (((msg_type & 0x0f) << 4) | ((fdup & 1) << 3) | ((fqos & 3) << 1) | (fr
 416              		.loc 1 498 3 is_stmt 1 view .LVU89
 417              		.loc 1 498 69 is_stmt 0 view .LVU90
 418 0008 D200     		lsls	r2, r2, #3
 419              	.LVL32:
 420              		.loc 1 498 69 view .LVU91
 421 000a 02F00802 		and	r2, r2, #8
 422              		.loc 1 498 55 view .LVU92
 423 000e 42EA0112 		orr	r2, r2, r1, lsl #4
 424 0012 52B2     		sxtb	r2, r2
 425              		.loc 1 498 89 view .LVU93
ARM GAS  D:\Dev\msys64\tmp\ccB7TkM7.s 			page 17


 426 0014 5900     		lsls	r1, r3, #1
 427              	.LVL33:
 428              		.loc 1 498 89 view .LVU94
 429 0016 01F00601 		and	r1, r1, #6
 430              		.loc 1 498 75 view .LVU95
 431 001a 0A43     		orrs	r2, r2, r1
 432              		.loc 1 498 106 view .LVU96
 433 001c 9DF81010 		ldrb	r1, [sp, #16]	@ zero_extendqisi2
 434 0020 01F00101 		and	r1, r1, #1
 435              		.loc 1 498 95 view .LVU97
 436 0024 1143     		orrs	r1, r1, r2
 437              		.loc 1 498 3 view .LVU98
 438 0026 C9B2     		uxtb	r1, r1
 439 0028 FFF7FEFF 		bl	mqtt_output_append_u8
 440              	.LVL34:
 441              		.loc 1 498 3 view .LVU99
 442 002c 07E0     		b	.L26
 443              	.LVL35:
 444              	.L27:
 499:Middlewares/Third_Party/LwIP/src/apps/mqtt/mqtt.c ****   /* Encode remaining length field */
 500:Middlewares/Third_Party/LwIP/src/apps/mqtt/mqtt.c ****   do {
 501:Middlewares/Third_Party/LwIP/src/apps/mqtt/mqtt.c ****     mqtt_output_append_u8(rb, (r_length & 0x7f) | (r_length >= 128 ? 0x80 : 0));
 445              		.loc 1 501 49 view .LVU100
 446 002e 0023     		movs	r3, #0
 447              	.L25:
 448              		.loc 1 501 49 discriminator 4 view .LVU101
 449 0030 1943     		orrs	r1, r1, r3
 450              		.loc 1 501 5 discriminator 4 view .LVU102
 451 0032 C9B2     		uxtb	r1, r1
 452 0034 2846     		mov	r0, r5
 453 0036 FFF7FEFF 		bl	mqtt_output_append_u8
 454              	.LVL36:
 502:Middlewares/Third_Party/LwIP/src/apps/mqtt/mqtt.c ****     r_length >>= 7;
 455              		.loc 1 502 5 is_stmt 1 discriminator 4 view .LVU103
 503:Middlewares/Third_Party/LwIP/src/apps/mqtt/mqtt.c ****   } while (r_length > 0);
 456              		.loc 1 503 11 discriminator 4 view .LVU104
 457              		.loc 1 503 3 is_stmt 0 discriminator 4 view .LVU105
 458 003a E409     		lsrs	r4, r4, #7
 459              	.LVL37:
 460              		.loc 1 503 3 discriminator 4 view .LVU106
 461 003c 06D0     		beq	.L29
 462              	.L26:
 463              	.LVL38:
 500:Middlewares/Third_Party/LwIP/src/apps/mqtt/mqtt.c ****     mqtt_output_append_u8(rb, (r_length & 0x7f) | (r_length >= 128 ? 0x80 : 0));
 464              		.loc 1 500 3 is_stmt 1 view .LVU107
 501:Middlewares/Third_Party/LwIP/src/apps/mqtt/mqtt.c ****     r_length >>= 7;
 465              		.loc 1 501 5 view .LVU108
 501:Middlewares/Third_Party/LwIP/src/apps/mqtt/mqtt.c ****     r_length >>= 7;
 466              		.loc 1 501 41 is_stmt 0 view .LVU109
 467 003e 04F07F01 		and	r1, r4, #127
 501:Middlewares/Third_Party/LwIP/src/apps/mqtt/mqtt.c ****     r_length >>= 7;
 468              		.loc 1 501 49 view .LVU110
 469 0042 7F2C     		cmp	r4, #127
 470 0044 F3D9     		bls	.L27
 471 0046 6FF07F03 		mvn	r3, #127
 472 004a F1E7     		b	.L25
 473              	.LVL39:
ARM GAS  D:\Dev\msys64\tmp\ccB7TkM7.s 			page 18


 474              	.L29:
 504:Middlewares/Third_Party/LwIP/src/apps/mqtt/mqtt.c **** }
 475              		.loc 1 504 1 view .LVU111
 476 004c 38BD     		pop	{r3, r4, r5, pc}
 477              		.loc 1 504 1 view .LVU112
 478              		.cfi_endproc
 479              	.LFE47:
 481              		.section	.text.mqtt_incomming_suback,"ax",%progbits
 482              		.align	1
 483              		.syntax unified
 484              		.thumb
 485              		.thumb_func
 486              		.fpu fpv5-sp-d16
 488              	mqtt_incomming_suback:
 489              	.LVL40:
 490              	.LFB52:
 505:Middlewares/Third_Party/LwIP/src/apps/mqtt/mqtt.c **** 
 506:Middlewares/Third_Party/LwIP/src/apps/mqtt/mqtt.c **** 
 507:Middlewares/Third_Party/LwIP/src/apps/mqtt/mqtt.c **** /**
 508:Middlewares/Third_Party/LwIP/src/apps/mqtt/mqtt.c ****  * Check output buffer space
 509:Middlewares/Third_Party/LwIP/src/apps/mqtt/mqtt.c ****  * @param rb Output ring buffer
 510:Middlewares/Third_Party/LwIP/src/apps/mqtt/mqtt.c ****  * @param r_length Remaining length after fixed header
 511:Middlewares/Third_Party/LwIP/src/apps/mqtt/mqtt.c ****  * @return 1 if message will fit, 0 if not enough buffer space
 512:Middlewares/Third_Party/LwIP/src/apps/mqtt/mqtt.c ****  */
 513:Middlewares/Third_Party/LwIP/src/apps/mqtt/mqtt.c **** static u8_t
 514:Middlewares/Third_Party/LwIP/src/apps/mqtt/mqtt.c **** mqtt_output_check_space(struct mqtt_ringbuf_t *rb, u16_t r_length)
 515:Middlewares/Third_Party/LwIP/src/apps/mqtt/mqtt.c **** {
 516:Middlewares/Third_Party/LwIP/src/apps/mqtt/mqtt.c ****   /* Start with length of type byte + remaining length */
 517:Middlewares/Third_Party/LwIP/src/apps/mqtt/mqtt.c ****   u16_t total_len = 1 + r_length;
 518:Middlewares/Third_Party/LwIP/src/apps/mqtt/mqtt.c **** 
 519:Middlewares/Third_Party/LwIP/src/apps/mqtt/mqtt.c ****   LWIP_ASSERT("mqtt_output_check_space: rb != NULL", rb != NULL);
 520:Middlewares/Third_Party/LwIP/src/apps/mqtt/mqtt.c **** 
 521:Middlewares/Third_Party/LwIP/src/apps/mqtt/mqtt.c ****   /* Calculate number of required bytes to contain the remaining bytes field and add to total*/
 522:Middlewares/Third_Party/LwIP/src/apps/mqtt/mqtt.c ****   do {
 523:Middlewares/Third_Party/LwIP/src/apps/mqtt/mqtt.c ****     total_len++;
 524:Middlewares/Third_Party/LwIP/src/apps/mqtt/mqtt.c ****     r_length >>= 7;
 525:Middlewares/Third_Party/LwIP/src/apps/mqtt/mqtt.c ****   } while (r_length > 0);
 526:Middlewares/Third_Party/LwIP/src/apps/mqtt/mqtt.c **** 
 527:Middlewares/Third_Party/LwIP/src/apps/mqtt/mqtt.c ****   return (total_len <= mqtt_ringbuf_free(rb));
 528:Middlewares/Third_Party/LwIP/src/apps/mqtt/mqtt.c **** }
 529:Middlewares/Third_Party/LwIP/src/apps/mqtt/mqtt.c **** 
 530:Middlewares/Third_Party/LwIP/src/apps/mqtt/mqtt.c **** 
 531:Middlewares/Third_Party/LwIP/src/apps/mqtt/mqtt.c **** /**
 532:Middlewares/Third_Party/LwIP/src/apps/mqtt/mqtt.c ****  * Close connection to server
 533:Middlewares/Third_Party/LwIP/src/apps/mqtt/mqtt.c ****  * @param client MQTT client
 534:Middlewares/Third_Party/LwIP/src/apps/mqtt/mqtt.c ****  * @param reason Reason for disconnection
 535:Middlewares/Third_Party/LwIP/src/apps/mqtt/mqtt.c ****  */
 536:Middlewares/Third_Party/LwIP/src/apps/mqtt/mqtt.c **** static void
 537:Middlewares/Third_Party/LwIP/src/apps/mqtt/mqtt.c **** mqtt_close(mqtt_client_t *client, mqtt_connection_status_t reason)
 538:Middlewares/Third_Party/LwIP/src/apps/mqtt/mqtt.c **** {
 539:Middlewares/Third_Party/LwIP/src/apps/mqtt/mqtt.c ****   LWIP_ASSERT("mqtt_close: client != NULL", client != NULL);
 540:Middlewares/Third_Party/LwIP/src/apps/mqtt/mqtt.c **** 
 541:Middlewares/Third_Party/LwIP/src/apps/mqtt/mqtt.c ****   /* Bring down TCP connection if not already done */
 542:Middlewares/Third_Party/LwIP/src/apps/mqtt/mqtt.c ****   if (client->conn != NULL) {
 543:Middlewares/Third_Party/LwIP/src/apps/mqtt/mqtt.c ****     err_t res;
 544:Middlewares/Third_Party/LwIP/src/apps/mqtt/mqtt.c ****     altcp_recv(client->conn, NULL);
 545:Middlewares/Third_Party/LwIP/src/apps/mqtt/mqtt.c ****     altcp_err(client->conn,  NULL);
ARM GAS  D:\Dev\msys64\tmp\ccB7TkM7.s 			page 19


 546:Middlewares/Third_Party/LwIP/src/apps/mqtt/mqtt.c ****     altcp_sent(client->conn, NULL);
 547:Middlewares/Third_Party/LwIP/src/apps/mqtt/mqtt.c ****     res = altcp_close(client->conn);
 548:Middlewares/Third_Party/LwIP/src/apps/mqtt/mqtt.c ****     if (res != ERR_OK) {
 549:Middlewares/Third_Party/LwIP/src/apps/mqtt/mqtt.c ****       altcp_abort(client->conn);
 550:Middlewares/Third_Party/LwIP/src/apps/mqtt/mqtt.c ****       LWIP_DEBUGF(MQTT_DEBUG_TRACE, ("mqtt_close: Close err=%s\n", lwip_strerr(res)));
 551:Middlewares/Third_Party/LwIP/src/apps/mqtt/mqtt.c ****     }
 552:Middlewares/Third_Party/LwIP/src/apps/mqtt/mqtt.c ****     client->conn = NULL;
 553:Middlewares/Third_Party/LwIP/src/apps/mqtt/mqtt.c ****   }
 554:Middlewares/Third_Party/LwIP/src/apps/mqtt/mqtt.c **** 
 555:Middlewares/Third_Party/LwIP/src/apps/mqtt/mqtt.c ****   /* Remove all pending requests */
 556:Middlewares/Third_Party/LwIP/src/apps/mqtt/mqtt.c ****   mqtt_clear_requests(&client->pend_req_queue);
 557:Middlewares/Third_Party/LwIP/src/apps/mqtt/mqtt.c ****   /* Stop cyclic timer */
 558:Middlewares/Third_Party/LwIP/src/apps/mqtt/mqtt.c ****   sys_untimeout(mqtt_cyclic_timer, client);
 559:Middlewares/Third_Party/LwIP/src/apps/mqtt/mqtt.c **** 
 560:Middlewares/Third_Party/LwIP/src/apps/mqtt/mqtt.c ****   /* Notify upper layer of disconnection if changed state */
 561:Middlewares/Third_Party/LwIP/src/apps/mqtt/mqtt.c ****   if (client->conn_state != TCP_DISCONNECTED) {
 562:Middlewares/Third_Party/LwIP/src/apps/mqtt/mqtt.c **** 
 563:Middlewares/Third_Party/LwIP/src/apps/mqtt/mqtt.c ****     client->conn_state = TCP_DISCONNECTED;
 564:Middlewares/Third_Party/LwIP/src/apps/mqtt/mqtt.c ****     if (client->connect_cb != NULL) {
 565:Middlewares/Third_Party/LwIP/src/apps/mqtt/mqtt.c ****       client->connect_cb(client, client->connect_arg, reason);
 566:Middlewares/Third_Party/LwIP/src/apps/mqtt/mqtt.c ****     }
 567:Middlewares/Third_Party/LwIP/src/apps/mqtt/mqtt.c ****   }
 568:Middlewares/Third_Party/LwIP/src/apps/mqtt/mqtt.c **** }
 569:Middlewares/Third_Party/LwIP/src/apps/mqtt/mqtt.c **** 
 570:Middlewares/Third_Party/LwIP/src/apps/mqtt/mqtt.c **** 
 571:Middlewares/Third_Party/LwIP/src/apps/mqtt/mqtt.c **** /**
 572:Middlewares/Third_Party/LwIP/src/apps/mqtt/mqtt.c ****  * Interval timer, called every MQTT_CYCLIC_TIMER_INTERVAL seconds in MQTT_CONNECTING and MQTT_CONN
 573:Middlewares/Third_Party/LwIP/src/apps/mqtt/mqtt.c ****  * @param arg MQTT client
 574:Middlewares/Third_Party/LwIP/src/apps/mqtt/mqtt.c ****  */
 575:Middlewares/Third_Party/LwIP/src/apps/mqtt/mqtt.c **** static void
 576:Middlewares/Third_Party/LwIP/src/apps/mqtt/mqtt.c **** mqtt_cyclic_timer(void *arg)
 577:Middlewares/Third_Party/LwIP/src/apps/mqtt/mqtt.c **** {
 578:Middlewares/Third_Party/LwIP/src/apps/mqtt/mqtt.c ****   u8_t restart_timer = 1;
 579:Middlewares/Third_Party/LwIP/src/apps/mqtt/mqtt.c ****   mqtt_client_t *client = (mqtt_client_t *)arg;
 580:Middlewares/Third_Party/LwIP/src/apps/mqtt/mqtt.c ****   LWIP_ASSERT("mqtt_cyclic_timer: client != NULL", client != NULL);
 581:Middlewares/Third_Party/LwIP/src/apps/mqtt/mqtt.c **** 
 582:Middlewares/Third_Party/LwIP/src/apps/mqtt/mqtt.c ****   if (client->conn_state == MQTT_CONNECTING) {
 583:Middlewares/Third_Party/LwIP/src/apps/mqtt/mqtt.c ****     client->cyclic_tick++;
 584:Middlewares/Third_Party/LwIP/src/apps/mqtt/mqtt.c ****     if ((client->cyclic_tick * MQTT_CYCLIC_TIMER_INTERVAL) >= MQTT_CONNECT_TIMOUT) {
 585:Middlewares/Third_Party/LwIP/src/apps/mqtt/mqtt.c ****       LWIP_DEBUGF(MQTT_DEBUG_TRACE, ("mqtt_cyclic_timer: CONNECT attempt to server timed out\n"));
 586:Middlewares/Third_Party/LwIP/src/apps/mqtt/mqtt.c ****       /* Disconnect TCP */
 587:Middlewares/Third_Party/LwIP/src/apps/mqtt/mqtt.c ****       mqtt_close(client, MQTT_CONNECT_TIMEOUT);
 588:Middlewares/Third_Party/LwIP/src/apps/mqtt/mqtt.c ****       restart_timer = 0;
 589:Middlewares/Third_Party/LwIP/src/apps/mqtt/mqtt.c ****     }
 590:Middlewares/Third_Party/LwIP/src/apps/mqtt/mqtt.c ****   } else if (client->conn_state == MQTT_CONNECTED) {
 591:Middlewares/Third_Party/LwIP/src/apps/mqtt/mqtt.c ****     /* Handle timeout for pending requests */
 592:Middlewares/Third_Party/LwIP/src/apps/mqtt/mqtt.c ****     mqtt_request_time_elapsed(&client->pend_req_queue, MQTT_CYCLIC_TIMER_INTERVAL);
 593:Middlewares/Third_Party/LwIP/src/apps/mqtt/mqtt.c **** 
 594:Middlewares/Third_Party/LwIP/src/apps/mqtt/mqtt.c ****     /* keep_alive > 0 means keep alive functionality shall be used */
 595:Middlewares/Third_Party/LwIP/src/apps/mqtt/mqtt.c ****     if (client->keep_alive > 0) {
 596:Middlewares/Third_Party/LwIP/src/apps/mqtt/mqtt.c **** 
 597:Middlewares/Third_Party/LwIP/src/apps/mqtt/mqtt.c ****       client->server_watchdog++;
 598:Middlewares/Third_Party/LwIP/src/apps/mqtt/mqtt.c ****       /* If reception from server has been idle for 1.5*keep_alive time, server is considered unres
 599:Middlewares/Third_Party/LwIP/src/apps/mqtt/mqtt.c ****       if ((client->server_watchdog * MQTT_CYCLIC_TIMER_INTERVAL) > (client->keep_alive + client->ke
 600:Middlewares/Third_Party/LwIP/src/apps/mqtt/mqtt.c ****         LWIP_DEBUGF(MQTT_DEBUG_WARN, ("mqtt_cyclic_timer: Server incoming keep-alive timeout\n"));
 601:Middlewares/Third_Party/LwIP/src/apps/mqtt/mqtt.c ****         mqtt_close(client, MQTT_CONNECT_TIMEOUT);
 602:Middlewares/Third_Party/LwIP/src/apps/mqtt/mqtt.c ****         restart_timer = 0;
ARM GAS  D:\Dev\msys64\tmp\ccB7TkM7.s 			page 20


 603:Middlewares/Third_Party/LwIP/src/apps/mqtt/mqtt.c ****       }
 604:Middlewares/Third_Party/LwIP/src/apps/mqtt/mqtt.c **** 
 605:Middlewares/Third_Party/LwIP/src/apps/mqtt/mqtt.c ****       /* If time for a keep alive message to be sent, transmission has been idle for keep_alive tim
 606:Middlewares/Third_Party/LwIP/src/apps/mqtt/mqtt.c ****       if ((client->cyclic_tick * MQTT_CYCLIC_TIMER_INTERVAL) >= client->keep_alive) {
 607:Middlewares/Third_Party/LwIP/src/apps/mqtt/mqtt.c ****         LWIP_DEBUGF(MQTT_DEBUG_TRACE, ("mqtt_cyclic_timer: Sending keep-alive message to server\n")
 608:Middlewares/Third_Party/LwIP/src/apps/mqtt/mqtt.c ****         if (mqtt_output_check_space(&client->output, 0) != 0) {
 609:Middlewares/Third_Party/LwIP/src/apps/mqtt/mqtt.c ****           mqtt_output_append_fixed_header(&client->output, MQTT_MSG_TYPE_PINGREQ, 0, 0, 0, 0);
 610:Middlewares/Third_Party/LwIP/src/apps/mqtt/mqtt.c ****           client->cyclic_tick = 0;
 611:Middlewares/Third_Party/LwIP/src/apps/mqtt/mqtt.c ****         }
 612:Middlewares/Third_Party/LwIP/src/apps/mqtt/mqtt.c ****       } else {
 613:Middlewares/Third_Party/LwIP/src/apps/mqtt/mqtt.c ****         client->cyclic_tick++;
 614:Middlewares/Third_Party/LwIP/src/apps/mqtt/mqtt.c ****       }
 615:Middlewares/Third_Party/LwIP/src/apps/mqtt/mqtt.c ****     }
 616:Middlewares/Third_Party/LwIP/src/apps/mqtt/mqtt.c ****   } else {
 617:Middlewares/Third_Party/LwIP/src/apps/mqtt/mqtt.c ****     LWIP_DEBUGF(MQTT_DEBUG_WARN, ("mqtt_cyclic_timer: Timer should not be running in state %d\n", c
 618:Middlewares/Third_Party/LwIP/src/apps/mqtt/mqtt.c ****     restart_timer = 0;
 619:Middlewares/Third_Party/LwIP/src/apps/mqtt/mqtt.c ****   }
 620:Middlewares/Third_Party/LwIP/src/apps/mqtt/mqtt.c ****   if (restart_timer) {
 621:Middlewares/Third_Party/LwIP/src/apps/mqtt/mqtt.c ****     sys_timeout(MQTT_CYCLIC_TIMER_INTERVAL * 1000, mqtt_cyclic_timer, arg);
 622:Middlewares/Third_Party/LwIP/src/apps/mqtt/mqtt.c ****   }
 623:Middlewares/Third_Party/LwIP/src/apps/mqtt/mqtt.c **** }
 624:Middlewares/Third_Party/LwIP/src/apps/mqtt/mqtt.c **** 
 625:Middlewares/Third_Party/LwIP/src/apps/mqtt/mqtt.c **** 
 626:Middlewares/Third_Party/LwIP/src/apps/mqtt/mqtt.c **** /**
 627:Middlewares/Third_Party/LwIP/src/apps/mqtt/mqtt.c ****  * Send PUBACK, PUBREC or PUBREL response message
 628:Middlewares/Third_Party/LwIP/src/apps/mqtt/mqtt.c ****  * @param client MQTT client
 629:Middlewares/Third_Party/LwIP/src/apps/mqtt/mqtt.c ****  * @param msg PUBACK, PUBREC or PUBREL
 630:Middlewares/Third_Party/LwIP/src/apps/mqtt/mqtt.c ****  * @param pkt_id Packet identifier
 631:Middlewares/Third_Party/LwIP/src/apps/mqtt/mqtt.c ****  * @param qos QoS value
 632:Middlewares/Third_Party/LwIP/src/apps/mqtt/mqtt.c ****  * @return ERR_OK if successful, ERR_MEM if out of memory
 633:Middlewares/Third_Party/LwIP/src/apps/mqtt/mqtt.c ****  */
 634:Middlewares/Third_Party/LwIP/src/apps/mqtt/mqtt.c **** static err_t
 635:Middlewares/Third_Party/LwIP/src/apps/mqtt/mqtt.c **** pub_ack_rec_rel_response(mqtt_client_t *client, u8_t msg, u16_t pkt_id, u8_t qos)
 636:Middlewares/Third_Party/LwIP/src/apps/mqtt/mqtt.c **** {
 637:Middlewares/Third_Party/LwIP/src/apps/mqtt/mqtt.c ****   err_t err = ERR_OK;
 638:Middlewares/Third_Party/LwIP/src/apps/mqtt/mqtt.c ****   if (mqtt_output_check_space(&client->output, 2)) {
 639:Middlewares/Third_Party/LwIP/src/apps/mqtt/mqtt.c ****     mqtt_output_append_fixed_header(&client->output, msg, 0, qos, 0, 2);
 640:Middlewares/Third_Party/LwIP/src/apps/mqtt/mqtt.c ****     mqtt_output_append_u16(&client->output, pkt_id);
 641:Middlewares/Third_Party/LwIP/src/apps/mqtt/mqtt.c ****     mqtt_output_send(&client->output, client->conn);
 642:Middlewares/Third_Party/LwIP/src/apps/mqtt/mqtt.c ****   } else {
 643:Middlewares/Third_Party/LwIP/src/apps/mqtt/mqtt.c ****     LWIP_DEBUGF(MQTT_DEBUG_TRACE, ("pub_ack_rec_rel_response: OOM creating response: %s with pkt_id
 644:Middlewares/Third_Party/LwIP/src/apps/mqtt/mqtt.c ****                                    mqtt_msg_type_to_str(msg), pkt_id));
 645:Middlewares/Third_Party/LwIP/src/apps/mqtt/mqtt.c ****     err = ERR_MEM;
 646:Middlewares/Third_Party/LwIP/src/apps/mqtt/mqtt.c ****   }
 647:Middlewares/Third_Party/LwIP/src/apps/mqtt/mqtt.c ****   return err;
 648:Middlewares/Third_Party/LwIP/src/apps/mqtt/mqtt.c **** }
 649:Middlewares/Third_Party/LwIP/src/apps/mqtt/mqtt.c **** 
 650:Middlewares/Third_Party/LwIP/src/apps/mqtt/mqtt.c **** /**
 651:Middlewares/Third_Party/LwIP/src/apps/mqtt/mqtt.c ****  * Subscribe response from server
 652:Middlewares/Third_Party/LwIP/src/apps/mqtt/mqtt.c ****  * @param r Matching request
 653:Middlewares/Third_Party/LwIP/src/apps/mqtt/mqtt.c ****  * @param result Result code from server
 654:Middlewares/Third_Party/LwIP/src/apps/mqtt/mqtt.c ****  */
 655:Middlewares/Third_Party/LwIP/src/apps/mqtt/mqtt.c **** static void
 656:Middlewares/Third_Party/LwIP/src/apps/mqtt/mqtt.c **** mqtt_incomming_suback(struct mqtt_request_t *r, u8_t result)
 657:Middlewares/Third_Party/LwIP/src/apps/mqtt/mqtt.c **** {
 491              		.loc 1 657 1 is_stmt 1 view -0
 492              		.cfi_startproc
ARM GAS  D:\Dev\msys64\tmp\ccB7TkM7.s 			page 21


 493              		@ args = 0, pretend = 0, frame = 0
 494              		@ frame_needed = 0, uses_anonymous_args = 0
 495              		.loc 1 657 1 is_stmt 0 view .LVU114
 496 0000 08B5     		push	{r3, lr}
 497              	.LCFI5:
 498              		.cfi_def_cfa_offset 8
 499              		.cfi_offset 3, -8
 500              		.cfi_offset 14, -4
 658:Middlewares/Third_Party/LwIP/src/apps/mqtt/mqtt.c ****   if (r->cb != NULL) {
 501              		.loc 1 658 3 is_stmt 1 view .LVU115
 502              		.loc 1 658 8 is_stmt 0 view .LVU116
 503 0002 4368     		ldr	r3, [r0, #4]
 504              		.loc 1 658 6 view .LVU117
 505 0004 23B1     		cbz	r3, .L30
 659:Middlewares/Third_Party/LwIP/src/apps/mqtt/mqtt.c ****     r->cb(r->arg, result < 3 ? ERR_OK : ERR_ABRT);
 506              		.loc 1 659 5 is_stmt 1 view .LVU118
 507 0006 8068     		ldr	r0, [r0, #8]
 508              	.LVL41:
 509              		.loc 1 659 5 is_stmt 0 view .LVU119
 510 0008 0229     		cmp	r1, #2
 511 000a 02D8     		bhi	.L33
 512 000c 0021     		movs	r1, #0
 513              	.LVL42:
 514              	.L32:
 515              		.loc 1 659 5 discriminator 4 view .LVU120
 516 000e 9847     		blx	r3
 517              	.LVL43:
 518              	.L30:
 660:Middlewares/Third_Party/LwIP/src/apps/mqtt/mqtt.c ****   }
 661:Middlewares/Third_Party/LwIP/src/apps/mqtt/mqtt.c **** }
 519              		.loc 1 661 1 view .LVU121
 520 0010 08BD     		pop	{r3, pc}
 521              	.LVL44:
 522              	.L33:
 659:Middlewares/Third_Party/LwIP/src/apps/mqtt/mqtt.c ****     r->cb(r->arg, result < 3 ? ERR_OK : ERR_ABRT);
 523              		.loc 1 659 5 view .LVU122
 524 0012 6FF00C01 		mvn	r1, #12
 525              	.LVL45:
 659:Middlewares/Third_Party/LwIP/src/apps/mqtt/mqtt.c ****     r->cb(r->arg, result < 3 ? ERR_OK : ERR_ABRT);
 526              		.loc 1 659 5 view .LVU123
 527 0016 FAE7     		b	.L32
 528              		.cfi_endproc
 529              	.LFE52:
 531              		.section	.rodata.mqtt_create_request.str1.4,"aMS",%progbits,1
 532              		.align	2
 533              	.LC0:
 534 0000 4D696464 		.ascii	"Middlewares/Third_Party/LwIP/src/apps/mqtt/mqtt.c\000"
 534      6C657761 
 534      7265732F 
 534      54686972 
 534      645F5061 
 535 0032 0000     		.align	2
 536              	.LC1:
 537 0034 6D717474 		.ascii	"mqtt_create_request: r_objs != NULL\000"
 537      5F637265 
 537      6174655F 
 537      72657175 
ARM GAS  D:\Dev\msys64\tmp\ccB7TkM7.s 			page 22


 537      6573743A 
 538              		.align	2
 539              	.LC2:
 540 0058 41737365 		.ascii	"Assertion \"%s\" failed at line %d in %s\012\000"
 540      7274696F 
 540      6E202225 
 540      73222066 
 540      61696C65 
 541              		.section	.text.mqtt_create_request,"ax",%progbits
 542              		.align	1
 543              		.syntax unified
 544              		.thumb
 545              		.thumb_func
 546              		.fpu fpv5-sp-d16
 548              	mqtt_create_request:
 549              	.LVL46:
 550              	.LFB36:
 288:Middlewares/Third_Party/LwIP/src/apps/mqtt/mqtt.c ****   struct mqtt_request_t *r = NULL;
 551              		.loc 1 288 1 is_stmt 1 view -0
 552              		.cfi_startproc
 553              		@ args = 4, pretend = 0, frame = 0
 554              		@ frame_needed = 0, uses_anonymous_args = 0
 288:Middlewares/Third_Party/LwIP/src/apps/mqtt/mqtt.c ****   struct mqtt_request_t *r = NULL;
 555              		.loc 1 288 1 is_stmt 0 view .LVU125
 556 0000 2DE9F843 		push	{r3, r4, r5, r6, r7, r8, r9, lr}
 557              	.LCFI6:
 558              		.cfi_def_cfa_offset 32
 559              		.cfi_offset 3, -32
 560              		.cfi_offset 4, -28
 561              		.cfi_offset 5, -24
 562              		.cfi_offset 6, -20
 563              		.cfi_offset 7, -16
 564              		.cfi_offset 8, -12
 565              		.cfi_offset 9, -8
 566              		.cfi_offset 14, -4
 567 0004 0F46     		mov	r7, r1
 568 0006 9046     		mov	r8, r2
 569 0008 9946     		mov	r9, r3
 289:Middlewares/Third_Party/LwIP/src/apps/mqtt/mqtt.c ****   u8_t n;
 570              		.loc 1 289 3 is_stmt 1 view .LVU126
 571              	.LVL47:
 290:Middlewares/Third_Party/LwIP/src/apps/mqtt/mqtt.c ****   LWIP_ASSERT("mqtt_create_request: r_objs != NULL", r_objs != NULL);
 572              		.loc 1 290 3 view .LVU127
 291:Middlewares/Third_Party/LwIP/src/apps/mqtt/mqtt.c ****   for (n = 0; n < r_objs_len; n++) {
 573              		.loc 1 291 3 view .LVU128
 291:Middlewares/Third_Party/LwIP/src/apps/mqtt/mqtt.c ****   for (n = 0; n < r_objs_len; n++) {
 574              		.loc 1 291 3 view .LVU129
 575 000a 0646     		mov	r6, r0
 576 000c 58B1     		cbz	r0, .L42
 577              	.LVL48:
 578              	.L36:
 291:Middlewares/Third_Party/LwIP/src/apps/mqtt/mqtt.c ****   for (n = 0; n < r_objs_len; n++) {
 579              		.loc 1 291 3 discriminator 3 view .LVU130
 291:Middlewares/Third_Party/LwIP/src/apps/mqtt/mqtt.c ****   for (n = 0; n < r_objs_len; n++) {
 580              		.loc 1 291 3 discriminator 3 view .LVU131
 292:Middlewares/Third_Party/LwIP/src/apps/mqtt/mqtt.c ****     /* Item point to itself if not in use */
 581              		.loc 1 292 3 discriminator 3 view .LVU132
ARM GAS  D:\Dev\msys64\tmp\ccB7TkM7.s 			page 23


 292:Middlewares/Third_Party/LwIP/src/apps/mqtt/mqtt.c ****     /* Item point to itself if not in use */
 582              		.loc 1 292 10 is_stmt 0 discriminator 3 view .LVU133
 583 000e 0024     		movs	r4, #0
 584              	.LVL49:
 585              	.L37:
 292:Middlewares/Third_Party/LwIP/src/apps/mqtt/mqtt.c ****     /* Item point to itself if not in use */
 586              		.loc 1 292 15 is_stmt 1 discriminator 1 view .LVU134
 292:Middlewares/Third_Party/LwIP/src/apps/mqtt/mqtt.c ****     /* Item point to itself if not in use */
 587              		.loc 1 292 3 is_stmt 0 discriminator 1 view .LVU135
 588 0010 BC42     		cmp	r4, r7
 589 0012 19D2     		bcs	.L43
 294:Middlewares/Third_Party/LwIP/src/apps/mqtt/mqtt.c ****       r = &r_objs[n];
 590              		.loc 1 294 5 is_stmt 1 view .LVU136
 294:Middlewares/Third_Party/LwIP/src/apps/mqtt/mqtt.c ****       r = &r_objs[n];
 591              		.loc 1 294 15 is_stmt 0 view .LVU137
 592 0014 2501     		lsls	r5, r4, #4
 593 0016 06EB0410 		add	r0, r6, r4, lsl #4
 294:Middlewares/Third_Party/LwIP/src/apps/mqtt/mqtt.c ****       r = &r_objs[n];
 594              		.loc 1 294 18 view .LVU138
 595 001a 7359     		ldr	r3, [r6, r5]
 294:Middlewares/Third_Party/LwIP/src/apps/mqtt/mqtt.c ****       r = &r_objs[n];
 596              		.loc 1 294 8 view .LVU139
 597 001c 9842     		cmp	r0, r3
 598 001e 0AD0     		beq	.L44
 292:Middlewares/Third_Party/LwIP/src/apps/mqtt/mqtt.c ****     /* Item point to itself if not in use */
 599              		.loc 1 292 31 is_stmt 1 discriminator 2 view .LVU140
 292:Middlewares/Third_Party/LwIP/src/apps/mqtt/mqtt.c ****     /* Item point to itself if not in use */
 600              		.loc 1 292 32 is_stmt 0 discriminator 2 view .LVU141
 601 0020 0134     		adds	r4, r4, #1
 602              	.LVL50:
 292:Middlewares/Third_Party/LwIP/src/apps/mqtt/mqtt.c ****     /* Item point to itself if not in use */
 603              		.loc 1 292 32 discriminator 2 view .LVU142
 604 0022 E4B2     		uxtb	r4, r4
 605              	.LVL51:
 292:Middlewares/Third_Party/LwIP/src/apps/mqtt/mqtt.c ****     /* Item point to itself if not in use */
 606              		.loc 1 292 32 discriminator 2 view .LVU143
 607 0024 F4E7     		b	.L37
 608              	.LVL52:
 609              	.L42:
 291:Middlewares/Third_Party/LwIP/src/apps/mqtt/mqtt.c ****   for (n = 0; n < r_objs_len; n++) {
 610              		.loc 1 291 3 is_stmt 1 discriminator 1 view .LVU144
 291:Middlewares/Third_Party/LwIP/src/apps/mqtt/mqtt.c ****   for (n = 0; n < r_objs_len; n++) {
 611              		.loc 1 291 3 discriminator 1 view .LVU145
 612 0026 0A4B     		ldr	r3, .L45
 613              	.LVL53:
 291:Middlewares/Third_Party/LwIP/src/apps/mqtt/mqtt.c ****   for (n = 0; n < r_objs_len; n++) {
 614              		.loc 1 291 3 is_stmt 0 discriminator 1 view .LVU146
 615 0028 40F22312 		movw	r2, #291
 616              	.LVL54:
 291:Middlewares/Third_Party/LwIP/src/apps/mqtt/mqtt.c ****   for (n = 0; n < r_objs_len; n++) {
 617              		.loc 1 291 3 discriminator 1 view .LVU147
 618 002c 0949     		ldr	r1, .L45+4
 619              	.LVL55:
 291:Middlewares/Third_Party/LwIP/src/apps/mqtt/mqtt.c ****   for (n = 0; n < r_objs_len; n++) {
 620              		.loc 1 291 3 discriminator 1 view .LVU148
 621 002e 0A48     		ldr	r0, .L45+8
 622              	.LVL56:
ARM GAS  D:\Dev\msys64\tmp\ccB7TkM7.s 			page 24


 291:Middlewares/Third_Party/LwIP/src/apps/mqtt/mqtt.c ****   for (n = 0; n < r_objs_len; n++) {
 623              		.loc 1 291 3 discriminator 1 view .LVU149
 624 0030 FFF7FEFF 		bl	printf
 625              	.LVL57:
 626 0034 EBE7     		b	.L36
 627              	.LVL58:
 628              	.L44:
 295:Middlewares/Third_Party/LwIP/src/apps/mqtt/mqtt.c ****       r->next = NULL;
 629              		.loc 1 295 7 is_stmt 1 view .LVU150
 296:Middlewares/Third_Party/LwIP/src/apps/mqtt/mqtt.c ****       r->cb = cb;
 630              		.loc 1 296 7 view .LVU151
 296:Middlewares/Third_Party/LwIP/src/apps/mqtt/mqtt.c ****       r->cb = cb;
 631              		.loc 1 296 15 is_stmt 0 view .LVU152
 632 0036 0023     		movs	r3, #0
 633 0038 0360     		str	r3, [r0]
 297:Middlewares/Third_Party/LwIP/src/apps/mqtt/mqtt.c ****       r->arg = arg;
 634              		.loc 1 297 7 is_stmt 1 view .LVU153
 297:Middlewares/Third_Party/LwIP/src/apps/mqtt/mqtt.c ****       r->arg = arg;
 635              		.loc 1 297 13 is_stmt 0 view .LVU154
 636 003a C0F80490 		str	r9, [r0, #4]
 298:Middlewares/Third_Party/LwIP/src/apps/mqtt/mqtt.c ****       r->pkt_id = pkt_id;
 637              		.loc 1 298 7 is_stmt 1 view .LVU155
 298:Middlewares/Third_Party/LwIP/src/apps/mqtt/mqtt.c ****       r->pkt_id = pkt_id;
 638              		.loc 1 298 14 is_stmt 0 view .LVU156
 639 003e 089B     		ldr	r3, [sp, #32]
 640 0040 8360     		str	r3, [r0, #8]
 299:Middlewares/Third_Party/LwIP/src/apps/mqtt/mqtt.c ****       break;
 641              		.loc 1 299 7 is_stmt 1 view .LVU157
 299:Middlewares/Third_Party/LwIP/src/apps/mqtt/mqtt.c ****       break;
 642              		.loc 1 299 17 is_stmt 0 view .LVU158
 643 0042 A0F80C80 		strh	r8, [r0, #12]	@ movhi
 300:Middlewares/Third_Party/LwIP/src/apps/mqtt/mqtt.c ****     }
 644              		.loc 1 300 7 is_stmt 1 view .LVU159
 645 0046 00E0     		b	.L35
 646              	.LVL59:
 647              	.L43:
 289:Middlewares/Third_Party/LwIP/src/apps/mqtt/mqtt.c ****   u8_t n;
 648              		.loc 1 289 26 is_stmt 0 view .LVU160
 649 0048 0020     		movs	r0, #0
 303:Middlewares/Third_Party/LwIP/src/apps/mqtt/mqtt.c **** }
 650              		.loc 1 303 3 is_stmt 1 view .LVU161
 651              	.LVL60:
 652              	.L35:
 304:Middlewares/Third_Party/LwIP/src/apps/mqtt/mqtt.c **** 
 653              		.loc 1 304 1 is_stmt 0 view .LVU162
 654 004a BDE8F883 		pop	{r3, r4, r5, r6, r7, r8, r9, pc}
 655              	.LVL61:
 656              	.L46:
 304:Middlewares/Third_Party/LwIP/src/apps/mqtt/mqtt.c **** 
 657              		.loc 1 304 1 view .LVU163
 658 004e 00BF     		.align	2
 659              	.L45:
 660 0050 00000000 		.word	.LC0
 661 0054 34000000 		.word	.LC1
 662 0058 58000000 		.word	.LC2
 663              		.cfi_endproc
 664              	.LFE36:
ARM GAS  D:\Dev\msys64\tmp\ccB7TkM7.s 			page 25


 666              		.section	.rodata.mqtt_output_check_space.str1.4,"aMS",%progbits,1
 667              		.align	2
 668              	.LC3:
 669 0000 6D717474 		.ascii	"mqtt_output_check_space: rb != NULL\000"
 669      5F6F7574 
 669      7075745F 
 669      63686563 
 669      6B5F7370 
 670              		.section	.text.mqtt_output_check_space,"ax",%progbits
 671              		.align	1
 672              		.syntax unified
 673              		.thumb
 674              		.thumb_func
 675              		.fpu fpv5-sp-d16
 677              	mqtt_output_check_space:
 678              	.LVL62:
 679              	.LFB48:
 515:Middlewares/Third_Party/LwIP/src/apps/mqtt/mqtt.c ****   /* Start with length of type byte + remaining length */
 680              		.loc 1 515 1 is_stmt 1 view -0
 681              		.cfi_startproc
 682              		@ args = 0, pretend = 0, frame = 0
 683              		@ frame_needed = 0, uses_anonymous_args = 0
 515:Middlewares/Third_Party/LwIP/src/apps/mqtt/mqtt.c ****   /* Start with length of type byte + remaining length */
 684              		.loc 1 515 1 is_stmt 0 view .LVU165
 685 0000 70B5     		push	{r4, r5, r6, lr}
 686              	.LCFI7:
 687              		.cfi_def_cfa_offset 16
 688              		.cfi_offset 4, -16
 689              		.cfi_offset 5, -12
 690              		.cfi_offset 6, -8
 691              		.cfi_offset 14, -4
 692 0002 0D46     		mov	r5, r1
 517:Middlewares/Third_Party/LwIP/src/apps/mqtt/mqtt.c **** 
 693              		.loc 1 517 3 is_stmt 1 view .LVU166
 517:Middlewares/Third_Party/LwIP/src/apps/mqtt/mqtt.c **** 
 694              		.loc 1 517 9 is_stmt 0 view .LVU167
 695 0004 4C1C     		adds	r4, r1, #1
 696 0006 A4B2     		uxth	r4, r4
 697              	.LVL63:
 519:Middlewares/Third_Party/LwIP/src/apps/mqtt/mqtt.c **** 
 698              		.loc 1 519 3 is_stmt 1 view .LVU168
 519:Middlewares/Third_Party/LwIP/src/apps/mqtt/mqtt.c **** 
 699              		.loc 1 519 3 view .LVU169
 700 0008 0646     		mov	r6, r0
 701 000a 68B1     		cbz	r0, .L51
 702              	.LVL64:
 703              	.L49:
 519:Middlewares/Third_Party/LwIP/src/apps/mqtt/mqtt.c **** 
 704              		.loc 1 519 3 discriminator 1 view .LVU170
 519:Middlewares/Third_Party/LwIP/src/apps/mqtt/mqtt.c **** 
 705              		.loc 1 519 3 discriminator 1 view .LVU171
 522:Middlewares/Third_Party/LwIP/src/apps/mqtt/mqtt.c ****     total_len++;
 706              		.loc 1 522 3 discriminator 1 view .LVU172
 523:Middlewares/Third_Party/LwIP/src/apps/mqtt/mqtt.c ****     r_length >>= 7;
 707              		.loc 1 523 5 discriminator 1 view .LVU173
 523:Middlewares/Third_Party/LwIP/src/apps/mqtt/mqtt.c ****     r_length >>= 7;
 708              		.loc 1 523 14 is_stmt 0 discriminator 1 view .LVU174
ARM GAS  D:\Dev\msys64\tmp\ccB7TkM7.s 			page 26


 709 000c 0134     		adds	r4, r4, #1
 710              	.LVL65:
 523:Middlewares/Third_Party/LwIP/src/apps/mqtt/mqtt.c ****     r_length >>= 7;
 711              		.loc 1 523 14 discriminator 1 view .LVU175
 712 000e A4B2     		uxth	r4, r4
 713              	.LVL66:
 524:Middlewares/Third_Party/LwIP/src/apps/mqtt/mqtt.c ****   } while (r_length > 0);
 714              		.loc 1 524 5 is_stmt 1 discriminator 1 view .LVU176
 525:Middlewares/Third_Party/LwIP/src/apps/mqtt/mqtt.c **** 
 715              		.loc 1 525 11 discriminator 1 view .LVU177
 525:Middlewares/Third_Party/LwIP/src/apps/mqtt/mqtt.c **** 
 716              		.loc 1 525 3 is_stmt 0 discriminator 1 view .LVU178
 717 0010 ED09     		lsrs	r5, r5, #7
 718              	.LVL67:
 525:Middlewares/Third_Party/LwIP/src/apps/mqtt/mqtt.c **** 
 719              		.loc 1 525 3 discriminator 1 view .LVU179
 720 0012 FBD1     		bne	.L49
 527:Middlewares/Third_Party/LwIP/src/apps/mqtt/mqtt.c **** }
 721              		.loc 1 527 3 is_stmt 1 view .LVU180
 527:Middlewares/Third_Party/LwIP/src/apps/mqtt/mqtt.c **** }
 722              		.loc 1 527 24 is_stmt 0 view .LVU181
 723 0014 3046     		mov	r0, r6
 724 0016 FFF7FEFF 		bl	mqtt_ringbuf_len
 725              	.LVL68:
 726 001a C0F58070 		rsb	r0, r0, #256
 528:Middlewares/Third_Party/LwIP/src/apps/mqtt/mqtt.c **** 
 727              		.loc 1 528 1 view .LVU182
 728 001e 8442     		cmp	r4, r0
 729 0020 CCBF     		ite	gt
 730 0022 0020     		movgt	r0, #0
 731 0024 0120     		movle	r0, #1
 732 0026 70BD     		pop	{r4, r5, r6, pc}
 733              	.LVL69:
 734              	.L51:
 519:Middlewares/Third_Party/LwIP/src/apps/mqtt/mqtt.c **** 
 735              		.loc 1 519 3 is_stmt 1 discriminator 1 view .LVU183
 519:Middlewares/Third_Party/LwIP/src/apps/mqtt/mqtt.c **** 
 736              		.loc 1 519 3 discriminator 1 view .LVU184
 737 0028 034B     		ldr	r3, .L52
 738 002a 40F20722 		movw	r2, #519
 739 002e 0349     		ldr	r1, .L52+4
 740              	.LVL70:
 519:Middlewares/Third_Party/LwIP/src/apps/mqtt/mqtt.c **** 
 741              		.loc 1 519 3 is_stmt 0 discriminator 1 view .LVU185
 742 0030 0348     		ldr	r0, .L52+8
 743              	.LVL71:
 519:Middlewares/Third_Party/LwIP/src/apps/mqtt/mqtt.c **** 
 744              		.loc 1 519 3 discriminator 1 view .LVU186
 745 0032 FFF7FEFF 		bl	printf
 746              	.LVL72:
 747 0036 E9E7     		b	.L49
 748              	.L53:
 749              		.align	2
 750              	.L52:
 751 0038 00000000 		.word	.LC0
 752 003c 00000000 		.word	.LC3
 753 0040 58000000 		.word	.LC2
ARM GAS  D:\Dev\msys64\tmp\ccB7TkM7.s 			page 27


 754              		.cfi_endproc
 755              	.LFE48:
 757              		.section	.rodata.mqtt_append_request.str1.4,"aMS",%progbits,1
 758              		.align	2
 759              	.LC4:
 760 0000 6D717474 		.ascii	"mqtt_append_request: tail != NULL\000"
 760      5F617070 
 760      656E645F 
 760      72657175 
 760      6573743A 
 761 0022 0000     		.align	2
 762              	.LC5:
 763 0024 6D717474 		.ascii	"mqtt_append_request: time_before <= MQTT_REQ_TIMEOU"
 763      5F617070 
 763      656E645F 
 763      72657175 
 763      6573743A 
 764 0057 5400     		.ascii	"T\000"
 765              		.section	.text.mqtt_append_request,"ax",%progbits
 766              		.align	1
 767              		.syntax unified
 768              		.thumb
 769              		.thumb_func
 770              		.fpu fpv5-sp-d16
 772              	mqtt_append_request:
 773              	.LVL73:
 774              	.LFB37:
 314:Middlewares/Third_Party/LwIP/src/apps/mqtt/mqtt.c ****   struct mqtt_request_t *head = NULL;
 775              		.loc 1 314 1 is_stmt 1 view -0
 776              		.cfi_startproc
 777              		@ args = 0, pretend = 0, frame = 0
 778              		@ frame_needed = 0, uses_anonymous_args = 0
 314:Middlewares/Third_Party/LwIP/src/apps/mqtt/mqtt.c ****   struct mqtt_request_t *head = NULL;
 779              		.loc 1 314 1 is_stmt 0 view .LVU188
 780 0000 F8B5     		push	{r3, r4, r5, r6, r7, lr}
 781              	.LCFI8:
 782              		.cfi_def_cfa_offset 24
 783              		.cfi_offset 3, -24
 784              		.cfi_offset 4, -20
 785              		.cfi_offset 5, -16
 786              		.cfi_offset 6, -12
 787              		.cfi_offset 7, -8
 788              		.cfi_offset 14, -4
 789 0002 0E46     		mov	r6, r1
 315:Middlewares/Third_Party/LwIP/src/apps/mqtt/mqtt.c ****   s16_t time_before = 0;
 790              		.loc 1 315 3 is_stmt 1 view .LVU189
 791              	.LVL74:
 316:Middlewares/Third_Party/LwIP/src/apps/mqtt/mqtt.c ****   struct mqtt_request_t *iter;
 792              		.loc 1 316 3 view .LVU190
 317:Middlewares/Third_Party/LwIP/src/apps/mqtt/mqtt.c **** 
 793              		.loc 1 317 3 view .LVU191
 319:Middlewares/Third_Party/LwIP/src/apps/mqtt/mqtt.c **** 
 794              		.loc 1 319 3 view .LVU192
 319:Middlewares/Third_Party/LwIP/src/apps/mqtt/mqtt.c **** 
 795              		.loc 1 319 3 view .LVU193
 796 0004 0746     		mov	r7, r0
 797 0006 48B1     		cbz	r0, .L62
ARM GAS  D:\Dev\msys64\tmp\ccB7TkM7.s 			page 28


 798              	.LVL75:
 799              	.L55:
 319:Middlewares/Third_Party/LwIP/src/apps/mqtt/mqtt.c **** 
 800              		.loc 1 319 3 discriminator 3 view .LVU194
 319:Middlewares/Third_Party/LwIP/src/apps/mqtt/mqtt.c **** 
 801              		.loc 1 319 3 discriminator 3 view .LVU195
 322:Middlewares/Third_Party/LwIP/src/apps/mqtt/mqtt.c ****     time_before += iter->timeout_diff;
 802              		.loc 1 322 3 discriminator 3 view .LVU196
 322:Middlewares/Third_Party/LwIP/src/apps/mqtt/mqtt.c ****     time_before += iter->timeout_diff;
 803              		.loc 1 322 13 is_stmt 0 discriminator 3 view .LVU197
 804 0008 3B68     		ldr	r3, [r7]
 805              	.LVL76:
 316:Middlewares/Third_Party/LwIP/src/apps/mqtt/mqtt.c ****   struct mqtt_request_t *iter;
 806              		.loc 1 316 9 discriminator 3 view .LVU198
 807 000a 0024     		movs	r4, #0
 315:Middlewares/Third_Party/LwIP/src/apps/mqtt/mqtt.c ****   s16_t time_before = 0;
 808              		.loc 1 315 26 discriminator 3 view .LVU199
 809 000c 2546     		mov	r5, r4
 810              	.LVL77:
 811              	.L56:
 322:Middlewares/Third_Party/LwIP/src/apps/mqtt/mqtt.c ****     time_before += iter->timeout_diff;
 812              		.loc 1 322 22 is_stmt 1 discriminator 1 view .LVU200
 322:Middlewares/Third_Party/LwIP/src/apps/mqtt/mqtt.c ****     time_before += iter->timeout_diff;
 813              		.loc 1 322 3 is_stmt 0 discriminator 1 view .LVU201
 814 000e 6BB1     		cbz	r3, .L63
 323:Middlewares/Third_Party/LwIP/src/apps/mqtt/mqtt.c ****     head = iter;
 815              		.loc 1 323 5 is_stmt 1 discriminator 3 view .LVU202
 323:Middlewares/Third_Party/LwIP/src/apps/mqtt/mqtt.c ****     head = iter;
 816              		.loc 1 323 24 is_stmt 0 discriminator 3 view .LVU203
 817 0010 DA89     		ldrh	r2, [r3, #14]
 323:Middlewares/Third_Party/LwIP/src/apps/mqtt/mqtt.c ****     head = iter;
 818              		.loc 1 323 17 discriminator 3 view .LVU204
 819 0012 1444     		add	r4, r4, r2
 820              	.LVL78:
 323:Middlewares/Third_Party/LwIP/src/apps/mqtt/mqtt.c ****     head = iter;
 821              		.loc 1 323 17 discriminator 3 view .LVU205
 822 0014 24B2     		sxth	r4, r4
 823              	.LVL79:
 324:Middlewares/Third_Party/LwIP/src/apps/mqtt/mqtt.c ****   }
 824              		.loc 1 324 5 is_stmt 1 discriminator 3 view .LVU206
 322:Middlewares/Third_Party/LwIP/src/apps/mqtt/mqtt.c ****     time_before += iter->timeout_diff;
 825              		.loc 1 322 36 discriminator 3 view .LVU207
 324:Middlewares/Third_Party/LwIP/src/apps/mqtt/mqtt.c ****   }
 826              		.loc 1 324 10 is_stmt 0 discriminator 3 view .LVU208
 827 0016 1D46     		mov	r5, r3
 322:Middlewares/Third_Party/LwIP/src/apps/mqtt/mqtt.c ****     time_before += iter->timeout_diff;
 828              		.loc 1 322 41 discriminator 3 view .LVU209
 829 0018 1B68     		ldr	r3, [r3]
 830              	.LVL80:
 322:Middlewares/Third_Party/LwIP/src/apps/mqtt/mqtt.c ****     time_before += iter->timeout_diff;
 831              		.loc 1 322 41 discriminator 3 view .LVU210
 832 001a F8E7     		b	.L56
 833              	.LVL81:
 834              	.L62:
 319:Middlewares/Third_Party/LwIP/src/apps/mqtt/mqtt.c **** 
 835              		.loc 1 319 3 is_stmt 1 discriminator 1 view .LVU211
 319:Middlewares/Third_Party/LwIP/src/apps/mqtt/mqtt.c **** 
ARM GAS  D:\Dev\msys64\tmp\ccB7TkM7.s 			page 29


 836              		.loc 1 319 3 discriminator 1 view .LVU212
 837 001c 0C4B     		ldr	r3, .L66
 838 001e 40F23F12 		movw	r2, #319
 839 0022 0C49     		ldr	r1, .L66+4
 840              	.LVL82:
 319:Middlewares/Third_Party/LwIP/src/apps/mqtt/mqtt.c **** 
 841              		.loc 1 319 3 is_stmt 0 discriminator 1 view .LVU213
 842 0024 0C48     		ldr	r0, .L66+8
 843              	.LVL83:
 319:Middlewares/Third_Party/LwIP/src/apps/mqtt/mqtt.c **** 
 844              		.loc 1 319 3 discriminator 1 view .LVU214
 845 0026 FFF7FEFF 		bl	printf
 846              	.LVL84:
 847 002a EDE7     		b	.L55
 848              	.LVL85:
 849              	.L63:
 327:Middlewares/Third_Party/LwIP/src/apps/mqtt/mqtt.c ****   r->timeout_diff = MQTT_REQ_TIMEOUT - time_before;
 850              		.loc 1 327 3 is_stmt 1 view .LVU215
 327:Middlewares/Third_Party/LwIP/src/apps/mqtt/mqtt.c ****   r->timeout_diff = MQTT_REQ_TIMEOUT - time_before;
 851              		.loc 1 327 3 view .LVU216
 852 002c 1E2C     		cmp	r4, #30
 853 002e 05DC     		bgt	.L64
 854              	.LVL86:
 855              	.L58:
 327:Middlewares/Third_Party/LwIP/src/apps/mqtt/mqtt.c ****   r->timeout_diff = MQTT_REQ_TIMEOUT - time_before;
 856              		.loc 1 327 3 discriminator 3 view .LVU217
 327:Middlewares/Third_Party/LwIP/src/apps/mqtt/mqtt.c ****   r->timeout_diff = MQTT_REQ_TIMEOUT - time_before;
 857              		.loc 1 327 3 discriminator 3 view .LVU218
 328:Middlewares/Third_Party/LwIP/src/apps/mqtt/mqtt.c ****   if (head == NULL) {
 858              		.loc 1 328 3 discriminator 3 view .LVU219
 328:Middlewares/Third_Party/LwIP/src/apps/mqtt/mqtt.c ****   if (head == NULL) {
 859              		.loc 1 328 38 is_stmt 0 discriminator 3 view .LVU220
 860 0030 C4F11E04 		rsb	r4, r4, #30
 861              	.LVL87:
 328:Middlewares/Third_Party/LwIP/src/apps/mqtt/mqtt.c ****   if (head == NULL) {
 862              		.loc 1 328 19 discriminator 3 view .LVU221
 863 0034 F481     		strh	r4, [r6, #14]	@ movhi
 329:Middlewares/Third_Party/LwIP/src/apps/mqtt/mqtt.c ****     *tail = r;
 864              		.loc 1 329 3 is_stmt 1 discriminator 3 view .LVU222
 329:Middlewares/Third_Party/LwIP/src/apps/mqtt/mqtt.c ****     *tail = r;
 865              		.loc 1 329 6 is_stmt 0 discriminator 3 view .LVU223
 866 0036 4DB1     		cbz	r5, .L65
 332:Middlewares/Third_Party/LwIP/src/apps/mqtt/mqtt.c ****   }
 867              		.loc 1 332 5 is_stmt 1 view .LVU224
 332:Middlewares/Third_Party/LwIP/src/apps/mqtt/mqtt.c ****   }
 868              		.loc 1 332 16 is_stmt 0 view .LVU225
 869 0038 2E60     		str	r6, [r5]
 870              	.L54:
 334:Middlewares/Third_Party/LwIP/src/apps/mqtt/mqtt.c **** 
 871              		.loc 1 334 1 view .LVU226
 872 003a F8BD     		pop	{r3, r4, r5, r6, r7, pc}
 873              	.LVL88:
 874              	.L64:
 327:Middlewares/Third_Party/LwIP/src/apps/mqtt/mqtt.c ****   r->timeout_diff = MQTT_REQ_TIMEOUT - time_before;
 875              		.loc 1 327 3 is_stmt 1 discriminator 1 view .LVU227
 327:Middlewares/Third_Party/LwIP/src/apps/mqtt/mqtt.c ****   r->timeout_diff = MQTT_REQ_TIMEOUT - time_before;
 876              		.loc 1 327 3 discriminator 1 view .LVU228
ARM GAS  D:\Dev\msys64\tmp\ccB7TkM7.s 			page 30


 877 003c 044B     		ldr	r3, .L66
 878              	.LVL89:
 327:Middlewares/Third_Party/LwIP/src/apps/mqtt/mqtt.c ****   r->timeout_diff = MQTT_REQ_TIMEOUT - time_before;
 879              		.loc 1 327 3 is_stmt 0 discriminator 1 view .LVU229
 880 003e 40F24712 		movw	r2, #327
 881 0042 0649     		ldr	r1, .L66+12
 882 0044 0448     		ldr	r0, .L66+8
 883 0046 FFF7FEFF 		bl	printf
 884              	.LVL90:
 885 004a F1E7     		b	.L58
 886              	.LVL91:
 887              	.L65:
 330:Middlewares/Third_Party/LwIP/src/apps/mqtt/mqtt.c ****   } else {
 888              		.loc 1 330 5 is_stmt 1 view .LVU230
 330:Middlewares/Third_Party/LwIP/src/apps/mqtt/mqtt.c ****   } else {
 889              		.loc 1 330 11 is_stmt 0 view .LVU231
 890 004c 3E60     		str	r6, [r7]
 891 004e F4E7     		b	.L54
 892              	.L67:
 893              		.align	2
 894              	.L66:
 895 0050 00000000 		.word	.LC0
 896 0054 00000000 		.word	.LC4
 897 0058 58000000 		.word	.LC2
 898 005c 24000000 		.word	.LC5
 899              		.cfi_endproc
 900              	.LFE37:
 902              		.section	.rodata.mqtt_ringbuf_advance_get_idx.str1.4,"aMS",%progbits,1
 903              		.align	2
 904              	.LC6:
 905 0000 6D717474 		.ascii	"mqtt_ringbuf_advance_get_idx: len < MQTT_OUTPUT_RIN"
 905      5F72696E 
 905      67627566 
 905      5F616476 
 905      616E6365 
 906 0033 47425546 		.ascii	"GBUF_SIZE\000"
 906      5F53495A 
 906      4500
 907              		.section	.text.mqtt_ringbuf_advance_get_idx,"ax",%progbits
 908              		.align	1
 909              		.syntax unified
 910              		.thumb
 911              		.thumb_func
 912              		.fpu fpv5-sp-d16
 914              	mqtt_ringbuf_advance_get_idx:
 915              	.LVL92:
 916              	.LFB33:
 202:Middlewares/Third_Party/LwIP/src/apps/mqtt/mqtt.c ****   LWIP_ASSERT("mqtt_ringbuf_advance_get_idx: len < MQTT_OUTPUT_RINGBUF_SIZE", len < MQTT_OUTPUT_RIN
 917              		.loc 1 202 1 is_stmt 1 view -0
 918              		.cfi_startproc
 919              		@ args = 0, pretend = 0, frame = 0
 920              		@ frame_needed = 0, uses_anonymous_args = 0
 202:Middlewares/Third_Party/LwIP/src/apps/mqtt/mqtt.c ****   LWIP_ASSERT("mqtt_ringbuf_advance_get_idx: len < MQTT_OUTPUT_RINGBUF_SIZE", len < MQTT_OUTPUT_RIN
 921              		.loc 1 202 1 is_stmt 0 view .LVU233
 922 0000 38B5     		push	{r3, r4, r5, lr}
 923              	.LCFI9:
 924              		.cfi_def_cfa_offset 16
ARM GAS  D:\Dev\msys64\tmp\ccB7TkM7.s 			page 31


 925              		.cfi_offset 3, -16
 926              		.cfi_offset 4, -12
 927              		.cfi_offset 5, -8
 928              		.cfi_offset 14, -4
 929 0002 0546     		mov	r5, r0
 930 0004 0C46     		mov	r4, r1
 203:Middlewares/Third_Party/LwIP/src/apps/mqtt/mqtt.c **** 
 931              		.loc 1 203 3 is_stmt 1 view .LVU234
 203:Middlewares/Third_Party/LwIP/src/apps/mqtt/mqtt.c **** 
 932              		.loc 1 203 3 view .LVU235
 933 0006 FF29     		cmp	r1, #255
 934 0008 09D8     		bhi	.L72
 935              	.LVL93:
 936              	.L69:
 203:Middlewares/Third_Party/LwIP/src/apps/mqtt/mqtt.c **** 
 937              		.loc 1 203 3 discriminator 3 view .LVU236
 203:Middlewares/Third_Party/LwIP/src/apps/mqtt/mqtt.c **** 
 938              		.loc 1 203 3 discriminator 3 view .LVU237
 205:Middlewares/Third_Party/LwIP/src/apps/mqtt/mqtt.c ****   if (rb->get >= MQTT_OUTPUT_RINGBUF_SIZE) {
 939              		.loc 1 205 3 discriminator 3 view .LVU238
 205:Middlewares/Third_Party/LwIP/src/apps/mqtt/mqtt.c ****   if (rb->get >= MQTT_OUTPUT_RINGBUF_SIZE) {
 940              		.loc 1 205 11 is_stmt 0 discriminator 3 view .LVU239
 941 000a 6988     		ldrh	r1, [r5, #2]
 942 000c 2144     		add	r1, r1, r4
 943 000e 89B2     		uxth	r1, r1
 944 0010 6980     		strh	r1, [r5, #2]	@ movhi
 206:Middlewares/Third_Party/LwIP/src/apps/mqtt/mqtt.c ****     rb->get = rb->get - MQTT_OUTPUT_RINGBUF_SIZE;
 945              		.loc 1 206 3 is_stmt 1 discriminator 3 view .LVU240
 206:Middlewares/Third_Party/LwIP/src/apps/mqtt/mqtt.c ****     rb->get = rb->get - MQTT_OUTPUT_RINGBUF_SIZE;
 946              		.loc 1 206 6 is_stmt 0 discriminator 3 view .LVU241
 947 0012 FF29     		cmp	r1, #255
 948 0014 02D9     		bls	.L68
 207:Middlewares/Third_Party/LwIP/src/apps/mqtt/mqtt.c ****   }
 949              		.loc 1 207 5 is_stmt 1 view .LVU242
 207:Middlewares/Third_Party/LwIP/src/apps/mqtt/mqtt.c ****   }
 950              		.loc 1 207 23 is_stmt 0 view .LVU243
 951 0016 A1F58071 		sub	r1, r1, #256
 207:Middlewares/Third_Party/LwIP/src/apps/mqtt/mqtt.c ****   }
 952              		.loc 1 207 13 view .LVU244
 953 001a 6980     		strh	r1, [r5, #2]	@ movhi
 954              	.L68:
 209:Middlewares/Third_Party/LwIP/src/apps/mqtt/mqtt.c **** 
 955              		.loc 1 209 1 view .LVU245
 956 001c 38BD     		pop	{r3, r4, r5, pc}
 957              	.LVL94:
 958              	.L72:
 203:Middlewares/Third_Party/LwIP/src/apps/mqtt/mqtt.c **** 
 959              		.loc 1 203 3 is_stmt 1 discriminator 1 view .LVU246
 203:Middlewares/Third_Party/LwIP/src/apps/mqtt/mqtt.c **** 
 960              		.loc 1 203 3 discriminator 1 view .LVU247
 961 001e 034B     		ldr	r3, .L73
 962 0020 CB22     		movs	r2, #203
 963 0022 0349     		ldr	r1, .L73+4
 964              	.LVL95:
 203:Middlewares/Third_Party/LwIP/src/apps/mqtt/mqtt.c **** 
 965              		.loc 1 203 3 is_stmt 0 discriminator 1 view .LVU248
 966 0024 0348     		ldr	r0, .L73+8
ARM GAS  D:\Dev\msys64\tmp\ccB7TkM7.s 			page 32


 967              	.LVL96:
 203:Middlewares/Third_Party/LwIP/src/apps/mqtt/mqtt.c **** 
 968              		.loc 1 203 3 discriminator 1 view .LVU249
 969 0026 FFF7FEFF 		bl	printf
 970              	.LVL97:
 971 002a EEE7     		b	.L69
 972              	.L74:
 973              		.align	2
 974              	.L73:
 975 002c 00000000 		.word	.LC0
 976 0030 00000000 		.word	.LC6
 977 0034 58000000 		.word	.LC2
 978              		.cfi_endproc
 979              	.LFE33:
 981              		.section	.rodata.mqtt_request_time_elapsed.str1.4,"aMS",%progbits,1
 982              		.align	2
 983              	.LC7:
 984 0000 6D717474 		.ascii	"mqtt_request_time_elapsed: tail != NULL\000"
 984      5F726571 
 984      75657374 
 984      5F74696D 
 984      655F656C 
 985              		.section	.text.mqtt_request_time_elapsed,"ax",%progbits
 986              		.align	1
 987              		.syntax unified
 988              		.thumb
 989              		.thumb_func
 990              		.fpu fpv5-sp-d16
 992              	mqtt_request_time_elapsed:
 993              	.LVL98:
 994              	.LFB40:
 392:Middlewares/Third_Party/LwIP/src/apps/mqtt/mqtt.c ****   struct mqtt_request_t *r;
 995              		.loc 1 392 1 is_stmt 1 view -0
 996              		.cfi_startproc
 997              		@ args = 0, pretend = 0, frame = 0
 998              		@ frame_needed = 0, uses_anonymous_args = 0
 392:Middlewares/Third_Party/LwIP/src/apps/mqtt/mqtt.c ****   struct mqtt_request_t *r;
 999              		.loc 1 392 1 is_stmt 0 view .LVU251
 1000 0000 70B5     		push	{r4, r5, r6, lr}
 1001              	.LCFI10:
 1002              		.cfi_def_cfa_offset 16
 1003              		.cfi_offset 4, -16
 1004              		.cfi_offset 5, -12
 1005              		.cfi_offset 6, -8
 1006              		.cfi_offset 14, -4
 1007 0002 0E46     		mov	r6, r1
 393:Middlewares/Third_Party/LwIP/src/apps/mqtt/mqtt.c ****   LWIP_ASSERT("mqtt_request_time_elapsed: tail != NULL", tail != NULL);
 1008              		.loc 1 393 3 is_stmt 1 view .LVU252
 394:Middlewares/Third_Party/LwIP/src/apps/mqtt/mqtt.c ****   r = *tail;
 1009              		.loc 1 394 3 view .LVU253
 394:Middlewares/Third_Party/LwIP/src/apps/mqtt/mqtt.c ****   r = *tail;
 1010              		.loc 1 394 3 view .LVU254
 1011 0004 0546     		mov	r5, r0
 1012 0006 08B1     		cbz	r0, .L83
 1013              	.LVL99:
 1014              	.L76:
 394:Middlewares/Third_Party/LwIP/src/apps/mqtt/mqtt.c ****   r = *tail;
ARM GAS  D:\Dev\msys64\tmp\ccB7TkM7.s 			page 33


 1015              		.loc 1 394 3 discriminator 3 view .LVU255
 394:Middlewares/Third_Party/LwIP/src/apps/mqtt/mqtt.c ****   r = *tail;
 1016              		.loc 1 394 3 discriminator 3 view .LVU256
 395:Middlewares/Third_Party/LwIP/src/apps/mqtt/mqtt.c ****   while (t > 0 && r != NULL) {
 1017              		.loc 1 395 3 discriminator 3 view .LVU257
 395:Middlewares/Third_Party/LwIP/src/apps/mqtt/mqtt.c ****   while (t > 0 && r != NULL) {
 1018              		.loc 1 395 5 is_stmt 0 discriminator 3 view .LVU258
 1019 0008 2C68     		ldr	r4, [r5]
 1020              	.LVL100:
 396:Middlewares/Third_Party/LwIP/src/apps/mqtt/mqtt.c ****     if (t >= r->timeout_diff) {
 1021              		.loc 1 396 3 is_stmt 1 discriminator 3 view .LVU259
 396:Middlewares/Third_Party/LwIP/src/apps/mqtt/mqtt.c ****     if (t >= r->timeout_diff) {
 1022              		.loc 1 396 9 is_stmt 0 discriminator 3 view .LVU260
 1023 000a 0BE0     		b	.L77
 1024              	.LVL101:
 1025              	.L83:
 394:Middlewares/Third_Party/LwIP/src/apps/mqtt/mqtt.c ****   r = *tail;
 1026              		.loc 1 394 3 is_stmt 1 discriminator 1 view .LVU261
 394:Middlewares/Third_Party/LwIP/src/apps/mqtt/mqtt.c ****   r = *tail;
 1027              		.loc 1 394 3 discriminator 1 view .LVU262
 1028 000c 144B     		ldr	r3, .L85
 1029 000e 4FF4C572 		mov	r2, #394
 1030 0012 1449     		ldr	r1, .L85+4
 1031              	.LVL102:
 394:Middlewares/Third_Party/LwIP/src/apps/mqtt/mqtt.c ****   r = *tail;
 1032              		.loc 1 394 3 is_stmt 0 discriminator 1 view .LVU263
 1033 0014 1448     		ldr	r0, .L85+8
 1034              	.LVL103:
 394:Middlewares/Third_Party/LwIP/src/apps/mqtt/mqtt.c ****   r = *tail;
 1035              		.loc 1 394 3 discriminator 1 view .LVU264
 1036 0016 FFF7FEFF 		bl	printf
 1037              	.LVL104:
 1038 001a F5E7     		b	.L76
 1039              	.LVL105:
 1040              	.L79:
 405:Middlewares/Third_Party/LwIP/src/apps/mqtt/mqtt.c ****       /* Tail might be be modified in callback, so re-read it in every iteration */
 1041              		.loc 1 405 7 is_stmt 1 view .LVU265
 1042 001c 2046     		mov	r0, r4
 1043 001e FFF7FEFF 		bl	mqtt_delete_request
 1044              	.LVL106:
 407:Middlewares/Third_Party/LwIP/src/apps/mqtt/mqtt.c ****     } else {
 1045              		.loc 1 407 7 view .LVU266
 407:Middlewares/Third_Party/LwIP/src/apps/mqtt/mqtt.c ****     } else {
 1046              		.loc 1 407 9 is_stmt 0 view .LVU267
 1047 0022 2C68     		ldr	r4, [r5]
 1048              	.LVL107:
 1049              	.L77:
 396:Middlewares/Third_Party/LwIP/src/apps/mqtt/mqtt.c ****     if (t >= r->timeout_diff) {
 1050              		.loc 1 396 9 is_stmt 1 view .LVU268
 396:Middlewares/Third_Party/LwIP/src/apps/mqtt/mqtt.c ****     if (t >= r->timeout_diff) {
 1051              		.loc 1 396 21 is_stmt 0 view .LVU269
 1052 0024 221E     		subs	r2, r4, #0
 1053 0026 18BF     		it	ne
 1054 0028 0122     		movne	r2, #1
 396:Middlewares/Third_Party/LwIP/src/apps/mqtt/mqtt.c ****     if (t >= r->timeout_diff) {
 1055              		.loc 1 396 16 view .LVU270
 1056 002a 002E     		cmp	r6, #0
ARM GAS  D:\Dev\msys64\tmp\ccB7TkM7.s 			page 34


 1057 002c 08BF     		it	eq
 1058 002e 0022     		moveq	r2, #0
 396:Middlewares/Third_Party/LwIP/src/apps/mqtt/mqtt.c ****     if (t >= r->timeout_diff) {
 1059              		.loc 1 396 9 view .LVU271
 1060 0030 A2B1     		cbz	r2, .L84
 397:Middlewares/Third_Party/LwIP/src/apps/mqtt/mqtt.c ****       t -= (u8_t)r->timeout_diff;
 1061              		.loc 1 397 5 is_stmt 1 view .LVU272
 397:Middlewares/Third_Party/LwIP/src/apps/mqtt/mqtt.c ****       t -= (u8_t)r->timeout_diff;
 1062              		.loc 1 397 11 is_stmt 0 view .LVU273
 1063 0032 B2B2     		uxth	r2, r6
 397:Middlewares/Third_Party/LwIP/src/apps/mqtt/mqtt.c ****       t -= (u8_t)r->timeout_diff;
 1064              		.loc 1 397 15 view .LVU274
 1065 0034 E389     		ldrh	r3, [r4, #14]
 397:Middlewares/Third_Party/LwIP/src/apps/mqtt/mqtt.c ****       t -= (u8_t)r->timeout_diff;
 1066              		.loc 1 397 8 view .LVU275
 1067 0036 9A42     		cmp	r2, r3
 1068 0038 0CD3     		bcc	.L78
 398:Middlewares/Third_Party/LwIP/src/apps/mqtt/mqtt.c ****       /* Unchain */
 1069              		.loc 1 398 7 is_stmt 1 view .LVU276
 398:Middlewares/Third_Party/LwIP/src/apps/mqtt/mqtt.c ****       /* Unchain */
 1070              		.loc 1 398 12 is_stmt 0 view .LVU277
 1071 003a DBB2     		uxtb	r3, r3
 398:Middlewares/Third_Party/LwIP/src/apps/mqtt/mqtt.c ****       /* Unchain */
 1072              		.loc 1 398 9 view .LVU278
 1073 003c F31A     		subs	r3, r6, r3
 1074 003e DEB2     		uxtb	r6, r3
 1075              	.LVL108:
 400:Middlewares/Third_Party/LwIP/src/apps/mqtt/mqtt.c ****       /* Notify upper layer about timeout */
 1076              		.loc 1 400 7 is_stmt 1 view .LVU279
 400:Middlewares/Third_Party/LwIP/src/apps/mqtt/mqtt.c ****       /* Notify upper layer about timeout */
 1077              		.loc 1 400 16 is_stmt 0 view .LVU280
 1078 0040 2368     		ldr	r3, [r4]
 400:Middlewares/Third_Party/LwIP/src/apps/mqtt/mqtt.c ****       /* Notify upper layer about timeout */
 1079              		.loc 1 400 13 view .LVU281
 1080 0042 2B60     		str	r3, [r5]
 402:Middlewares/Third_Party/LwIP/src/apps/mqtt/mqtt.c ****         r->cb(r->arg, ERR_TIMEOUT);
 1081              		.loc 1 402 7 is_stmt 1 view .LVU282
 402:Middlewares/Third_Party/LwIP/src/apps/mqtt/mqtt.c ****         r->cb(r->arg, ERR_TIMEOUT);
 1082              		.loc 1 402 12 is_stmt 0 view .LVU283
 1083 0044 6368     		ldr	r3, [r4, #4]
 402:Middlewares/Third_Party/LwIP/src/apps/mqtt/mqtt.c ****         r->cb(r->arg, ERR_TIMEOUT);
 1084              		.loc 1 402 10 view .LVU284
 1085 0046 002B     		cmp	r3, #0
 1086 0048 E8D0     		beq	.L79
 403:Middlewares/Third_Party/LwIP/src/apps/mqtt/mqtt.c ****       }
 1087              		.loc 1 403 9 is_stmt 1 view .LVU285
 1088 004a 6FF00201 		mvn	r1, #2
 1089 004e A068     		ldr	r0, [r4, #8]
 1090 0050 9847     		blx	r3
 1091              	.LVL109:
 1092 0052 E3E7     		b	.L79
 1093              	.L78:
 409:Middlewares/Third_Party/LwIP/src/apps/mqtt/mqtt.c ****       t = 0;
 1094              		.loc 1 409 7 view .LVU286
 409:Middlewares/Third_Party/LwIP/src/apps/mqtt/mqtt.c ****       t = 0;
 1095              		.loc 1 409 23 is_stmt 0 view .LVU287
 1096 0054 9B1A     		subs	r3, r3, r2
ARM GAS  D:\Dev\msys64\tmp\ccB7TkM7.s 			page 35


 1097 0056 E381     		strh	r3, [r4, #14]	@ movhi
 410:Middlewares/Third_Party/LwIP/src/apps/mqtt/mqtt.c ****     }
 1098              		.loc 1 410 7 is_stmt 1 view .LVU288
 1099              	.LVL110:
 410:Middlewares/Third_Party/LwIP/src/apps/mqtt/mqtt.c ****     }
 1100              		.loc 1 410 9 is_stmt 0 view .LVU289
 1101 0058 0026     		movs	r6, #0
 1102 005a E3E7     		b	.L77
 1103              	.LVL111:
 1104              	.L84:
 413:Middlewares/Third_Party/LwIP/src/apps/mqtt/mqtt.c **** 
 1105              		.loc 1 413 1 view .LVU290
 1106 005c 70BD     		pop	{r4, r5, r6, pc}
 1107              	.LVL112:
 1108              	.L86:
 413:Middlewares/Third_Party/LwIP/src/apps/mqtt/mqtt.c **** 
 1109              		.loc 1 413 1 view .LVU291
 1110 005e 00BF     		.align	2
 1111              	.L85:
 1112 0060 00000000 		.word	.LC0
 1113 0064 00000000 		.word	.LC7
 1114 0068 58000000 		.word	.LC2
 1115              		.cfi_endproc
 1116              	.LFE40:
 1118              		.section	.rodata.mqtt_clear_requests.str1.4,"aMS",%progbits,1
 1119              		.align	2
 1120              	.LC8:
 1121 0000 6D717474 		.ascii	"mqtt_clear_requests: tail != NULL\000"
 1121      5F636C65 
 1121      61725F72 
 1121      65717565 
 1121      7374733A 
 1122              		.section	.text.mqtt_clear_requests,"ax",%progbits
 1123              		.align	1
 1124              		.syntax unified
 1125              		.thumb
 1126              		.thumb_func
 1127              		.fpu fpv5-sp-d16
 1129              	mqtt_clear_requests:
 1130              	.LVL113:
 1131              	.LFB41:
 421:Middlewares/Third_Party/LwIP/src/apps/mqtt/mqtt.c ****   struct mqtt_request_t *iter, *next;
 1132              		.loc 1 421 1 is_stmt 1 view -0
 1133              		.cfi_startproc
 1134              		@ args = 0, pretend = 0, frame = 0
 1135              		@ frame_needed = 0, uses_anonymous_args = 0
 421:Middlewares/Third_Party/LwIP/src/apps/mqtt/mqtt.c ****   struct mqtt_request_t *iter, *next;
 1136              		.loc 1 421 1 is_stmt 0 view .LVU293
 1137 0000 38B5     		push	{r3, r4, r5, lr}
 1138              	.LCFI11:
 1139              		.cfi_def_cfa_offset 16
 1140              		.cfi_offset 3, -16
 1141              		.cfi_offset 4, -12
 1142              		.cfi_offset 5, -8
 1143              		.cfi_offset 14, -4
 422:Middlewares/Third_Party/LwIP/src/apps/mqtt/mqtt.c ****   LWIP_ASSERT("mqtt_clear_requests: tail != NULL", tail != NULL);
 1144              		.loc 1 422 3 is_stmt 1 view .LVU294
ARM GAS  D:\Dev\msys64\tmp\ccB7TkM7.s 			page 36


 423:Middlewares/Third_Party/LwIP/src/apps/mqtt/mqtt.c ****   for (iter = *tail; iter != NULL; iter = next) {
 1145              		.loc 1 423 3 view .LVU295
 423:Middlewares/Third_Party/LwIP/src/apps/mqtt/mqtt.c ****   for (iter = *tail; iter != NULL; iter = next) {
 1146              		.loc 1 423 3 view .LVU296
 1147 0002 0546     		mov	r5, r0
 1148 0004 30B1     		cbz	r0, .L92
 1149              	.LVL114:
 1150              	.L88:
 423:Middlewares/Third_Party/LwIP/src/apps/mqtt/mqtt.c ****   for (iter = *tail; iter != NULL; iter = next) {
 1151              		.loc 1 423 3 discriminator 3 view .LVU297
 423:Middlewares/Third_Party/LwIP/src/apps/mqtt/mqtt.c ****   for (iter = *tail; iter != NULL; iter = next) {
 1152              		.loc 1 423 3 discriminator 3 view .LVU298
 424:Middlewares/Third_Party/LwIP/src/apps/mqtt/mqtt.c ****     next = iter->next;
 1153              		.loc 1 424 3 discriminator 3 view .LVU299
 424:Middlewares/Third_Party/LwIP/src/apps/mqtt/mqtt.c ****     next = iter->next;
 1154              		.loc 1 424 13 is_stmt 0 discriminator 3 view .LVU300
 1155 0006 2868     		ldr	r0, [r5]
 1156              	.LVL115:
 1157              	.L89:
 424:Middlewares/Third_Party/LwIP/src/apps/mqtt/mqtt.c ****     next = iter->next;
 1158              		.loc 1 424 22 is_stmt 1 discriminator 1 view .LVU301
 424:Middlewares/Third_Party/LwIP/src/apps/mqtt/mqtt.c ****     next = iter->next;
 1159              		.loc 1 424 3 is_stmt 0 discriminator 1 view .LVU302
 1160 0008 60B1     		cbz	r0, .L93
 425:Middlewares/Third_Party/LwIP/src/apps/mqtt/mqtt.c ****     mqtt_delete_request(iter);
 1161              		.loc 1 425 5 is_stmt 1 discriminator 3 view .LVU303
 425:Middlewares/Third_Party/LwIP/src/apps/mqtt/mqtt.c ****     mqtt_delete_request(iter);
 1162              		.loc 1 425 10 is_stmt 0 discriminator 3 view .LVU304
 1163 000a 0468     		ldr	r4, [r0]
 1164              	.LVL116:
 426:Middlewares/Third_Party/LwIP/src/apps/mqtt/mqtt.c ****   }
 1165              		.loc 1 426 5 is_stmt 1 discriminator 3 view .LVU305
 1166 000c FFF7FEFF 		bl	mqtt_delete_request
 1167              	.LVL117:
 424:Middlewares/Third_Party/LwIP/src/apps/mqtt/mqtt.c ****     next = iter->next;
 1168              		.loc 1 424 36 discriminator 3 view .LVU306
 424:Middlewares/Third_Party/LwIP/src/apps/mqtt/mqtt.c ****     next = iter->next;
 1169              		.loc 1 424 41 is_stmt 0 discriminator 3 view .LVU307
 1170 0010 2046     		mov	r0, r4
 1171 0012 F9E7     		b	.L89
 1172              	.LVL118:
 1173              	.L92:
 423:Middlewares/Third_Party/LwIP/src/apps/mqtt/mqtt.c ****   for (iter = *tail; iter != NULL; iter = next) {
 1174              		.loc 1 423 3 is_stmt 1 discriminator 1 view .LVU308
 423:Middlewares/Third_Party/LwIP/src/apps/mqtt/mqtt.c ****   for (iter = *tail; iter != NULL; iter = next) {
 1175              		.loc 1 423 3 discriminator 1 view .LVU309
 1176 0014 054B     		ldr	r3, .L94
 1177 0016 40F2A712 		movw	r2, #423
 1178 001a 0549     		ldr	r1, .L94+4
 1179 001c 0548     		ldr	r0, .L94+8
 1180              	.LVL119:
 423:Middlewares/Third_Party/LwIP/src/apps/mqtt/mqtt.c ****   for (iter = *tail; iter != NULL; iter = next) {
 1181              		.loc 1 423 3 is_stmt 0 discriminator 1 view .LVU310
 1182 001e FFF7FEFF 		bl	printf
 1183              	.LVL120:
 1184 0022 F0E7     		b	.L88
 1185              	.LVL121:
ARM GAS  D:\Dev\msys64\tmp\ccB7TkM7.s 			page 37


 1186              	.L93:
 428:Middlewares/Third_Party/LwIP/src/apps/mqtt/mqtt.c **** }
 1187              		.loc 1 428 3 is_stmt 1 view .LVU311
 428:Middlewares/Third_Party/LwIP/src/apps/mqtt/mqtt.c **** }
 1188              		.loc 1 428 9 is_stmt 0 view .LVU312
 1189 0024 0023     		movs	r3, #0
 1190 0026 2B60     		str	r3, [r5]
 429:Middlewares/Third_Party/LwIP/src/apps/mqtt/mqtt.c **** /**
 1191              		.loc 1 429 1 view .LVU313
 1192 0028 38BD     		pop	{r3, r4, r5, pc}
 1193              	.LVL122:
 1194              	.L95:
 429:Middlewares/Third_Party/LwIP/src/apps/mqtt/mqtt.c **** /**
 1195              		.loc 1 429 1 view .LVU314
 1196 002a 00BF     		.align	2
 1197              	.L94:
 1198 002c 00000000 		.word	.LC0
 1199 0030 00000000 		.word	.LC8
 1200 0034 58000000 		.word	.LC2
 1201              		.cfi_endproc
 1202              	.LFE41:
 1204              		.section	.rodata.mqtt_take_request.str1.4,"aMS",%progbits,1
 1205              		.align	2
 1206              	.LC9:
 1207 0000 6D717474 		.ascii	"mqtt_take_request: tail != NULL\000"
 1207      5F74616B 
 1207      655F7265 
 1207      71756573 
 1207      743A2074 
 1208              		.section	.text.mqtt_take_request,"ax",%progbits
 1209              		.align	1
 1210              		.syntax unified
 1211              		.thumb
 1212              		.thumb_func
 1213              		.fpu fpv5-sp-d16
 1215              	mqtt_take_request:
 1216              	.LVL123:
 1217              	.LFB39:
 357:Middlewares/Third_Party/LwIP/src/apps/mqtt/mqtt.c ****   struct mqtt_request_t *iter = NULL, *prev = NULL;
 1218              		.loc 1 357 1 is_stmt 1 view -0
 1219              		.cfi_startproc
 1220              		@ args = 0, pretend = 0, frame = 0
 1221              		@ frame_needed = 0, uses_anonymous_args = 0
 357:Middlewares/Third_Party/LwIP/src/apps/mqtt/mqtt.c ****   struct mqtt_request_t *iter = NULL, *prev = NULL;
 1222              		.loc 1 357 1 is_stmt 0 view .LVU316
 1223 0000 38B5     		push	{r3, r4, r5, lr}
 1224              	.LCFI12:
 1225              		.cfi_def_cfa_offset 16
 1226              		.cfi_offset 3, -16
 1227              		.cfi_offset 4, -12
 1228              		.cfi_offset 5, -8
 1229              		.cfi_offset 14, -4
 1230 0002 0C46     		mov	r4, r1
 358:Middlewares/Third_Party/LwIP/src/apps/mqtt/mqtt.c ****   LWIP_ASSERT("mqtt_take_request: tail != NULL", tail != NULL);
 1231              		.loc 1 358 3 is_stmt 1 view .LVU317
 1232              	.LVL124:
 359:Middlewares/Third_Party/LwIP/src/apps/mqtt/mqtt.c ****   /* Search all request for pkt_id */
ARM GAS  D:\Dev\msys64\tmp\ccB7TkM7.s 			page 38


 1233              		.loc 1 359 3 view .LVU318
 359:Middlewares/Third_Party/LwIP/src/apps/mqtt/mqtt.c ****   /* Search all request for pkt_id */
 1234              		.loc 1 359 3 view .LVU319
 1235 0004 0546     		mov	r5, r0
 1236 0006 40B1     		cbz	r0, .L106
 1237              	.LVL125:
 1238              	.L97:
 359:Middlewares/Third_Party/LwIP/src/apps/mqtt/mqtt.c ****   /* Search all request for pkt_id */
 1239              		.loc 1 359 3 discriminator 3 view .LVU320
 359:Middlewares/Third_Party/LwIP/src/apps/mqtt/mqtt.c ****   /* Search all request for pkt_id */
 1240              		.loc 1 359 3 discriminator 3 view .LVU321
 361:Middlewares/Third_Party/LwIP/src/apps/mqtt/mqtt.c ****     if (iter->pkt_id == pkt_id) {
 1241              		.loc 1 361 3 discriminator 3 view .LVU322
 361:Middlewares/Third_Party/LwIP/src/apps/mqtt/mqtt.c ****     if (iter->pkt_id == pkt_id) {
 1242              		.loc 1 361 13 is_stmt 0 discriminator 3 view .LVU323
 1243 0008 2868     		ldr	r0, [r5]
 1244              	.LVL126:
 358:Middlewares/Third_Party/LwIP/src/apps/mqtt/mqtt.c ****   LWIP_ASSERT("mqtt_take_request: tail != NULL", tail != NULL);
 1245              		.loc 1 358 40 discriminator 3 view .LVU324
 1246 000a 0022     		movs	r2, #0
 1247              	.LVL127:
 1248              	.L98:
 361:Middlewares/Third_Party/LwIP/src/apps/mqtt/mqtt.c ****     if (iter->pkt_id == pkt_id) {
 1249              		.loc 1 361 22 is_stmt 1 discriminator 1 view .LVU325
 361:Middlewares/Third_Party/LwIP/src/apps/mqtt/mqtt.c ****     if (iter->pkt_id == pkt_id) {
 1250              		.loc 1 361 3 is_stmt 0 discriminator 1 view .LVU326
 1251 000c 68B1     		cbz	r0, .L99
 362:Middlewares/Third_Party/LwIP/src/apps/mqtt/mqtt.c ****       break;
 1252              		.loc 1 362 5 is_stmt 1 view .LVU327
 362:Middlewares/Third_Party/LwIP/src/apps/mqtt/mqtt.c ****       break;
 1253              		.loc 1 362 13 is_stmt 0 view .LVU328
 1254 000e 8389     		ldrh	r3, [r0, #12]
 362:Middlewares/Third_Party/LwIP/src/apps/mqtt/mqtt.c ****       break;
 1255              		.loc 1 362 8 view .LVU329
 1256 0010 A342     		cmp	r3, r4
 1257 0012 0AD0     		beq	.L99
 365:Middlewares/Third_Party/LwIP/src/apps/mqtt/mqtt.c ****   }
 1258              		.loc 1 365 5 is_stmt 1 discriminator 2 view .LVU330
 1259              	.LVL128:
 361:Middlewares/Third_Party/LwIP/src/apps/mqtt/mqtt.c ****     if (iter->pkt_id == pkt_id) {
 1260              		.loc 1 361 36 discriminator 2 view .LVU331
 365:Middlewares/Third_Party/LwIP/src/apps/mqtt/mqtt.c ****   }
 1261              		.loc 1 365 10 is_stmt 0 discriminator 2 view .LVU332
 1262 0014 0246     		mov	r2, r0
 361:Middlewares/Third_Party/LwIP/src/apps/mqtt/mqtt.c ****     if (iter->pkt_id == pkt_id) {
 1263              		.loc 1 361 41 discriminator 2 view .LVU333
 1264 0016 0068     		ldr	r0, [r0]
 1265              	.LVL129:
 361:Middlewares/Third_Party/LwIP/src/apps/mqtt/mqtt.c ****     if (iter->pkt_id == pkt_id) {
 1266              		.loc 1 361 41 discriminator 2 view .LVU334
 1267 0018 F8E7     		b	.L98
 1268              	.LVL130:
 1269              	.L106:
 359:Middlewares/Third_Party/LwIP/src/apps/mqtt/mqtt.c ****   /* Search all request for pkt_id */
 1270              		.loc 1 359 3 is_stmt 1 discriminator 1 view .LVU335
 359:Middlewares/Third_Party/LwIP/src/apps/mqtt/mqtt.c ****   /* Search all request for pkt_id */
 1271              		.loc 1 359 3 discriminator 1 view .LVU336
ARM GAS  D:\Dev\msys64\tmp\ccB7TkM7.s 			page 39


 1272 001a 0C4B     		ldr	r3, .L108
 1273 001c 40F26712 		movw	r2, #359
 1274 0020 0B49     		ldr	r1, .L108+4
 1275              	.LVL131:
 359:Middlewares/Third_Party/LwIP/src/apps/mqtt/mqtt.c ****   /* Search all request for pkt_id */
 1276              		.loc 1 359 3 is_stmt 0 discriminator 1 view .LVU337
 1277 0022 0C48     		ldr	r0, .L108+8
 1278              	.LVL132:
 359:Middlewares/Third_Party/LwIP/src/apps/mqtt/mqtt.c ****   /* Search all request for pkt_id */
 1279              		.loc 1 359 3 discriminator 1 view .LVU338
 1280 0024 FFF7FEFF 		bl	printf
 1281              	.LVL133:
 1282 0028 EEE7     		b	.L97
 1283              	.LVL134:
 1284              	.L99:
 369:Middlewares/Third_Party/LwIP/src/apps/mqtt/mqtt.c ****     /* unchain */
 1285              		.loc 1 369 3 is_stmt 1 view .LVU339
 369:Middlewares/Third_Party/LwIP/src/apps/mqtt/mqtt.c ****     /* unchain */
 1286              		.loc 1 369 6 is_stmt 0 view .LVU340
 1287 002a 50B1     		cbz	r0, .L96
 371:Middlewares/Third_Party/LwIP/src/apps/mqtt/mqtt.c ****       *tail = iter->next;
 1288              		.loc 1 371 5 is_stmt 1 view .LVU341
 371:Middlewares/Third_Party/LwIP/src/apps/mqtt/mqtt.c ****       *tail = iter->next;
 1289              		.loc 1 371 8 is_stmt 0 view .LVU342
 1290 002c 52B1     		cbz	r2, .L107
 374:Middlewares/Third_Party/LwIP/src/apps/mqtt/mqtt.c ****     }
 1291              		.loc 1 374 7 is_stmt 1 view .LVU343
 374:Middlewares/Third_Party/LwIP/src/apps/mqtt/mqtt.c ****     }
 1292              		.loc 1 374 24 is_stmt 0 view .LVU344
 1293 002e 0368     		ldr	r3, [r0]
 374:Middlewares/Third_Party/LwIP/src/apps/mqtt/mqtt.c ****     }
 1294              		.loc 1 374 18 view .LVU345
 1295 0030 1360     		str	r3, [r2]
 1296              	.L103:
 377:Middlewares/Third_Party/LwIP/src/apps/mqtt/mqtt.c ****       iter->next->timeout_diff += iter->timeout_diff;
 1297              		.loc 1 377 5 is_stmt 1 view .LVU346
 377:Middlewares/Third_Party/LwIP/src/apps/mqtt/mqtt.c ****       iter->next->timeout_diff += iter->timeout_diff;
 1298              		.loc 1 377 13 is_stmt 0 view .LVU347
 1299 0032 0368     		ldr	r3, [r0]
 377:Middlewares/Third_Party/LwIP/src/apps/mqtt/mqtt.c ****       iter->next->timeout_diff += iter->timeout_diff;
 1300              		.loc 1 377 8 view .LVU348
 1301 0034 1BB1     		cbz	r3, .L104
 378:Middlewares/Third_Party/LwIP/src/apps/mqtt/mqtt.c ****     }
 1302              		.loc 1 378 7 is_stmt 1 view .LVU349
 378:Middlewares/Third_Party/LwIP/src/apps/mqtt/mqtt.c ****     }
 1303              		.loc 1 378 39 is_stmt 0 view .LVU350
 1304 0036 C289     		ldrh	r2, [r0, #14]
 1305              	.LVL135:
 378:Middlewares/Third_Party/LwIP/src/apps/mqtt/mqtt.c ****     }
 1306              		.loc 1 378 32 view .LVU351
 1307 0038 D989     		ldrh	r1, [r3, #14]
 1308 003a 0A44     		add	r2, r2, r1
 1309 003c DA81     		strh	r2, [r3, #14]	@ movhi
 1310              	.L104:
 380:Middlewares/Third_Party/LwIP/src/apps/mqtt/mqtt.c ****   }
 1311              		.loc 1 380 5 is_stmt 1 view .LVU352
 380:Middlewares/Third_Party/LwIP/src/apps/mqtt/mqtt.c ****   }
ARM GAS  D:\Dev\msys64\tmp\ccB7TkM7.s 			page 40


 1312              		.loc 1 380 16 is_stmt 0 view .LVU353
 1313 003e 0023     		movs	r3, #0
 1314 0040 0360     		str	r3, [r0]
 382:Middlewares/Third_Party/LwIP/src/apps/mqtt/mqtt.c **** }
 1315              		.loc 1 382 3 is_stmt 1 view .LVU354
 1316              	.L96:
 383:Middlewares/Third_Party/LwIP/src/apps/mqtt/mqtt.c **** 
 1317              		.loc 1 383 1 is_stmt 0 view .LVU355
 1318 0042 38BD     		pop	{r3, r4, r5, pc}
 1319              	.LVL136:
 1320              	.L107:
 372:Middlewares/Third_Party/LwIP/src/apps/mqtt/mqtt.c ****     } else {
 1321              		.loc 1 372 7 is_stmt 1 view .LVU356
 372:Middlewares/Third_Party/LwIP/src/apps/mqtt/mqtt.c ****     } else {
 1322              		.loc 1 372 19 is_stmt 0 view .LVU357
 1323 0044 0368     		ldr	r3, [r0]
 372:Middlewares/Third_Party/LwIP/src/apps/mqtt/mqtt.c ****     } else {
 1324              		.loc 1 372 13 view .LVU358
 1325 0046 2B60     		str	r3, [r5]
 1326 0048 F3E7     		b	.L103
 1327              	.L109:
 1328 004a 00BF     		.align	2
 1329              	.L108:
 1330 004c 00000000 		.word	.LC0
 1331 0050 00000000 		.word	.LC9
 1332 0054 58000000 		.word	.LC2
 1333              		.cfi_endproc
 1334              	.LFE39:
 1336              		.section	.rodata.mqtt_init_requests.str1.4,"aMS",%progbits,1
 1337              		.align	2
 1338              	.LC10:
 1339 0000 6D717474 		.ascii	"mqtt_init_requests: r_objs != NULL\000"
 1339      5F696E69 
 1339      745F7265 
 1339      71756573 
 1339      74733A20 
 1340              		.section	.text.mqtt_init_requests,"ax",%progbits
 1341              		.align	1
 1342              		.syntax unified
 1343              		.thumb
 1344              		.thumb_func
 1345              		.fpu fpv5-sp-d16
 1347              	mqtt_init_requests:
 1348              	.LVL137:
 1349              	.LFB42:
 437:Middlewares/Third_Party/LwIP/src/apps/mqtt/mqtt.c ****   u8_t n;
 1350              		.loc 1 437 1 is_stmt 1 view -0
 1351              		.cfi_startproc
 1352              		@ args = 0, pretend = 0, frame = 0
 1353              		@ frame_needed = 0, uses_anonymous_args = 0
 437:Middlewares/Third_Party/LwIP/src/apps/mqtt/mqtt.c ****   u8_t n;
 1354              		.loc 1 437 1 is_stmt 0 view .LVU360
 1355 0000 38B5     		push	{r3, r4, r5, lr}
 1356              	.LCFI13:
 1357              		.cfi_def_cfa_offset 16
 1358              		.cfi_offset 3, -16
 1359              		.cfi_offset 4, -12
ARM GAS  D:\Dev\msys64\tmp\ccB7TkM7.s 			page 41


 1360              		.cfi_offset 5, -8
 1361              		.cfi_offset 14, -4
 1362 0002 0D46     		mov	r5, r1
 438:Middlewares/Third_Party/LwIP/src/apps/mqtt/mqtt.c ****   LWIP_ASSERT("mqtt_init_requests: r_objs != NULL", r_objs != NULL);
 1363              		.loc 1 438 3 is_stmt 1 view .LVU361
 439:Middlewares/Third_Party/LwIP/src/apps/mqtt/mqtt.c ****   for (n = 0; n < r_objs_len; n++) {
 1364              		.loc 1 439 3 view .LVU362
 439:Middlewares/Third_Party/LwIP/src/apps/mqtt/mqtt.c ****   for (n = 0; n < r_objs_len; n++) {
 1365              		.loc 1 439 3 view .LVU363
 1366 0004 0446     		mov	r4, r0
 1367 0006 48B1     		cbz	r0, .L115
 1368              	.LVL138:
 1369              	.L111:
 437:Middlewares/Third_Party/LwIP/src/apps/mqtt/mqtt.c ****   u8_t n;
 1370              		.loc 1 437 1 is_stmt 0 discriminator 1 view .LVU364
 1371 0008 0023     		movs	r3, #0
 1372              	.L112:
 1373              	.LVL139:
 440:Middlewares/Third_Party/LwIP/src/apps/mqtt/mqtt.c ****     /* Item pointing to itself indicates unused */
 1374              		.loc 1 440 15 is_stmt 1 discriminator 1 view .LVU365
 440:Middlewares/Third_Party/LwIP/src/apps/mqtt/mqtt.c ****     /* Item pointing to itself indicates unused */
 1375              		.loc 1 440 3 is_stmt 0 discriminator 1 view .LVU366
 1376 000a AB42     		cmp	r3, r5
 1377 000c 0ED2     		bcs	.L116
 442:Middlewares/Third_Party/LwIP/src/apps/mqtt/mqtt.c ****   }
 1378              		.loc 1 442 5 is_stmt 1 discriminator 3 view .LVU367
 442:Middlewares/Third_Party/LwIP/src/apps/mqtt/mqtt.c ****   }
 1379              		.loc 1 442 29 is_stmt 0 discriminator 3 view .LVU368
 1380 000e 1A01     		lsls	r2, r3, #4
 442:Middlewares/Third_Party/LwIP/src/apps/mqtt/mqtt.c ****   }
 1381              		.loc 1 442 11 discriminator 3 view .LVU369
 1382 0010 04EB0310 		add	r0, r4, r3, lsl #4
 442:Middlewares/Third_Party/LwIP/src/apps/mqtt/mqtt.c ****   }
 1383              		.loc 1 442 20 discriminator 3 view .LVU370
 1384 0014 A050     		str	r0, [r4, r2]
 440:Middlewares/Third_Party/LwIP/src/apps/mqtt/mqtt.c ****     /* Item pointing to itself indicates unused */
 1385              		.loc 1 440 31 is_stmt 1 discriminator 3 view .LVU371
 440:Middlewares/Third_Party/LwIP/src/apps/mqtt/mqtt.c ****     /* Item pointing to itself indicates unused */
 1386              		.loc 1 440 32 is_stmt 0 discriminator 3 view .LVU372
 1387 0016 0133     		adds	r3, r3, #1
 1388              	.LVL140:
 440:Middlewares/Third_Party/LwIP/src/apps/mqtt/mqtt.c ****     /* Item pointing to itself indicates unused */
 1389              		.loc 1 440 32 discriminator 3 view .LVU373
 1390 0018 DBB2     		uxtb	r3, r3
 1391              	.LVL141:
 440:Middlewares/Third_Party/LwIP/src/apps/mqtt/mqtt.c ****     /* Item pointing to itself indicates unused */
 1392              		.loc 1 440 32 discriminator 3 view .LVU374
 1393 001a F6E7     		b	.L112
 1394              	.LVL142:
 1395              	.L115:
 439:Middlewares/Third_Party/LwIP/src/apps/mqtt/mqtt.c ****   for (n = 0; n < r_objs_len; n++) {
 1396              		.loc 1 439 3 is_stmt 1 discriminator 1 view .LVU375
 439:Middlewares/Third_Party/LwIP/src/apps/mqtt/mqtt.c ****   for (n = 0; n < r_objs_len; n++) {
 1397              		.loc 1 439 3 discriminator 1 view .LVU376
 1398 001c 044B     		ldr	r3, .L117
 1399 001e 40F2B712 		movw	r2, #439
 1400 0022 0449     		ldr	r1, .L117+4
ARM GAS  D:\Dev\msys64\tmp\ccB7TkM7.s 			page 42


 1401              	.LVL143:
 439:Middlewares/Third_Party/LwIP/src/apps/mqtt/mqtt.c ****   for (n = 0; n < r_objs_len; n++) {
 1402              		.loc 1 439 3 is_stmt 0 discriminator 1 view .LVU377
 1403 0024 0448     		ldr	r0, .L117+8
 1404              	.LVL144:
 439:Middlewares/Third_Party/LwIP/src/apps/mqtt/mqtt.c ****   for (n = 0; n < r_objs_len; n++) {
 1405              		.loc 1 439 3 discriminator 1 view .LVU378
 1406 0026 FFF7FEFF 		bl	printf
 1407              	.LVL145:
 1408 002a EDE7     		b	.L111
 1409              	.LVL146:
 1410              	.L116:
 444:Middlewares/Third_Party/LwIP/src/apps/mqtt/mqtt.c **** 
 1411              		.loc 1 444 1 view .LVU379
 1412 002c 38BD     		pop	{r3, r4, r5, pc}
 1413              	.LVL147:
 1414              	.L118:
 444:Middlewares/Third_Party/LwIP/src/apps/mqtt/mqtt.c **** 
 1415              		.loc 1 444 1 view .LVU380
 1416 002e 00BF     		.align	2
 1417              	.L117:
 1418 0030 00000000 		.word	.LC0
 1419 0034 00000000 		.word	.LC10
 1420 0038 58000000 		.word	.LC2
 1421              		.cfi_endproc
 1422              	.LFE42:
 1424              		.section	.rodata.mqtt_output_send.str1.4,"aMS",%progbits,1
 1425              		.align	2
 1426              	.LC11:
 1427 0000 6D717474 		.ascii	"mqtt_output_send: tpcb != NULL\000"
 1427      5F6F7574 
 1427      7075745F 
 1427      73656E64 
 1427      3A207470 
 1428              		.section	.text.mqtt_output_send,"ax",%progbits
 1429              		.align	1
 1430              		.syntax unified
 1431              		.thumb
 1432              		.thumb_func
 1433              		.fpu fpv5-sp-d16
 1435              	mqtt_output_send:
 1436              	.LVL148:
 1437              	.LFB35:
 235:Middlewares/Third_Party/LwIP/src/apps/mqtt/mqtt.c ****   err_t err;
 1438              		.loc 1 235 1 is_stmt 1 view -0
 1439              		.cfi_startproc
 1440              		@ args = 0, pretend = 0, frame = 0
 1441              		@ frame_needed = 0, uses_anonymous_args = 0
 235:Middlewares/Third_Party/LwIP/src/apps/mqtt/mqtt.c ****   err_t err;
 1442              		.loc 1 235 1 is_stmt 0 view .LVU382
 1443 0000 2DE9F041 		push	{r4, r5, r6, r7, r8, lr}
 1444              	.LCFI14:
 1445              		.cfi_def_cfa_offset 24
 1446              		.cfi_offset 4, -24
 1447              		.cfi_offset 5, -20
 1448              		.cfi_offset 6, -16
 1449              		.cfi_offset 7, -12
ARM GAS  D:\Dev\msys64\tmp\ccB7TkM7.s 			page 43


 1450              		.cfi_offset 8, -8
 1451              		.cfi_offset 14, -4
 1452 0004 0646     		mov	r6, r0
 1453 0006 0D46     		mov	r5, r1
 236:Middlewares/Third_Party/LwIP/src/apps/mqtt/mqtt.c ****   u8_t wrap = 0;
 1454              		.loc 1 236 3 is_stmt 1 view .LVU383
 237:Middlewares/Third_Party/LwIP/src/apps/mqtt/mqtt.c ****   u16_t ringbuf_lin_len = mqtt_ringbuf_linear_read_length(rb);
 1455              		.loc 1 237 3 view .LVU384
 1456              	.LVL149:
 238:Middlewares/Third_Party/LwIP/src/apps/mqtt/mqtt.c ****   u16_t send_len = altcp_sndbuf(tpcb);
 1457              		.loc 1 238 3 view .LVU385
 238:Middlewares/Third_Party/LwIP/src/apps/mqtt/mqtt.c ****   u16_t send_len = altcp_sndbuf(tpcb);
 1458              		.loc 1 238 27 is_stmt 0 view .LVU386
 1459 0008 FFF7FEFF 		bl	mqtt_ringbuf_len
 1460              	.LVL150:
 238:Middlewares/Third_Party/LwIP/src/apps/mqtt/mqtt.c ****   u16_t send_len = altcp_sndbuf(tpcb);
 1461              		.loc 1 238 27 view .LVU387
 1462 000c 0446     		mov	r4, r0
 1463 000e 7088     		ldrh	r0, [r6, #2]
 1464 0010 C0F58073 		rsb	r3, r0, #256
 238:Middlewares/Third_Party/LwIP/src/apps/mqtt/mqtt.c ****   u16_t send_len = altcp_sndbuf(tpcb);
 1465              		.loc 1 238 9 view .LVU388
 1466 0014 9C42     		cmp	r4, r3
 1467 0016 00DB     		blt	.L120
 238:Middlewares/Third_Party/LwIP/src/apps/mqtt/mqtt.c ****   u16_t send_len = altcp_sndbuf(tpcb);
 1468              		.loc 1 238 9 discriminator 2 view .LVU389
 1469 0018 9CB2     		uxth	r4, r3
 1470              	.L120:
 1471              	.LVL151:
 239:Middlewares/Third_Party/LwIP/src/apps/mqtt/mqtt.c ****   LWIP_ASSERT("mqtt_output_send: tpcb != NULL", tpcb != NULL);
 1472              		.loc 1 239 3 is_stmt 1 discriminator 4 view .LVU390
 239:Middlewares/Third_Party/LwIP/src/apps/mqtt/mqtt.c ****   LWIP_ASSERT("mqtt_output_send: tpcb != NULL", tpcb != NULL);
 1473              		.loc 1 239 9 is_stmt 0 discriminator 4 view .LVU391
 1474 001a B5F86470 		ldrh	r7, [r5, #100]
 1475              	.LVL152:
 240:Middlewares/Third_Party/LwIP/src/apps/mqtt/mqtt.c **** 
 1476              		.loc 1 240 3 is_stmt 1 discriminator 4 view .LVU392
 240:Middlewares/Third_Party/LwIP/src/apps/mqtt/mqtt.c **** 
 1477              		.loc 1 240 3 discriminator 4 view .LVU393
 1478 001e 9DB1     		cbz	r5, .L133
 1479              	.L121:
 240:Middlewares/Third_Party/LwIP/src/apps/mqtt/mqtt.c **** 
 1480              		.loc 1 240 3 discriminator 3 view .LVU394
 240:Middlewares/Third_Party/LwIP/src/apps/mqtt/mqtt.c **** 
 1481              		.loc 1 240 3 discriminator 3 view .LVU395
 242:Middlewares/Third_Party/LwIP/src/apps/mqtt/mqtt.c ****     return;
 1482              		.loc 1 242 3 discriminator 3 view .LVU396
 242:Middlewares/Third_Party/LwIP/src/apps/mqtt/mqtt.c ****     return;
 1483              		.loc 1 242 40 is_stmt 0 discriminator 3 view .LVU397
 1484 0020 B4FA84F3 		clz	r3, r4
 1485 0024 5B09     		lsrs	r3, r3, #5
 242:Middlewares/Third_Party/LwIP/src/apps/mqtt/mqtt.c ****     return;
 1486              		.loc 1 242 21 discriminator 3 view .LVU398
 1487 0026 002F     		cmp	r7, #0
 1488 0028 08BF     		it	eq
 1489 002a 0123     		moveq	r3, #1
 242:Middlewares/Third_Party/LwIP/src/apps/mqtt/mqtt.c ****     return;
ARM GAS  D:\Dev\msys64\tmp\ccB7TkM7.s 			page 44


 1490              		.loc 1 242 6 discriminator 3 view .LVU399
 1491 002c 43BB     		cbnz	r3, .L119
 247:Middlewares/Third_Party/LwIP/src/apps/mqtt/mqtt.c **** 
 1492              		.loc 1 247 79 is_stmt 1 view .LVU400
 249:Middlewares/Third_Party/LwIP/src/apps/mqtt/mqtt.c ****     /* Space in TCP output buffer is larger than available in ring buffer linear portion */
 1493              		.loc 1 249 3 view .LVU401
 249:Middlewares/Third_Party/LwIP/src/apps/mqtt/mqtt.c ****     /* Space in TCP output buffer is larger than available in ring buffer linear portion */
 1494              		.loc 1 249 6 is_stmt 0 view .LVU402
 1495 002e BC42     		cmp	r4, r7
 1496 0030 11D2     		bcs	.L128
 251:Middlewares/Third_Party/LwIP/src/apps/mqtt/mqtt.c ****     /* Wrap around if more data in ring buffer after linear portion */
 1497              		.loc 1 251 5 is_stmt 1 view .LVU403
 1498              	.LVL153:
 253:Middlewares/Third_Party/LwIP/src/apps/mqtt/mqtt.c ****   }
 1499              		.loc 1 253 5 view .LVU404
 253:Middlewares/Third_Party/LwIP/src/apps/mqtt/mqtt.c ****   }
 1500              		.loc 1 253 13 is_stmt 0 view .LVU405
 1501 0032 3046     		mov	r0, r6
 1502 0034 FFF7FEFF 		bl	mqtt_ringbuf_len
 1503              	.LVL154:
 253:Middlewares/Third_Party/LwIP/src/apps/mqtt/mqtt.c ****   }
 1504              		.loc 1 253 34 view .LVU406
 1505 0038 A042     		cmp	r0, r4
 1506 003a 94BF     		ite	ls
 1507 003c 4FF00008 		movls	r8, #0
 1508 0040 4FF00108 		movhi	r8, #1
 1509              	.LVL155:
 251:Middlewares/Third_Party/LwIP/src/apps/mqtt/mqtt.c ****     /* Wrap around if more data in ring buffer after linear portion */
 1510              		.loc 1 251 14 view .LVU407
 1511 0044 2746     		mov	r7, r4
 1512 0046 08E0     		b	.L123
 1513              	.LVL156:
 1514              	.L133:
 240:Middlewares/Third_Party/LwIP/src/apps/mqtt/mqtt.c **** 
 1515              		.loc 1 240 3 is_stmt 1 discriminator 1 view .LVU408
 240:Middlewares/Third_Party/LwIP/src/apps/mqtt/mqtt.c **** 
 1516              		.loc 1 240 3 discriminator 1 view .LVU409
 1517 0048 264B     		ldr	r3, .L136
 1518 004a F022     		movs	r2, #240
 1519 004c 2649     		ldr	r1, .L136+4
 1520 004e 2748     		ldr	r0, .L136+8
 1521 0050 FFF7FEFF 		bl	printf
 1522              	.LVL157:
 1523 0054 E4E7     		b	.L121
 1524              	.L128:
 237:Middlewares/Third_Party/LwIP/src/apps/mqtt/mqtt.c ****   u16_t ringbuf_lin_len = mqtt_ringbuf_linear_read_length(rb);
 1525              		.loc 1 237 8 is_stmt 0 view .LVU410
 1526 0056 4FF00008 		mov	r8, #0
 1527              	.LVL158:
 1528              	.L123:
 255:Middlewares/Third_Party/LwIP/src/apps/mqtt/mqtt.c ****   if ((err == ERR_OK) && wrap) {
 1529              		.loc 1 255 3 is_stmt 1 view .LVU411
 255:Middlewares/Third_Party/LwIP/src/apps/mqtt/mqtt.c ****   if ((err == ERR_OK) && wrap) {
 1530              		.loc 1 255 27 is_stmt 0 view .LVU412
 1531 005a 3046     		mov	r0, r6
 1532 005c FFF7FEFF 		bl	mqtt_ringbuf_get_ptr
 1533              	.LVL159:
ARM GAS  D:\Dev\msys64\tmp\ccB7TkM7.s 			page 45


 1534 0060 0146     		mov	r1, r0
 255:Middlewares/Third_Party/LwIP/src/apps/mqtt/mqtt.c ****   if ((err == ERR_OK) && wrap) {
 1535              		.loc 1 255 9 view .LVU413
 1536 0062 B8F1000F 		cmp	r8, #0
 1537 0066 0DD0     		beq	.L129
 1538 0068 0323     		movs	r3, #3
 1539              	.L124:
 255:Middlewares/Third_Party/LwIP/src/apps/mqtt/mqtt.c ****   if ((err == ERR_OK) && wrap) {
 1540              		.loc 1 255 9 discriminator 4 view .LVU414
 1541 006a 3A46     		mov	r2, r7
 1542 006c 2846     		mov	r0, r5
 1543 006e FFF7FEFF 		bl	tcp_write
 1544              	.LVL160:
 256:Middlewares/Third_Party/LwIP/src/apps/mqtt/mqtt.c ****     mqtt_ringbuf_advance_get_idx(rb, send_len);
 1545              		.loc 1 256 3 is_stmt 1 discriminator 4 view .LVU415
 256:Middlewares/Third_Party/LwIP/src/apps/mqtt/mqtt.c ****     mqtt_ringbuf_advance_get_idx(rb, send_len);
 1546              		.loc 1 256 12 is_stmt 0 discriminator 4 view .LVU416
 1547 0072 0246     		mov	r2, r0
 256:Middlewares/Third_Party/LwIP/src/apps/mqtt/mqtt.c ****     mqtt_ringbuf_advance_get_idx(rb, send_len);
 1548              		.loc 1 256 23 discriminator 4 view .LVU417
 1549 0074 0028     		cmp	r0, #0
 1550 0076 0CBF     		ite	eq
 1551 0078 4046     		moveq	r0, r8
 1552 007a 0020     		movne	r0, #0
 1553              	.LVL161:
 256:Middlewares/Third_Party/LwIP/src/apps/mqtt/mqtt.c ****     mqtt_ringbuf_advance_get_idx(rb, send_len);
 1554              		.loc 1 256 6 discriminator 4 view .LVU418
 1555 007c 20B9     		cbnz	r0, .L134
 1556              	.LVL162:
 1557              	.L125:
 263:Middlewares/Third_Party/LwIP/src/apps/mqtt/mqtt.c ****     mqtt_ringbuf_advance_get_idx(rb, send_len);
 1558              		.loc 1 263 3 is_stmt 1 view .LVU419
 263:Middlewares/Third_Party/LwIP/src/apps/mqtt/mqtt.c ****     mqtt_ringbuf_advance_get_idx(rb, send_len);
 1559              		.loc 1 263 6 is_stmt 0 view .LVU420
 1560 007e 4AB3     		cbz	r2, .L135
 1561              	.LVL163:
 1562              	.L119:
 270:Middlewares/Third_Party/LwIP/src/apps/mqtt/mqtt.c **** 
 1563              		.loc 1 270 1 view .LVU421
 1564 0080 BDE8F081 		pop	{r4, r5, r6, r7, r8, pc}
 1565              	.LVL164:
 1566              	.L129:
 255:Middlewares/Third_Party/LwIP/src/apps/mqtt/mqtt.c ****   if ((err == ERR_OK) && wrap) {
 1567              		.loc 1 255 9 view .LVU422
 1568 0084 0123     		movs	r3, #1
 1569 0086 F0E7     		b	.L124
 1570              	.L134:
 257:Middlewares/Third_Party/LwIP/src/apps/mqtt/mqtt.c ****     /* Use the lesser one of ring buffer linear length and TCP send buffer size */
 1571              		.loc 1 257 5 is_stmt 1 view .LVU423
 1572 0088 3946     		mov	r1, r7
 1573 008a 3046     		mov	r0, r6
 1574 008c FFF7FEFF 		bl	mqtt_ringbuf_advance_get_idx
 1575              	.LVL165:
 259:Middlewares/Third_Party/LwIP/src/apps/mqtt/mqtt.c ****     err = altcp_write(tpcb, mqtt_ringbuf_get_ptr(rb), send_len, TCP_WRITE_FLAG_COPY);
 1576              		.loc 1 259 5 view .LVU424
 259:Middlewares/Third_Party/LwIP/src/apps/mqtt/mqtt.c ****     err = altcp_write(tpcb, mqtt_ringbuf_get_ptr(rb), send_len, TCP_WRITE_FLAG_COPY);
 1577              		.loc 1 259 16 is_stmt 0 view .LVU425
ARM GAS  D:\Dev\msys64\tmp\ccB7TkM7.s 			page 46


 1578 0090 B5F86470 		ldrh	r7, [r5, #100]
 1579              	.LVL166:
 259:Middlewares/Third_Party/LwIP/src/apps/mqtt/mqtt.c ****     err = altcp_write(tpcb, mqtt_ringbuf_get_ptr(rb), send_len, TCP_WRITE_FLAG_COPY);
 1580              		.loc 1 259 16 view .LVU426
 1581 0094 3C46     		mov	r4, r7
 1582              	.LVL167:
 259:Middlewares/Third_Party/LwIP/src/apps/mqtt/mqtt.c ****     err = altcp_write(tpcb, mqtt_ringbuf_get_ptr(rb), send_len, TCP_WRITE_FLAG_COPY);
 1583              		.loc 1 259 16 view .LVU427
 1584 0096 3046     		mov	r0, r6
 1585 0098 FFF7FEFF 		bl	mqtt_ringbuf_len
 1586              	.LVL168:
 1587 009c 7288     		ldrh	r2, [r6, #2]
 1588 009e C2F58073 		rsb	r3, r2, #256
 1589 00a2 9842     		cmp	r0, r3
 1590 00a4 08DA     		bge	.L130
 1591 00a6 0146     		mov	r1, r0
 1592              	.L126:
 259:Middlewares/Third_Party/LwIP/src/apps/mqtt/mqtt.c ****     err = altcp_write(tpcb, mqtt_ringbuf_get_ptr(rb), send_len, TCP_WRITE_FLAG_COPY);
 1593              		.loc 1 259 14 discriminator 4 view .LVU428
 1594 00a8 8C42     		cmp	r4, r1
 1595 00aa 08DB     		blt	.L127
 259:Middlewares/Third_Party/LwIP/src/apps/mqtt/mqtt.c ****     err = altcp_write(tpcb, mqtt_ringbuf_get_ptr(rb), send_len, TCP_WRITE_FLAG_COPY);
 1596              		.loc 1 259 14 discriminator 6 view .LVU429
 1597 00ac 9842     		cmp	r0, r3
 1598 00ae 05DB     		blt	.L131
 259:Middlewares/Third_Party/LwIP/src/apps/mqtt/mqtt.c ****     err = altcp_write(tpcb, mqtt_ringbuf_get_ptr(rb), send_len, TCP_WRITE_FLAG_COPY);
 1599              		.loc 1 259 14 discriminator 9 view .LVU430
 1600 00b0 C2F58077 		rsb	r7, r2, #256
 1601 00b4 BFB2     		uxth	r7, r7
 1602 00b6 02E0     		b	.L127
 1603              	.L130:
 259:Middlewares/Third_Party/LwIP/src/apps/mqtt/mqtt.c ****     err = altcp_write(tpcb, mqtt_ringbuf_get_ptr(rb), send_len, TCP_WRITE_FLAG_COPY);
 1604              		.loc 1 259 16 view .LVU431
 1605 00b8 1946     		mov	r1, r3
 1606 00ba F5E7     		b	.L126
 1607              	.L131:
 1608 00bc 0746     		mov	r7, r0
 1609              	.L127:
 1610              	.LVL169:
 260:Middlewares/Third_Party/LwIP/src/apps/mqtt/mqtt.c ****   }
 1611              		.loc 1 260 5 is_stmt 1 discriminator 12 view .LVU432
 260:Middlewares/Third_Party/LwIP/src/apps/mqtt/mqtt.c ****   }
 1612              		.loc 1 260 29 is_stmt 0 discriminator 12 view .LVU433
 1613 00be 3046     		mov	r0, r6
 1614 00c0 FFF7FEFF 		bl	mqtt_ringbuf_get_ptr
 1615              	.LVL170:
 1616 00c4 0146     		mov	r1, r0
 260:Middlewares/Third_Party/LwIP/src/apps/mqtt/mqtt.c ****   }
 1617              		.loc 1 260 11 discriminator 12 view .LVU434
 1618 00c6 0123     		movs	r3, #1
 1619 00c8 3A46     		mov	r2, r7
 1620 00ca 2846     		mov	r0, r5
 1621 00cc FFF7FEFF 		bl	tcp_write
 1622              	.LVL171:
 1623 00d0 0246     		mov	r2, r0
 1624              	.LVL172:
 260:Middlewares/Third_Party/LwIP/src/apps/mqtt/mqtt.c ****   }
ARM GAS  D:\Dev\msys64\tmp\ccB7TkM7.s 			page 47


 1625              		.loc 1 260 11 discriminator 12 view .LVU435
 1626 00d2 D4E7     		b	.L125
 1627              	.L135:
 264:Middlewares/Third_Party/LwIP/src/apps/mqtt/mqtt.c ****     /* Flush */
 1628              		.loc 1 264 5 is_stmt 1 view .LVU436
 1629 00d4 3946     		mov	r1, r7
 1630 00d6 3046     		mov	r0, r6
 1631 00d8 FFF7FEFF 		bl	mqtt_ringbuf_advance_get_idx
 1632              	.LVL173:
 266:Middlewares/Third_Party/LwIP/src/apps/mqtt/mqtt.c ****   } else {
 1633              		.loc 1 266 5 view .LVU437
 1634 00dc 2846     		mov	r0, r5
 1635 00de FFF7FEFF 		bl	tcp_output
 1636              	.LVL174:
 268:Middlewares/Third_Party/LwIP/src/apps/mqtt/mqtt.c ****   }
 1637              		.loc 1 268 114 view .LVU438
 1638 00e2 CDE7     		b	.L119
 1639              	.L137:
 1640              		.align	2
 1641              	.L136:
 1642 00e4 00000000 		.word	.LC0
 1643 00e8 00000000 		.word	.LC11
 1644 00ec 58000000 		.word	.LC2
 1645              		.cfi_endproc
 1646              	.LFE35:
 1648              		.section	.text.mqtt_tcp_poll_cb,"ax",%progbits
 1649              		.align	1
 1650              		.syntax unified
 1651              		.thumb
 1652              		.thumb_func
 1653              		.fpu fpv5-sp-d16
 1655              	mqtt_tcp_poll_cb:
 1656              	.LVL175:
 1657              	.LFB58:
 662:Middlewares/Third_Party/LwIP/src/apps/mqtt/mqtt.c **** 
 663:Middlewares/Third_Party/LwIP/src/apps/mqtt/mqtt.c **** 
 664:Middlewares/Third_Party/LwIP/src/apps/mqtt/mqtt.c **** /**
 665:Middlewares/Third_Party/LwIP/src/apps/mqtt/mqtt.c ****  * Complete MQTT message received or buffer full
 666:Middlewares/Third_Party/LwIP/src/apps/mqtt/mqtt.c ****  * @param client MQTT client
 667:Middlewares/Third_Party/LwIP/src/apps/mqtt/mqtt.c ****  * @param fixed_hdr_idx header index
 668:Middlewares/Third_Party/LwIP/src/apps/mqtt/mqtt.c ****  * @param length length received part
 669:Middlewares/Third_Party/LwIP/src/apps/mqtt/mqtt.c ****  * @param remaining_length Remaining length of complete message
 670:Middlewares/Third_Party/LwIP/src/apps/mqtt/mqtt.c ****  */
 671:Middlewares/Third_Party/LwIP/src/apps/mqtt/mqtt.c **** static mqtt_connection_status_t
 672:Middlewares/Third_Party/LwIP/src/apps/mqtt/mqtt.c **** mqtt_message_received(mqtt_client_t *client, u8_t fixed_hdr_idx, u16_t length, u32_t remaining_leng
 673:Middlewares/Third_Party/LwIP/src/apps/mqtt/mqtt.c **** {
 674:Middlewares/Third_Party/LwIP/src/apps/mqtt/mqtt.c ****   mqtt_connection_status_t res = MQTT_CONNECT_ACCEPTED;
 675:Middlewares/Third_Party/LwIP/src/apps/mqtt/mqtt.c **** 
 676:Middlewares/Third_Party/LwIP/src/apps/mqtt/mqtt.c ****   u8_t *var_hdr_payload = client->rx_buffer + fixed_hdr_idx;
 677:Middlewares/Third_Party/LwIP/src/apps/mqtt/mqtt.c ****   size_t var_hdr_payload_bufsize = sizeof(client->rx_buffer) - fixed_hdr_idx;
 678:Middlewares/Third_Party/LwIP/src/apps/mqtt/mqtt.c **** 
 679:Middlewares/Third_Party/LwIP/src/apps/mqtt/mqtt.c ****   /* Control packet type */
 680:Middlewares/Third_Party/LwIP/src/apps/mqtt/mqtt.c ****   u8_t pkt_type = MQTT_CTL_PACKET_TYPE(client->rx_buffer[0]);
 681:Middlewares/Third_Party/LwIP/src/apps/mqtt/mqtt.c ****   u16_t pkt_id = 0;
 682:Middlewares/Third_Party/LwIP/src/apps/mqtt/mqtt.c **** 
 683:Middlewares/Third_Party/LwIP/src/apps/mqtt/mqtt.c ****   LWIP_ASSERT("client->msg_idx < MQTT_VAR_HEADER_BUFFER_LEN", client->msg_idx < MQTT_VAR_HEADER_BUF
 684:Middlewares/Third_Party/LwIP/src/apps/mqtt/mqtt.c ****   LWIP_ASSERT("fixed_hdr_idx <= client->msg_idx", fixed_hdr_idx <= client->msg_idx);
ARM GAS  D:\Dev\msys64\tmp\ccB7TkM7.s 			page 48


 685:Middlewares/Third_Party/LwIP/src/apps/mqtt/mqtt.c ****   LWIP_ERROR("buffer length mismatch", fixed_hdr_idx + length <= MQTT_VAR_HEADER_BUFFER_LEN,
 686:Middlewares/Third_Party/LwIP/src/apps/mqtt/mqtt.c ****              return MQTT_CONNECT_DISCONNECTED);
 687:Middlewares/Third_Party/LwIP/src/apps/mqtt/mqtt.c **** 
 688:Middlewares/Third_Party/LwIP/src/apps/mqtt/mqtt.c ****   if (pkt_type == MQTT_MSG_TYPE_CONNACK) {
 689:Middlewares/Third_Party/LwIP/src/apps/mqtt/mqtt.c ****     if (client->conn_state == MQTT_CONNECTING) {
 690:Middlewares/Third_Party/LwIP/src/apps/mqtt/mqtt.c ****       if (length < 2) {
 691:Middlewares/Third_Party/LwIP/src/apps/mqtt/mqtt.c ****         LWIP_DEBUGF(MQTT_DEBUG_WARN,( "mqtt_message_received: Received short CONNACK message\n"));
 692:Middlewares/Third_Party/LwIP/src/apps/mqtt/mqtt.c ****         goto out_disconnect;
 693:Middlewares/Third_Party/LwIP/src/apps/mqtt/mqtt.c ****       }
 694:Middlewares/Third_Party/LwIP/src/apps/mqtt/mqtt.c ****       /* Get result code from CONNACK */
 695:Middlewares/Third_Party/LwIP/src/apps/mqtt/mqtt.c ****       res = (mqtt_connection_status_t)var_hdr_payload[1];
 696:Middlewares/Third_Party/LwIP/src/apps/mqtt/mqtt.c ****       LWIP_DEBUGF(MQTT_DEBUG_TRACE, ("mqtt_message_received: Connect response code %d\n", res));
 697:Middlewares/Third_Party/LwIP/src/apps/mqtt/mqtt.c ****       if (res == MQTT_CONNECT_ACCEPTED) {
 698:Middlewares/Third_Party/LwIP/src/apps/mqtt/mqtt.c ****         /* Reset cyclic_tick when changing to connected state */
 699:Middlewares/Third_Party/LwIP/src/apps/mqtt/mqtt.c ****         client->cyclic_tick = 0;
 700:Middlewares/Third_Party/LwIP/src/apps/mqtt/mqtt.c ****         client->conn_state = MQTT_CONNECTED;
 701:Middlewares/Third_Party/LwIP/src/apps/mqtt/mqtt.c ****         /* Notify upper layer */
 702:Middlewares/Third_Party/LwIP/src/apps/mqtt/mqtt.c ****         if (client->connect_cb != 0) {
 703:Middlewares/Third_Party/LwIP/src/apps/mqtt/mqtt.c ****           client->connect_cb(client, client->connect_arg, res);
 704:Middlewares/Third_Party/LwIP/src/apps/mqtt/mqtt.c ****         }
 705:Middlewares/Third_Party/LwIP/src/apps/mqtt/mqtt.c ****       }
 706:Middlewares/Third_Party/LwIP/src/apps/mqtt/mqtt.c ****     } else {
 707:Middlewares/Third_Party/LwIP/src/apps/mqtt/mqtt.c ****       LWIP_DEBUGF(MQTT_DEBUG_WARN, ("mqtt_message_received: Received CONNACK in connected state\n")
 708:Middlewares/Third_Party/LwIP/src/apps/mqtt/mqtt.c ****     }
 709:Middlewares/Third_Party/LwIP/src/apps/mqtt/mqtt.c ****   } else if (pkt_type == MQTT_MSG_TYPE_PINGRESP) {
 710:Middlewares/Third_Party/LwIP/src/apps/mqtt/mqtt.c ****     LWIP_DEBUGF(MQTT_DEBUG_TRACE, ( "mqtt_message_received: Received PINGRESP from server\n"));
 711:Middlewares/Third_Party/LwIP/src/apps/mqtt/mqtt.c **** 
 712:Middlewares/Third_Party/LwIP/src/apps/mqtt/mqtt.c ****   } else if (pkt_type == MQTT_MSG_TYPE_PUBLISH) {
 713:Middlewares/Third_Party/LwIP/src/apps/mqtt/mqtt.c ****     u16_t payload_offset = 0;
 714:Middlewares/Third_Party/LwIP/src/apps/mqtt/mqtt.c ****     u16_t payload_length = length;
 715:Middlewares/Third_Party/LwIP/src/apps/mqtt/mqtt.c ****     u8_t qos = MQTT_CTL_PACKET_QOS(client->rx_buffer[0]);
 716:Middlewares/Third_Party/LwIP/src/apps/mqtt/mqtt.c **** 
 717:Middlewares/Third_Party/LwIP/src/apps/mqtt/mqtt.c ****     if (client->msg_idx <= MQTT_VAR_HEADER_BUFFER_LEN) {
 718:Middlewares/Third_Party/LwIP/src/apps/mqtt/mqtt.c ****       /* Should have topic and pkt id*/
 719:Middlewares/Third_Party/LwIP/src/apps/mqtt/mqtt.c ****       u8_t *topic;
 720:Middlewares/Third_Party/LwIP/src/apps/mqtt/mqtt.c ****       u16_t after_topic;
 721:Middlewares/Third_Party/LwIP/src/apps/mqtt/mqtt.c ****       u8_t bkp;
 722:Middlewares/Third_Party/LwIP/src/apps/mqtt/mqtt.c ****       u16_t topic_len;
 723:Middlewares/Third_Party/LwIP/src/apps/mqtt/mqtt.c ****       u16_t qos_len = (qos ? 2U : 0U);
 724:Middlewares/Third_Party/LwIP/src/apps/mqtt/mqtt.c ****       if (length < 2 + qos_len) {
 725:Middlewares/Third_Party/LwIP/src/apps/mqtt/mqtt.c ****         LWIP_DEBUGF(MQTT_DEBUG_WARN,( "mqtt_message_received: Received short PUBLISH packet\n"));
 726:Middlewares/Third_Party/LwIP/src/apps/mqtt/mqtt.c ****         goto out_disconnect;
 727:Middlewares/Third_Party/LwIP/src/apps/mqtt/mqtt.c ****       }
 728:Middlewares/Third_Party/LwIP/src/apps/mqtt/mqtt.c ****       topic_len = var_hdr_payload[0];
 729:Middlewares/Third_Party/LwIP/src/apps/mqtt/mqtt.c ****       topic_len = (topic_len << 8) + (u16_t)(var_hdr_payload[1]);
 730:Middlewares/Third_Party/LwIP/src/apps/mqtt/mqtt.c ****       if ((topic_len > length - (2 + qos_len)) ||
 731:Middlewares/Third_Party/LwIP/src/apps/mqtt/mqtt.c ****           (topic_len > var_hdr_payload_bufsize - (2 + qos_len))) {
 732:Middlewares/Third_Party/LwIP/src/apps/mqtt/mqtt.c ****         LWIP_DEBUGF(MQTT_DEBUG_WARN,( "mqtt_message_received: Received short PUBLISH packet (topic)
 733:Middlewares/Third_Party/LwIP/src/apps/mqtt/mqtt.c ****         goto out_disconnect;
 734:Middlewares/Third_Party/LwIP/src/apps/mqtt/mqtt.c ****       }
 735:Middlewares/Third_Party/LwIP/src/apps/mqtt/mqtt.c **** 
 736:Middlewares/Third_Party/LwIP/src/apps/mqtt/mqtt.c ****       topic = var_hdr_payload + 2;
 737:Middlewares/Third_Party/LwIP/src/apps/mqtt/mqtt.c ****       after_topic = 2 + topic_len;
 738:Middlewares/Third_Party/LwIP/src/apps/mqtt/mqtt.c ****       /* Check buffer length, add one byte even for QoS 0 so that zero termination will fit */
 739:Middlewares/Third_Party/LwIP/src/apps/mqtt/mqtt.c ****       if ((after_topic + (qos ? 2U : 1U)) > var_hdr_payload_bufsize) {
 740:Middlewares/Third_Party/LwIP/src/apps/mqtt/mqtt.c ****         LWIP_DEBUGF(MQTT_DEBUG_WARN, ("mqtt_message_received: Receive buffer can not fit topic + pk
 741:Middlewares/Third_Party/LwIP/src/apps/mqtt/mqtt.c ****         goto out_disconnect;
ARM GAS  D:\Dev\msys64\tmp\ccB7TkM7.s 			page 49


 742:Middlewares/Third_Party/LwIP/src/apps/mqtt/mqtt.c ****       }
 743:Middlewares/Third_Party/LwIP/src/apps/mqtt/mqtt.c **** 
 744:Middlewares/Third_Party/LwIP/src/apps/mqtt/mqtt.c ****       /* id for QoS 1 and 2 */
 745:Middlewares/Third_Party/LwIP/src/apps/mqtt/mqtt.c ****       if (qos > 0) {
 746:Middlewares/Third_Party/LwIP/src/apps/mqtt/mqtt.c ****         if (length < after_topic + 2U) {
 747:Middlewares/Third_Party/LwIP/src/apps/mqtt/mqtt.c ****           LWIP_DEBUGF(MQTT_DEBUG_WARN,( "mqtt_message_received: Received short PUBLISH packet (afte
 748:Middlewares/Third_Party/LwIP/src/apps/mqtt/mqtt.c ****           goto out_disconnect;
 749:Middlewares/Third_Party/LwIP/src/apps/mqtt/mqtt.c ****         }
 750:Middlewares/Third_Party/LwIP/src/apps/mqtt/mqtt.c ****         client->inpub_pkt_id = ((u16_t)var_hdr_payload[after_topic] << 8) + (u16_t)var_hdr_payload[
 751:Middlewares/Third_Party/LwIP/src/apps/mqtt/mqtt.c ****         after_topic += 2;
 752:Middlewares/Third_Party/LwIP/src/apps/mqtt/mqtt.c ****       } else {
 753:Middlewares/Third_Party/LwIP/src/apps/mqtt/mqtt.c ****         client->inpub_pkt_id = 0;
 754:Middlewares/Third_Party/LwIP/src/apps/mqtt/mqtt.c ****       }
 755:Middlewares/Third_Party/LwIP/src/apps/mqtt/mqtt.c ****       /* Take backup of byte after topic */
 756:Middlewares/Third_Party/LwIP/src/apps/mqtt/mqtt.c ****       bkp = topic[topic_len];
 757:Middlewares/Third_Party/LwIP/src/apps/mqtt/mqtt.c ****       /* Zero terminate string */
 758:Middlewares/Third_Party/LwIP/src/apps/mqtt/mqtt.c ****       topic[topic_len] = 0;
 759:Middlewares/Third_Party/LwIP/src/apps/mqtt/mqtt.c ****       /* Payload data remaining in receive buffer */
 760:Middlewares/Third_Party/LwIP/src/apps/mqtt/mqtt.c ****       payload_length = length - after_topic;
 761:Middlewares/Third_Party/LwIP/src/apps/mqtt/mqtt.c ****       payload_offset = after_topic;
 762:Middlewares/Third_Party/LwIP/src/apps/mqtt/mqtt.c **** 
 763:Middlewares/Third_Party/LwIP/src/apps/mqtt/mqtt.c ****       LWIP_DEBUGF(MQTT_DEBUG_TRACE, ("mqtt_incomming_publish: Received message with QoS %d at topic
 764:Middlewares/Third_Party/LwIP/src/apps/mqtt/mqtt.c ****                                      qos, topic, remaining_length + payload_length));
 765:Middlewares/Third_Party/LwIP/src/apps/mqtt/mqtt.c ****       if (client->pub_cb != NULL) {
 766:Middlewares/Third_Party/LwIP/src/apps/mqtt/mqtt.c ****         client->pub_cb(client->inpub_arg, (const char *)topic, remaining_length + payload_length);
 767:Middlewares/Third_Party/LwIP/src/apps/mqtt/mqtt.c ****       }
 768:Middlewares/Third_Party/LwIP/src/apps/mqtt/mqtt.c ****       /* Restore byte after topic */
 769:Middlewares/Third_Party/LwIP/src/apps/mqtt/mqtt.c ****       topic[topic_len] = bkp;
 770:Middlewares/Third_Party/LwIP/src/apps/mqtt/mqtt.c ****     }
 771:Middlewares/Third_Party/LwIP/src/apps/mqtt/mqtt.c ****     if (payload_length > 0 || remaining_length == 0) {
 772:Middlewares/Third_Party/LwIP/src/apps/mqtt/mqtt.c ****       if (length < (size_t)(payload_offset + payload_length)) {
 773:Middlewares/Third_Party/LwIP/src/apps/mqtt/mqtt.c ****         LWIP_DEBUGF(MQTT_DEBUG_WARN,( "mqtt_message_received: Received short packet (payload)\n"));
 774:Middlewares/Third_Party/LwIP/src/apps/mqtt/mqtt.c ****         goto out_disconnect;
 775:Middlewares/Third_Party/LwIP/src/apps/mqtt/mqtt.c ****       }
 776:Middlewares/Third_Party/LwIP/src/apps/mqtt/mqtt.c ****       client->data_cb(client->inpub_arg, var_hdr_payload + payload_offset, payload_length, remainin
 777:Middlewares/Third_Party/LwIP/src/apps/mqtt/mqtt.c ****       /* Reply if QoS > 0 */
 778:Middlewares/Third_Party/LwIP/src/apps/mqtt/mqtt.c ****       if (remaining_length == 0 && qos > 0) {
 779:Middlewares/Third_Party/LwIP/src/apps/mqtt/mqtt.c ****         /* Send PUBACK for QoS 1 or PUBREC for QoS 2 */
 780:Middlewares/Third_Party/LwIP/src/apps/mqtt/mqtt.c ****         u8_t resp_msg = (qos == 1) ? MQTT_MSG_TYPE_PUBACK : MQTT_MSG_TYPE_PUBREC;
 781:Middlewares/Third_Party/LwIP/src/apps/mqtt/mqtt.c ****         LWIP_DEBUGF(MQTT_DEBUG_TRACE, ("mqtt_incomming_publish: Sending publish response: %s with p
 782:Middlewares/Third_Party/LwIP/src/apps/mqtt/mqtt.c ****                                        mqtt_msg_type_to_str(resp_msg), client->inpub_pkt_id));
 783:Middlewares/Third_Party/LwIP/src/apps/mqtt/mqtt.c ****         pub_ack_rec_rel_response(client, resp_msg, client->inpub_pkt_id, 0);
 784:Middlewares/Third_Party/LwIP/src/apps/mqtt/mqtt.c ****       }
 785:Middlewares/Third_Party/LwIP/src/apps/mqtt/mqtt.c ****     }
 786:Middlewares/Third_Party/LwIP/src/apps/mqtt/mqtt.c ****   } else {
 787:Middlewares/Third_Party/LwIP/src/apps/mqtt/mqtt.c ****     /* Get packet identifier */
 788:Middlewares/Third_Party/LwIP/src/apps/mqtt/mqtt.c ****     pkt_id = (u16_t)var_hdr_payload[0] << 8;
 789:Middlewares/Third_Party/LwIP/src/apps/mqtt/mqtt.c ****     pkt_id |= (u16_t)var_hdr_payload[1];
 790:Middlewares/Third_Party/LwIP/src/apps/mqtt/mqtt.c ****     if (pkt_id == 0) {
 791:Middlewares/Third_Party/LwIP/src/apps/mqtt/mqtt.c ****       LWIP_DEBUGF(MQTT_DEBUG_WARN, ("mqtt_message_received: Got message with illegal packet identif
 792:Middlewares/Third_Party/LwIP/src/apps/mqtt/mqtt.c ****       goto out_disconnect;
 793:Middlewares/Third_Party/LwIP/src/apps/mqtt/mqtt.c ****     }
 794:Middlewares/Third_Party/LwIP/src/apps/mqtt/mqtt.c ****     if (pkt_type == MQTT_MSG_TYPE_PUBREC) {
 795:Middlewares/Third_Party/LwIP/src/apps/mqtt/mqtt.c ****       LWIP_DEBUGF(MQTT_DEBUG_TRACE, ("mqtt_message_received: PUBREC, sending PUBREL with pkt_id: %d
 796:Middlewares/Third_Party/LwIP/src/apps/mqtt/mqtt.c ****       pub_ack_rec_rel_response(client, MQTT_MSG_TYPE_PUBREL, pkt_id, 1);
 797:Middlewares/Third_Party/LwIP/src/apps/mqtt/mqtt.c **** 
 798:Middlewares/Third_Party/LwIP/src/apps/mqtt/mqtt.c ****     } else if (pkt_type == MQTT_MSG_TYPE_PUBREL) {
ARM GAS  D:\Dev\msys64\tmp\ccB7TkM7.s 			page 50


 799:Middlewares/Third_Party/LwIP/src/apps/mqtt/mqtt.c ****       LWIP_DEBUGF(MQTT_DEBUG_TRACE, ("mqtt_message_received: PUBREL, sending PUBCOMP response with 
 800:Middlewares/Third_Party/LwIP/src/apps/mqtt/mqtt.c ****       pub_ack_rec_rel_response(client, MQTT_MSG_TYPE_PUBCOMP, pkt_id, 0);
 801:Middlewares/Third_Party/LwIP/src/apps/mqtt/mqtt.c **** 
 802:Middlewares/Third_Party/LwIP/src/apps/mqtt/mqtt.c ****     } else if (pkt_type == MQTT_MSG_TYPE_SUBACK || pkt_type == MQTT_MSG_TYPE_UNSUBACK ||
 803:Middlewares/Third_Party/LwIP/src/apps/mqtt/mqtt.c ****                pkt_type == MQTT_MSG_TYPE_PUBCOMP || pkt_type == MQTT_MSG_TYPE_PUBACK) {
 804:Middlewares/Third_Party/LwIP/src/apps/mqtt/mqtt.c ****       struct mqtt_request_t *r = mqtt_take_request(&client->pend_req_queue, pkt_id);
 805:Middlewares/Third_Party/LwIP/src/apps/mqtt/mqtt.c ****       if (r != NULL) {
 806:Middlewares/Third_Party/LwIP/src/apps/mqtt/mqtt.c ****         LWIP_DEBUGF(MQTT_DEBUG_TRACE, ("mqtt_message_received: %s response with id %d\n", mqtt_msg_
 807:Middlewares/Third_Party/LwIP/src/apps/mqtt/mqtt.c ****         if (pkt_type == MQTT_MSG_TYPE_SUBACK) {
 808:Middlewares/Third_Party/LwIP/src/apps/mqtt/mqtt.c ****           if (length < 3) {
 809:Middlewares/Third_Party/LwIP/src/apps/mqtt/mqtt.c ****             LWIP_DEBUGF(MQTT_DEBUG_WARN, ("mqtt_message_received: To small SUBACK packet\n"));
 810:Middlewares/Third_Party/LwIP/src/apps/mqtt/mqtt.c ****             goto out_disconnect;
 811:Middlewares/Third_Party/LwIP/src/apps/mqtt/mqtt.c ****           } else {
 812:Middlewares/Third_Party/LwIP/src/apps/mqtt/mqtt.c ****             mqtt_incomming_suback(r, var_hdr_payload[2]);
 813:Middlewares/Third_Party/LwIP/src/apps/mqtt/mqtt.c ****           }
 814:Middlewares/Third_Party/LwIP/src/apps/mqtt/mqtt.c ****         } else if (r->cb != NULL) {
 815:Middlewares/Third_Party/LwIP/src/apps/mqtt/mqtt.c ****           r->cb(r->arg, ERR_OK);
 816:Middlewares/Third_Party/LwIP/src/apps/mqtt/mqtt.c ****         }
 817:Middlewares/Third_Party/LwIP/src/apps/mqtt/mqtt.c ****         mqtt_delete_request(r);
 818:Middlewares/Third_Party/LwIP/src/apps/mqtt/mqtt.c ****       } else {
 819:Middlewares/Third_Party/LwIP/src/apps/mqtt/mqtt.c ****         LWIP_DEBUGF(MQTT_DEBUG_WARN, ( "mqtt_message_received: Received %s reply, with wrong pkt_id
 820:Middlewares/Third_Party/LwIP/src/apps/mqtt/mqtt.c ****       }
 821:Middlewares/Third_Party/LwIP/src/apps/mqtt/mqtt.c ****     } else {
 822:Middlewares/Third_Party/LwIP/src/apps/mqtt/mqtt.c ****       LWIP_DEBUGF(MQTT_DEBUG_WARN, ( "mqtt_message_received: Received unknown message type: %d\n", 
 823:Middlewares/Third_Party/LwIP/src/apps/mqtt/mqtt.c ****       goto out_disconnect;
 824:Middlewares/Third_Party/LwIP/src/apps/mqtt/mqtt.c ****     }
 825:Middlewares/Third_Party/LwIP/src/apps/mqtt/mqtt.c ****   }
 826:Middlewares/Third_Party/LwIP/src/apps/mqtt/mqtt.c ****   return res;
 827:Middlewares/Third_Party/LwIP/src/apps/mqtt/mqtt.c **** out_disconnect:
 828:Middlewares/Third_Party/LwIP/src/apps/mqtt/mqtt.c ****   return MQTT_CONNECT_DISCONNECTED;
 829:Middlewares/Third_Party/LwIP/src/apps/mqtt/mqtt.c **** }
 830:Middlewares/Third_Party/LwIP/src/apps/mqtt/mqtt.c **** 
 831:Middlewares/Third_Party/LwIP/src/apps/mqtt/mqtt.c **** 
 832:Middlewares/Third_Party/LwIP/src/apps/mqtt/mqtt.c **** /**
 833:Middlewares/Third_Party/LwIP/src/apps/mqtt/mqtt.c ****  * MQTT incoming message parser
 834:Middlewares/Third_Party/LwIP/src/apps/mqtt/mqtt.c ****  * @param client MQTT client
 835:Middlewares/Third_Party/LwIP/src/apps/mqtt/mqtt.c ****  * @param p PBUF chain of received data
 836:Middlewares/Third_Party/LwIP/src/apps/mqtt/mqtt.c ****  * @return Connection status
 837:Middlewares/Third_Party/LwIP/src/apps/mqtt/mqtt.c ****  */
 838:Middlewares/Third_Party/LwIP/src/apps/mqtt/mqtt.c **** static mqtt_connection_status_t
 839:Middlewares/Third_Party/LwIP/src/apps/mqtt/mqtt.c **** mqtt_parse_incoming(mqtt_client_t *client, struct pbuf *p)
 840:Middlewares/Third_Party/LwIP/src/apps/mqtt/mqtt.c **** {
 841:Middlewares/Third_Party/LwIP/src/apps/mqtt/mqtt.c ****   u16_t in_offset = 0;
 842:Middlewares/Third_Party/LwIP/src/apps/mqtt/mqtt.c ****   u32_t msg_rem_len = 0;
 843:Middlewares/Third_Party/LwIP/src/apps/mqtt/mqtt.c ****   u8_t fixed_hdr_idx = 0;
 844:Middlewares/Third_Party/LwIP/src/apps/mqtt/mqtt.c ****   u8_t b = 0;
 845:Middlewares/Third_Party/LwIP/src/apps/mqtt/mqtt.c **** 
 846:Middlewares/Third_Party/LwIP/src/apps/mqtt/mqtt.c ****   while (p->tot_len > in_offset) {
 847:Middlewares/Third_Party/LwIP/src/apps/mqtt/mqtt.c ****     /* We ALWAYS parse the header here first. Even if the header was not
 848:Middlewares/Third_Party/LwIP/src/apps/mqtt/mqtt.c ****        included in this segment, we re-parse it here by buffering it in
 849:Middlewares/Third_Party/LwIP/src/apps/mqtt/mqtt.c ****        client->rx_buffer. client->msg_idx keeps track of this. */
 850:Middlewares/Third_Party/LwIP/src/apps/mqtt/mqtt.c ****     if ((fixed_hdr_idx < 2) || ((b & 0x80) != 0)) {
 851:Middlewares/Third_Party/LwIP/src/apps/mqtt/mqtt.c **** 
 852:Middlewares/Third_Party/LwIP/src/apps/mqtt/mqtt.c ****       if (fixed_hdr_idx < client->msg_idx) {
 853:Middlewares/Third_Party/LwIP/src/apps/mqtt/mqtt.c ****         /* parse header from old pbuf (buffered in client->rx_buffer) */
 854:Middlewares/Third_Party/LwIP/src/apps/mqtt/mqtt.c ****         b = client->rx_buffer[fixed_hdr_idx];
 855:Middlewares/Third_Party/LwIP/src/apps/mqtt/mqtt.c ****       } else {
ARM GAS  D:\Dev\msys64\tmp\ccB7TkM7.s 			page 51


 856:Middlewares/Third_Party/LwIP/src/apps/mqtt/mqtt.c ****         /* parse header from this pbuf and save it in client->rx_buffer in case
 857:Middlewares/Third_Party/LwIP/src/apps/mqtt/mqtt.c ****            it comes in segmented */
 858:Middlewares/Third_Party/LwIP/src/apps/mqtt/mqtt.c ****         b = pbuf_get_at(p, in_offset++);
 859:Middlewares/Third_Party/LwIP/src/apps/mqtt/mqtt.c ****         client->rx_buffer[client->msg_idx++] = b;
 860:Middlewares/Third_Party/LwIP/src/apps/mqtt/mqtt.c ****       }
 861:Middlewares/Third_Party/LwIP/src/apps/mqtt/mqtt.c ****       fixed_hdr_idx++;
 862:Middlewares/Third_Party/LwIP/src/apps/mqtt/mqtt.c **** 
 863:Middlewares/Third_Party/LwIP/src/apps/mqtt/mqtt.c ****       if (fixed_hdr_idx >= 2) {
 864:Middlewares/Third_Party/LwIP/src/apps/mqtt/mqtt.c ****         /* fixed header contains at least 2 bytes but can contain more, depending on
 865:Middlewares/Third_Party/LwIP/src/apps/mqtt/mqtt.c ****            'remaining length'. All bytes but the last of this have 0x80 set to
 866:Middlewares/Third_Party/LwIP/src/apps/mqtt/mqtt.c ****            indicate more bytes are coming. */
 867:Middlewares/Third_Party/LwIP/src/apps/mqtt/mqtt.c ****         msg_rem_len |= (u32_t)(b & 0x7f) << ((fixed_hdr_idx - 2) * 7);
 868:Middlewares/Third_Party/LwIP/src/apps/mqtt/mqtt.c ****         if ((b & 0x80) == 0) {
 869:Middlewares/Third_Party/LwIP/src/apps/mqtt/mqtt.c ****           /* fixed header is done */
 870:Middlewares/Third_Party/LwIP/src/apps/mqtt/mqtt.c ****           LWIP_DEBUGF(MQTT_DEBUG_TRACE, ("mqtt_parse_incoming: Remaining length after fixed header:
 871:Middlewares/Third_Party/LwIP/src/apps/mqtt/mqtt.c ****           if (msg_rem_len == 0) {
 872:Middlewares/Third_Party/LwIP/src/apps/mqtt/mqtt.c ****             /* Complete message with no extra headers of payload received */
 873:Middlewares/Third_Party/LwIP/src/apps/mqtt/mqtt.c ****             mqtt_message_received(client, fixed_hdr_idx, 0, 0);
 874:Middlewares/Third_Party/LwIP/src/apps/mqtt/mqtt.c ****             client->msg_idx = 0;
 875:Middlewares/Third_Party/LwIP/src/apps/mqtt/mqtt.c ****             fixed_hdr_idx = 0;
 876:Middlewares/Third_Party/LwIP/src/apps/mqtt/mqtt.c ****           } else {
 877:Middlewares/Third_Party/LwIP/src/apps/mqtt/mqtt.c ****             /* Bytes remaining in message (changes remaining length if this is
 878:Middlewares/Third_Party/LwIP/src/apps/mqtt/mqtt.c ****                not the first segment of this message) */
 879:Middlewares/Third_Party/LwIP/src/apps/mqtt/mqtt.c ****             msg_rem_len = (msg_rem_len + fixed_hdr_idx) - client->msg_idx;
 880:Middlewares/Third_Party/LwIP/src/apps/mqtt/mqtt.c ****           }
 881:Middlewares/Third_Party/LwIP/src/apps/mqtt/mqtt.c ****         }
 882:Middlewares/Third_Party/LwIP/src/apps/mqtt/mqtt.c ****       }
 883:Middlewares/Third_Party/LwIP/src/apps/mqtt/mqtt.c ****     } else {
 884:Middlewares/Third_Party/LwIP/src/apps/mqtt/mqtt.c ****       /* Fixed header has been parsed, parse variable header */
 885:Middlewares/Third_Party/LwIP/src/apps/mqtt/mqtt.c ****       u16_t cpy_len, cpy_start, buffer_space;
 886:Middlewares/Third_Party/LwIP/src/apps/mqtt/mqtt.c **** 
 887:Middlewares/Third_Party/LwIP/src/apps/mqtt/mqtt.c ****       cpy_start = (client->msg_idx - fixed_hdr_idx) % (MQTT_VAR_HEADER_BUFFER_LEN - fixed_hdr_idx) 
 888:Middlewares/Third_Party/LwIP/src/apps/mqtt/mqtt.c **** 
 889:Middlewares/Third_Party/LwIP/src/apps/mqtt/mqtt.c ****       /* Allow to copy the lesser one of available length in input data or bytes remaining in messa
 890:Middlewares/Third_Party/LwIP/src/apps/mqtt/mqtt.c ****       cpy_len = (u16_t)LWIP_MIN((u16_t)(p->tot_len - in_offset), msg_rem_len);
 891:Middlewares/Third_Party/LwIP/src/apps/mqtt/mqtt.c **** 
 892:Middlewares/Third_Party/LwIP/src/apps/mqtt/mqtt.c ****       /* Limit to available space in buffer */
 893:Middlewares/Third_Party/LwIP/src/apps/mqtt/mqtt.c ****       buffer_space = MQTT_VAR_HEADER_BUFFER_LEN - cpy_start;
 894:Middlewares/Third_Party/LwIP/src/apps/mqtt/mqtt.c ****       if (cpy_len > buffer_space) {
 895:Middlewares/Third_Party/LwIP/src/apps/mqtt/mqtt.c ****         cpy_len = buffer_space;
 896:Middlewares/Third_Party/LwIP/src/apps/mqtt/mqtt.c ****       }
 897:Middlewares/Third_Party/LwIP/src/apps/mqtt/mqtt.c ****       pbuf_copy_partial(p, client->rx_buffer + cpy_start, cpy_len, in_offset);
 898:Middlewares/Third_Party/LwIP/src/apps/mqtt/mqtt.c **** 
 899:Middlewares/Third_Party/LwIP/src/apps/mqtt/mqtt.c ****       /* Advance get and put indexes  */
 900:Middlewares/Third_Party/LwIP/src/apps/mqtt/mqtt.c ****       client->msg_idx += cpy_len;
 901:Middlewares/Third_Party/LwIP/src/apps/mqtt/mqtt.c ****       in_offset += cpy_len;
 902:Middlewares/Third_Party/LwIP/src/apps/mqtt/mqtt.c ****       msg_rem_len -= cpy_len;
 903:Middlewares/Third_Party/LwIP/src/apps/mqtt/mqtt.c **** 
 904:Middlewares/Third_Party/LwIP/src/apps/mqtt/mqtt.c ****       LWIP_DEBUGF(MQTT_DEBUG_TRACE, ("mqtt_parse_incoming: msg_idx: %"U32_F", cpy_len: %"U16_F", re
 905:Middlewares/Third_Party/LwIP/src/apps/mqtt/mqtt.c ****       if ((msg_rem_len == 0) || (cpy_len == buffer_space)) {
 906:Middlewares/Third_Party/LwIP/src/apps/mqtt/mqtt.c ****         /* Whole message received or buffer is full */
 907:Middlewares/Third_Party/LwIP/src/apps/mqtt/mqtt.c ****         mqtt_connection_status_t res = mqtt_message_received(client, fixed_hdr_idx, (cpy_start + cp
 908:Middlewares/Third_Party/LwIP/src/apps/mqtt/mqtt.c ****         if (res != MQTT_CONNECT_ACCEPTED) {
 909:Middlewares/Third_Party/LwIP/src/apps/mqtt/mqtt.c ****           return res;
 910:Middlewares/Third_Party/LwIP/src/apps/mqtt/mqtt.c ****         }
 911:Middlewares/Third_Party/LwIP/src/apps/mqtt/mqtt.c ****         if (msg_rem_len == 0) {
 912:Middlewares/Third_Party/LwIP/src/apps/mqtt/mqtt.c ****           /* Reset parser state */
ARM GAS  D:\Dev\msys64\tmp\ccB7TkM7.s 			page 52


 913:Middlewares/Third_Party/LwIP/src/apps/mqtt/mqtt.c ****           client->msg_idx = 0;
 914:Middlewares/Third_Party/LwIP/src/apps/mqtt/mqtt.c ****           /* msg_tot_len = 0; */
 915:Middlewares/Third_Party/LwIP/src/apps/mqtt/mqtt.c ****           fixed_hdr_idx = 0;
 916:Middlewares/Third_Party/LwIP/src/apps/mqtt/mqtt.c ****         }
 917:Middlewares/Third_Party/LwIP/src/apps/mqtt/mqtt.c ****       }
 918:Middlewares/Third_Party/LwIP/src/apps/mqtt/mqtt.c ****     }
 919:Middlewares/Third_Party/LwIP/src/apps/mqtt/mqtt.c ****   }
 920:Middlewares/Third_Party/LwIP/src/apps/mqtt/mqtt.c ****   return MQTT_CONNECT_ACCEPTED;
 921:Middlewares/Third_Party/LwIP/src/apps/mqtt/mqtt.c **** }
 922:Middlewares/Third_Party/LwIP/src/apps/mqtt/mqtt.c **** 
 923:Middlewares/Third_Party/LwIP/src/apps/mqtt/mqtt.c **** 
 924:Middlewares/Third_Party/LwIP/src/apps/mqtt/mqtt.c **** /**
 925:Middlewares/Third_Party/LwIP/src/apps/mqtt/mqtt.c ****  * TCP received callback function. @see tcp_recv_fn
 926:Middlewares/Third_Party/LwIP/src/apps/mqtt/mqtt.c ****  * @param arg MQTT client
 927:Middlewares/Third_Party/LwIP/src/apps/mqtt/mqtt.c ****  * @param p PBUF chain of received data
 928:Middlewares/Third_Party/LwIP/src/apps/mqtt/mqtt.c ****  * @param err Passed as return value if not ERR_OK
 929:Middlewares/Third_Party/LwIP/src/apps/mqtt/mqtt.c ****  * @return ERR_OK or err passed into callback
 930:Middlewares/Third_Party/LwIP/src/apps/mqtt/mqtt.c ****  */
 931:Middlewares/Third_Party/LwIP/src/apps/mqtt/mqtt.c **** static err_t
 932:Middlewares/Third_Party/LwIP/src/apps/mqtt/mqtt.c **** mqtt_tcp_recv_cb(void *arg, struct altcp_pcb *pcb, struct pbuf *p, err_t err)
 933:Middlewares/Third_Party/LwIP/src/apps/mqtt/mqtt.c **** {
 934:Middlewares/Third_Party/LwIP/src/apps/mqtt/mqtt.c ****   mqtt_client_t *client = (mqtt_client_t *)arg;
 935:Middlewares/Third_Party/LwIP/src/apps/mqtt/mqtt.c ****   LWIP_ASSERT("mqtt_tcp_recv_cb: client != NULL", client != NULL);
 936:Middlewares/Third_Party/LwIP/src/apps/mqtt/mqtt.c ****   LWIP_ASSERT("mqtt_tcp_recv_cb: client->conn == pcb", client->conn == pcb);
 937:Middlewares/Third_Party/LwIP/src/apps/mqtt/mqtt.c **** 
 938:Middlewares/Third_Party/LwIP/src/apps/mqtt/mqtt.c ****   if (p == NULL) {
 939:Middlewares/Third_Party/LwIP/src/apps/mqtt/mqtt.c ****     LWIP_DEBUGF(MQTT_DEBUG_TRACE, ("mqtt_tcp_recv_cb: Recv pbuf=NULL, remote has closed connection\
 940:Middlewares/Third_Party/LwIP/src/apps/mqtt/mqtt.c ****     mqtt_close(client, MQTT_CONNECT_DISCONNECTED);
 941:Middlewares/Third_Party/LwIP/src/apps/mqtt/mqtt.c ****   } else {
 942:Middlewares/Third_Party/LwIP/src/apps/mqtt/mqtt.c ****     mqtt_connection_status_t res;
 943:Middlewares/Third_Party/LwIP/src/apps/mqtt/mqtt.c ****     if (err != ERR_OK) {
 944:Middlewares/Third_Party/LwIP/src/apps/mqtt/mqtt.c ****       LWIP_DEBUGF(MQTT_DEBUG_WARN, ("mqtt_tcp_recv_cb: Recv err=%d\n", err));
 945:Middlewares/Third_Party/LwIP/src/apps/mqtt/mqtt.c ****       pbuf_free(p);
 946:Middlewares/Third_Party/LwIP/src/apps/mqtt/mqtt.c ****       return err;
 947:Middlewares/Third_Party/LwIP/src/apps/mqtt/mqtt.c ****     }
 948:Middlewares/Third_Party/LwIP/src/apps/mqtt/mqtt.c **** 
 949:Middlewares/Third_Party/LwIP/src/apps/mqtt/mqtt.c ****     /* Tell remote that data has been received */
 950:Middlewares/Third_Party/LwIP/src/apps/mqtt/mqtt.c ****     altcp_recved(pcb, p->tot_len);
 951:Middlewares/Third_Party/LwIP/src/apps/mqtt/mqtt.c ****     res = mqtt_parse_incoming(client, p);
 952:Middlewares/Third_Party/LwIP/src/apps/mqtt/mqtt.c ****     pbuf_free(p);
 953:Middlewares/Third_Party/LwIP/src/apps/mqtt/mqtt.c **** 
 954:Middlewares/Third_Party/LwIP/src/apps/mqtt/mqtt.c ****     if (res != MQTT_CONNECT_ACCEPTED) {
 955:Middlewares/Third_Party/LwIP/src/apps/mqtt/mqtt.c ****       mqtt_close(client, res);
 956:Middlewares/Third_Party/LwIP/src/apps/mqtt/mqtt.c ****     }
 957:Middlewares/Third_Party/LwIP/src/apps/mqtt/mqtt.c ****     /* If keep alive functionality is used */
 958:Middlewares/Third_Party/LwIP/src/apps/mqtt/mqtt.c ****     if (client->keep_alive != 0) {
 959:Middlewares/Third_Party/LwIP/src/apps/mqtt/mqtt.c ****       /* Reset server alive watchdog */
 960:Middlewares/Third_Party/LwIP/src/apps/mqtt/mqtt.c ****       client->server_watchdog = 0;
 961:Middlewares/Third_Party/LwIP/src/apps/mqtt/mqtt.c ****     }
 962:Middlewares/Third_Party/LwIP/src/apps/mqtt/mqtt.c **** 
 963:Middlewares/Third_Party/LwIP/src/apps/mqtt/mqtt.c ****   }
 964:Middlewares/Third_Party/LwIP/src/apps/mqtt/mqtt.c ****   return ERR_OK;
 965:Middlewares/Third_Party/LwIP/src/apps/mqtt/mqtt.c **** }
 966:Middlewares/Third_Party/LwIP/src/apps/mqtt/mqtt.c **** 
 967:Middlewares/Third_Party/LwIP/src/apps/mqtt/mqtt.c **** 
 968:Middlewares/Third_Party/LwIP/src/apps/mqtt/mqtt.c **** /**
 969:Middlewares/Third_Party/LwIP/src/apps/mqtt/mqtt.c ****  * TCP data sent callback function. @see tcp_sent_fn
ARM GAS  D:\Dev\msys64\tmp\ccB7TkM7.s 			page 53


 970:Middlewares/Third_Party/LwIP/src/apps/mqtt/mqtt.c ****  * @param arg MQTT client
 971:Middlewares/Third_Party/LwIP/src/apps/mqtt/mqtt.c ****  * @param tpcb TCP connection handle
 972:Middlewares/Third_Party/LwIP/src/apps/mqtt/mqtt.c ****  * @param len Number of bytes sent
 973:Middlewares/Third_Party/LwIP/src/apps/mqtt/mqtt.c ****  * @return ERR_OK
 974:Middlewares/Third_Party/LwIP/src/apps/mqtt/mqtt.c ****  */
 975:Middlewares/Third_Party/LwIP/src/apps/mqtt/mqtt.c **** static err_t
 976:Middlewares/Third_Party/LwIP/src/apps/mqtt/mqtt.c **** mqtt_tcp_sent_cb(void *arg, struct altcp_pcb *tpcb, u16_t len)
 977:Middlewares/Third_Party/LwIP/src/apps/mqtt/mqtt.c **** {
 978:Middlewares/Third_Party/LwIP/src/apps/mqtt/mqtt.c ****   mqtt_client_t *client = (mqtt_client_t *)arg;
 979:Middlewares/Third_Party/LwIP/src/apps/mqtt/mqtt.c **** 
 980:Middlewares/Third_Party/LwIP/src/apps/mqtt/mqtt.c ****   LWIP_UNUSED_ARG(tpcb);
 981:Middlewares/Third_Party/LwIP/src/apps/mqtt/mqtt.c ****   LWIP_UNUSED_ARG(len);
 982:Middlewares/Third_Party/LwIP/src/apps/mqtt/mqtt.c **** 
 983:Middlewares/Third_Party/LwIP/src/apps/mqtt/mqtt.c ****   if (client->conn_state == MQTT_CONNECTED) {
 984:Middlewares/Third_Party/LwIP/src/apps/mqtt/mqtt.c ****     struct mqtt_request_t *r;
 985:Middlewares/Third_Party/LwIP/src/apps/mqtt/mqtt.c **** 
 986:Middlewares/Third_Party/LwIP/src/apps/mqtt/mqtt.c ****     /* Reset keep-alive send timer and server watchdog */
 987:Middlewares/Third_Party/LwIP/src/apps/mqtt/mqtt.c ****     client->cyclic_tick = 0;
 988:Middlewares/Third_Party/LwIP/src/apps/mqtt/mqtt.c ****     client->server_watchdog = 0;
 989:Middlewares/Third_Party/LwIP/src/apps/mqtt/mqtt.c ****     /* QoS 0 publish has no response from server, so call its callbacks here */
 990:Middlewares/Third_Party/LwIP/src/apps/mqtt/mqtt.c ****     while ((r = mqtt_take_request(&client->pend_req_queue, 0)) != NULL) {
 991:Middlewares/Third_Party/LwIP/src/apps/mqtt/mqtt.c ****       LWIP_DEBUGF(MQTT_DEBUG_TRACE, ("mqtt_tcp_sent_cb: Calling QoS 0 publish complete callback\n")
 992:Middlewares/Third_Party/LwIP/src/apps/mqtt/mqtt.c ****       if (r->cb != NULL) {
 993:Middlewares/Third_Party/LwIP/src/apps/mqtt/mqtt.c ****         r->cb(r->arg, ERR_OK);
 994:Middlewares/Third_Party/LwIP/src/apps/mqtt/mqtt.c ****       }
 995:Middlewares/Third_Party/LwIP/src/apps/mqtt/mqtt.c ****       mqtt_delete_request(r);
 996:Middlewares/Third_Party/LwIP/src/apps/mqtt/mqtt.c ****     }
 997:Middlewares/Third_Party/LwIP/src/apps/mqtt/mqtt.c ****     /* Try send any remaining buffers from output queue */
 998:Middlewares/Third_Party/LwIP/src/apps/mqtt/mqtt.c ****     mqtt_output_send(&client->output, client->conn);
 999:Middlewares/Third_Party/LwIP/src/apps/mqtt/mqtt.c ****   }
1000:Middlewares/Third_Party/LwIP/src/apps/mqtt/mqtt.c ****   return ERR_OK;
1001:Middlewares/Third_Party/LwIP/src/apps/mqtt/mqtt.c **** }
1002:Middlewares/Third_Party/LwIP/src/apps/mqtt/mqtt.c **** 
1003:Middlewares/Third_Party/LwIP/src/apps/mqtt/mqtt.c **** /**
1004:Middlewares/Third_Party/LwIP/src/apps/mqtt/mqtt.c ****  * TCP error callback function. @see tcp_err_fn
1005:Middlewares/Third_Party/LwIP/src/apps/mqtt/mqtt.c ****  * @param arg MQTT client
1006:Middlewares/Third_Party/LwIP/src/apps/mqtt/mqtt.c ****  * @param err Error encountered
1007:Middlewares/Third_Party/LwIP/src/apps/mqtt/mqtt.c ****  */
1008:Middlewares/Third_Party/LwIP/src/apps/mqtt/mqtt.c **** static void
1009:Middlewares/Third_Party/LwIP/src/apps/mqtt/mqtt.c **** mqtt_tcp_err_cb(void *arg, err_t err)
1010:Middlewares/Third_Party/LwIP/src/apps/mqtt/mqtt.c **** {
1011:Middlewares/Third_Party/LwIP/src/apps/mqtt/mqtt.c ****   mqtt_client_t *client = (mqtt_client_t *)arg;
1012:Middlewares/Third_Party/LwIP/src/apps/mqtt/mqtt.c ****   LWIP_UNUSED_ARG(err); /* only used for debug output */
1013:Middlewares/Third_Party/LwIP/src/apps/mqtt/mqtt.c ****   LWIP_DEBUGF(MQTT_DEBUG_TRACE, ("mqtt_tcp_err_cb: TCP error callback: error %d, arg: %p\n", err, a
1014:Middlewares/Third_Party/LwIP/src/apps/mqtt/mqtt.c ****   LWIP_ASSERT("mqtt_tcp_err_cb: client != NULL", client != NULL);
1015:Middlewares/Third_Party/LwIP/src/apps/mqtt/mqtt.c ****   /* Set conn to null before calling close as pcb is already deallocated*/
1016:Middlewares/Third_Party/LwIP/src/apps/mqtt/mqtt.c ****   client->conn = 0;
1017:Middlewares/Third_Party/LwIP/src/apps/mqtt/mqtt.c ****   mqtt_close(client, MQTT_CONNECT_DISCONNECTED);
1018:Middlewares/Third_Party/LwIP/src/apps/mqtt/mqtt.c **** }
1019:Middlewares/Third_Party/LwIP/src/apps/mqtt/mqtt.c **** 
1020:Middlewares/Third_Party/LwIP/src/apps/mqtt/mqtt.c **** /**
1021:Middlewares/Third_Party/LwIP/src/apps/mqtt/mqtt.c ****  * TCP poll callback function. @see tcp_poll_fn
1022:Middlewares/Third_Party/LwIP/src/apps/mqtt/mqtt.c ****  * @param arg MQTT client
1023:Middlewares/Third_Party/LwIP/src/apps/mqtt/mqtt.c ****  * @param tpcb TCP connection handle
1024:Middlewares/Third_Party/LwIP/src/apps/mqtt/mqtt.c ****  * @return err ERR_OK
1025:Middlewares/Third_Party/LwIP/src/apps/mqtt/mqtt.c ****  */
1026:Middlewares/Third_Party/LwIP/src/apps/mqtt/mqtt.c **** static err_t
ARM GAS  D:\Dev\msys64\tmp\ccB7TkM7.s 			page 54


1027:Middlewares/Third_Party/LwIP/src/apps/mqtt/mqtt.c **** mqtt_tcp_poll_cb(void *arg, struct altcp_pcb *tpcb)
1028:Middlewares/Third_Party/LwIP/src/apps/mqtt/mqtt.c **** {
 1658              		.loc 1 1028 1 view -0
 1659              		.cfi_startproc
 1660              		@ args = 0, pretend = 0, frame = 0
 1661              		@ frame_needed = 0, uses_anonymous_args = 0
 1662              		.loc 1 1028 1 is_stmt 0 view .LVU440
 1663 0000 08B5     		push	{r3, lr}
 1664              	.LCFI15:
 1665              		.cfi_def_cfa_offset 8
 1666              		.cfi_offset 3, -8
 1667              		.cfi_offset 14, -4
1029:Middlewares/Third_Party/LwIP/src/apps/mqtt/mqtt.c ****   mqtt_client_t *client = (mqtt_client_t *)arg;
 1668              		.loc 1 1029 3 is_stmt 1 view .LVU441
 1669              	.LVL176:
1030:Middlewares/Third_Party/LwIP/src/apps/mqtt/mqtt.c ****   if (client->conn_state == MQTT_CONNECTED) {
 1670              		.loc 1 1030 3 view .LVU442
 1671              		.loc 1 1030 13 is_stmt 0 view .LVU443
 1672 0002 837A     		ldrb	r3, [r0, #10]	@ zero_extendqisi2
 1673              		.loc 1 1030 6 view .LVU444
 1674 0004 032B     		cmp	r3, #3
 1675 0006 01D0     		beq	.L141
 1676              	.LVL177:
 1677              	.L139:
1031:Middlewares/Third_Party/LwIP/src/apps/mqtt/mqtt.c ****     /* Try send any remaining buffers from output queue */
1032:Middlewares/Third_Party/LwIP/src/apps/mqtt/mqtt.c ****     mqtt_output_send(&client->output, tpcb);
1033:Middlewares/Third_Party/LwIP/src/apps/mqtt/mqtt.c ****   }
1034:Middlewares/Third_Party/LwIP/src/apps/mqtt/mqtt.c ****   return ERR_OK;
 1678              		.loc 1 1034 3 is_stmt 1 view .LVU445
1035:Middlewares/Third_Party/LwIP/src/apps/mqtt/mqtt.c **** }
 1679              		.loc 1 1035 1 is_stmt 0 view .LVU446
 1680 0008 0020     		movs	r0, #0
 1681 000a 08BD     		pop	{r3, pc}
 1682              	.LVL178:
 1683              	.L141:
1032:Middlewares/Third_Party/LwIP/src/apps/mqtt/mqtt.c ****   }
 1684              		.loc 1 1032 5 is_stmt 1 view .LVU447
 1685 000c EC30     		adds	r0, r0, #236
 1686              	.LVL179:
1032:Middlewares/Third_Party/LwIP/src/apps/mqtt/mqtt.c ****   }
 1687              		.loc 1 1032 5 is_stmt 0 view .LVU448
 1688 000e FFF7FEFF 		bl	mqtt_output_send
 1689              	.LVL180:
1032:Middlewares/Third_Party/LwIP/src/apps/mqtt/mqtt.c ****   }
 1690              		.loc 1 1032 5 view .LVU449
 1691 0012 F9E7     		b	.L139
 1692              		.cfi_endproc
 1693              	.LFE58:
 1695              		.section	.text.mqtt_tcp_sent_cb,"ax",%progbits
 1696              		.align	1
 1697              		.syntax unified
 1698              		.thumb
 1699              		.thumb_func
 1700              		.fpu fpv5-sp-d16
 1702              	mqtt_tcp_sent_cb:
 1703              	.LVL181:
 1704              	.LFB56:
ARM GAS  D:\Dev\msys64\tmp\ccB7TkM7.s 			page 55


 977:Middlewares/Third_Party/LwIP/src/apps/mqtt/mqtt.c ****   mqtt_client_t *client = (mqtt_client_t *)arg;
 1705              		.loc 1 977 1 is_stmt 1 view -0
 1706              		.cfi_startproc
 1707              		@ args = 0, pretend = 0, frame = 0
 1708              		@ frame_needed = 0, uses_anonymous_args = 0
 977:Middlewares/Third_Party/LwIP/src/apps/mqtt/mqtt.c ****   mqtt_client_t *client = (mqtt_client_t *)arg;
 1709              		.loc 1 977 1 is_stmt 0 view .LVU451
 1710 0000 38B5     		push	{r3, r4, r5, lr}
 1711              	.LCFI16:
 1712              		.cfi_def_cfa_offset 16
 1713              		.cfi_offset 3, -16
 1714              		.cfi_offset 4, -12
 1715              		.cfi_offset 5, -8
 1716              		.cfi_offset 14, -4
 978:Middlewares/Third_Party/LwIP/src/apps/mqtt/mqtt.c **** 
 1717              		.loc 1 978 3 is_stmt 1 view .LVU452
 1718              	.LVL182:
 980:Middlewares/Third_Party/LwIP/src/apps/mqtt/mqtt.c ****   LWIP_UNUSED_ARG(len);
 1719              		.loc 1 980 3 view .LVU453
 981:Middlewares/Third_Party/LwIP/src/apps/mqtt/mqtt.c **** 
 1720              		.loc 1 981 3 view .LVU454
 983:Middlewares/Third_Party/LwIP/src/apps/mqtt/mqtt.c ****     struct mqtt_request_t *r;
 1721              		.loc 1 983 3 view .LVU455
 983:Middlewares/Third_Party/LwIP/src/apps/mqtt/mqtt.c ****     struct mqtt_request_t *r;
 1722              		.loc 1 983 13 is_stmt 0 view .LVU456
 1723 0002 837A     		ldrb	r3, [r0, #10]	@ zero_extendqisi2
 983:Middlewares/Third_Party/LwIP/src/apps/mqtt/mqtt.c ****     struct mqtt_request_t *r;
 1724              		.loc 1 983 6 view .LVU457
 1725 0004 032B     		cmp	r3, #3
 1726 0006 01D0     		beq	.L148
 1727              	.LVL183:
 1728              	.L143:
1000:Middlewares/Third_Party/LwIP/src/apps/mqtt/mqtt.c **** }
 1729              		.loc 1 1000 3 is_stmt 1 view .LVU458
1001:Middlewares/Third_Party/LwIP/src/apps/mqtt/mqtt.c **** 
 1730              		.loc 1 1001 1 is_stmt 0 view .LVU459
 1731 0008 0020     		movs	r0, #0
 1732 000a 38BD     		pop	{r3, r4, r5, pc}
 1733              	.LVL184:
 1734              	.L148:
1001:Middlewares/Third_Party/LwIP/src/apps/mqtt/mqtt.c **** 
 1735              		.loc 1 1001 1 view .LVU460
 1736 000c 0546     		mov	r5, r0
 1737              	.LBB2:
 984:Middlewares/Third_Party/LwIP/src/apps/mqtt/mqtt.c **** 
 1738              		.loc 1 984 5 is_stmt 1 view .LVU461
 987:Middlewares/Third_Party/LwIP/src/apps/mqtt/mqtt.c ****     client->server_watchdog = 0;
 1739              		.loc 1 987 5 view .LVU462
 987:Middlewares/Third_Party/LwIP/src/apps/mqtt/mqtt.c ****     client->server_watchdog = 0;
 1740              		.loc 1 987 25 is_stmt 0 view .LVU463
 1741 000e 0023     		movs	r3, #0
 1742 0010 0380     		strh	r3, [r0]	@ movhi
 988:Middlewares/Third_Party/LwIP/src/apps/mqtt/mqtt.c ****     /* QoS 0 publish has no response from server, so call its callbacks here */
 1743              		.loc 1 988 5 is_stmt 1 view .LVU464
 988:Middlewares/Third_Party/LwIP/src/apps/mqtt/mqtt.c ****     /* QoS 0 publish has no response from server, so call its callbacks here */
 1744              		.loc 1 988 29 is_stmt 0 view .LVU465
 1745 0012 8380     		strh	r3, [r0, #4]	@ movhi
ARM GAS  D:\Dev\msys64\tmp\ccB7TkM7.s 			page 56


 990:Middlewares/Third_Party/LwIP/src/apps/mqtt/mqtt.c ****       LWIP_DEBUGF(MQTT_DEBUG_TRACE, ("mqtt_tcp_sent_cb: Calling QoS 0 publish complete callback\n")
 1746              		.loc 1 990 5 is_stmt 1 view .LVU466
 990:Middlewares/Third_Party/LwIP/src/apps/mqtt/mqtt.c ****       LWIP_DEBUGF(MQTT_DEBUG_TRACE, ("mqtt_tcp_sent_cb: Calling QoS 0 publish complete callback\n")
 1747              		.loc 1 990 11 is_stmt 0 view .LVU467
 1748 0014 02E0     		b	.L144
 1749              	.LVL185:
 1750              	.L145:
 995:Middlewares/Third_Party/LwIP/src/apps/mqtt/mqtt.c ****     }
 1751              		.loc 1 995 7 is_stmt 1 view .LVU468
 1752 0016 2046     		mov	r0, r4
 1753 0018 FFF7FEFF 		bl	mqtt_delete_request
 1754              	.LVL186:
 1755              	.L144:
 990:Middlewares/Third_Party/LwIP/src/apps/mqtt/mqtt.c ****       LWIP_DEBUGF(MQTT_DEBUG_TRACE, ("mqtt_tcp_sent_cb: Calling QoS 0 publish complete callback\n")
 1756              		.loc 1 990 11 view .LVU469
 990:Middlewares/Third_Party/LwIP/src/apps/mqtt/mqtt.c ****       LWIP_DEBUGF(MQTT_DEBUG_TRACE, ("mqtt_tcp_sent_cb: Calling QoS 0 publish complete callback\n")
 1757              		.loc 1 990 17 is_stmt 0 view .LVU470
 1758 001c 0021     		movs	r1, #0
 1759 001e 05F11800 		add	r0, r5, #24
 1760 0022 FFF7FEFF 		bl	mqtt_take_request
 1761              	.LVL187:
 990:Middlewares/Third_Party/LwIP/src/apps/mqtt/mqtt.c ****       LWIP_DEBUGF(MQTT_DEBUG_TRACE, ("mqtt_tcp_sent_cb: Calling QoS 0 publish complete callback\n")
 1762              		.loc 1 990 11 view .LVU471
 1763 0026 0446     		mov	r4, r0
 1764 0028 30B1     		cbz	r0, .L149
 991:Middlewares/Third_Party/LwIP/src/apps/mqtt/mqtt.c ****       if (r->cb != NULL) {
 1765              		.loc 1 991 101 is_stmt 1 view .LVU472
 992:Middlewares/Third_Party/LwIP/src/apps/mqtt/mqtt.c ****         r->cb(r->arg, ERR_OK);
 1766              		.loc 1 992 7 view .LVU473
 992:Middlewares/Third_Party/LwIP/src/apps/mqtt/mqtt.c ****         r->cb(r->arg, ERR_OK);
 1767              		.loc 1 992 12 is_stmt 0 view .LVU474
 1768 002a 6368     		ldr	r3, [r4, #4]
 992:Middlewares/Third_Party/LwIP/src/apps/mqtt/mqtt.c ****         r->cb(r->arg, ERR_OK);
 1769              		.loc 1 992 10 view .LVU475
 1770 002c 002B     		cmp	r3, #0
 1771 002e F2D0     		beq	.L145
 993:Middlewares/Third_Party/LwIP/src/apps/mqtt/mqtt.c ****       }
 1772              		.loc 1 993 9 is_stmt 1 view .LVU476
 1773 0030 0021     		movs	r1, #0
 1774 0032 A068     		ldr	r0, [r4, #8]
 1775              	.LVL188:
 993:Middlewares/Third_Party/LwIP/src/apps/mqtt/mqtt.c ****       }
 1776              		.loc 1 993 9 is_stmt 0 view .LVU477
 1777 0034 9847     		blx	r3
 1778              	.LVL189:
 1779 0036 EEE7     		b	.L145
 1780              	.LVL190:
 1781              	.L149:
 998:Middlewares/Third_Party/LwIP/src/apps/mqtt/mqtt.c ****   }
 1782              		.loc 1 998 5 is_stmt 1 view .LVU478
 1783 0038 E968     		ldr	r1, [r5, #12]
 1784 003a 05F1EC00 		add	r0, r5, #236
 1785              	.LVL191:
 998:Middlewares/Third_Party/LwIP/src/apps/mqtt/mqtt.c ****   }
 1786              		.loc 1 998 5 is_stmt 0 view .LVU479
 1787 003e FFF7FEFF 		bl	mqtt_output_send
 1788              	.LVL192:
ARM GAS  D:\Dev\msys64\tmp\ccB7TkM7.s 			page 57


 1789 0042 E1E7     		b	.L143
 1790              	.LBE2:
 1791              		.cfi_endproc
 1792              	.LFE56:
 1794              		.section	.text.pub_ack_rec_rel_response,"ax",%progbits
 1795              		.align	1
 1796              		.syntax unified
 1797              		.thumb
 1798              		.thumb_func
 1799              		.fpu fpv5-sp-d16
 1801              	pub_ack_rec_rel_response:
 1802              	.LVL193:
 1803              	.LFB51:
 636:Middlewares/Third_Party/LwIP/src/apps/mqtt/mqtt.c ****   err_t err = ERR_OK;
 1804              		.loc 1 636 1 is_stmt 1 view -0
 1805              		.cfi_startproc
 1806              		@ args = 0, pretend = 0, frame = 0
 1807              		@ frame_needed = 0, uses_anonymous_args = 0
 636:Middlewares/Third_Party/LwIP/src/apps/mqtt/mqtt.c ****   err_t err = ERR_OK;
 1808              		.loc 1 636 1 is_stmt 0 view .LVU481
 1809 0000 2DE9F043 		push	{r4, r5, r6, r7, r8, r9, lr}
 1810              	.LCFI17:
 1811              		.cfi_def_cfa_offset 28
 1812              		.cfi_offset 4, -28
 1813              		.cfi_offset 5, -24
 1814              		.cfi_offset 6, -20
 1815              		.cfi_offset 7, -16
 1816              		.cfi_offset 8, -12
 1817              		.cfi_offset 9, -8
 1818              		.cfi_offset 14, -4
 1819 0004 83B0     		sub	sp, sp, #12
 1820              	.LCFI18:
 1821              		.cfi_def_cfa_offset 40
 1822 0006 0546     		mov	r5, r0
 1823 0008 8846     		mov	r8, r1
 1824 000a 9146     		mov	r9, r2
 1825 000c 1F46     		mov	r7, r3
 637:Middlewares/Third_Party/LwIP/src/apps/mqtt/mqtt.c ****   if (mqtt_output_check_space(&client->output, 2)) {
 1826              		.loc 1 637 3 is_stmt 1 view .LVU482
 1827              	.LVL194:
 638:Middlewares/Third_Party/LwIP/src/apps/mqtt/mqtt.c ****     mqtt_output_append_fixed_header(&client->output, msg, 0, qos, 0, 2);
 1828              		.loc 1 638 3 view .LVU483
 638:Middlewares/Third_Party/LwIP/src/apps/mqtt/mqtt.c ****     mqtt_output_append_fixed_header(&client->output, msg, 0, qos, 0, 2);
 1829              		.loc 1 638 7 is_stmt 0 view .LVU484
 1830 000e 00F1EC06 		add	r6, r0, #236
 1831 0012 0221     		movs	r1, #2
 1832              	.LVL195:
 638:Middlewares/Third_Party/LwIP/src/apps/mqtt/mqtt.c ****     mqtt_output_append_fixed_header(&client->output, msg, 0, qos, 0, 2);
 1833              		.loc 1 638 7 view .LVU485
 1834 0014 3046     		mov	r0, r6
 1835              	.LVL196:
 638:Middlewares/Third_Party/LwIP/src/apps/mqtt/mqtt.c ****     mqtt_output_append_fixed_header(&client->output, msg, 0, qos, 0, 2);
 1836              		.loc 1 638 7 view .LVU486
 1837 0016 FFF7FEFF 		bl	mqtt_output_check_space
 1838              	.LVL197:
 638:Middlewares/Third_Party/LwIP/src/apps/mqtt/mqtt.c ****     mqtt_output_append_fixed_header(&client->output, msg, 0, qos, 0, 2);
 1839              		.loc 1 638 6 view .LVU487
ARM GAS  D:\Dev\msys64\tmp\ccB7TkM7.s 			page 58


 1840 001a A8B1     		cbz	r0, .L152
 639:Middlewares/Third_Party/LwIP/src/apps/mqtt/mqtt.c ****     mqtt_output_append_u16(&client->output, pkt_id);
 1841              		.loc 1 639 5 is_stmt 1 view .LVU488
 1842 001c 0223     		movs	r3, #2
 1843 001e 0193     		str	r3, [sp, #4]
 1844 0020 0024     		movs	r4, #0
 1845 0022 0094     		str	r4, [sp]
 1846 0024 3B46     		mov	r3, r7
 1847 0026 2246     		mov	r2, r4
 1848 0028 4146     		mov	r1, r8
 1849 002a 3046     		mov	r0, r6
 1850 002c FFF7FEFF 		bl	mqtt_output_append_fixed_header
 1851              	.LVL198:
 640:Middlewares/Third_Party/LwIP/src/apps/mqtt/mqtt.c ****     mqtt_output_send(&client->output, client->conn);
 1852              		.loc 1 640 5 view .LVU489
 1853 0030 4946     		mov	r1, r9
 1854 0032 3046     		mov	r0, r6
 1855 0034 FFF7FEFF 		bl	mqtt_output_append_u16
 1856              	.LVL199:
 641:Middlewares/Third_Party/LwIP/src/apps/mqtt/mqtt.c ****   } else {
 1857              		.loc 1 641 5 view .LVU490
 1858 0038 E968     		ldr	r1, [r5, #12]
 1859 003a 3046     		mov	r0, r6
 1860 003c FFF7FEFF 		bl	mqtt_output_send
 1861              	.LVL200:
 637:Middlewares/Third_Party/LwIP/src/apps/mqtt/mqtt.c ****   if (mqtt_output_check_space(&client->output, 2)) {
 1862              		.loc 1 637 9 is_stmt 0 view .LVU491
 1863 0040 2046     		mov	r0, r4
 1864              	.L151:
 1865              	.LVL201:
 647:Middlewares/Third_Party/LwIP/src/apps/mqtt/mqtt.c **** }
 1866              		.loc 1 647 3 is_stmt 1 view .LVU492
 648:Middlewares/Third_Party/LwIP/src/apps/mqtt/mqtt.c **** 
 1867              		.loc 1 648 1 is_stmt 0 view .LVU493
 1868 0042 03B0     		add	sp, sp, #12
 1869              	.LCFI19:
 1870              		.cfi_remember_state
 1871              		.cfi_def_cfa_offset 28
 1872              		@ sp needed
 1873 0044 BDE8F083 		pop	{r4, r5, r6, r7, r8, r9, pc}
 1874              	.LVL202:
 1875              	.L152:
 1876              	.LCFI20:
 1877              		.cfi_restore_state
 645:Middlewares/Third_Party/LwIP/src/apps/mqtt/mqtt.c ****   }
 1878              		.loc 1 645 9 view .LVU494
 1879 0048 4FF0FF30 		mov	r0, #-1
 1880 004c F9E7     		b	.L151
 1881              		.cfi_endproc
 1882              	.LFE51:
 1884              		.section	.rodata.mqtt_message_received.str1.4,"aMS",%progbits,1
 1885              		.align	2
 1886              	.LC12:
 1887 0000 636C6965 		.ascii	"client->msg_idx < MQTT_VAR_HEADER_BUFFER_LEN\000"
 1887      6E742D3E 
 1887      6D73675F 
 1887      69647820 
ARM GAS  D:\Dev\msys64\tmp\ccB7TkM7.s 			page 59


 1887      3C204D51 
 1888 002d 000000   		.align	2
 1889              	.LC13:
 1890 0030 66697865 		.ascii	"fixed_hdr_idx <= client->msg_idx\000"
 1890      645F6864 
 1890      725F6964 
 1890      78203C3D 
 1890      20636C69 
 1891 0051 000000   		.align	2
 1892              	.LC14:
 1893 0054 62756666 		.ascii	"buffer length mismatch\000"
 1893      6572206C 
 1893      656E6774 
 1893      68206D69 
 1893      736D6174 
 1894              		.section	.text.mqtt_message_received,"ax",%progbits
 1895              		.align	1
 1896              		.syntax unified
 1897              		.thumb
 1898              		.thumb_func
 1899              		.fpu fpv5-sp-d16
 1901              	mqtt_message_received:
 1902              	.LVL203:
 1903              	.LFB53:
 673:Middlewares/Third_Party/LwIP/src/apps/mqtt/mqtt.c ****   mqtt_connection_status_t res = MQTT_CONNECT_ACCEPTED;
 1904              		.loc 1 673 1 is_stmt 1 view -0
 1905              		.cfi_startproc
 1906              		@ args = 0, pretend = 0, frame = 8
 1907              		@ frame_needed = 0, uses_anonymous_args = 0
 673:Middlewares/Third_Party/LwIP/src/apps/mqtt/mqtt.c ****   mqtt_connection_status_t res = MQTT_CONNECT_ACCEPTED;
 1908              		.loc 1 673 1 is_stmt 0 view .LVU496
 1909 0000 2DE9F04F 		push	{r4, r5, r6, r7, r8, r9, r10, fp, lr}
 1910              	.LCFI21:
 1911              		.cfi_def_cfa_offset 36
 1912              		.cfi_offset 4, -36
 1913              		.cfi_offset 5, -32
 1914              		.cfi_offset 6, -28
 1915              		.cfi_offset 7, -24
 1916              		.cfi_offset 8, -20
 1917              		.cfi_offset 9, -16
 1918              		.cfi_offset 10, -12
 1919              		.cfi_offset 11, -8
 1920              		.cfi_offset 14, -4
 1921 0004 83B0     		sub	sp, sp, #12
 1922              	.LCFI22:
 1923              		.cfi_def_cfa_offset 48
 1924 0006 0446     		mov	r4, r0
 1925 0008 8946     		mov	r9, r1
 1926 000a 1546     		mov	r5, r2
 1927 000c 1E46     		mov	r6, r3
 674:Middlewares/Third_Party/LwIP/src/apps/mqtt/mqtt.c **** 
 1928              		.loc 1 674 3 is_stmt 1 view .LVU497
 1929              	.LVL204:
 676:Middlewares/Third_Party/LwIP/src/apps/mqtt/mqtt.c ****   size_t var_hdr_payload_bufsize = sizeof(client->rx_buffer) - fixed_hdr_idx;
 1930              		.loc 1 676 3 view .LVU498
 676:Middlewares/Third_Party/LwIP/src/apps/mqtt/mqtt.c ****   size_t var_hdr_payload_bufsize = sizeof(client->rx_buffer) - fixed_hdr_idx;
 1931              		.loc 1 676 27 is_stmt 0 view .LVU499
ARM GAS  D:\Dev\msys64\tmp\ccB7TkM7.s 			page 60


 1932 000e 00F16C0B 		add	fp, r0, #108
 676:Middlewares/Third_Party/LwIP/src/apps/mqtt/mqtt.c ****   size_t var_hdr_payload_bufsize = sizeof(client->rx_buffer) - fixed_hdr_idx;
 1933              		.loc 1 676 9 view .LVU500
 1934 0012 0BEB0107 		add	r7, fp, r1
 1935              	.LVL205:
 677:Middlewares/Third_Party/LwIP/src/apps/mqtt/mqtt.c **** 
 1936              		.loc 1 677 3 is_stmt 1 view .LVU501
 677:Middlewares/Third_Party/LwIP/src/apps/mqtt/mqtt.c **** 
 1937              		.loc 1 677 10 is_stmt 0 view .LVU502
 1938 0016 C1F1800A 		rsb	r10, r1, #128
 1939              	.LVL206:
 680:Middlewares/Third_Party/LwIP/src/apps/mqtt/mqtt.c ****   u16_t pkt_id = 0;
 1940              		.loc 1 680 3 is_stmt 1 view .LVU503
 680:Middlewares/Third_Party/LwIP/src/apps/mqtt/mqtt.c ****   u16_t pkt_id = 0;
 1941              		.loc 1 680 19 is_stmt 0 view .LVU504
 1942 001a 90F86C80 		ldrb	r8, [r0, #108]	@ zero_extendqisi2
 680:Middlewares/Third_Party/LwIP/src/apps/mqtt/mqtt.c ****   u16_t pkt_id = 0;
 1943              		.loc 1 680 8 view .LVU505
 1944 001e 4FEA1818 		lsr	r8, r8, #4
 1945              	.LVL207:
 681:Middlewares/Third_Party/LwIP/src/apps/mqtt/mqtt.c **** 
 1946              		.loc 1 681 3 is_stmt 1 view .LVU506
 683:Middlewares/Third_Party/LwIP/src/apps/mqtt/mqtt.c ****   LWIP_ASSERT("fixed_hdr_idx <= client->msg_idx", fixed_hdr_idx <= client->msg_idx);
 1947              		.loc 1 683 3 view .LVU507
 683:Middlewares/Third_Party/LwIP/src/apps/mqtt/mqtt.c ****   LWIP_ASSERT("fixed_hdr_idx <= client->msg_idx", fixed_hdr_idx <= client->msg_idx);
 1948              		.loc 1 683 3 view .LVU508
 1949 0022 836E     		ldr	r3, [r0, #104]
 1950              	.LVL208:
 683:Middlewares/Third_Party/LwIP/src/apps/mqtt/mqtt.c ****   LWIP_ASSERT("fixed_hdr_idx <= client->msg_idx", fixed_hdr_idx <= client->msg_idx);
 1951              		.loc 1 683 3 is_stmt 0 view .LVU509
 1952 0024 7F2B     		cmp	r3, #127
 1953 0026 46D8     		bhi	.L194
 1954              	.LVL209:
 1955              	.L155:
 683:Middlewares/Third_Party/LwIP/src/apps/mqtt/mqtt.c ****   LWIP_ASSERT("fixed_hdr_idx <= client->msg_idx", fixed_hdr_idx <= client->msg_idx);
 1956              		.loc 1 683 3 is_stmt 1 discriminator 3 view .LVU510
 683:Middlewares/Third_Party/LwIP/src/apps/mqtt/mqtt.c ****   LWIP_ASSERT("fixed_hdr_idx <= client->msg_idx", fixed_hdr_idx <= client->msg_idx);
 1957              		.loc 1 683 3 discriminator 3 view .LVU511
 684:Middlewares/Third_Party/LwIP/src/apps/mqtt/mqtt.c ****   LWIP_ERROR("buffer length mismatch", fixed_hdr_idx + length <= MQTT_VAR_HEADER_BUFFER_LEN,
 1958              		.loc 1 684 3 discriminator 3 view .LVU512
 684:Middlewares/Third_Party/LwIP/src/apps/mqtt/mqtt.c ****   LWIP_ERROR("buffer length mismatch", fixed_hdr_idx + length <= MQTT_VAR_HEADER_BUFFER_LEN,
 1959              		.loc 1 684 3 discriminator 3 view .LVU513
 1960 0028 A36E     		ldr	r3, [r4, #104]
 1961 002a 9945     		cmp	r9, r3
 1962 002c 4BD8     		bhi	.L195
 1963              	.L156:
 684:Middlewares/Third_Party/LwIP/src/apps/mqtt/mqtt.c ****   LWIP_ERROR("buffer length mismatch", fixed_hdr_idx + length <= MQTT_VAR_HEADER_BUFFER_LEN,
 1964              		.loc 1 684 3 discriminator 3 view .LVU514
 684:Middlewares/Third_Party/LwIP/src/apps/mqtt/mqtt.c ****   LWIP_ERROR("buffer length mismatch", fixed_hdr_idx + length <= MQTT_VAR_HEADER_BUFFER_LEN,
 1965              		.loc 1 684 3 discriminator 3 view .LVU515
 685:Middlewares/Third_Party/LwIP/src/apps/mqtt/mqtt.c ****              return MQTT_CONNECT_DISCONNECTED);
 1966              		.loc 1 685 3 discriminator 3 view .LVU516
 685:Middlewares/Third_Party/LwIP/src/apps/mqtt/mqtt.c ****              return MQTT_CONNECT_DISCONNECTED);
 1967              		.loc 1 685 3 discriminator 3 view .LVU517
 1968 002e 09EB0503 		add	r3, r9, r5
 1969 0032 802B     		cmp	r3, #128
 1970 0034 4FDC     		bgt	.L196
ARM GAS  D:\Dev\msys64\tmp\ccB7TkM7.s 			page 61


 685:Middlewares/Third_Party/LwIP/src/apps/mqtt/mqtt.c ****              return MQTT_CONNECT_DISCONNECTED);
 1971              		.loc 1 685 3 discriminator 2 view .LVU518
 688:Middlewares/Third_Party/LwIP/src/apps/mqtt/mqtt.c ****     if (client->conn_state == MQTT_CONNECTING) {
 1972              		.loc 1 688 3 discriminator 2 view .LVU519
 688:Middlewares/Third_Party/LwIP/src/apps/mqtt/mqtt.c ****     if (client->conn_state == MQTT_CONNECTING) {
 1973              		.loc 1 688 6 is_stmt 0 discriminator 2 view .LVU520
 1974 0036 B8F1020F 		cmp	r8, #2
 1975 003a 56D0     		beq	.L197
 709:Middlewares/Third_Party/LwIP/src/apps/mqtt/mqtt.c ****     LWIP_DEBUGF(MQTT_DEBUG_TRACE, ( "mqtt_message_received: Received PINGRESP from server\n"));
 1976              		.loc 1 709 10 is_stmt 1 view .LVU521
 709:Middlewares/Third_Party/LwIP/src/apps/mqtt/mqtt.c ****     LWIP_DEBUGF(MQTT_DEBUG_TRACE, ( "mqtt_message_received: Received PINGRESP from server\n"));
 1977              		.loc 1 709 13 is_stmt 0 view .LVU522
 1978 003c B8F10D0F 		cmp	r8, #13
 1979 0040 00F00E81 		beq	.L176
 712:Middlewares/Third_Party/LwIP/src/apps/mqtt/mqtt.c ****     u16_t payload_offset = 0;
 1980              		.loc 1 712 10 is_stmt 1 view .LVU523
 712:Middlewares/Third_Party/LwIP/src/apps/mqtt/mqtt.c ****     u16_t payload_offset = 0;
 1981              		.loc 1 712 13 is_stmt 0 view .LVU524
 1982 0044 B8F1030F 		cmp	r8, #3
 1983 0048 68D0     		beq	.L198
 788:Middlewares/Third_Party/LwIP/src/apps/mqtt/mqtt.c ****     pkt_id |= (u16_t)var_hdr_payload[1];
 1984              		.loc 1 788 5 is_stmt 1 view .LVU525
 788:Middlewares/Third_Party/LwIP/src/apps/mqtt/mqtt.c ****     pkt_id |= (u16_t)var_hdr_payload[1];
 1985              		.loc 1 788 36 is_stmt 0 view .LVU526
 1986 004a 1BF80910 		ldrb	r1, [fp, r9]	@ zero_extendqisi2
 1987              	.LVL210:
 789:Middlewares/Third_Party/LwIP/src/apps/mqtt/mqtt.c ****     if (pkt_id == 0) {
 1988              		.loc 1 789 5 is_stmt 1 view .LVU527
 789:Middlewares/Third_Party/LwIP/src/apps/mqtt/mqtt.c ****     if (pkt_id == 0) {
 1989              		.loc 1 789 37 is_stmt 0 view .LVU528
 1990 004e 7A78     		ldrb	r2, [r7, #1]	@ zero_extendqisi2
 1991              	.LVL211:
 790:Middlewares/Third_Party/LwIP/src/apps/mqtt/mqtt.c ****       LWIP_DEBUGF(MQTT_DEBUG_WARN, ("mqtt_message_received: Got message with illegal packet identif
 1992              		.loc 1 790 5 is_stmt 1 view .LVU529
 790:Middlewares/Third_Party/LwIP/src/apps/mqtt/mqtt.c ****       LWIP_DEBUGF(MQTT_DEBUG_WARN, ("mqtt_message_received: Got message with illegal packet identif
 1993              		.loc 1 790 8 is_stmt 0 view .LVU530
 1994 0050 52EA0121 		orrs	r1, r2, r1, lsl #8
 1995              	.LVL212:
 790:Middlewares/Third_Party/LwIP/src/apps/mqtt/mqtt.c ****       LWIP_DEBUGF(MQTT_DEBUG_WARN, ("mqtt_message_received: Got message with illegal packet identif
 1996              		.loc 1 790 8 view .LVU531
 1997 0054 00F01F81 		beq	.L189
 794:Middlewares/Third_Party/LwIP/src/apps/mqtt/mqtt.c ****       LWIP_DEBUGF(MQTT_DEBUG_TRACE, ("mqtt_message_received: PUBREC, sending PUBREL with pkt_id: %d
 1998              		.loc 1 794 5 is_stmt 1 view .LVU532
 794:Middlewares/Third_Party/LwIP/src/apps/mqtt/mqtt.c ****       LWIP_DEBUGF(MQTT_DEBUG_TRACE, ("mqtt_message_received: PUBREC, sending PUBREL with pkt_id: %d
 1999              		.loc 1 794 8 is_stmt 0 view .LVU533
 2000 0058 B8F1050F 		cmp	r8, #5
 2001 005c 00F0E780 		beq	.L199
 798:Middlewares/Third_Party/LwIP/src/apps/mqtt/mqtt.c ****       LWIP_DEBUGF(MQTT_DEBUG_TRACE, ("mqtt_message_received: PUBREL, sending PUBCOMP response with 
 2002              		.loc 1 798 12 is_stmt 1 view .LVU534
 798:Middlewares/Third_Party/LwIP/src/apps/mqtt/mqtt.c ****       LWIP_DEBUGF(MQTT_DEBUG_TRACE, ("mqtt_message_received: PUBREL, sending PUBCOMP response with 
 2003              		.loc 1 798 15 is_stmt 0 view .LVU535
 2004 0060 B8F1060F 		cmp	r8, #6
 2005 0064 00F0EB80 		beq	.L200
 802:Middlewares/Third_Party/LwIP/src/apps/mqtt/mqtt.c ****                pkt_type == MQTT_MSG_TYPE_PUBCOMP || pkt_type == MQTT_MSG_TYPE_PUBACK) {
 2006              		.loc 1 802 12 is_stmt 1 view .LVU536
 802:Middlewares/Third_Party/LwIP/src/apps/mqtt/mqtt.c ****                pkt_type == MQTT_MSG_TYPE_PUBCOMP || pkt_type == MQTT_MSG_TYPE_PUBACK) {
 2007              		.loc 1 802 15 is_stmt 0 view .LVU537
ARM GAS  D:\Dev\msys64\tmp\ccB7TkM7.s 			page 62


 2008 0068 B8F10B0F 		cmp	r8, #11
 2009 006c 18BF     		it	ne
 2010 006e B8F1090F 		cmpne	r8, #9
 2011 0072 0AD0     		beq	.L170
 803:Middlewares/Third_Party/LwIP/src/apps/mqtt/mqtt.c ****       struct mqtt_request_t *r = mqtt_take_request(&client->pend_req_queue, pkt_id);
 2012              		.loc 1 803 62 view .LVU538
 2013 0074 B8F1040F 		cmp	r8, #4
 2014 0078 14BF     		ite	ne
 2015 007a 0023     		movne	r3, #0
 2016 007c 0123     		moveq	r3, #1
 803:Middlewares/Third_Party/LwIP/src/apps/mqtt/mqtt.c ****       struct mqtt_request_t *r = mqtt_take_request(&client->pend_req_queue, pkt_id);
 2017              		.loc 1 803 50 view .LVU539
 2018 007e B8F1070F 		cmp	r8, #7
 2019 0082 02D0     		beq	.L170
 2020 0084 002B     		cmp	r3, #0
 2021 0086 00F00981 		beq	.L190
 2022              	.L170:
 2023              	.LBB3:
 804:Middlewares/Third_Party/LwIP/src/apps/mqtt/mqtt.c ****       if (r != NULL) {
 2024              		.loc 1 804 7 is_stmt 1 view .LVU540
 804:Middlewares/Third_Party/LwIP/src/apps/mqtt/mqtt.c ****       if (r != NULL) {
 2025              		.loc 1 804 34 is_stmt 0 view .LVU541
 2026 008a 04F11800 		add	r0, r4, #24
 2027 008e FFF7FEFF 		bl	mqtt_take_request
 2028              	.LVL213:
 805:Middlewares/Third_Party/LwIP/src/apps/mqtt/mqtt.c ****         LWIP_DEBUGF(MQTT_DEBUG_TRACE, ("mqtt_message_received: %s response with id %d\n", mqtt_msg_
 2029              		.loc 1 805 7 is_stmt 1 view .LVU542
 805:Middlewares/Third_Party/LwIP/src/apps/mqtt/mqtt.c ****         LWIP_DEBUGF(MQTT_DEBUG_TRACE, ("mqtt_message_received: %s response with id %d\n", mqtt_msg_
 2030              		.loc 1 805 10 is_stmt 0 view .LVU543
 2031 0092 0446     		mov	r4, r0
 2032              	.LVL214:
 805:Middlewares/Third_Party/LwIP/src/apps/mqtt/mqtt.c ****         LWIP_DEBUGF(MQTT_DEBUG_TRACE, ("mqtt_message_received: %s response with id %d\n", mqtt_msg_
 2033              		.loc 1 805 10 view .LVU544
 2034 0094 0028     		cmp	r0, #0
 2035 0096 00F00481 		beq	.L191
 806:Middlewares/Third_Party/LwIP/src/apps/mqtt/mqtt.c ****         if (pkt_type == MQTT_MSG_TYPE_SUBACK) {
 2036              		.loc 1 806 131 is_stmt 1 view .LVU545
 807:Middlewares/Third_Party/LwIP/src/apps/mqtt/mqtt.c ****           if (length < 3) {
 2037              		.loc 1 807 9 view .LVU546
 807:Middlewares/Third_Party/LwIP/src/apps/mqtt/mqtt.c ****           if (length < 3) {
 2038              		.loc 1 807 12 is_stmt 0 view .LVU547
 2039 009a B8F1090F 		cmp	r8, #9
 2040 009e 00F0D680 		beq	.L201
 814:Middlewares/Third_Party/LwIP/src/apps/mqtt/mqtt.c ****           r->cb(r->arg, ERR_OK);
 2041              		.loc 1 814 16 is_stmt 1 view .LVU548
 814:Middlewares/Third_Party/LwIP/src/apps/mqtt/mqtt.c ****           r->cb(r->arg, ERR_OK);
 2042              		.loc 1 814 21 is_stmt 0 view .LVU549
 2043 00a2 4368     		ldr	r3, [r0, #4]
 814:Middlewares/Third_Party/LwIP/src/apps/mqtt/mqtt.c ****           r->cb(r->arg, ERR_OK);
 2044              		.loc 1 814 19 view .LVU550
 2045 00a4 13B1     		cbz	r3, .L173
 815:Middlewares/Third_Party/LwIP/src/apps/mqtt/mqtt.c ****         }
 2046              		.loc 1 815 11 is_stmt 1 view .LVU551
 2047 00a6 0021     		movs	r1, #0
 2048 00a8 8068     		ldr	r0, [r0, #8]
 2049              	.LVL215:
 815:Middlewares/Third_Party/LwIP/src/apps/mqtt/mqtt.c ****         }
ARM GAS  D:\Dev\msys64\tmp\ccB7TkM7.s 			page 63


 2050              		.loc 1 815 11 is_stmt 0 view .LVU552
 2051 00aa 9847     		blx	r3
 2052              	.LVL216:
 2053              	.L173:
 817:Middlewares/Third_Party/LwIP/src/apps/mqtt/mqtt.c ****       } else {
 2054              		.loc 1 817 9 is_stmt 1 view .LVU553
 2055 00ac 2046     		mov	r0, r4
 2056 00ae FFF7FEFF 		bl	mqtt_delete_request
 2057              	.LVL217:
 2058              	.LBE3:
 674:Middlewares/Third_Party/LwIP/src/apps/mqtt/mqtt.c **** 
 2059              		.loc 1 674 28 is_stmt 0 view .LVU554
 2060 00b2 0025     		movs	r5, #0
 2061              	.LBB4:
 2062 00b4 D5E0     		b	.L158
 2063              	.LVL218:
 2064              	.L194:
 674:Middlewares/Third_Party/LwIP/src/apps/mqtt/mqtt.c **** 
 2065              		.loc 1 674 28 view .LVU555
 2066              	.LBE4:
 683:Middlewares/Third_Party/LwIP/src/apps/mqtt/mqtt.c ****   LWIP_ASSERT("fixed_hdr_idx <= client->msg_idx", fixed_hdr_idx <= client->msg_idx);
 2067              		.loc 1 683 3 is_stmt 1 discriminator 1 view .LVU556
 683:Middlewares/Third_Party/LwIP/src/apps/mqtt/mqtt.c ****   LWIP_ASSERT("fixed_hdr_idx <= client->msg_idx", fixed_hdr_idx <= client->msg_idx);
 2068              		.loc 1 683 3 discriminator 1 view .LVU557
 2069 00b6 7D4B     		ldr	r3, .L204
 2070 00b8 40F2AB22 		movw	r2, #683
 2071              	.LVL219:
 683:Middlewares/Third_Party/LwIP/src/apps/mqtt/mqtt.c ****   LWIP_ASSERT("fixed_hdr_idx <= client->msg_idx", fixed_hdr_idx <= client->msg_idx);
 2072              		.loc 1 683 3 is_stmt 0 discriminator 1 view .LVU558
 2073 00bc 7C49     		ldr	r1, .L204+4
 2074              	.LVL220:
 683:Middlewares/Third_Party/LwIP/src/apps/mqtt/mqtt.c ****   LWIP_ASSERT("fixed_hdr_idx <= client->msg_idx", fixed_hdr_idx <= client->msg_idx);
 2075              		.loc 1 683 3 discriminator 1 view .LVU559
 2076 00be 7D48     		ldr	r0, .L204+8
 2077              	.LVL221:
 683:Middlewares/Third_Party/LwIP/src/apps/mqtt/mqtt.c ****   LWIP_ASSERT("fixed_hdr_idx <= client->msg_idx", fixed_hdr_idx <= client->msg_idx);
 2078              		.loc 1 683 3 discriminator 1 view .LVU560
 2079 00c0 FFF7FEFF 		bl	printf
 2080              	.LVL222:
 2081 00c4 B0E7     		b	.L155
 2082              	.L195:
 684:Middlewares/Third_Party/LwIP/src/apps/mqtt/mqtt.c ****   LWIP_ERROR("buffer length mismatch", fixed_hdr_idx + length <= MQTT_VAR_HEADER_BUFFER_LEN,
 2083              		.loc 1 684 3 is_stmt 1 discriminator 1 view .LVU561
 684:Middlewares/Third_Party/LwIP/src/apps/mqtt/mqtt.c ****   LWIP_ERROR("buffer length mismatch", fixed_hdr_idx + length <= MQTT_VAR_HEADER_BUFFER_LEN,
 2084              		.loc 1 684 3 discriminator 1 view .LVU562
 2085 00c6 794B     		ldr	r3, .L204
 2086 00c8 4FF42B72 		mov	r2, #684
 2087 00cc 7A49     		ldr	r1, .L204+12
 2088 00ce 7948     		ldr	r0, .L204+8
 2089 00d0 FFF7FEFF 		bl	printf
 2090              	.LVL223:
 2091 00d4 ABE7     		b	.L156
 2092              	.L196:
 685:Middlewares/Third_Party/LwIP/src/apps/mqtt/mqtt.c ****              return MQTT_CONNECT_DISCONNECTED);
 2093              		.loc 1 685 3 discriminator 1 view .LVU563
 685:Middlewares/Third_Party/LwIP/src/apps/mqtt/mqtt.c ****              return MQTT_CONNECT_DISCONNECTED);
 2094              		.loc 1 685 3 discriminator 1 view .LVU564
ARM GAS  D:\Dev\msys64\tmp\ccB7TkM7.s 			page 64


 2095 00d6 754B     		ldr	r3, .L204
 2096 00d8 40F2AD22 		movw	r2, #685
 2097 00dc 7749     		ldr	r1, .L204+16
 2098 00de 7548     		ldr	r0, .L204+8
 2099 00e0 FFF7FEFF 		bl	printf
 2100              	.LVL224:
 685:Middlewares/Third_Party/LwIP/src/apps/mqtt/mqtt.c ****              return MQTT_CONNECT_DISCONNECTED);
 2101              		.loc 1 685 3 discriminator 1 view .LVU565
 685:Middlewares/Third_Party/LwIP/src/apps/mqtt/mqtt.c ****              return MQTT_CONNECT_DISCONNECTED);
 2102              		.loc 1 685 3 discriminator 1 view .LVU566
 2103 00e4 4FF48075 		mov	r5, #256
 2104 00e8 BBE0     		b	.L158
 2105              	.L197:
 689:Middlewares/Third_Party/LwIP/src/apps/mqtt/mqtt.c ****       if (length < 2) {
 2106              		.loc 1 689 5 view .LVU567
 689:Middlewares/Third_Party/LwIP/src/apps/mqtt/mqtt.c ****       if (length < 2) {
 2107              		.loc 1 689 15 is_stmt 0 view .LVU568
 2108 00ea A37A     		ldrb	r3, [r4, #10]	@ zero_extendqisi2
 689:Middlewares/Third_Party/LwIP/src/apps/mqtt/mqtt.c ****       if (length < 2) {
 2109              		.loc 1 689 8 view .LVU569
 2110 00ec 022B     		cmp	r3, #2
 2111 00ee 01D0     		beq	.L202
 674:Middlewares/Third_Party/LwIP/src/apps/mqtt/mqtt.c **** 
 2112              		.loc 1 674 28 view .LVU570
 2113 00f0 0025     		movs	r5, #0
 2114 00f2 B6E0     		b	.L158
 2115              	.L202:
 690:Middlewares/Third_Party/LwIP/src/apps/mqtt/mqtt.c ****         LWIP_DEBUGF(MQTT_DEBUG_WARN,( "mqtt_message_received: Received short CONNACK message\n"));
 2116              		.loc 1 690 7 is_stmt 1 view .LVU571
 690:Middlewares/Third_Party/LwIP/src/apps/mqtt/mqtt.c ****         LWIP_DEBUGF(MQTT_DEBUG_WARN,( "mqtt_message_received: Received short CONNACK message\n"));
 2117              		.loc 1 690 10 is_stmt 0 view .LVU572
 2118 00f4 012D     		cmp	r5, #1
 2119 00f6 40F2B080 		bls	.L175
 695:Middlewares/Third_Party/LwIP/src/apps/mqtt/mqtt.c ****       LWIP_DEBUGF(MQTT_DEBUG_TRACE, ("mqtt_message_received: Connect response code %d\n", res));
 2120              		.loc 1 695 7 is_stmt 1 view .LVU573
 695:Middlewares/Third_Party/LwIP/src/apps/mqtt/mqtt.c ****       LWIP_DEBUGF(MQTT_DEBUG_TRACE, ("mqtt_message_received: Connect response code %d\n", res));
 2121              		.loc 1 695 11 is_stmt 0 view .LVU574
 2122 00fa 7D78     		ldrb	r5, [r7, #1]	@ zero_extendqisi2
 2123              	.LVL225:
 696:Middlewares/Third_Party/LwIP/src/apps/mqtt/mqtt.c ****       if (res == MQTT_CONNECT_ACCEPTED) {
 2124              		.loc 1 696 96 is_stmt 1 view .LVU575
 697:Middlewares/Third_Party/LwIP/src/apps/mqtt/mqtt.c ****         /* Reset cyclic_tick when changing to connected state */
 2125              		.loc 1 697 7 view .LVU576
 697:Middlewares/Third_Party/LwIP/src/apps/mqtt/mqtt.c ****         /* Reset cyclic_tick when changing to connected state */
 2126              		.loc 1 697 10 is_stmt 0 view .LVU577
 2127 00fc 002D     		cmp	r5, #0
 2128 00fe 40F0B080 		bne	.L158
 699:Middlewares/Third_Party/LwIP/src/apps/mqtt/mqtt.c ****         client->conn_state = MQTT_CONNECTED;
 2129              		.loc 1 699 9 is_stmt 1 view .LVU578
 699:Middlewares/Third_Party/LwIP/src/apps/mqtt/mqtt.c ****         client->conn_state = MQTT_CONNECTED;
 2130              		.loc 1 699 29 is_stmt 0 view .LVU579
 2131 0102 0023     		movs	r3, #0
 2132 0104 2380     		strh	r3, [r4]	@ movhi
 700:Middlewares/Third_Party/LwIP/src/apps/mqtt/mqtt.c ****         /* Notify upper layer */
 2133              		.loc 1 700 9 is_stmt 1 view .LVU580
 700:Middlewares/Third_Party/LwIP/src/apps/mqtt/mqtt.c ****         /* Notify upper layer */
 2134              		.loc 1 700 28 is_stmt 0 view .LVU581
ARM GAS  D:\Dev\msys64\tmp\ccB7TkM7.s 			page 65


 2135 0106 0323     		movs	r3, #3
 2136 0108 A372     		strb	r3, [r4, #10]
 702:Middlewares/Third_Party/LwIP/src/apps/mqtt/mqtt.c ****           client->connect_cb(client, client->connect_arg, res);
 2137              		.loc 1 702 9 is_stmt 1 view .LVU582
 702:Middlewares/Third_Party/LwIP/src/apps/mqtt/mqtt.c ****           client->connect_cb(client, client->connect_arg, res);
 2138              		.loc 1 702 19 is_stmt 0 view .LVU583
 2139 010a 6369     		ldr	r3, [r4, #20]
 702:Middlewares/Third_Party/LwIP/src/apps/mqtt/mqtt.c ****           client->connect_cb(client, client->connect_arg, res);
 2140              		.loc 1 702 12 view .LVU584
 2141 010c 002B     		cmp	r3, #0
 2142 010e 00F0A880 		beq	.L158
 703:Middlewares/Third_Party/LwIP/src/apps/mqtt/mqtt.c ****         }
 2143              		.loc 1 703 11 is_stmt 1 view .LVU585
 2144 0112 2A46     		mov	r2, r5
 2145 0114 2169     		ldr	r1, [r4, #16]
 2146 0116 2046     		mov	r0, r4
 2147 0118 9847     		blx	r3
 2148              	.LVL226:
 2149 011a A2E0     		b	.L158
 2150              	.LVL227:
 2151              	.L198:
 2152              	.LBB5:
 713:Middlewares/Third_Party/LwIP/src/apps/mqtt/mqtt.c ****     u16_t payload_length = length;
 2153              		.loc 1 713 5 view .LVU586
 714:Middlewares/Third_Party/LwIP/src/apps/mqtt/mqtt.c ****     u8_t qos = MQTT_CTL_PACKET_QOS(client->rx_buffer[0]);
 2154              		.loc 1 714 5 view .LVU587
 715:Middlewares/Third_Party/LwIP/src/apps/mqtt/mqtt.c **** 
 2155              		.loc 1 715 5 view .LVU588
 715:Middlewares/Third_Party/LwIP/src/apps/mqtt/mqtt.c **** 
 2156              		.loc 1 715 16 is_stmt 0 view .LVU589
 2157 011c 94F86C80 		ldrb	r8, [r4, #108]	@ zero_extendqisi2
 2158              	.LVL228:
 715:Middlewares/Third_Party/LwIP/src/apps/mqtt/mqtt.c **** 
 2159              		.loc 1 715 10 view .LVU590
 2160 0120 C8F34108 		ubfx	r8, r8, #1, #2
 2161              	.LVL229:
 717:Middlewares/Third_Party/LwIP/src/apps/mqtt/mqtt.c ****       /* Should have topic and pkt id*/
 2162              		.loc 1 717 5 is_stmt 1 view .LVU591
 717:Middlewares/Third_Party/LwIP/src/apps/mqtt/mqtt.c ****       /* Should have topic and pkt id*/
 2163              		.loc 1 717 15 is_stmt 0 view .LVU592
 2164 0124 A36E     		ldr	r3, [r4, #104]
 717:Middlewares/Third_Party/LwIP/src/apps/mqtt/mqtt.c ****       /* Should have topic and pkt id*/
 2165              		.loc 1 717 8 view .LVU593
 2166 0126 802B     		cmp	r3, #128
 2167 0128 56D8     		bhi	.L177
 2168              	.LBB6:
 719:Middlewares/Third_Party/LwIP/src/apps/mqtt/mqtt.c ****       u16_t after_topic;
 2169              		.loc 1 719 7 is_stmt 1 view .LVU594
 720:Middlewares/Third_Party/LwIP/src/apps/mqtt/mqtt.c ****       u8_t bkp;
 2170              		.loc 1 720 7 view .LVU595
 721:Middlewares/Third_Party/LwIP/src/apps/mqtt/mqtt.c ****       u16_t topic_len;
 2171              		.loc 1 721 7 view .LVU596
 722:Middlewares/Third_Party/LwIP/src/apps/mqtt/mqtt.c ****       u16_t qos_len = (qos ? 2U : 0U);
 2172              		.loc 1 722 7 view .LVU597
 723:Middlewares/Third_Party/LwIP/src/apps/mqtt/mqtt.c ****       if (length < 2 + qos_len) {
 2173              		.loc 1 723 7 view .LVU598
 723:Middlewares/Third_Party/LwIP/src/apps/mqtt/mqtt.c ****       if (length < 2 + qos_len) {
ARM GAS  D:\Dev\msys64\tmp\ccB7TkM7.s 			page 66


 2174              		.loc 1 723 13 is_stmt 0 view .LVU599
 2175 012a B8F1000F 		cmp	r8, #0
 2176 012e 36D0     		beq	.L178
 2177 0130 0223     		movs	r3, #2
 2178              	.L162:
 2179              	.LVL230:
 724:Middlewares/Third_Party/LwIP/src/apps/mqtt/mqtt.c ****         LWIP_DEBUGF(MQTT_DEBUG_WARN,( "mqtt_message_received: Received short PUBLISH packet\n"));
 2180              		.loc 1 724 7 is_stmt 1 discriminator 4 view .LVU600
 724:Middlewares/Third_Party/LwIP/src/apps/mqtt/mqtt.c ****         LWIP_DEBUGF(MQTT_DEBUG_WARN,( "mqtt_message_received: Received short PUBLISH packet\n"));
 2181              		.loc 1 724 18 is_stmt 0 discriminator 4 view .LVU601
 2182 0132 5A1C     		adds	r2, r3, #1
 724:Middlewares/Third_Party/LwIP/src/apps/mqtt/mqtt.c ****         LWIP_DEBUGF(MQTT_DEBUG_WARN,( "mqtt_message_received: Received short PUBLISH packet\n"));
 2183              		.loc 1 724 10 discriminator 4 view .LVU602
 2184 0134 9542     		cmp	r5, r2
 2185 0136 40F39880 		ble	.L179
 728:Middlewares/Third_Party/LwIP/src/apps/mqtt/mqtt.c ****       topic_len = (topic_len << 8) + (u16_t)(var_hdr_payload[1]);
 2186              		.loc 1 728 7 is_stmt 1 view .LVU603
 728:Middlewares/Third_Party/LwIP/src/apps/mqtt/mqtt.c ****       topic_len = (topic_len << 8) + (u16_t)(var_hdr_payload[1]);
 2187              		.loc 1 728 17 is_stmt 0 view .LVU604
 2188 013a 1BF80920 		ldrb	r2, [fp, r9]	@ zero_extendqisi2
 2189              	.LVL231:
 729:Middlewares/Third_Party/LwIP/src/apps/mqtt/mqtt.c ****       if ((topic_len > length - (2 + qos_len)) ||
 2190              		.loc 1 729 7 is_stmt 1 view .LVU605
 729:Middlewares/Third_Party/LwIP/src/apps/mqtt/mqtt.c ****       if ((topic_len > length - (2 + qos_len)) ||
 2191              		.loc 1 729 61 is_stmt 0 view .LVU606
 2192 013e 97F801B0 		ldrb	fp, [r7, #1]	@ zero_extendqisi2
 729:Middlewares/Third_Party/LwIP/src/apps/mqtt/mqtt.c ****       if ((topic_len > length - (2 + qos_len)) ||
 2193              		.loc 1 729 17 view .LVU607
 2194 0142 0BEB022B 		add	fp, fp, r2, lsl #8
 2195 0146 1FFA8BFB 		uxth	fp, fp
 2196              	.LVL232:
 730:Middlewares/Third_Party/LwIP/src/apps/mqtt/mqtt.c ****           (topic_len > var_hdr_payload_bufsize - (2 + qos_len))) {
 2197              		.loc 1 730 7 is_stmt 1 view .LVU608
 730:Middlewares/Third_Party/LwIP/src/apps/mqtt/mqtt.c ****           (topic_len > var_hdr_payload_bufsize - (2 + qos_len))) {
 2198              		.loc 1 730 36 is_stmt 0 view .LVU609
 2199 014a 9A1C     		adds	r2, r3, #2
 730:Middlewares/Third_Party/LwIP/src/apps/mqtt/mqtt.c ****           (topic_len > var_hdr_payload_bufsize - (2 + qos_len))) {
 2200              		.loc 1 730 31 view .LVU610
 2201 014c AA1A     		subs	r2, r5, r2
 730:Middlewares/Third_Party/LwIP/src/apps/mqtt/mqtt.c ****           (topic_len > var_hdr_payload_bufsize - (2 + qos_len))) {
 2202              		.loc 1 730 10 view .LVU611
 2203 014e 9345     		cmp	fp, r2
 2204 0150 00F38E80 		bgt	.L180
 731:Middlewares/Third_Party/LwIP/src/apps/mqtt/mqtt.c ****         LWIP_DEBUGF(MQTT_DEBUG_WARN,( "mqtt_message_received: Received short PUBLISH packet (topic)
 2205              		.loc 1 731 48 discriminator 1 view .LVU612
 2206 0154 AAEB0303 		sub	r3, r10, r3
 2207              	.LVL233:
 731:Middlewares/Third_Party/LwIP/src/apps/mqtt/mqtt.c ****         LWIP_DEBUGF(MQTT_DEBUG_WARN,( "mqtt_message_received: Received short PUBLISH packet (topic)
 2208              		.loc 1 731 48 discriminator 1 view .LVU613
 2209 0158 023B     		subs	r3, r3, #2
 730:Middlewares/Third_Party/LwIP/src/apps/mqtt/mqtt.c ****           (topic_len > var_hdr_payload_bufsize - (2 + qos_len))) {
 2210              		.loc 1 730 48 discriminator 1 view .LVU614
 2211 015a 9B45     		cmp	fp, r3
 2212 015c 00F28B80 		bhi	.L181
 736:Middlewares/Third_Party/LwIP/src/apps/mqtt/mqtt.c ****       after_topic = 2 + topic_len;
 2213              		.loc 1 736 7 is_stmt 1 view .LVU615
 736:Middlewares/Third_Party/LwIP/src/apps/mqtt/mqtt.c ****       after_topic = 2 + topic_len;
ARM GAS  D:\Dev\msys64\tmp\ccB7TkM7.s 			page 67


 2214              		.loc 1 736 13 is_stmt 0 view .LVU616
 2215 0160 BB1C     		adds	r3, r7, #2
 2216 0162 0093     		str	r3, [sp]
 2217              	.LVL234:
 737:Middlewares/Third_Party/LwIP/src/apps/mqtt/mqtt.c ****       /* Check buffer length, add one byte even for QoS 0 so that zero termination will fit */
 2218              		.loc 1 737 7 is_stmt 1 view .LVU617
 737:Middlewares/Third_Party/LwIP/src/apps/mqtt/mqtt.c ****       /* Check buffer length, add one byte even for QoS 0 so that zero termination will fit */
 2219              		.loc 1 737 19 is_stmt 0 view .LVU618
 2220 0164 0BF10209 		add	r9, fp, #2
 2221 0168 1FFA89F9 		uxth	r9, r9
 2222              	.LVL235:
 739:Middlewares/Third_Party/LwIP/src/apps/mqtt/mqtt.c ****         LWIP_DEBUGF(MQTT_DEBUG_WARN, ("mqtt_message_received: Receive buffer can not fit topic + pk
 2223              		.loc 1 739 7 is_stmt 1 view .LVU619
 739:Middlewares/Third_Party/LwIP/src/apps/mqtt/mqtt.c ****         LWIP_DEBUGF(MQTT_DEBUG_WARN, ("mqtt_message_received: Receive buffer can not fit topic + pk
 2224              		.loc 1 739 24 is_stmt 0 view .LVU620
 2225 016c 4A46     		mov	r2, r9
 739:Middlewares/Third_Party/LwIP/src/apps/mqtt/mqtt.c ****         LWIP_DEBUGF(MQTT_DEBUG_WARN, ("mqtt_message_received: Receive buffer can not fit topic + pk
 2226              		.loc 1 739 36 view .LVU621
 2227 016e B8F1000F 		cmp	r8, #0
 2228 0172 16D0     		beq	.L182
 2229 0174 0223     		movs	r3, #2
 2230              	.LVL236:
 2231              	.L163:
 739:Middlewares/Third_Party/LwIP/src/apps/mqtt/mqtt.c ****         LWIP_DEBUGF(MQTT_DEBUG_WARN, ("mqtt_message_received: Receive buffer can not fit topic + pk
 2232              		.loc 1 739 24 discriminator 4 view .LVU622
 2233 0176 1344     		add	r3, r3, r2
 739:Middlewares/Third_Party/LwIP/src/apps/mqtt/mqtt.c ****         LWIP_DEBUGF(MQTT_DEBUG_WARN, ("mqtt_message_received: Receive buffer can not fit topic + pk
 2234              		.loc 1 739 10 discriminator 4 view .LVU623
 2235 0178 5345     		cmp	r3, r10
 2236 017a 7FD8     		bhi	.L183
 745:Middlewares/Third_Party/LwIP/src/apps/mqtt/mqtt.c ****         if (length < after_topic + 2U) {
 2237              		.loc 1 745 7 is_stmt 1 view .LVU624
 745:Middlewares/Third_Party/LwIP/src/apps/mqtt/mqtt.c ****         if (length < after_topic + 2U) {
 2238              		.loc 1 745 10 is_stmt 0 view .LVU625
 2239 017c B8F1000F 		cmp	r8, #0
 2240 0180 11D0     		beq	.L164
 746:Middlewares/Third_Party/LwIP/src/apps/mqtt/mqtt.c ****           LWIP_DEBUGF(MQTT_DEBUG_WARN,( "mqtt_message_received: Received short PUBLISH packet (afte
 2241              		.loc 1 746 9 is_stmt 1 view .LVU626
 746:Middlewares/Third_Party/LwIP/src/apps/mqtt/mqtt.c ****           LWIP_DEBUGF(MQTT_DEBUG_WARN,( "mqtt_message_received: Received short PUBLISH packet (afte
 2242              		.loc 1 746 34 is_stmt 0 view .LVU627
 2243 0182 931C     		adds	r3, r2, #2
 746:Middlewares/Third_Party/LwIP/src/apps/mqtt/mqtt.c ****           LWIP_DEBUGF(MQTT_DEBUG_WARN,( "mqtt_message_received: Received short PUBLISH packet (afte
 2244              		.loc 1 746 12 view .LVU628
 2245 0184 9D42     		cmp	r5, r3
 2246 0186 7CD3     		bcc	.L184
 750:Middlewares/Third_Party/LwIP/src/apps/mqtt/mqtt.c ****         after_topic += 2;
 2247              		.loc 1 750 9 is_stmt 1 view .LVU629
 750:Middlewares/Third_Party/LwIP/src/apps/mqtt/mqtt.c ****         after_topic += 2;
 2248              		.loc 1 750 55 is_stmt 0 view .LVU630
 2249 0188 B95C     		ldrb	r1, [r7, r2]	@ zero_extendqisi2
 750:Middlewares/Third_Party/LwIP/src/apps/mqtt/mqtt.c ****         after_topic += 2;
 2250              		.loc 1 750 99 view .LVU631
 2251 018a 3A44     		add	r2, r2, r7
 2252 018c 5378     		ldrb	r3, [r2, #1]	@ zero_extendqisi2
 750:Middlewares/Third_Party/LwIP/src/apps/mqtt/mqtt.c ****         after_topic += 2;
 2253              		.loc 1 750 75 view .LVU632
 2254 018e 03EB0123 		add	r3, r3, r1, lsl #8
ARM GAS  D:\Dev\msys64\tmp\ccB7TkM7.s 			page 68


 750:Middlewares/Third_Party/LwIP/src/apps/mqtt/mqtt.c ****         after_topic += 2;
 2255              		.loc 1 750 30 view .LVU633
 2256 0192 2381     		strh	r3, [r4, #8]	@ movhi
 751:Middlewares/Third_Party/LwIP/src/apps/mqtt/mqtt.c ****       } else {
 2257              		.loc 1 751 9 is_stmt 1 view .LVU634
 751:Middlewares/Third_Party/LwIP/src/apps/mqtt/mqtt.c ****       } else {
 2258              		.loc 1 751 21 is_stmt 0 view .LVU635
 2259 0194 0BF10409 		add	r9, fp, #4
 2260              	.LVL237:
 751:Middlewares/Third_Party/LwIP/src/apps/mqtt/mqtt.c ****       } else {
 2261              		.loc 1 751 21 view .LVU636
 2262 0198 1FFA89F9 		uxth	r9, r9
 2263              	.LVL238:
 751:Middlewares/Third_Party/LwIP/src/apps/mqtt/mqtt.c ****       } else {
 2264              		.loc 1 751 21 view .LVU637
 2265 019c 05E0     		b	.L165
 2266              	.LVL239:
 2267              	.L178:
 723:Middlewares/Third_Party/LwIP/src/apps/mqtt/mqtt.c ****       if (length < 2 + qos_len) {
 2268              		.loc 1 723 13 view .LVU638
 2269 019e 0023     		movs	r3, #0
 2270 01a0 C7E7     		b	.L162
 2271              	.LVL240:
 2272              	.L182:
 739:Middlewares/Third_Party/LwIP/src/apps/mqtt/mqtt.c ****         LWIP_DEBUGF(MQTT_DEBUG_WARN, ("mqtt_message_received: Receive buffer can not fit topic + pk
 2273              		.loc 1 739 36 view .LVU639
 2274 01a2 0123     		movs	r3, #1
 2275              	.LVL241:
 739:Middlewares/Third_Party/LwIP/src/apps/mqtt/mqtt.c ****         LWIP_DEBUGF(MQTT_DEBUG_WARN, ("mqtt_message_received: Receive buffer can not fit topic + pk
 2276              		.loc 1 739 36 view .LVU640
 2277 01a4 E7E7     		b	.L163
 2278              	.L164:
 753:Middlewares/Third_Party/LwIP/src/apps/mqtt/mqtt.c ****       }
 2279              		.loc 1 753 9 is_stmt 1 view .LVU641
 753:Middlewares/Third_Party/LwIP/src/apps/mqtt/mqtt.c ****       }
 2280              		.loc 1 753 30 is_stmt 0 view .LVU642
 2281 01a6 0023     		movs	r3, #0
 2282 01a8 2381     		strh	r3, [r4, #8]	@ movhi
 2283              	.L165:
 756:Middlewares/Third_Party/LwIP/src/apps/mqtt/mqtt.c ****       /* Zero terminate string */
 2284              		.loc 1 756 7 is_stmt 1 view .LVU643
 756:Middlewares/Third_Party/LwIP/src/apps/mqtt/mqtt.c ****       /* Zero terminate string */
 2285              		.loc 1 756 11 is_stmt 0 view .LVU644
 2286 01aa 0099     		ldr	r1, [sp]
 2287 01ac 11F80B30 		ldrb	r3, [r1, fp]	@ zero_extendqisi2
 2288 01b0 0193     		str	r3, [sp, #4]
 2289              	.LVL242:
 758:Middlewares/Third_Party/LwIP/src/apps/mqtt/mqtt.c ****       /* Payload data remaining in receive buffer */
 2290              		.loc 1 758 7 is_stmt 1 view .LVU645
 758:Middlewares/Third_Party/LwIP/src/apps/mqtt/mqtt.c ****       /* Payload data remaining in receive buffer */
 2291              		.loc 1 758 24 is_stmt 0 view .LVU646
 2292 01b2 0023     		movs	r3, #0
 2293 01b4 01F80B30 		strb	r3, [r1, fp]
 760:Middlewares/Third_Party/LwIP/src/apps/mqtt/mqtt.c ****       payload_offset = after_topic;
 2294              		.loc 1 760 7 is_stmt 1 view .LVU647
 760:Middlewares/Third_Party/LwIP/src/apps/mqtt/mqtt.c ****       payload_offset = after_topic;
 2295              		.loc 1 760 22 is_stmt 0 view .LVU648
ARM GAS  D:\Dev\msys64\tmp\ccB7TkM7.s 			page 69


 2296 01b8 A5EB090A 		sub	r10, r5, r9
 2297              	.LVL243:
 760:Middlewares/Third_Party/LwIP/src/apps/mqtt/mqtt.c ****       payload_offset = after_topic;
 2298              		.loc 1 760 22 view .LVU649
 2299 01bc 1FFA8AFA 		uxth	r10, r10
 2300              	.LVL244:
 761:Middlewares/Third_Party/LwIP/src/apps/mqtt/mqtt.c **** 
 2301              		.loc 1 761 7 is_stmt 1 view .LVU650
 764:Middlewares/Third_Party/LwIP/src/apps/mqtt/mqtt.c ****       if (client->pub_cb != NULL) {
 2302              		.loc 1 764 85 view .LVU651
 765:Middlewares/Third_Party/LwIP/src/apps/mqtt/mqtt.c ****         client->pub_cb(client->inpub_arg, (const char *)topic, remaining_length + payload_length);
 2303              		.loc 1 765 7 view .LVU652
 765:Middlewares/Third_Party/LwIP/src/apps/mqtt/mqtt.c ****         client->pub_cb(client->inpub_arg, (const char *)topic, remaining_length + payload_length);
 2304              		.loc 1 765 17 is_stmt 0 view .LVU653
 2305 01c0 636E     		ldr	r3, [r4, #100]
 765:Middlewares/Third_Party/LwIP/src/apps/mqtt/mqtt.c ****         client->pub_cb(client->inpub_arg, (const char *)topic, remaining_length + payload_length);
 2306              		.loc 1 765 10 view .LVU654
 2307 01c2 1BB1     		cbz	r3, .L166
 766:Middlewares/Third_Party/LwIP/src/apps/mqtt/mqtt.c ****       }
 2308              		.loc 1 766 9 is_stmt 1 view .LVU655
 2309 01c4 0AEB0602 		add	r2, r10, r6
 2310 01c8 E06D     		ldr	r0, [r4, #92]
 2311 01ca 9847     		blx	r3
 2312              	.LVL245:
 2313              	.L166:
 769:Middlewares/Third_Party/LwIP/src/apps/mqtt/mqtt.c ****     }
 2314              		.loc 1 769 7 view .LVU656
 769:Middlewares/Third_Party/LwIP/src/apps/mqtt/mqtt.c ****     }
 2315              		.loc 1 769 24 is_stmt 0 view .LVU657
 2316 01cc 009B     		ldr	r3, [sp]
 2317 01ce 1A46     		mov	r2, r3
 2318 01d0 019B     		ldr	r3, [sp, #4]
 2319 01d2 02F80B30 		strb	r3, [r2, fp]
 2320 01d6 02E0     		b	.L161
 2321              	.LVL246:
 2322              	.L177:
 769:Middlewares/Third_Party/LwIP/src/apps/mqtt/mqtt.c ****     }
 2323              		.loc 1 769 24 view .LVU658
 2324              	.LBE6:
 714:Middlewares/Third_Party/LwIP/src/apps/mqtt/mqtt.c ****     u8_t qos = MQTT_CTL_PACKET_QOS(client->rx_buffer[0]);
 2325              		.loc 1 714 11 view .LVU659
 2326 01d8 AA46     		mov	r10, r5
 2327              	.LVL247:
 713:Middlewares/Third_Party/LwIP/src/apps/mqtt/mqtt.c ****     u16_t payload_length = length;
 2328              		.loc 1 713 11 view .LVU660
 2329 01da 4FF00009 		mov	r9, #0
 2330              	.LVL248:
 2331              	.L161:
 771:Middlewares/Third_Party/LwIP/src/apps/mqtt/mqtt.c ****       if (length < (size_t)(payload_offset + payload_length)) {
 2332              		.loc 1 771 5 is_stmt 1 view .LVU661
 771:Middlewares/Third_Party/LwIP/src/apps/mqtt/mqtt.c ****       if (length < (size_t)(payload_offset + payload_length)) {
 2333              		.loc 1 771 48 is_stmt 0 view .LVU662
 2334 01de B6FA86F6 		clz	r6, r6
 2335              	.LVL249:
 771:Middlewares/Third_Party/LwIP/src/apps/mqtt/mqtt.c ****       if (length < (size_t)(payload_offset + payload_length)) {
 2336              		.loc 1 771 48 view .LVU663
 2337 01e2 7609     		lsrs	r6, r6, #5
ARM GAS  D:\Dev\msys64\tmp\ccB7TkM7.s 			page 70


 771:Middlewares/Third_Party/LwIP/src/apps/mqtt/mqtt.c ****       if (length < (size_t)(payload_offset + payload_length)) {
 2338              		.loc 1 771 28 view .LVU664
 2339 01e4 BAF1000F 		cmp	r10, #0
 2340 01e8 0CBF     		ite	eq
 2341 01ea 3346     		moveq	r3, r6
 2342 01ec 0123     		movne	r3, #1
 771:Middlewares/Third_Party/LwIP/src/apps/mqtt/mqtt.c ****       if (length < (size_t)(payload_offset + payload_length)) {
 2343              		.loc 1 771 8 view .LVU665
 2344 01ee 002B     		cmp	r3, #0
 2345 01f0 4AD0     		beq	.L185
 772:Middlewares/Third_Party/LwIP/src/apps/mqtt/mqtt.c ****         LWIP_DEBUGF(MQTT_DEBUG_WARN,( "mqtt_message_received: Received short packet (payload)\n"));
 2346              		.loc 1 772 7 is_stmt 1 view .LVU666
 772:Middlewares/Third_Party/LwIP/src/apps/mqtt/mqtt.c ****         LWIP_DEBUGF(MQTT_DEBUG_WARN,( "mqtt_message_received: Received short packet (payload)\n"));
 2347              		.loc 1 772 44 is_stmt 0 view .LVU667
 2348 01f2 09EB0A03 		add	r3, r9, r10
 772:Middlewares/Third_Party/LwIP/src/apps/mqtt/mqtt.c ****         LWIP_DEBUGF(MQTT_DEBUG_WARN,( "mqtt_message_received: Received short packet (payload)\n"));
 2349              		.loc 1 772 10 view .LVU668
 2350 01f6 9D42     		cmp	r5, r3
 2351 01f8 48D3     		bcc	.L186
 776:Middlewares/Third_Party/LwIP/src/apps/mqtt/mqtt.c ****       /* Reply if QoS > 0 */
 2352              		.loc 1 776 7 is_stmt 1 view .LVU669
 776:Middlewares/Third_Party/LwIP/src/apps/mqtt/mqtt.c ****       /* Reply if QoS > 0 */
 2353              		.loc 1 776 13 is_stmt 0 view .LVU670
 2354 01fa 256E     		ldr	r5, [r4, #96]
 776:Middlewares/Third_Party/LwIP/src/apps/mqtt/mqtt.c ****       /* Reply if QoS > 0 */
 2355              		.loc 1 776 7 view .LVU671
 2356 01fc 3346     		mov	r3, r6
 2357 01fe 5246     		mov	r2, r10
 2358 0200 07EB0901 		add	r1, r7, r9
 2359 0204 E06D     		ldr	r0, [r4, #92]
 2360 0206 A847     		blx	r5
 2361              	.LVL250:
 778:Middlewares/Third_Party/LwIP/src/apps/mqtt/mqtt.c ****         /* Send PUBACK for QoS 1 or PUBREC for QoS 2 */
 2362              		.loc 1 778 7 is_stmt 1 view .LVU672
 778:Middlewares/Third_Party/LwIP/src/apps/mqtt/mqtt.c ****         /* Send PUBACK for QoS 1 or PUBREC for QoS 2 */
 2363              		.loc 1 778 33 is_stmt 0 view .LVU673
 2364 0208 B8F1000F 		cmp	r8, #0
 2365 020c 08BF     		it	eq
 2366 020e 0026     		moveq	r6, #0
 778:Middlewares/Third_Party/LwIP/src/apps/mqtt/mqtt.c ****         /* Send PUBACK for QoS 1 or PUBREC for QoS 2 */
 2367              		.loc 1 778 10 view .LVU674
 2368 0210 002E     		cmp	r6, #0
 2369 0212 3ED0     		beq	.L187
 2370              	.LBB7:
 780:Middlewares/Third_Party/LwIP/src/apps/mqtt/mqtt.c ****         LWIP_DEBUGF(MQTT_DEBUG_TRACE, ("mqtt_incomming_publish: Sending publish response: %s with p
 2371              		.loc 1 780 9 is_stmt 1 view .LVU675
 780:Middlewares/Third_Party/LwIP/src/apps/mqtt/mqtt.c ****         LWIP_DEBUGF(MQTT_DEBUG_TRACE, ("mqtt_incomming_publish: Sending publish response: %s with p
 2372              		.loc 1 780 14 is_stmt 0 view .LVU676
 2373 0214 B8F1010F 		cmp	r8, #1
 2374 0218 07D0     		beq	.L203
 2375 021a 0521     		movs	r1, #5
 2376              	.L167:
 2377              	.LVL251:
 782:Middlewares/Third_Party/LwIP/src/apps/mqtt/mqtt.c ****         pub_ack_rec_rel_response(client, resp_msg, client->inpub_pkt_id, 0);
 2378              		.loc 1 782 94 is_stmt 1 discriminator 4 view .LVU677
 783:Middlewares/Third_Party/LwIP/src/apps/mqtt/mqtt.c ****       }
 2379              		.loc 1 783 9 discriminator 4 view .LVU678
ARM GAS  D:\Dev\msys64\tmp\ccB7TkM7.s 			page 71


 2380 021c 0023     		movs	r3, #0
 2381 021e 2289     		ldrh	r2, [r4, #8]
 2382 0220 2046     		mov	r0, r4
 2383 0222 FFF7FEFF 		bl	pub_ack_rec_rel_response
 2384              	.LVL252:
 783:Middlewares/Third_Party/LwIP/src/apps/mqtt/mqtt.c ****       }
 2385              		.loc 1 783 9 is_stmt 0 discriminator 4 view .LVU679
 2386              	.LBE7:
 2387              	.LBE5:
 674:Middlewares/Third_Party/LwIP/src/apps/mqtt/mqtt.c **** 
 2388              		.loc 1 674 28 discriminator 4 view .LVU680
 2389 0226 0025     		movs	r5, #0
 2390 0228 1BE0     		b	.L158
 2391              	.L203:
 2392              	.LBB9:
 2393              	.LBB8:
 780:Middlewares/Third_Party/LwIP/src/apps/mqtt/mqtt.c ****         LWIP_DEBUGF(MQTT_DEBUG_TRACE, ("mqtt_incomming_publish: Sending publish response: %s with p
 2394              		.loc 1 780 14 view .LVU681
 2395 022a 0421     		movs	r1, #4
 2396 022c F6E7     		b	.L167
 2397              	.LVL253:
 2398              	.L199:
 780:Middlewares/Third_Party/LwIP/src/apps/mqtt/mqtt.c ****         LWIP_DEBUGF(MQTT_DEBUG_TRACE, ("mqtt_incomming_publish: Sending publish response: %s with p
 2399              		.loc 1 780 14 view .LVU682
 2400              	.LBE8:
 2401              	.LBE9:
 795:Middlewares/Third_Party/LwIP/src/apps/mqtt/mqtt.c ****       pub_ack_rec_rel_response(client, MQTT_MSG_TYPE_PUBREL, pkt_id, 1);
 2402              		.loc 1 795 113 is_stmt 1 view .LVU683
 796:Middlewares/Third_Party/LwIP/src/apps/mqtt/mqtt.c **** 
 2403              		.loc 1 796 7 view .LVU684
 2404 022e 0123     		movs	r3, #1
 2405 0230 0A46     		mov	r2, r1
 2406 0232 0621     		movs	r1, #6
 2407              	.LVL254:
 796:Middlewares/Third_Party/LwIP/src/apps/mqtt/mqtt.c **** 
 2408              		.loc 1 796 7 is_stmt 0 view .LVU685
 2409 0234 2046     		mov	r0, r4
 2410 0236 FFF7FEFF 		bl	pub_ack_rec_rel_response
 2411              	.LVL255:
 674:Middlewares/Third_Party/LwIP/src/apps/mqtt/mqtt.c **** 
 2412              		.loc 1 674 28 view .LVU686
 2413 023a 0025     		movs	r5, #0
 2414 023c 11E0     		b	.L158
 2415              	.LVL256:
 2416              	.L200:
 799:Middlewares/Third_Party/LwIP/src/apps/mqtt/mqtt.c ****       pub_ack_rec_rel_response(client, MQTT_MSG_TYPE_PUBCOMP, pkt_id, 0);
 2417              		.loc 1 799 123 is_stmt 1 view .LVU687
 800:Middlewares/Third_Party/LwIP/src/apps/mqtt/mqtt.c **** 
 2418              		.loc 1 800 7 view .LVU688
 2419 023e 0023     		movs	r3, #0
 2420 0240 0A46     		mov	r2, r1
 2421 0242 0721     		movs	r1, #7
 2422              	.LVL257:
 800:Middlewares/Third_Party/LwIP/src/apps/mqtt/mqtt.c **** 
 2423              		.loc 1 800 7 is_stmt 0 view .LVU689
 2424 0244 2046     		mov	r0, r4
 2425 0246 FFF7FEFF 		bl	pub_ack_rec_rel_response
ARM GAS  D:\Dev\msys64\tmp\ccB7TkM7.s 			page 72


 2426              	.LVL258:
 674:Middlewares/Third_Party/LwIP/src/apps/mqtt/mqtt.c **** 
 2427              		.loc 1 674 28 view .LVU690
 2428 024a 0025     		movs	r5, #0
 2429 024c 09E0     		b	.L158
 2430              	.LVL259:
 2431              	.L201:
 2432              	.LBB10:
 808:Middlewares/Third_Party/LwIP/src/apps/mqtt/mqtt.c ****             LWIP_DEBUGF(MQTT_DEBUG_WARN, ("mqtt_message_received: To small SUBACK packet\n"));
 2433              		.loc 1 808 11 is_stmt 1 view .LVU691
 808:Middlewares/Third_Party/LwIP/src/apps/mqtt/mqtt.c ****             LWIP_DEBUGF(MQTT_DEBUG_WARN, ("mqtt_message_received: To small SUBACK packet\n"));
 2434              		.loc 1 808 14 is_stmt 0 view .LVU692
 2435 024e 022D     		cmp	r5, #2
 2436 0250 29D9     		bls	.L192
 812:Middlewares/Third_Party/LwIP/src/apps/mqtt/mqtt.c ****           }
 2437              		.loc 1 812 13 is_stmt 1 view .LVU693
 2438 0252 B978     		ldrb	r1, [r7, #2]	@ zero_extendqisi2
 2439 0254 FFF7FEFF 		bl	mqtt_incomming_suback
 2440              	.LVL260:
 812:Middlewares/Third_Party/LwIP/src/apps/mqtt/mqtt.c ****           }
 2441              		.loc 1 812 13 is_stmt 0 view .LVU694
 2442 0258 28E7     		b	.L173
 2443              	.LVL261:
 2444              	.L175:
 812:Middlewares/Third_Party/LwIP/src/apps/mqtt/mqtt.c ****           }
 2445              		.loc 1 812 13 view .LVU695
 2446              	.LBE10:
 828:Middlewares/Third_Party/LwIP/src/apps/mqtt/mqtt.c **** }
 2447              		.loc 1 828 10 view .LVU696
 2448 025a 4FF48075 		mov	r5, #256
 2449 025e 00E0     		b	.L158
 2450              	.L176:
 674:Middlewares/Third_Party/LwIP/src/apps/mqtt/mqtt.c **** 
 2451              		.loc 1 674 28 view .LVU697
 2452 0260 0025     		movs	r5, #0
 2453              	.LVL262:
 2454              	.L158:
 829:Middlewares/Third_Party/LwIP/src/apps/mqtt/mqtt.c **** 
 2455              		.loc 1 829 1 view .LVU698
 2456 0262 2846     		mov	r0, r5
 2457 0264 03B0     		add	sp, sp, #12
 2458              	.LCFI23:
 2459              		.cfi_remember_state
 2460              		.cfi_def_cfa_offset 36
 2461              		@ sp needed
 2462 0266 BDE8F08F 		pop	{r4, r5, r6, r7, r8, r9, r10, fp, pc}
 2463              	.LVL263:
 2464              	.L179:
 2465              	.LCFI24:
 2466              		.cfi_restore_state
 828:Middlewares/Third_Party/LwIP/src/apps/mqtt/mqtt.c **** }
 2467              		.loc 1 828 10 view .LVU699
 2468 026a 4FF48075 		mov	r5, #256
 2469              	.LVL264:
 828:Middlewares/Third_Party/LwIP/src/apps/mqtt/mqtt.c **** }
 2470              		.loc 1 828 10 view .LVU700
 2471 026e F8E7     		b	.L158
ARM GAS  D:\Dev\msys64\tmp\ccB7TkM7.s 			page 73


 2472              	.LVL265:
 2473              	.L180:
 828:Middlewares/Third_Party/LwIP/src/apps/mqtt/mqtt.c **** }
 2474              		.loc 1 828 10 view .LVU701
 2475 0270 4FF48075 		mov	r5, #256
 2476              	.LVL266:
 828:Middlewares/Third_Party/LwIP/src/apps/mqtt/mqtt.c **** }
 2477              		.loc 1 828 10 view .LVU702
 2478 0274 F5E7     		b	.L158
 2479              	.LVL267:
 2480              	.L181:
 828:Middlewares/Third_Party/LwIP/src/apps/mqtt/mqtt.c **** }
 2481              		.loc 1 828 10 view .LVU703
 2482 0276 4FF48075 		mov	r5, #256
 2483              	.LVL268:
 828:Middlewares/Third_Party/LwIP/src/apps/mqtt/mqtt.c **** }
 2484              		.loc 1 828 10 view .LVU704
 2485 027a F2E7     		b	.L158
 2486              	.LVL269:
 2487              	.L183:
 828:Middlewares/Third_Party/LwIP/src/apps/mqtt/mqtt.c **** }
 2488              		.loc 1 828 10 view .LVU705
 2489 027c 4FF48075 		mov	r5, #256
 2490              	.LVL270:
 828:Middlewares/Third_Party/LwIP/src/apps/mqtt/mqtt.c **** }
 2491              		.loc 1 828 10 view .LVU706
 2492 0280 EFE7     		b	.L158
 2493              	.LVL271:
 2494              	.L184:
 828:Middlewares/Third_Party/LwIP/src/apps/mqtt/mqtt.c **** }
 2495              		.loc 1 828 10 view .LVU707
 2496 0282 4FF48075 		mov	r5, #256
 2497              	.LVL272:
 828:Middlewares/Third_Party/LwIP/src/apps/mqtt/mqtt.c **** }
 2498              		.loc 1 828 10 view .LVU708
 2499 0286 ECE7     		b	.L158
 2500              	.LVL273:
 2501              	.L185:
 674:Middlewares/Third_Party/LwIP/src/apps/mqtt/mqtt.c **** 
 2502              		.loc 1 674 28 view .LVU709
 2503 0288 0025     		movs	r5, #0
 2504 028a EAE7     		b	.L158
 2505              	.L186:
 828:Middlewares/Third_Party/LwIP/src/apps/mqtt/mqtt.c **** }
 2506              		.loc 1 828 10 view .LVU710
 2507 028c 4FF48075 		mov	r5, #256
 2508 0290 E7E7     		b	.L158
 2509              	.L187:
 674:Middlewares/Third_Party/LwIP/src/apps/mqtt/mqtt.c **** 
 2510              		.loc 1 674 28 view .LVU711
 2511 0292 0025     		movs	r5, #0
 2512 0294 E5E7     		b	.L158
 2513              	.LVL274:
 2514              	.L189:
 828:Middlewares/Third_Party/LwIP/src/apps/mqtt/mqtt.c **** }
 2515              		.loc 1 828 10 view .LVU712
 2516 0296 4FF48075 		mov	r5, #256
ARM GAS  D:\Dev\msys64\tmp\ccB7TkM7.s 			page 74


 2517 029a E2E7     		b	.L158
 2518              	.L190:
 2519 029c 4FF48075 		mov	r5, #256
 2520 02a0 DFE7     		b	.L158
 2521              	.LVL275:
 2522              	.L191:
 674:Middlewares/Third_Party/LwIP/src/apps/mqtt/mqtt.c **** 
 2523              		.loc 1 674 28 view .LVU713
 2524 02a2 0025     		movs	r5, #0
 2525 02a4 DDE7     		b	.L158
 2526              	.L192:
 828:Middlewares/Third_Party/LwIP/src/apps/mqtt/mqtt.c **** }
 2527              		.loc 1 828 10 view .LVU714
 2528 02a6 4FF48075 		mov	r5, #256
 2529 02aa DAE7     		b	.L158
 2530              	.L205:
 2531              		.align	2
 2532              	.L204:
 2533 02ac 00000000 		.word	.LC0
 2534 02b0 00000000 		.word	.LC12
 2535 02b4 58000000 		.word	.LC2
 2536 02b8 30000000 		.word	.LC13
 2537 02bc 54000000 		.word	.LC14
 2538              		.cfi_endproc
 2539              	.LFE53:
 2541              		.section	.rodata.mqtt_close.str1.4,"aMS",%progbits,1
 2542              		.align	2
 2543              	.LC15:
 2544 0000 6D717474 		.ascii	"mqtt_close: client != NULL\000"
 2544      5F636C6F 
 2544      73653A20 
 2544      636C6965 
 2544      6E742021 
 2545              		.section	.text.mqtt_close,"ax",%progbits
 2546              		.align	1
 2547              		.syntax unified
 2548              		.thumb
 2549              		.thumb_func
 2550              		.fpu fpv5-sp-d16
 2552              	mqtt_close:
 2553              	.LVL276:
 2554              	.LFB49:
 538:Middlewares/Third_Party/LwIP/src/apps/mqtt/mqtt.c ****   LWIP_ASSERT("mqtt_close: client != NULL", client != NULL);
 2555              		.loc 1 538 1 is_stmt 1 view -0
 2556              		.cfi_startproc
 2557              		@ args = 0, pretend = 0, frame = 0
 2558              		@ frame_needed = 0, uses_anonymous_args = 0
 538:Middlewares/Third_Party/LwIP/src/apps/mqtt/mqtt.c ****   LWIP_ASSERT("mqtt_close: client != NULL", client != NULL);
 2559              		.loc 1 538 1 is_stmt 0 view .LVU716
 2560 0000 38B5     		push	{r3, r4, r5, lr}
 2561              	.LCFI25:
 2562              		.cfi_def_cfa_offset 16
 2563              		.cfi_offset 3, -16
 2564              		.cfi_offset 4, -12
 2565              		.cfi_offset 5, -8
 2566              		.cfi_offset 14, -4
 2567 0002 0D46     		mov	r5, r1
ARM GAS  D:\Dev\msys64\tmp\ccB7TkM7.s 			page 75


 539:Middlewares/Third_Party/LwIP/src/apps/mqtt/mqtt.c **** 
 2568              		.loc 1 539 3 is_stmt 1 view .LVU717
 539:Middlewares/Third_Party/LwIP/src/apps/mqtt/mqtt.c **** 
 2569              		.loc 1 539 3 view .LVU718
 2570 0004 0446     		mov	r4, r0
 2571 0006 28B3     		cbz	r0, .L212
 2572              	.LVL277:
 2573              	.L207:
 539:Middlewares/Third_Party/LwIP/src/apps/mqtt/mqtt.c **** 
 2574              		.loc 1 539 3 discriminator 3 view .LVU719
 539:Middlewares/Third_Party/LwIP/src/apps/mqtt/mqtt.c **** 
 2575              		.loc 1 539 3 discriminator 3 view .LVU720
 542:Middlewares/Third_Party/LwIP/src/apps/mqtt/mqtt.c ****     err_t res;
 2576              		.loc 1 542 3 discriminator 3 view .LVU721
 542:Middlewares/Third_Party/LwIP/src/apps/mqtt/mqtt.c ****     err_t res;
 2577              		.loc 1 542 13 is_stmt 0 discriminator 3 view .LVU722
 2578 0008 E068     		ldr	r0, [r4, #12]
 542:Middlewares/Third_Party/LwIP/src/apps/mqtt/mqtt.c ****     err_t res;
 2579              		.loc 1 542 6 discriminator 3 view .LVU723
 2580 000a 80B1     		cbz	r0, .L208
 2581              	.LBB11:
 543:Middlewares/Third_Party/LwIP/src/apps/mqtt/mqtt.c ****     altcp_recv(client->conn, NULL);
 2582              		.loc 1 543 5 is_stmt 1 view .LVU724
 544:Middlewares/Third_Party/LwIP/src/apps/mqtt/mqtt.c ****     altcp_err(client->conn,  NULL);
 2583              		.loc 1 544 5 view .LVU725
 2584 000c 0021     		movs	r1, #0
 2585 000e FFF7FEFF 		bl	tcp_recv
 2586              	.LVL278:
 545:Middlewares/Third_Party/LwIP/src/apps/mqtt/mqtt.c ****     altcp_sent(client->conn, NULL);
 2587              		.loc 1 545 5 view .LVU726
 2588 0012 0021     		movs	r1, #0
 2589 0014 E068     		ldr	r0, [r4, #12]
 2590 0016 FFF7FEFF 		bl	tcp_err
 2591              	.LVL279:
 546:Middlewares/Third_Party/LwIP/src/apps/mqtt/mqtt.c ****     res = altcp_close(client->conn);
 2592              		.loc 1 546 5 view .LVU727
 2593 001a 0021     		movs	r1, #0
 2594 001c E068     		ldr	r0, [r4, #12]
 2595 001e FFF7FEFF 		bl	tcp_sent
 2596              	.LVL280:
 547:Middlewares/Third_Party/LwIP/src/apps/mqtt/mqtt.c ****     if (res != ERR_OK) {
 2597              		.loc 1 547 5 view .LVU728
 547:Middlewares/Third_Party/LwIP/src/apps/mqtt/mqtt.c ****     if (res != ERR_OK) {
 2598              		.loc 1 547 11 is_stmt 0 view .LVU729
 2599 0022 E068     		ldr	r0, [r4, #12]
 2600 0024 FFF7FEFF 		bl	tcp_close
 2601              	.LVL281:
 548:Middlewares/Third_Party/LwIP/src/apps/mqtt/mqtt.c ****       altcp_abort(client->conn);
 2602              		.loc 1 548 5 is_stmt 1 view .LVU730
 548:Middlewares/Third_Party/LwIP/src/apps/mqtt/mqtt.c ****       altcp_abort(client->conn);
 2603              		.loc 1 548 8 is_stmt 0 view .LVU731
 2604 0028 E0B9     		cbnz	r0, .L213
 2605              	.LVL282:
 2606              	.L209:
 550:Middlewares/Third_Party/LwIP/src/apps/mqtt/mqtt.c ****     }
 2607              		.loc 1 550 86 is_stmt 1 view .LVU732
 552:Middlewares/Third_Party/LwIP/src/apps/mqtt/mqtt.c ****   }
ARM GAS  D:\Dev\msys64\tmp\ccB7TkM7.s 			page 76


 2608              		.loc 1 552 5 view .LVU733
 552:Middlewares/Third_Party/LwIP/src/apps/mqtt/mqtt.c ****   }
 2609              		.loc 1 552 18 is_stmt 0 view .LVU734
 2610 002a 0023     		movs	r3, #0
 2611 002c E360     		str	r3, [r4, #12]
 2612              	.L208:
 552:Middlewares/Third_Party/LwIP/src/apps/mqtt/mqtt.c ****   }
 2613              		.loc 1 552 18 view .LVU735
 2614              	.LBE11:
 556:Middlewares/Third_Party/LwIP/src/apps/mqtt/mqtt.c ****   /* Stop cyclic timer */
 2615              		.loc 1 556 3 is_stmt 1 view .LVU736
 2616 002e 04F11800 		add	r0, r4, #24
 2617 0032 FFF7FEFF 		bl	mqtt_clear_requests
 2618              	.LVL283:
 558:Middlewares/Third_Party/LwIP/src/apps/mqtt/mqtt.c **** 
 2619              		.loc 1 558 3 view .LVU737
 2620 0036 2146     		mov	r1, r4
 2621 0038 0C48     		ldr	r0, .L214
 2622 003a FFF7FEFF 		bl	sys_untimeout
 2623              	.LVL284:
 561:Middlewares/Third_Party/LwIP/src/apps/mqtt/mqtt.c **** 
 2624              		.loc 1 561 3 view .LVU738
 561:Middlewares/Third_Party/LwIP/src/apps/mqtt/mqtt.c **** 
 2625              		.loc 1 561 13 is_stmt 0 view .LVU739
 2626 003e A37A     		ldrb	r3, [r4, #10]	@ zero_extendqisi2
 561:Middlewares/Third_Party/LwIP/src/apps/mqtt/mqtt.c **** 
 2627              		.loc 1 561 6 view .LVU740
 2628 0040 3BB1     		cbz	r3, .L206
 563:Middlewares/Third_Party/LwIP/src/apps/mqtt/mqtt.c ****     if (client->connect_cb != NULL) {
 2629              		.loc 1 563 5 is_stmt 1 view .LVU741
 563:Middlewares/Third_Party/LwIP/src/apps/mqtt/mqtt.c ****     if (client->connect_cb != NULL) {
 2630              		.loc 1 563 24 is_stmt 0 view .LVU742
 2631 0042 0023     		movs	r3, #0
 2632 0044 A372     		strb	r3, [r4, #10]
 564:Middlewares/Third_Party/LwIP/src/apps/mqtt/mqtt.c ****       client->connect_cb(client, client->connect_arg, reason);
 2633              		.loc 1 564 5 is_stmt 1 view .LVU743
 564:Middlewares/Third_Party/LwIP/src/apps/mqtt/mqtt.c ****       client->connect_cb(client, client->connect_arg, reason);
 2634              		.loc 1 564 15 is_stmt 0 view .LVU744
 2635 0046 6369     		ldr	r3, [r4, #20]
 564:Middlewares/Third_Party/LwIP/src/apps/mqtt/mqtt.c ****       client->connect_cb(client, client->connect_arg, reason);
 2636              		.loc 1 564 8 view .LVU745
 2637 0048 1BB1     		cbz	r3, .L206
 565:Middlewares/Third_Party/LwIP/src/apps/mqtt/mqtt.c ****     }
 2638              		.loc 1 565 7 is_stmt 1 view .LVU746
 2639 004a 2A46     		mov	r2, r5
 2640 004c 2169     		ldr	r1, [r4, #16]
 2641 004e 2046     		mov	r0, r4
 2642 0050 9847     		blx	r3
 2643              	.LVL285:
 2644              	.L206:
 568:Middlewares/Third_Party/LwIP/src/apps/mqtt/mqtt.c **** 
 2645              		.loc 1 568 1 is_stmt 0 view .LVU747
 2646 0052 38BD     		pop	{r3, r4, r5, pc}
 2647              	.LVL286:
 2648              	.L212:
 539:Middlewares/Third_Party/LwIP/src/apps/mqtt/mqtt.c **** 
 2649              		.loc 1 539 3 is_stmt 1 discriminator 1 view .LVU748
ARM GAS  D:\Dev\msys64\tmp\ccB7TkM7.s 			page 77


 539:Middlewares/Third_Party/LwIP/src/apps/mqtt/mqtt.c **** 
 2650              		.loc 1 539 3 discriminator 1 view .LVU749
 2651 0054 064B     		ldr	r3, .L214+4
 2652 0056 40F21B22 		movw	r2, #539
 2653 005a 0649     		ldr	r1, .L214+8
 2654              	.LVL287:
 539:Middlewares/Third_Party/LwIP/src/apps/mqtt/mqtt.c **** 
 2655              		.loc 1 539 3 is_stmt 0 discriminator 1 view .LVU750
 2656 005c 0648     		ldr	r0, .L214+12
 2657              	.LVL288:
 539:Middlewares/Third_Party/LwIP/src/apps/mqtt/mqtt.c **** 
 2658              		.loc 1 539 3 discriminator 1 view .LVU751
 2659 005e FFF7FEFF 		bl	printf
 2660              	.LVL289:
 2661 0062 D1E7     		b	.L207
 2662              	.LVL290:
 2663              	.L213:
 2664              	.LBB12:
 549:Middlewares/Third_Party/LwIP/src/apps/mqtt/mqtt.c ****       LWIP_DEBUGF(MQTT_DEBUG_TRACE, ("mqtt_close: Close err=%s\n", lwip_strerr(res)));
 2665              		.loc 1 549 7 is_stmt 1 view .LVU752
 2666 0064 E068     		ldr	r0, [r4, #12]
 2667              	.LVL291:
 549:Middlewares/Third_Party/LwIP/src/apps/mqtt/mqtt.c ****       LWIP_DEBUGF(MQTT_DEBUG_TRACE, ("mqtt_close: Close err=%s\n", lwip_strerr(res)));
 2668              		.loc 1 549 7 is_stmt 0 view .LVU753
 2669 0066 FFF7FEFF 		bl	tcp_abort
 2670              	.LVL292:
 2671 006a DEE7     		b	.L209
 2672              	.L215:
 2673              		.align	2
 2674              	.L214:
 2675 006c 00000000 		.word	mqtt_cyclic_timer
 2676 0070 00000000 		.word	.LC0
 2677 0074 00000000 		.word	.LC15
 2678 0078 58000000 		.word	.LC2
 2679              	.LBE12:
 2680              		.cfi_endproc
 2681              	.LFE49:
 2683              		.section	.rodata.mqtt_tcp_err_cb.str1.4,"aMS",%progbits,1
 2684              		.align	2
 2685              	.LC16:
 2686 0000 6D717474 		.ascii	"mqtt_tcp_err_cb: client != NULL\000"
 2686      5F746370 
 2686      5F657272 
 2686      5F63623A 
 2686      20636C69 
 2687              		.section	.text.mqtt_tcp_err_cb,"ax",%progbits
 2688              		.align	1
 2689              		.syntax unified
 2690              		.thumb
 2691              		.thumb_func
 2692              		.fpu fpv5-sp-d16
 2694              	mqtt_tcp_err_cb:
 2695              	.LVL293:
 2696              	.LFB57:
1010:Middlewares/Third_Party/LwIP/src/apps/mqtt/mqtt.c ****   mqtt_client_t *client = (mqtt_client_t *)arg;
 2697              		.loc 1 1010 1 is_stmt 1 view -0
 2698              		.cfi_startproc
ARM GAS  D:\Dev\msys64\tmp\ccB7TkM7.s 			page 78


 2699              		@ args = 0, pretend = 0, frame = 0
 2700              		@ frame_needed = 0, uses_anonymous_args = 0
1010:Middlewares/Third_Party/LwIP/src/apps/mqtt/mqtt.c ****   mqtt_client_t *client = (mqtt_client_t *)arg;
 2701              		.loc 1 1010 1 is_stmt 0 view .LVU755
 2702 0000 10B5     		push	{r4, lr}
 2703              	.LCFI26:
 2704              		.cfi_def_cfa_offset 8
 2705              		.cfi_offset 4, -8
 2706              		.cfi_offset 14, -4
1011:Middlewares/Third_Party/LwIP/src/apps/mqtt/mqtt.c ****   LWIP_UNUSED_ARG(err); /* only used for debug output */
 2707              		.loc 1 1011 3 is_stmt 1 view .LVU756
 2708              	.LVL294:
1012:Middlewares/Third_Party/LwIP/src/apps/mqtt/mqtt.c ****   LWIP_DEBUGF(MQTT_DEBUG_TRACE, ("mqtt_tcp_err_cb: TCP error callback: error %d, arg: %p\n", err, a
 2709              		.loc 1 1012 3 view .LVU757
1013:Middlewares/Third_Party/LwIP/src/apps/mqtt/mqtt.c ****   LWIP_ASSERT("mqtt_tcp_err_cb: client != NULL", client != NULL);
 2710              		.loc 1 1013 104 view .LVU758
1014:Middlewares/Third_Party/LwIP/src/apps/mqtt/mqtt.c ****   /* Set conn to null before calling close as pcb is already deallocated*/
 2711              		.loc 1 1014 3 view .LVU759
1014:Middlewares/Third_Party/LwIP/src/apps/mqtt/mqtt.c ****   /* Set conn to null before calling close as pcb is already deallocated*/
 2712              		.loc 1 1014 3 view .LVU760
 2713 0002 0446     		mov	r4, r0
 2714 0004 38B1     		cbz	r0, .L219
 2715              	.LVL295:
 2716              	.L217:
1014:Middlewares/Third_Party/LwIP/src/apps/mqtt/mqtt.c ****   /* Set conn to null before calling close as pcb is already deallocated*/
 2717              		.loc 1 1014 3 discriminator 3 view .LVU761
1014:Middlewares/Third_Party/LwIP/src/apps/mqtt/mqtt.c ****   /* Set conn to null before calling close as pcb is already deallocated*/
 2718              		.loc 1 1014 3 discriminator 3 view .LVU762
1016:Middlewares/Third_Party/LwIP/src/apps/mqtt/mqtt.c ****   mqtt_close(client, MQTT_CONNECT_DISCONNECTED);
 2719              		.loc 1 1016 3 discriminator 3 view .LVU763
1016:Middlewares/Third_Party/LwIP/src/apps/mqtt/mqtt.c ****   mqtt_close(client, MQTT_CONNECT_DISCONNECTED);
 2720              		.loc 1 1016 16 is_stmt 0 discriminator 3 view .LVU764
 2721 0006 0023     		movs	r3, #0
 2722 0008 E360     		str	r3, [r4, #12]
1017:Middlewares/Third_Party/LwIP/src/apps/mqtt/mqtt.c **** }
 2723              		.loc 1 1017 3 is_stmt 1 discriminator 3 view .LVU765
 2724 000a 4FF48071 		mov	r1, #256
 2725 000e 2046     		mov	r0, r4
 2726 0010 FFF7FEFF 		bl	mqtt_close
 2727              	.LVL296:
1018:Middlewares/Third_Party/LwIP/src/apps/mqtt/mqtt.c **** 
 2728              		.loc 1 1018 1 is_stmt 0 discriminator 3 view .LVU766
 2729 0014 10BD     		pop	{r4, pc}
 2730              	.LVL297:
 2731              	.L219:
1014:Middlewares/Third_Party/LwIP/src/apps/mqtt/mqtt.c ****   /* Set conn to null before calling close as pcb is already deallocated*/
 2732              		.loc 1 1014 3 is_stmt 1 discriminator 1 view .LVU767
1014:Middlewares/Third_Party/LwIP/src/apps/mqtt/mqtt.c ****   /* Set conn to null before calling close as pcb is already deallocated*/
 2733              		.loc 1 1014 3 discriminator 1 view .LVU768
 2734 0016 044B     		ldr	r3, .L220
 2735 0018 40F2F632 		movw	r2, #1014
 2736 001c 0349     		ldr	r1, .L220+4
 2737              	.LVL298:
1014:Middlewares/Third_Party/LwIP/src/apps/mqtt/mqtt.c ****   /* Set conn to null before calling close as pcb is already deallocated*/
 2738              		.loc 1 1014 3 is_stmt 0 discriminator 1 view .LVU769
 2739 001e 0448     		ldr	r0, .L220+8
 2740              	.LVL299:
ARM GAS  D:\Dev\msys64\tmp\ccB7TkM7.s 			page 79


1014:Middlewares/Third_Party/LwIP/src/apps/mqtt/mqtt.c ****   /* Set conn to null before calling close as pcb is already deallocated*/
 2741              		.loc 1 1014 3 discriminator 1 view .LVU770
 2742 0020 FFF7FEFF 		bl	printf
 2743              	.LVL300:
 2744 0024 EFE7     		b	.L217
 2745              	.L221:
 2746 0026 00BF     		.align	2
 2747              	.L220:
 2748 0028 00000000 		.word	.LC0
 2749 002c 00000000 		.word	.LC16
 2750 0030 58000000 		.word	.LC2
 2751              		.cfi_endproc
 2752              	.LFE57:
 2754              		.section	.rodata.mqtt_cyclic_timer.str1.4,"aMS",%progbits,1
 2755              		.align	2
 2756              	.LC17:
 2757 0000 6D717474 		.ascii	"mqtt_cyclic_timer: client != NULL\000"
 2757      5F637963 
 2757      6C69635F 
 2757      74696D65 
 2757      723A2063 
 2758              		.section	.text.mqtt_cyclic_timer,"ax",%progbits
 2759              		.align	1
 2760              		.syntax unified
 2761              		.thumb
 2762              		.thumb_func
 2763              		.fpu fpv5-sp-d16
 2765              	mqtt_cyclic_timer:
 2766              	.LVL301:
 2767              	.LFB50:
 577:Middlewares/Third_Party/LwIP/src/apps/mqtt/mqtt.c ****   u8_t restart_timer = 1;
 2768              		.loc 1 577 1 is_stmt 1 view -0
 2769              		.cfi_startproc
 2770              		@ args = 0, pretend = 0, frame = 0
 2771              		@ frame_needed = 0, uses_anonymous_args = 0
 577:Middlewares/Third_Party/LwIP/src/apps/mqtt/mqtt.c ****   u8_t restart_timer = 1;
 2772              		.loc 1 577 1 is_stmt 0 view .LVU772
 2773 0000 F0B5     		push	{r4, r5, r6, r7, lr}
 2774              	.LCFI27:
 2775              		.cfi_def_cfa_offset 20
 2776              		.cfi_offset 4, -20
 2777              		.cfi_offset 5, -16
 2778              		.cfi_offset 6, -12
 2779              		.cfi_offset 7, -8
 2780              		.cfi_offset 14, -4
 2781 0002 83B0     		sub	sp, sp, #12
 2782              	.LCFI28:
 2783              		.cfi_def_cfa_offset 32
 578:Middlewares/Third_Party/LwIP/src/apps/mqtt/mqtt.c ****   mqtt_client_t *client = (mqtt_client_t *)arg;
 2784              		.loc 1 578 3 is_stmt 1 view .LVU773
 2785              	.LVL302:
 579:Middlewares/Third_Party/LwIP/src/apps/mqtt/mqtt.c ****   LWIP_ASSERT("mqtt_cyclic_timer: client != NULL", client != NULL);
 2786              		.loc 1 579 3 view .LVU774
 580:Middlewares/Third_Party/LwIP/src/apps/mqtt/mqtt.c **** 
 2787              		.loc 1 580 3 view .LVU775
 580:Middlewares/Third_Party/LwIP/src/apps/mqtt/mqtt.c **** 
 2788              		.loc 1 580 3 view .LVU776
ARM GAS  D:\Dev\msys64\tmp\ccB7TkM7.s 			page 80


 2789 0004 0446     		mov	r4, r0
 2790 0006 30B1     		cbz	r0, .L232
 2791              	.LVL303:
 2792              	.L223:
 580:Middlewares/Third_Party/LwIP/src/apps/mqtt/mqtt.c **** 
 2793              		.loc 1 580 3 discriminator 3 view .LVU777
 580:Middlewares/Third_Party/LwIP/src/apps/mqtt/mqtt.c **** 
 2794              		.loc 1 580 3 discriminator 3 view .LVU778
 582:Middlewares/Third_Party/LwIP/src/apps/mqtt/mqtt.c ****     client->cyclic_tick++;
 2795              		.loc 1 582 3 discriminator 3 view .LVU779
 582:Middlewares/Third_Party/LwIP/src/apps/mqtt/mqtt.c ****     client->cyclic_tick++;
 2796              		.loc 1 582 13 is_stmt 0 discriminator 3 view .LVU780
 2797 0008 A37A     		ldrb	r3, [r4, #10]	@ zero_extendqisi2
 582:Middlewares/Third_Party/LwIP/src/apps/mqtt/mqtt.c ****     client->cyclic_tick++;
 2798              		.loc 1 582 6 discriminator 3 view .LVU781
 2799 000a 022B     		cmp	r3, #2
 2800 000c 0BD0     		beq	.L233
 590:Middlewares/Third_Party/LwIP/src/apps/mqtt/mqtt.c ****     /* Handle timeout for pending requests */
 2801              		.loc 1 590 10 is_stmt 1 view .LVU782
 590:Middlewares/Third_Party/LwIP/src/apps/mqtt/mqtt.c ****     /* Handle timeout for pending requests */
 2802              		.loc 1 590 13 is_stmt 0 view .LVU783
 2803 000e 032B     		cmp	r3, #3
 2804 0010 1ED0     		beq	.L234
 2805              	.LVL304:
 2806              	.L222:
 623:Middlewares/Third_Party/LwIP/src/apps/mqtt/mqtt.c **** 
 2807              		.loc 1 623 1 view .LVU784
 2808 0012 03B0     		add	sp, sp, #12
 2809              	.LCFI29:
 2810              		.cfi_remember_state
 2811              		.cfi_def_cfa_offset 20
 2812              		@ sp needed
 2813 0014 F0BD     		pop	{r4, r5, r6, r7, pc}
 2814              	.LVL305:
 2815              	.L232:
 2816              	.LCFI30:
 2817              		.cfi_restore_state
 580:Middlewares/Third_Party/LwIP/src/apps/mqtt/mqtt.c **** 
 2818              		.loc 1 580 3 is_stmt 1 discriminator 1 view .LVU785
 580:Middlewares/Third_Party/LwIP/src/apps/mqtt/mqtt.c **** 
 2819              		.loc 1 580 3 discriminator 1 view .LVU786
 2820 0016 2A4B     		ldr	r3, .L238
 2821 0018 4FF41172 		mov	r2, #580
 2822 001c 2949     		ldr	r1, .L238+4
 2823 001e 2A48     		ldr	r0, .L238+8
 2824              	.LVL306:
 580:Middlewares/Third_Party/LwIP/src/apps/mqtt/mqtt.c **** 
 2825              		.loc 1 580 3 is_stmt 0 discriminator 1 view .LVU787
 2826 0020 FFF7FEFF 		bl	printf
 2827              	.LVL307:
 2828 0024 F0E7     		b	.L223
 2829              	.L233:
 583:Middlewares/Third_Party/LwIP/src/apps/mqtt/mqtt.c ****     if ((client->cyclic_tick * MQTT_CYCLIC_TIMER_INTERVAL) >= MQTT_CONNECT_TIMOUT) {
 2830              		.loc 1 583 5 is_stmt 1 view .LVU788
 583:Middlewares/Third_Party/LwIP/src/apps/mqtt/mqtt.c ****     if ((client->cyclic_tick * MQTT_CYCLIC_TIMER_INTERVAL) >= MQTT_CONNECT_TIMOUT) {
 2831              		.loc 1 583 11 is_stmt 0 view .LVU789
 2832 0026 2388     		ldrh	r3, [r4]
ARM GAS  D:\Dev\msys64\tmp\ccB7TkM7.s 			page 81


 583:Middlewares/Third_Party/LwIP/src/apps/mqtt/mqtt.c ****     if ((client->cyclic_tick * MQTT_CYCLIC_TIMER_INTERVAL) >= MQTT_CONNECT_TIMOUT) {
 2833              		.loc 1 583 24 view .LVU790
 2834 0028 0133     		adds	r3, r3, #1
 2835 002a 9BB2     		uxth	r3, r3
 2836 002c 2380     		strh	r3, [r4]	@ movhi
 584:Middlewares/Third_Party/LwIP/src/apps/mqtt/mqtt.c ****       LWIP_DEBUGF(MQTT_DEBUG_TRACE, ("mqtt_cyclic_timer: CONNECT attempt to server timed out\n"));
 2837              		.loc 1 584 5 is_stmt 1 view .LVU791
 584:Middlewares/Third_Party/LwIP/src/apps/mqtt/mqtt.c ****       LWIP_DEBUGF(MQTT_DEBUG_TRACE, ("mqtt_cyclic_timer: CONNECT attempt to server timed out\n"));
 2838              		.loc 1 584 30 is_stmt 0 view .LVU792
 2839 002e 03EB8303 		add	r3, r3, r3, lsl #2
 584:Middlewares/Third_Party/LwIP/src/apps/mqtt/mqtt.c ****       LWIP_DEBUGF(MQTT_DEBUG_TRACE, ("mqtt_cyclic_timer: CONNECT attempt to server timed out\n"));
 2840              		.loc 1 584 8 view .LVU793
 2841 0032 632B     		cmp	r3, #99
 2842 0034 06DC     		bgt	.L235
 2843              	.LVL308:
 2844              	.L225:
 621:Middlewares/Third_Party/LwIP/src/apps/mqtt/mqtt.c ****   }
 2845              		.loc 1 621 5 is_stmt 1 view .LVU794
 2846 0036 2246     		mov	r2, r4
 2847 0038 2449     		ldr	r1, .L238+12
 2848 003a 41F28830 		movw	r0, #5000
 2849 003e FFF7FEFF 		bl	sys_timeout
 2850              	.LVL309:
 623:Middlewares/Third_Party/LwIP/src/apps/mqtt/mqtt.c **** 
 2851              		.loc 1 623 1 is_stmt 0 view .LVU795
 2852 0042 E6E7     		b	.L222
 2853              	.LVL310:
 2854              	.L235:
 585:Middlewares/Third_Party/LwIP/src/apps/mqtt/mqtt.c ****       /* Disconnect TCP */
 2855              		.loc 1 585 98 is_stmt 1 view .LVU796
 587:Middlewares/Third_Party/LwIP/src/apps/mqtt/mqtt.c ****       restart_timer = 0;
 2856              		.loc 1 587 7 view .LVU797
 2857 0044 40F20111 		movw	r1, #257
 2858 0048 2046     		mov	r0, r4
 2859 004a FFF7FEFF 		bl	mqtt_close
 2860              	.LVL311:
 588:Middlewares/Third_Party/LwIP/src/apps/mqtt/mqtt.c ****     }
 2861              		.loc 1 588 7 view .LVU798
 620:Middlewares/Third_Party/LwIP/src/apps/mqtt/mqtt.c ****     sys_timeout(MQTT_CYCLIC_TIMER_INTERVAL * 1000, mqtt_cyclic_timer, arg);
 2862              		.loc 1 620 3 view .LVU799
 2863 004e E0E7     		b	.L222
 2864              	.LVL312:
 2865              	.L234:
 592:Middlewares/Third_Party/LwIP/src/apps/mqtt/mqtt.c **** 
 2866              		.loc 1 592 5 view .LVU800
 2867 0050 0521     		movs	r1, #5
 2868 0052 04F11800 		add	r0, r4, #24
 2869 0056 FFF7FEFF 		bl	mqtt_request_time_elapsed
 2870              	.LVL313:
 595:Middlewares/Third_Party/LwIP/src/apps/mqtt/mqtt.c **** 
 2871              		.loc 1 595 5 view .LVU801
 595:Middlewares/Third_Party/LwIP/src/apps/mqtt/mqtt.c **** 
 2872              		.loc 1 595 15 is_stmt 0 view .LVU802
 2873 005a 6288     		ldrh	r2, [r4, #2]
 595:Middlewares/Third_Party/LwIP/src/apps/mqtt/mqtt.c **** 
 2874              		.loc 1 595 8 view .LVU803
 2875 005c 002A     		cmp	r2, #0
ARM GAS  D:\Dev\msys64\tmp\ccB7TkM7.s 			page 82


 2876 005e EAD0     		beq	.L225
 597:Middlewares/Third_Party/LwIP/src/apps/mqtt/mqtt.c ****       /* If reception from server has been idle for 1.5*keep_alive time, server is considered unres
 2877              		.loc 1 597 7 is_stmt 1 view .LVU804
 597:Middlewares/Third_Party/LwIP/src/apps/mqtt/mqtt.c ****       /* If reception from server has been idle for 1.5*keep_alive time, server is considered unres
 2878              		.loc 1 597 13 is_stmt 0 view .LVU805
 2879 0060 A388     		ldrh	r3, [r4, #4]
 597:Middlewares/Third_Party/LwIP/src/apps/mqtt/mqtt.c ****       /* If reception from server has been idle for 1.5*keep_alive time, server is considered unres
 2880              		.loc 1 597 30 view .LVU806
 2881 0062 0133     		adds	r3, r3, #1
 2882 0064 9BB2     		uxth	r3, r3
 2883 0066 A380     		strh	r3, [r4, #4]	@ movhi
 599:Middlewares/Third_Party/LwIP/src/apps/mqtt/mqtt.c ****         LWIP_DEBUGF(MQTT_DEBUG_WARN, ("mqtt_cyclic_timer: Server incoming keep-alive timeout\n"));
 2884              		.loc 1 599 7 is_stmt 1 view .LVU807
 599:Middlewares/Third_Party/LwIP/src/apps/mqtt/mqtt.c ****         LWIP_DEBUGF(MQTT_DEBUG_WARN, ("mqtt_cyclic_timer: Server incoming keep-alive timeout\n"));
 2885              		.loc 1 599 36 is_stmt 0 view .LVU808
 2886 0068 03EB8303 		add	r3, r3, r3, lsl #2
 599:Middlewares/Third_Party/LwIP/src/apps/mqtt/mqtt.c ****         LWIP_DEBUGF(MQTT_DEBUG_WARN, ("mqtt_cyclic_timer: Server incoming keep-alive timeout\n"));
 2887              		.loc 1 599 88 view .LVU809
 2888 006c 02EB5202 		add	r2, r2, r2, lsr #1
 599:Middlewares/Third_Party/LwIP/src/apps/mqtt/mqtt.c ****         LWIP_DEBUGF(MQTT_DEBUG_WARN, ("mqtt_cyclic_timer: Server incoming keep-alive timeout\n"));
 2889              		.loc 1 599 10 view .LVU810
 2890 0070 9342     		cmp	r3, r2
 2891 0072 0BDC     		bgt	.L236
 578:Middlewares/Third_Party/LwIP/src/apps/mqtt/mqtt.c ****   mqtt_client_t *client = (mqtt_client_t *)arg;
 2892              		.loc 1 578 8 view .LVU811
 2893 0074 0125     		movs	r5, #1
 2894              	.LVL314:
 2895              	.L227:
 606:Middlewares/Third_Party/LwIP/src/apps/mqtt/mqtt.c ****         LWIP_DEBUGF(MQTT_DEBUG_TRACE, ("mqtt_cyclic_timer: Sending keep-alive message to server\n")
 2896              		.loc 1 606 7 is_stmt 1 view .LVU812
 606:Middlewares/Third_Party/LwIP/src/apps/mqtt/mqtt.c ****         LWIP_DEBUGF(MQTT_DEBUG_TRACE, ("mqtt_cyclic_timer: Sending keep-alive message to server\n")
 2897              		.loc 1 606 18 is_stmt 0 view .LVU813
 2898 0076 2388     		ldrh	r3, [r4]
 606:Middlewares/Third_Party/LwIP/src/apps/mqtt/mqtt.c ****         LWIP_DEBUGF(MQTT_DEBUG_TRACE, ("mqtt_cyclic_timer: Sending keep-alive message to server\n")
 2899              		.loc 1 606 32 view .LVU814
 2900 0078 03EB8301 		add	r1, r3, r3, lsl #2
 606:Middlewares/Third_Party/LwIP/src/apps/mqtt/mqtt.c ****         LWIP_DEBUGF(MQTT_DEBUG_TRACE, ("mqtt_cyclic_timer: Sending keep-alive message to server\n")
 2901              		.loc 1 606 71 view .LVU815
 2902 007c 6288     		ldrh	r2, [r4, #2]
 606:Middlewares/Third_Party/LwIP/src/apps/mqtt/mqtt.c ****         LWIP_DEBUGF(MQTT_DEBUG_TRACE, ("mqtt_cyclic_timer: Sending keep-alive message to server\n")
 2903              		.loc 1 606 10 view .LVU816
 2904 007e 9142     		cmp	r1, r2
 2905 0080 0BDA     		bge	.L237
 613:Middlewares/Third_Party/LwIP/src/apps/mqtt/mqtt.c ****       }
 2906              		.loc 1 613 9 is_stmt 1 view .LVU817
 613:Middlewares/Third_Party/LwIP/src/apps/mqtt/mqtt.c ****       }
 2907              		.loc 1 613 28 is_stmt 0 view .LVU818
 2908 0082 0133     		adds	r3, r3, #1
 2909 0084 2380     		strh	r3, [r4]	@ movhi
 2910              	.L229:
 620:Middlewares/Third_Party/LwIP/src/apps/mqtt/mqtt.c ****     sys_timeout(MQTT_CYCLIC_TIMER_INTERVAL * 1000, mqtt_cyclic_timer, arg);
 2911              		.loc 1 620 3 is_stmt 1 view .LVU819
 620:Middlewares/Third_Party/LwIP/src/apps/mqtt/mqtt.c ****     sys_timeout(MQTT_CYCLIC_TIMER_INTERVAL * 1000, mqtt_cyclic_timer, arg);
 2912              		.loc 1 620 6 is_stmt 0 view .LVU820
 2913 0086 002D     		cmp	r5, #0
 2914 0088 C3D0     		beq	.L222
 2915 008a D4E7     		b	.L225
ARM GAS  D:\Dev\msys64\tmp\ccB7TkM7.s 			page 83


 2916              	.LVL315:
 2917              	.L236:
 600:Middlewares/Third_Party/LwIP/src/apps/mqtt/mqtt.c ****         mqtt_close(client, MQTT_CONNECT_TIMEOUT);
 2918              		.loc 1 600 98 is_stmt 1 view .LVU821
 601:Middlewares/Third_Party/LwIP/src/apps/mqtt/mqtt.c ****         restart_timer = 0;
 2919              		.loc 1 601 9 view .LVU822
 2920 008c 40F20111 		movw	r1, #257
 2921 0090 2046     		mov	r0, r4
 2922 0092 FFF7FEFF 		bl	mqtt_close
 2923              	.LVL316:
 602:Middlewares/Third_Party/LwIP/src/apps/mqtt/mqtt.c ****       }
 2924              		.loc 1 602 9 view .LVU823
 602:Middlewares/Third_Party/LwIP/src/apps/mqtt/mqtt.c ****       }
 2925              		.loc 1 602 23 is_stmt 0 view .LVU824
 2926 0096 0025     		movs	r5, #0
 2927 0098 EDE7     		b	.L227
 2928              	.LVL317:
 2929              	.L237:
 607:Middlewares/Third_Party/LwIP/src/apps/mqtt/mqtt.c ****         if (mqtt_output_check_space(&client->output, 0) != 0) {
 2930              		.loc 1 607 101 is_stmt 1 view .LVU825
 608:Middlewares/Third_Party/LwIP/src/apps/mqtt/mqtt.c ****           mqtt_output_append_fixed_header(&client->output, MQTT_MSG_TYPE_PINGREQ, 0, 0, 0, 0);
 2931              		.loc 1 608 9 view .LVU826
 608:Middlewares/Third_Party/LwIP/src/apps/mqtt/mqtt.c ****           mqtt_output_append_fixed_header(&client->output, MQTT_MSG_TYPE_PINGREQ, 0, 0, 0, 0);
 2932              		.loc 1 608 13 is_stmt 0 view .LVU827
 2933 009a 04F1EC06 		add	r6, r4, #236
 2934 009e 0021     		movs	r1, #0
 2935 00a0 3046     		mov	r0, r6
 2936 00a2 FFF7FEFF 		bl	mqtt_output_check_space
 2937              	.LVL318:
 608:Middlewares/Third_Party/LwIP/src/apps/mqtt/mqtt.c ****           mqtt_output_append_fixed_header(&client->output, MQTT_MSG_TYPE_PINGREQ, 0, 0, 0, 0);
 2938              		.loc 1 608 12 view .LVU828
 2939 00a6 0028     		cmp	r0, #0
 2940 00a8 EDD0     		beq	.L229
 609:Middlewares/Third_Party/LwIP/src/apps/mqtt/mqtt.c ****           client->cyclic_tick = 0;
 2941              		.loc 1 609 11 is_stmt 1 view .LVU829
 2942 00aa 0027     		movs	r7, #0
 2943 00ac 0197     		str	r7, [sp, #4]
 2944 00ae 0097     		str	r7, [sp]
 2945 00b0 3B46     		mov	r3, r7
 2946 00b2 3A46     		mov	r2, r7
 2947 00b4 0C21     		movs	r1, #12
 2948 00b6 3046     		mov	r0, r6
 2949 00b8 FFF7FEFF 		bl	mqtt_output_append_fixed_header
 2950              	.LVL319:
 610:Middlewares/Third_Party/LwIP/src/apps/mqtt/mqtt.c ****         }
 2951              		.loc 1 610 11 view .LVU830
 610:Middlewares/Third_Party/LwIP/src/apps/mqtt/mqtt.c ****         }
 2952              		.loc 1 610 31 is_stmt 0 view .LVU831
 2953 00bc 2780     		strh	r7, [r4]	@ movhi
 2954 00be E2E7     		b	.L229
 2955              	.L239:
 2956              		.align	2
 2957              	.L238:
 2958 00c0 00000000 		.word	.LC0
 2959 00c4 00000000 		.word	.LC17
 2960 00c8 58000000 		.word	.LC2
 2961 00cc 00000000 		.word	mqtt_cyclic_timer
ARM GAS  D:\Dev\msys64\tmp\ccB7TkM7.s 			page 84


 2962              		.cfi_endproc
 2963              	.LFE50:
 2965              		.section	.text.mqtt_tcp_connect_cb,"ax",%progbits
 2966              		.align	1
 2967              		.syntax unified
 2968              		.thumb
 2969              		.thumb_func
 2970              		.fpu fpv5-sp-d16
 2972              	mqtt_tcp_connect_cb:
 2973              	.LVL320:
 2974              	.LFB59:
1036:Middlewares/Third_Party/LwIP/src/apps/mqtt/mqtt.c **** 
1037:Middlewares/Third_Party/LwIP/src/apps/mqtt/mqtt.c **** /**
1038:Middlewares/Third_Party/LwIP/src/apps/mqtt/mqtt.c ****  * TCP connect callback function. @see tcp_connected_fn
1039:Middlewares/Third_Party/LwIP/src/apps/mqtt/mqtt.c ****  * @param arg MQTT client
1040:Middlewares/Third_Party/LwIP/src/apps/mqtt/mqtt.c ****  * @param err Always ERR_OK, mqtt_tcp_err_cb is called in case of error
1041:Middlewares/Third_Party/LwIP/src/apps/mqtt/mqtt.c ****  * @return ERR_OK
1042:Middlewares/Third_Party/LwIP/src/apps/mqtt/mqtt.c ****  */
1043:Middlewares/Third_Party/LwIP/src/apps/mqtt/mqtt.c **** static err_t
1044:Middlewares/Third_Party/LwIP/src/apps/mqtt/mqtt.c **** mqtt_tcp_connect_cb(void *arg, struct altcp_pcb *tpcb, err_t err)
1045:Middlewares/Third_Party/LwIP/src/apps/mqtt/mqtt.c **** {
 2975              		.loc 1 1045 1 is_stmt 1 view -0
 2976              		.cfi_startproc
 2977              		@ args = 0, pretend = 0, frame = 0
 2978              		@ frame_needed = 0, uses_anonymous_args = 0
 2979              		.loc 1 1045 1 is_stmt 0 view .LVU833
 2980 0000 F8B5     		push	{r3, r4, r5, r6, r7, lr}
 2981              	.LCFI31:
 2982              		.cfi_def_cfa_offset 24
 2983              		.cfi_offset 3, -24
 2984              		.cfi_offset 4, -20
 2985              		.cfi_offset 5, -16
 2986              		.cfi_offset 6, -12
 2987              		.cfi_offset 7, -8
 2988              		.cfi_offset 14, -4
1046:Middlewares/Third_Party/LwIP/src/apps/mqtt/mqtt.c ****   mqtt_client_t *client = (mqtt_client_t *)arg;
 2989              		.loc 1 1046 3 is_stmt 1 view .LVU834
 2990              	.LVL321:
1047:Middlewares/Third_Party/LwIP/src/apps/mqtt/mqtt.c **** 
1048:Middlewares/Third_Party/LwIP/src/apps/mqtt/mqtt.c ****   if (err != ERR_OK) {
 2991              		.loc 1 1048 3 view .LVU835
 2992              		.loc 1 1048 6 is_stmt 0 view .LVU836
 2993 0002 1646     		mov	r6, r2
 2994 0004 0AB1     		cbz	r2, .L243
 2995              	.LVL322:
 2996              	.L241:
1049:Middlewares/Third_Party/LwIP/src/apps/mqtt/mqtt.c ****     LWIP_DEBUGF(MQTT_DEBUG_WARN, ("mqtt_tcp_connect_cb: TCP connect error %d\n", err));
1050:Middlewares/Third_Party/LwIP/src/apps/mqtt/mqtt.c ****     return err;
1051:Middlewares/Third_Party/LwIP/src/apps/mqtt/mqtt.c ****   }
1052:Middlewares/Third_Party/LwIP/src/apps/mqtt/mqtt.c **** 
1053:Middlewares/Third_Party/LwIP/src/apps/mqtt/mqtt.c ****   /* Initiate receiver state */
1054:Middlewares/Third_Party/LwIP/src/apps/mqtt/mqtt.c ****   client->msg_idx = 0;
1055:Middlewares/Third_Party/LwIP/src/apps/mqtt/mqtt.c **** 
1056:Middlewares/Third_Party/LwIP/src/apps/mqtt/mqtt.c ****   /* Setup TCP callbacks */
1057:Middlewares/Third_Party/LwIP/src/apps/mqtt/mqtt.c ****   altcp_recv(tpcb, mqtt_tcp_recv_cb);
1058:Middlewares/Third_Party/LwIP/src/apps/mqtt/mqtt.c ****   altcp_sent(tpcb, mqtt_tcp_sent_cb);
1059:Middlewares/Third_Party/LwIP/src/apps/mqtt/mqtt.c ****   altcp_poll(tpcb, mqtt_tcp_poll_cb, 2);
ARM GAS  D:\Dev\msys64\tmp\ccB7TkM7.s 			page 85


1060:Middlewares/Third_Party/LwIP/src/apps/mqtt/mqtt.c **** 
1061:Middlewares/Third_Party/LwIP/src/apps/mqtt/mqtt.c ****   LWIP_DEBUGF(MQTT_DEBUG_TRACE, ("mqtt_tcp_connect_cb: TCP connection established to server\n"));
1062:Middlewares/Third_Party/LwIP/src/apps/mqtt/mqtt.c ****   /* Enter MQTT connect state */
1063:Middlewares/Third_Party/LwIP/src/apps/mqtt/mqtt.c ****   client->conn_state = MQTT_CONNECTING;
1064:Middlewares/Third_Party/LwIP/src/apps/mqtt/mqtt.c **** 
1065:Middlewares/Third_Party/LwIP/src/apps/mqtt/mqtt.c ****   /* Start cyclic timer */
1066:Middlewares/Third_Party/LwIP/src/apps/mqtt/mqtt.c ****   sys_timeout(MQTT_CYCLIC_TIMER_INTERVAL * 1000, mqtt_cyclic_timer, client);
1067:Middlewares/Third_Party/LwIP/src/apps/mqtt/mqtt.c ****   client->cyclic_tick = 0;
1068:Middlewares/Third_Party/LwIP/src/apps/mqtt/mqtt.c **** 
1069:Middlewares/Third_Party/LwIP/src/apps/mqtt/mqtt.c ****   /* Start transmission from output queue, connect message is the first one out*/
1070:Middlewares/Third_Party/LwIP/src/apps/mqtt/mqtt.c ****   mqtt_output_send(&client->output, client->conn);
1071:Middlewares/Third_Party/LwIP/src/apps/mqtt/mqtt.c **** 
1072:Middlewares/Third_Party/LwIP/src/apps/mqtt/mqtt.c ****   return ERR_OK;
1073:Middlewares/Third_Party/LwIP/src/apps/mqtt/mqtt.c **** }
 2997              		.loc 1 1073 1 view .LVU837
 2998 0006 3046     		mov	r0, r6
 2999 0008 F8BD     		pop	{r3, r4, r5, r6, r7, pc}
 3000              	.LVL323:
 3001              	.L243:
 3002              		.loc 1 1073 1 view .LVU838
 3003 000a 0446     		mov	r4, r0
 3004 000c 0D46     		mov	r5, r1
1054:Middlewares/Third_Party/LwIP/src/apps/mqtt/mqtt.c **** 
 3005              		.loc 1 1054 3 is_stmt 1 view .LVU839
1054:Middlewares/Third_Party/LwIP/src/apps/mqtt/mqtt.c **** 
 3006              		.loc 1 1054 19 is_stmt 0 view .LVU840
 3007 000e 0027     		movs	r7, #0
 3008 0010 8766     		str	r7, [r0, #104]
1057:Middlewares/Third_Party/LwIP/src/apps/mqtt/mqtt.c ****   altcp_sent(tpcb, mqtt_tcp_sent_cb);
 3009              		.loc 1 1057 3 is_stmt 1 view .LVU841
 3010 0012 0E49     		ldr	r1, .L244
 3011              	.LVL324:
1057:Middlewares/Third_Party/LwIP/src/apps/mqtt/mqtt.c ****   altcp_sent(tpcb, mqtt_tcp_sent_cb);
 3012              		.loc 1 1057 3 is_stmt 0 view .LVU842
 3013 0014 2846     		mov	r0, r5
 3014              	.LVL325:
1057:Middlewares/Third_Party/LwIP/src/apps/mqtt/mqtt.c ****   altcp_sent(tpcb, mqtt_tcp_sent_cb);
 3015              		.loc 1 1057 3 view .LVU843
 3016 0016 FFF7FEFF 		bl	tcp_recv
 3017              	.LVL326:
1058:Middlewares/Third_Party/LwIP/src/apps/mqtt/mqtt.c ****   altcp_poll(tpcb, mqtt_tcp_poll_cb, 2);
 3018              		.loc 1 1058 3 is_stmt 1 view .LVU844
 3019 001a 0D49     		ldr	r1, .L244+4
 3020 001c 2846     		mov	r0, r5
 3021 001e FFF7FEFF 		bl	tcp_sent
 3022              	.LVL327:
1059:Middlewares/Third_Party/LwIP/src/apps/mqtt/mqtt.c **** 
 3023              		.loc 1 1059 3 view .LVU845
 3024 0022 0222     		movs	r2, #2
 3025 0024 0B49     		ldr	r1, .L244+8
 3026 0026 2846     		mov	r0, r5
 3027 0028 FFF7FEFF 		bl	tcp_poll
 3028              	.LVL328:
1061:Middlewares/Third_Party/LwIP/src/apps/mqtt/mqtt.c ****   /* Enter MQTT connect state */
 3029              		.loc 1 1061 97 view .LVU846
1063:Middlewares/Third_Party/LwIP/src/apps/mqtt/mqtt.c **** 
 3030              		.loc 1 1063 3 view .LVU847
ARM GAS  D:\Dev\msys64\tmp\ccB7TkM7.s 			page 86


1063:Middlewares/Third_Party/LwIP/src/apps/mqtt/mqtt.c **** 
 3031              		.loc 1 1063 22 is_stmt 0 view .LVU848
 3032 002c 0223     		movs	r3, #2
 3033 002e A372     		strb	r3, [r4, #10]
1066:Middlewares/Third_Party/LwIP/src/apps/mqtt/mqtt.c ****   client->cyclic_tick = 0;
 3034              		.loc 1 1066 3 is_stmt 1 view .LVU849
 3035 0030 2246     		mov	r2, r4
 3036 0032 0949     		ldr	r1, .L244+12
 3037 0034 41F28830 		movw	r0, #5000
 3038 0038 FFF7FEFF 		bl	sys_timeout
 3039              	.LVL329:
1067:Middlewares/Third_Party/LwIP/src/apps/mqtt/mqtt.c **** 
 3040              		.loc 1 1067 3 view .LVU850
1067:Middlewares/Third_Party/LwIP/src/apps/mqtt/mqtt.c **** 
 3041              		.loc 1 1067 23 is_stmt 0 view .LVU851
 3042 003c 2780     		strh	r7, [r4]	@ movhi
1070:Middlewares/Third_Party/LwIP/src/apps/mqtt/mqtt.c **** 
 3043              		.loc 1 1070 3 is_stmt 1 view .LVU852
 3044 003e E168     		ldr	r1, [r4, #12]
 3045 0040 04F1EC00 		add	r0, r4, #236
 3046 0044 FFF7FEFF 		bl	mqtt_output_send
 3047              	.LVL330:
1072:Middlewares/Third_Party/LwIP/src/apps/mqtt/mqtt.c **** }
 3048              		.loc 1 1072 3 view .LVU853
1072:Middlewares/Third_Party/LwIP/src/apps/mqtt/mqtt.c **** }
 3049              		.loc 1 1072 10 is_stmt 0 view .LVU854
 3050 0048 DDE7     		b	.L241
 3051              	.L245:
 3052 004a 00BF     		.align	2
 3053              	.L244:
 3054 004c 00000000 		.word	mqtt_tcp_recv_cb
 3055 0050 00000000 		.word	mqtt_tcp_sent_cb
 3056 0054 00000000 		.word	mqtt_tcp_poll_cb
 3057 0058 00000000 		.word	mqtt_cyclic_timer
 3058              		.cfi_endproc
 3059              	.LFE59:
 3061              		.section	.text.mqtt_parse_incoming,"ax",%progbits
 3062              		.align	1
 3063              		.syntax unified
 3064              		.thumb
 3065              		.thumb_func
 3066              		.fpu fpv5-sp-d16
 3068              	mqtt_parse_incoming:
 3069              	.LVL331:
 3070              	.LFB54:
 840:Middlewares/Third_Party/LwIP/src/apps/mqtt/mqtt.c ****   u16_t in_offset = 0;
 3071              		.loc 1 840 1 is_stmt 1 view -0
 3072              		.cfi_startproc
 3073              		@ args = 0, pretend = 0, frame = 8
 3074              		@ frame_needed = 0, uses_anonymous_args = 0
 840:Middlewares/Third_Party/LwIP/src/apps/mqtt/mqtt.c ****   u16_t in_offset = 0;
 3075              		.loc 1 840 1 is_stmt 0 view .LVU856
 3076 0000 2DE9F04F 		push	{r4, r5, r6, r7, r8, r9, r10, fp, lr}
 3077              	.LCFI32:
 3078              		.cfi_def_cfa_offset 36
 3079              		.cfi_offset 4, -36
 3080              		.cfi_offset 5, -32
ARM GAS  D:\Dev\msys64\tmp\ccB7TkM7.s 			page 87


 3081              		.cfi_offset 6, -28
 3082              		.cfi_offset 7, -24
 3083              		.cfi_offset 8, -20
 3084              		.cfi_offset 9, -16
 3085              		.cfi_offset 10, -12
 3086              		.cfi_offset 11, -8
 3087              		.cfi_offset 14, -4
 3088 0004 83B0     		sub	sp, sp, #12
 3089              	.LCFI33:
 3090              		.cfi_def_cfa_offset 48
 3091 0006 8046     		mov	r8, r0
 3092 0008 0091     		str	r1, [sp]
 841:Middlewares/Third_Party/LwIP/src/apps/mqtt/mqtt.c ****   u32_t msg_rem_len = 0;
 3093              		.loc 1 841 3 is_stmt 1 view .LVU857
 3094              	.LVL332:
 842:Middlewares/Third_Party/LwIP/src/apps/mqtt/mqtt.c ****   u8_t fixed_hdr_idx = 0;
 3095              		.loc 1 842 3 view .LVU858
 843:Middlewares/Third_Party/LwIP/src/apps/mqtt/mqtt.c ****   u8_t b = 0;
 3096              		.loc 1 843 3 view .LVU859
 844:Middlewares/Third_Party/LwIP/src/apps/mqtt/mqtt.c **** 
 3097              		.loc 1 844 3 view .LVU860
 846:Middlewares/Third_Party/LwIP/src/apps/mqtt/mqtt.c ****     /* We ALWAYS parse the header here first. Even if the header was not
 3098              		.loc 1 846 3 view .LVU861
 844:Middlewares/Third_Party/LwIP/src/apps/mqtt/mqtt.c **** 
 3099              		.loc 1 844 8 is_stmt 0 view .LVU862
 3100 000a 4FF0000A 		mov	r10, #0
 843:Middlewares/Third_Party/LwIP/src/apps/mqtt/mqtt.c ****   u8_t b = 0;
 3101              		.loc 1 843 8 view .LVU863
 3102 000e 5546     		mov	r5, r10
 842:Middlewares/Third_Party/LwIP/src/apps/mqtt/mqtt.c ****   u8_t fixed_hdr_idx = 0;
 3103              		.loc 1 842 9 view .LVU864
 3104 0010 D146     		mov	r9, r10
 841:Middlewares/Third_Party/LwIP/src/apps/mqtt/mqtt.c ****   u32_t msg_rem_len = 0;
 3105              		.loc 1 841 9 view .LVU865
 3106 0012 5746     		mov	r7, r10
 846:Middlewares/Third_Party/LwIP/src/apps/mqtt/mqtt.c ****     /* We ALWAYS parse the header here first. Even if the header was not
 3107              		.loc 1 846 9 view .LVU866
 3108 0014 4EE0     		b	.L247
 3109              	.LVL333:
 3110              	.L249:
 858:Middlewares/Third_Party/LwIP/src/apps/mqtt/mqtt.c ****         client->rx_buffer[client->msg_idx++] = b;
 3111              		.loc 1 858 9 is_stmt 1 view .LVU867
 858:Middlewares/Third_Party/LwIP/src/apps/mqtt/mqtt.c ****         client->rx_buffer[client->msg_idx++] = b;
 3112              		.loc 1 858 13 is_stmt 0 view .LVU868
 3113 0016 7C1C     		adds	r4, r7, #1
 3114 0018 A4B2     		uxth	r4, r4
 3115              	.LVL334:
 858:Middlewares/Third_Party/LwIP/src/apps/mqtt/mqtt.c ****         client->rx_buffer[client->msg_idx++] = b;
 3116              		.loc 1 858 13 view .LVU869
 3117 001a 3946     		mov	r1, r7
 3118 001c 0098     		ldr	r0, [sp]
 3119 001e FFF7FEFF 		bl	pbuf_get_at
 3120              	.LVL335:
 3121 0022 8246     		mov	r10, r0
 3122              	.LVL336:
 859:Middlewares/Third_Party/LwIP/src/apps/mqtt/mqtt.c ****       }
 3123              		.loc 1 859 9 is_stmt 1 view .LVU870
ARM GAS  D:\Dev\msys64\tmp\ccB7TkM7.s 			page 88


 859:Middlewares/Third_Party/LwIP/src/apps/mqtt/mqtt.c ****       }
 3124              		.loc 1 859 33 is_stmt 0 view .LVU871
 3125 0024 D8F86830 		ldr	r3, [r8, #104]
 859:Middlewares/Third_Party/LwIP/src/apps/mqtt/mqtt.c ****       }
 3126              		.loc 1 859 42 view .LVU872
 3127 0028 5A1C     		adds	r2, r3, #1
 3128 002a C8F86820 		str	r2, [r8, #104]
 859:Middlewares/Third_Party/LwIP/src/apps/mqtt/mqtt.c ****       }
 3129              		.loc 1 859 46 view .LVU873
 3130 002e 4344     		add	r3, r3, r8
 3131 0030 83F86C00 		strb	r0, [r3, #108]
 858:Middlewares/Third_Party/LwIP/src/apps/mqtt/mqtt.c ****         client->rx_buffer[client->msg_idx++] = b;
 3132              		.loc 1 858 13 view .LVU874
 3133 0034 2746     		mov	r7, r4
 3134 0036 51E0     		b	.L250
 3135              	.LVL337:
 3136              	.L262:
 873:Middlewares/Third_Party/LwIP/src/apps/mqtt/mqtt.c ****             client->msg_idx = 0;
 3137              		.loc 1 873 13 is_stmt 1 view .LVU875
 3138 0038 0023     		movs	r3, #0
 3139 003a 1A46     		mov	r2, r3
 3140 003c 2946     		mov	r1, r5
 3141 003e 4046     		mov	r0, r8
 3142 0040 FFF7FEFF 		bl	mqtt_message_received
 3143              	.LVL338:
 874:Middlewares/Third_Party/LwIP/src/apps/mqtt/mqtt.c ****             fixed_hdr_idx = 0;
 3144              		.loc 1 874 13 view .LVU876
 874:Middlewares/Third_Party/LwIP/src/apps/mqtt/mqtt.c ****             fixed_hdr_idx = 0;
 3145              		.loc 1 874 29 is_stmt 0 view .LVU877
 3146 0044 0025     		movs	r5, #0
 3147              	.LVL339:
 874:Middlewares/Third_Party/LwIP/src/apps/mqtt/mqtt.c ****             fixed_hdr_idx = 0;
 3148              		.loc 1 874 29 view .LVU878
 3149 0046 C8F86850 		str	r5, [r8, #104]
 875:Middlewares/Third_Party/LwIP/src/apps/mqtt/mqtt.c ****           } else {
 3150              		.loc 1 875 13 is_stmt 1 view .LVU879
 3151              	.LVL340:
 875:Middlewares/Third_Party/LwIP/src/apps/mqtt/mqtt.c ****           } else {
 3152              		.loc 1 875 13 is_stmt 0 view .LVU880
 3153 004a 33E0     		b	.L247
 3154              	.LVL341:
 3155              	.L248:
 3156              	.LBB13:
 885:Middlewares/Third_Party/LwIP/src/apps/mqtt/mqtt.c **** 
 3157              		.loc 1 885 7 is_stmt 1 view .LVU881
 887:Middlewares/Third_Party/LwIP/src/apps/mqtt/mqtt.c **** 
 3158              		.loc 1 887 7 view .LVU882
 887:Middlewares/Third_Party/LwIP/src/apps/mqtt/mqtt.c **** 
 3159              		.loc 1 887 26 is_stmt 0 view .LVU883
 3160 004c D8F86860 		ldr	r6, [r8, #104]
 887:Middlewares/Third_Party/LwIP/src/apps/mqtt/mqtt.c **** 
 3161              		.loc 1 887 36 view .LVU884
 3162 0050 741B     		subs	r4, r6, r5
 887:Middlewares/Third_Party/LwIP/src/apps/mqtt/mqtt.c **** 
 3163              		.loc 1 887 83 view .LVU885
 3164 0052 C5F18003 		rsb	r3, r5, #128
 887:Middlewares/Third_Party/LwIP/src/apps/mqtt/mqtt.c **** 
ARM GAS  D:\Dev\msys64\tmp\ccB7TkM7.s 			page 89


 3165              		.loc 1 887 53 view .LVU886
 3166 0056 B4FBF3F6 		udiv	r6, r4, r3
 3167 005a 03FB1646 		mls	r6, r3, r6, r4
 887:Middlewares/Third_Party/LwIP/src/apps/mqtt/mqtt.c **** 
 3168              		.loc 1 887 100 view .LVU887
 3169 005e ABB2     		uxth	r3, r5
 3170 0060 0193     		str	r3, [sp, #4]
 887:Middlewares/Third_Party/LwIP/src/apps/mqtt/mqtt.c **** 
 3171              		.loc 1 887 17 view .LVU888
 3172 0062 15FA86F6 		uxtah	r6, r5, r6
 3173 0066 B6B2     		uxth	r6, r6
 3174              	.LVL342:
 890:Middlewares/Third_Party/LwIP/src/apps/mqtt/mqtt.c **** 
 3175              		.loc 1 890 7 is_stmt 1 view .LVU889
 890:Middlewares/Third_Party/LwIP/src/apps/mqtt/mqtt.c **** 
 3176              		.loc 1 890 24 is_stmt 0 view .LVU890
 3177 0068 D41B     		subs	r4, r2, r7
 3178 006a A4B2     		uxth	r4, r4
 890:Middlewares/Third_Party/LwIP/src/apps/mqtt/mqtt.c **** 
 3179              		.loc 1 890 17 view .LVU891
 3180 006c 4C45     		cmp	r4, r9
 3181 006e 01D3     		bcc	.L253
 890:Middlewares/Third_Party/LwIP/src/apps/mqtt/mqtt.c **** 
 3182              		.loc 1 890 17 discriminator 2 view .LVU892
 3183 0070 1FFA89F4 		uxth	r4, r9
 3184              	.L253:
 3185              	.LVL343:
 893:Middlewares/Third_Party/LwIP/src/apps/mqtt/mqtt.c ****       if (cpy_len > buffer_space) {
 3186              		.loc 1 893 7 is_stmt 1 discriminator 4 view .LVU893
 893:Middlewares/Third_Party/LwIP/src/apps/mqtt/mqtt.c ****       if (cpy_len > buffer_space) {
 3187              		.loc 1 893 20 is_stmt 0 discriminator 4 view .LVU894
 3188 0074 C6F1800B 		rsb	fp, r6, #128
 3189 0078 1FFA8BFB 		uxth	fp, fp
 3190              	.LVL344:
 894:Middlewares/Third_Party/LwIP/src/apps/mqtt/mqtt.c ****         cpy_len = buffer_space;
 3191              		.loc 1 894 7 is_stmt 1 discriminator 4 view .LVU895
 894:Middlewares/Third_Party/LwIP/src/apps/mqtt/mqtt.c ****         cpy_len = buffer_space;
 3192              		.loc 1 894 10 is_stmt 0 discriminator 4 view .LVU896
 3193 007c 5C45     		cmp	r4, fp
 3194 007e 00D9     		bls	.L254
 895:Middlewares/Third_Party/LwIP/src/apps/mqtt/mqtt.c ****       }
 3195              		.loc 1 895 17 view .LVU897
 3196 0080 5C46     		mov	r4, fp
 3197              	.LVL345:
 3198              	.L254:
 897:Middlewares/Third_Party/LwIP/src/apps/mqtt/mqtt.c **** 
 3199              		.loc 1 897 7 is_stmt 1 view .LVU898
 897:Middlewares/Third_Party/LwIP/src/apps/mqtt/mqtt.c **** 
 3200              		.loc 1 897 28 is_stmt 0 view .LVU899
 3201 0082 08F16C01 		add	r1, r8, #108
 897:Middlewares/Third_Party/LwIP/src/apps/mqtt/mqtt.c **** 
 3202              		.loc 1 897 7 view .LVU900
 3203 0086 3B46     		mov	r3, r7
 3204 0088 2246     		mov	r2, r4
 3205 008a 3144     		add	r1, r1, r6
 3206 008c 0098     		ldr	r0, [sp]
 3207 008e FFF7FEFF 		bl	pbuf_copy_partial
ARM GAS  D:\Dev\msys64\tmp\ccB7TkM7.s 			page 90


 3208              	.LVL346:
 900:Middlewares/Third_Party/LwIP/src/apps/mqtt/mqtt.c ****       in_offset += cpy_len;
 3209              		.loc 1 900 7 is_stmt 1 view .LVU901
 900:Middlewares/Third_Party/LwIP/src/apps/mqtt/mqtt.c ****       in_offset += cpy_len;
 3210              		.loc 1 900 23 is_stmt 0 view .LVU902
 3211 0092 D8F86830 		ldr	r3, [r8, #104]
 3212 0096 2344     		add	r3, r3, r4
 3213 0098 C8F86830 		str	r3, [r8, #104]
 901:Middlewares/Third_Party/LwIP/src/apps/mqtt/mqtt.c ****       msg_rem_len -= cpy_len;
 3214              		.loc 1 901 7 is_stmt 1 view .LVU903
 901:Middlewares/Third_Party/LwIP/src/apps/mqtt/mqtt.c ****       msg_rem_len -= cpy_len;
 3215              		.loc 1 901 17 is_stmt 0 view .LVU904
 3216 009c 2744     		add	r7, r7, r4
 3217              	.LVL347:
 901:Middlewares/Third_Party/LwIP/src/apps/mqtt/mqtt.c ****       msg_rem_len -= cpy_len;
 3218              		.loc 1 901 17 view .LVU905
 3219 009e BFB2     		uxth	r7, r7
 3220              	.LVL348:
 902:Middlewares/Third_Party/LwIP/src/apps/mqtt/mqtt.c **** 
 3221              		.loc 1 902 7 is_stmt 1 view .LVU906
 904:Middlewares/Third_Party/LwIP/src/apps/mqtt/mqtt.c ****       if ((msg_rem_len == 0) || (cpy_len == buffer_space)) {
 3222              		.loc 1 904 160 view .LVU907
 905:Middlewares/Third_Party/LwIP/src/apps/mqtt/mqtt.c ****         /* Whole message received or buffer is full */
 3223              		.loc 1 905 7 view .LVU908
 905:Middlewares/Third_Party/LwIP/src/apps/mqtt/mqtt.c ****         /* Whole message received or buffer is full */
 3224              		.loc 1 905 24 is_stmt 0 view .LVU909
 3225 00a0 B9EB0409 		subs	r9, r9, r4
 3226              	.LVL349:
 905:Middlewares/Third_Party/LwIP/src/apps/mqtt/mqtt.c ****         /* Whole message received or buffer is full */
 3227              		.loc 1 905 24 view .LVU910
 3228 00a4 0CBF     		ite	eq
 3229 00a6 0123     		moveq	r3, #1
 3230 00a8 0023     		movne	r3, #0
 905:Middlewares/Third_Party/LwIP/src/apps/mqtt/mqtt.c ****         /* Whole message received or buffer is full */
 3231              		.loc 1 905 30 view .LVU911
 3232 00aa 5C45     		cmp	r4, fp
 3233 00ac 08BF     		it	eq
 3234 00ae 43F00103 		orreq	r3, r3, #1
 905:Middlewares/Third_Party/LwIP/src/apps/mqtt/mqtt.c ****         /* Whole message received or buffer is full */
 3235              		.loc 1 905 10 view .LVU912
 3236 00b2 5BBB     		cbnz	r3, .L260
 3237              	.LVL350:
 3238              	.L247:
 905:Middlewares/Third_Party/LwIP/src/apps/mqtt/mqtt.c ****         /* Whole message received or buffer is full */
 3239              		.loc 1 905 10 view .LVU913
 3240              	.LBE13:
 846:Middlewares/Third_Party/LwIP/src/apps/mqtt/mqtt.c ****     /* We ALWAYS parse the header here first. Even if the header was not
 3241              		.loc 1 846 9 is_stmt 1 view .LVU914
 846:Middlewares/Third_Party/LwIP/src/apps/mqtt/mqtt.c ****     /* We ALWAYS parse the header here first. Even if the header was not
 3242              		.loc 1 846 11 is_stmt 0 view .LVU915
 3243 00b4 009B     		ldr	r3, [sp]
 3244 00b6 1A89     		ldrh	r2, [r3, #8]
 846:Middlewares/Third_Party/LwIP/src/apps/mqtt/mqtt.c ****     /* We ALWAYS parse the header here first. Even if the header was not
 3245              		.loc 1 846 9 view .LVU916
 3246 00b8 BA42     		cmp	r2, r7
 3247 00ba 3AD9     		bls	.L261
 850:Middlewares/Third_Party/LwIP/src/apps/mqtt/mqtt.c **** 
ARM GAS  D:\Dev\msys64\tmp\ccB7TkM7.s 			page 91


 3248              		.loc 1 850 5 is_stmt 1 view .LVU917
 850:Middlewares/Third_Party/LwIP/src/apps/mqtt/mqtt.c **** 
 3249              		.loc 1 850 44 is_stmt 0 view .LVU918
 3250 00bc CAF3C013 		ubfx	r3, r10, #7, #1
 850:Middlewares/Third_Party/LwIP/src/apps/mqtt/mqtt.c **** 
 3251              		.loc 1 850 29 view .LVU919
 3252 00c0 012D     		cmp	r5, #1
 3253 00c2 98BF     		it	ls
 3254 00c4 43F00103 		orrls	r3, r3, #1
 850:Middlewares/Third_Party/LwIP/src/apps/mqtt/mqtt.c **** 
 3255              		.loc 1 850 8 view .LVU920
 3256 00c8 002B     		cmp	r3, #0
 3257 00ca BFD0     		beq	.L248
 852:Middlewares/Third_Party/LwIP/src/apps/mqtt/mqtt.c ****         /* parse header from old pbuf (buffered in client->rx_buffer) */
 3258              		.loc 1 852 7 is_stmt 1 view .LVU921
 852:Middlewares/Third_Party/LwIP/src/apps/mqtt/mqtt.c ****         /* parse header from old pbuf (buffered in client->rx_buffer) */
 3259              		.loc 1 852 33 is_stmt 0 view .LVU922
 3260 00cc D8F86830 		ldr	r3, [r8, #104]
 852:Middlewares/Third_Party/LwIP/src/apps/mqtt/mqtt.c ****         /* parse header from old pbuf (buffered in client->rx_buffer) */
 3261              		.loc 1 852 10 view .LVU923
 3262 00d0 9D42     		cmp	r5, r3
 3263 00d2 A0D2     		bcs	.L249
 854:Middlewares/Third_Party/LwIP/src/apps/mqtt/mqtt.c ****       } else {
 3264              		.loc 1 854 9 is_stmt 1 view .LVU924
 854:Middlewares/Third_Party/LwIP/src/apps/mqtt/mqtt.c ****       } else {
 3265              		.loc 1 854 11 is_stmt 0 view .LVU925
 3266 00d4 08EB0503 		add	r3, r8, r5
 3267 00d8 93F86CA0 		ldrb	r10, [r3, #108]	@ zero_extendqisi2
 3268              	.LVL351:
 3269              	.L250:
 861:Middlewares/Third_Party/LwIP/src/apps/mqtt/mqtt.c **** 
 3270              		.loc 1 861 7 is_stmt 1 view .LVU926
 861:Middlewares/Third_Party/LwIP/src/apps/mqtt/mqtt.c **** 
 3271              		.loc 1 861 20 is_stmt 0 view .LVU927
 3272 00dc 0135     		adds	r5, r5, #1
 3273              	.LVL352:
 861:Middlewares/Third_Party/LwIP/src/apps/mqtt/mqtt.c **** 
 3274              		.loc 1 861 20 view .LVU928
 3275 00de EDB2     		uxtb	r5, r5
 3276              	.LVL353:
 863:Middlewares/Third_Party/LwIP/src/apps/mqtt/mqtt.c ****         /* fixed header contains at least 2 bytes but can contain more, depending on
 3277              		.loc 1 863 7 is_stmt 1 view .LVU929
 863:Middlewares/Third_Party/LwIP/src/apps/mqtt/mqtt.c ****         /* fixed header contains at least 2 bytes but can contain more, depending on
 3278              		.loc 1 863 10 is_stmt 0 view .LVU930
 3279 00e0 012D     		cmp	r5, #1
 3280 00e2 E7D9     		bls	.L247
 867:Middlewares/Third_Party/LwIP/src/apps/mqtt/mqtt.c ****         if ((b & 0x80) == 0) {
 3281              		.loc 1 867 9 is_stmt 1 view .LVU931
 867:Middlewares/Third_Party/LwIP/src/apps/mqtt/mqtt.c ****         if ((b & 0x80) == 0) {
 3282              		.loc 1 867 24 is_stmt 0 view .LVU932
 3283 00e4 0AF07F03 		and	r3, r10, #127
 867:Middlewares/Third_Party/LwIP/src/apps/mqtt/mqtt.c ****         if ((b & 0x80) == 0) {
 3284              		.loc 1 867 61 view .LVU933
 3285 00e8 AA1E     		subs	r2, r5, #2
 867:Middlewares/Third_Party/LwIP/src/apps/mqtt/mqtt.c ****         if ((b & 0x80) == 0) {
 3286              		.loc 1 867 66 view .LVU934
 3287 00ea C2EBC202 		rsb	r2, r2, r2, lsl #3
ARM GAS  D:\Dev\msys64\tmp\ccB7TkM7.s 			page 92


 867:Middlewares/Third_Party/LwIP/src/apps/mqtt/mqtt.c ****         if ((b & 0x80) == 0) {
 3288              		.loc 1 867 42 view .LVU935
 3289 00ee 9340     		lsls	r3, r3, r2
 867:Middlewares/Third_Party/LwIP/src/apps/mqtt/mqtt.c ****         if ((b & 0x80) == 0) {
 3290              		.loc 1 867 21 view .LVU936
 3291 00f0 49EA0309 		orr	r9, r9, r3
 3292              	.LVL354:
 868:Middlewares/Third_Party/LwIP/src/apps/mqtt/mqtt.c ****           /* fixed header is done */
 3293              		.loc 1 868 9 is_stmt 1 view .LVU937
 868:Middlewares/Third_Party/LwIP/src/apps/mqtt/mqtt.c ****           /* fixed header is done */
 3294              		.loc 1 868 12 is_stmt 0 view .LVU938
 3295 00f4 1AF0800F 		tst	r10, #128
 3296 00f8 DCD1     		bne	.L247
 870:Middlewares/Third_Party/LwIP/src/apps/mqtt/mqtt.c ****           if (msg_rem_len == 0) {
 3297              		.loc 1 870 127 is_stmt 1 view .LVU939
 871:Middlewares/Third_Party/LwIP/src/apps/mqtt/mqtt.c ****             /* Complete message with no extra headers of payload received */
 3298              		.loc 1 871 11 view .LVU940
 871:Middlewares/Third_Party/LwIP/src/apps/mqtt/mqtt.c ****             /* Complete message with no extra headers of payload received */
 3299              		.loc 1 871 14 is_stmt 0 view .LVU941
 3300 00fa B9F1000F 		cmp	r9, #0
 3301 00fe 9BD0     		beq	.L262
 879:Middlewares/Third_Party/LwIP/src/apps/mqtt/mqtt.c ****           }
 3302              		.loc 1 879 13 is_stmt 1 view .LVU942
 879:Middlewares/Third_Party/LwIP/src/apps/mqtt/mqtt.c ****           }
 3303              		.loc 1 879 40 is_stmt 0 view .LVU943
 3304 0100 A944     		add	r9, r9, r5
 3305              	.LVL355:
 879:Middlewares/Third_Party/LwIP/src/apps/mqtt/mqtt.c ****           }
 3306              		.loc 1 879 65 view .LVU944
 3307 0102 D8F86830 		ldr	r3, [r8, #104]
 879:Middlewares/Third_Party/LwIP/src/apps/mqtt/mqtt.c ****           }
 3308              		.loc 1 879 25 view .LVU945
 3309 0106 A9EB0309 		sub	r9, r9, r3
 3310              	.LVL356:
 879:Middlewares/Third_Party/LwIP/src/apps/mqtt/mqtt.c ****           }
 3311              		.loc 1 879 25 view .LVU946
 3312 010a D3E7     		b	.L247
 3313              	.LVL357:
 3314              	.L260:
 3315              	.LBB15:
 3316              	.LBB14:
 907:Middlewares/Third_Party/LwIP/src/apps/mqtt/mqtt.c ****         if (res != MQTT_CONNECT_ACCEPTED) {
 3317              		.loc 1 907 9 is_stmt 1 view .LVU947
 907:Middlewares/Third_Party/LwIP/src/apps/mqtt/mqtt.c ****         if (res != MQTT_CONNECT_ACCEPTED) {
 3318              		.loc 1 907 96 is_stmt 0 view .LVU948
 3319 010c A219     		adds	r2, r4, r6
 3320 010e 92B2     		uxth	r2, r2
 907:Middlewares/Third_Party/LwIP/src/apps/mqtt/mqtt.c ****         if (res != MQTT_CONNECT_ACCEPTED) {
 3321              		.loc 1 907 40 view .LVU949
 3322 0110 019B     		ldr	r3, [sp, #4]
 3323 0112 D21A     		subs	r2, r2, r3
 3324 0114 4B46     		mov	r3, r9
 3325 0116 92B2     		uxth	r2, r2
 3326 0118 2946     		mov	r1, r5
 3327 011a 4046     		mov	r0, r8
 3328 011c FFF7FEFF 		bl	mqtt_message_received
 3329              	.LVL358:
ARM GAS  D:\Dev\msys64\tmp\ccB7TkM7.s 			page 93


 908:Middlewares/Third_Party/LwIP/src/apps/mqtt/mqtt.c ****           return res;
 3330              		.loc 1 908 9 is_stmt 1 view .LVU950
 908:Middlewares/Third_Party/LwIP/src/apps/mqtt/mqtt.c ****           return res;
 3331              		.loc 1 908 12 is_stmt 0 view .LVU951
 3332 0120 0346     		mov	r3, r0
 3333 0122 38B9     		cbnz	r0, .L255
 911:Middlewares/Third_Party/LwIP/src/apps/mqtt/mqtt.c ****           /* Reset parser state */
 3334              		.loc 1 911 9 is_stmt 1 view .LVU952
 911:Middlewares/Third_Party/LwIP/src/apps/mqtt/mqtt.c ****           /* Reset parser state */
 3335              		.loc 1 911 12 is_stmt 0 view .LVU953
 3336 0124 B9F1000F 		cmp	r9, #0
 3337 0128 C4D1     		bne	.L247
 913:Middlewares/Third_Party/LwIP/src/apps/mqtt/mqtt.c ****           /* msg_tot_len = 0; */
 3338              		.loc 1 913 11 is_stmt 1 view .LVU954
 913:Middlewares/Third_Party/LwIP/src/apps/mqtt/mqtt.c ****           /* msg_tot_len = 0; */
 3339              		.loc 1 913 27 is_stmt 0 view .LVU955
 3340 012a 0025     		movs	r5, #0
 3341              	.LVL359:
 913:Middlewares/Third_Party/LwIP/src/apps/mqtt/mqtt.c ****           /* msg_tot_len = 0; */
 3342              		.loc 1 913 27 view .LVU956
 3343 012c C8F86850 		str	r5, [r8, #104]
 915:Middlewares/Third_Party/LwIP/src/apps/mqtt/mqtt.c ****         }
 3344              		.loc 1 915 11 is_stmt 1 view .LVU957
 3345              	.LVL360:
 915:Middlewares/Third_Party/LwIP/src/apps/mqtt/mqtt.c ****         }
 3346              		.loc 1 915 11 is_stmt 0 view .LVU958
 3347 0130 C0E7     		b	.L247
 3348              	.LVL361:
 3349              	.L261:
 915:Middlewares/Third_Party/LwIP/src/apps/mqtt/mqtt.c ****         }
 3350              		.loc 1 915 11 view .LVU959
 3351              	.LBE14:
 3352              	.LBE15:
 920:Middlewares/Third_Party/LwIP/src/apps/mqtt/mqtt.c **** }
 3353              		.loc 1 920 10 view .LVU960
 3354 0132 0023     		movs	r3, #0
 3355              	.LVL362:
 3356              	.L255:
 921:Middlewares/Third_Party/LwIP/src/apps/mqtt/mqtt.c **** 
 3357              		.loc 1 921 1 view .LVU961
 3358 0134 1846     		mov	r0, r3
 3359 0136 03B0     		add	sp, sp, #12
 3360              	.LCFI34:
 3361              		.cfi_def_cfa_offset 36
 3362              	.LVL363:
 921:Middlewares/Third_Party/LwIP/src/apps/mqtt/mqtt.c **** 
 3363              		.loc 1 921 1 view .LVU962
 3364              		@ sp needed
 3365 0138 BDE8F08F 		pop	{r4, r5, r6, r7, r8, r9, r10, fp, pc}
 921:Middlewares/Third_Party/LwIP/src/apps/mqtt/mqtt.c **** 
 3366              		.loc 1 921 1 view .LVU963
 3367              		.cfi_endproc
 3368              	.LFE54:
 3370              		.section	.rodata.mqtt_tcp_recv_cb.str1.4,"aMS",%progbits,1
 3371              		.align	2
 3372              	.LC18:
 3373 0000 6D717474 		.ascii	"mqtt_tcp_recv_cb: client != NULL\000"
ARM GAS  D:\Dev\msys64\tmp\ccB7TkM7.s 			page 94


 3373      5F746370 
 3373      5F726563 
 3373      765F6362 
 3373      3A20636C 
 3374 0021 000000   		.align	2
 3375              	.LC19:
 3376 0024 6D717474 		.ascii	"mqtt_tcp_recv_cb: client->conn == pcb\000"
 3376      5F746370 
 3376      5F726563 
 3376      765F6362 
 3376      3A20636C 
 3377              		.section	.text.mqtt_tcp_recv_cb,"ax",%progbits
 3378              		.align	1
 3379              		.syntax unified
 3380              		.thumb
 3381              		.thumb_func
 3382              		.fpu fpv5-sp-d16
 3384              	mqtt_tcp_recv_cb:
 3385              	.LVL364:
 3386              	.LFB55:
 933:Middlewares/Third_Party/LwIP/src/apps/mqtt/mqtt.c ****   mqtt_client_t *client = (mqtt_client_t *)arg;
 3387              		.loc 1 933 1 is_stmt 1 view -0
 3388              		.cfi_startproc
 3389              		@ args = 0, pretend = 0, frame = 0
 3390              		@ frame_needed = 0, uses_anonymous_args = 0
 933:Middlewares/Third_Party/LwIP/src/apps/mqtt/mqtt.c ****   mqtt_client_t *client = (mqtt_client_t *)arg;
 3391              		.loc 1 933 1 is_stmt 0 view .LVU965
 3392 0000 F8B5     		push	{r3, r4, r5, r6, r7, lr}
 3393              	.LCFI35:
 3394              		.cfi_def_cfa_offset 24
 3395              		.cfi_offset 3, -24
 3396              		.cfi_offset 4, -20
 3397              		.cfi_offset 5, -16
 3398              		.cfi_offset 6, -12
 3399              		.cfi_offset 7, -8
 3400              		.cfi_offset 14, -4
 3401 0002 0E46     		mov	r6, r1
 3402 0004 1446     		mov	r4, r2
 3403 0006 1D46     		mov	r5, r3
 934:Middlewares/Third_Party/LwIP/src/apps/mqtt/mqtt.c ****   LWIP_ASSERT("mqtt_tcp_recv_cb: client != NULL", client != NULL);
 3404              		.loc 1 934 3 is_stmt 1 view .LVU966
 3405              	.LVL365:
 935:Middlewares/Third_Party/LwIP/src/apps/mqtt/mqtt.c ****   LWIP_ASSERT("mqtt_tcp_recv_cb: client->conn == pcb", client->conn == pcb);
 3406              		.loc 1 935 3 view .LVU967
 935:Middlewares/Third_Party/LwIP/src/apps/mqtt/mqtt.c ****   LWIP_ASSERT("mqtt_tcp_recv_cb: client->conn == pcb", client->conn == pcb);
 3407              		.loc 1 935 3 view .LVU968
 3408 0008 0746     		mov	r7, r0
 3409 000a E8B1     		cbz	r0, .L271
 3410              	.LVL366:
 3411              	.L264:
 935:Middlewares/Third_Party/LwIP/src/apps/mqtt/mqtt.c ****   LWIP_ASSERT("mqtt_tcp_recv_cb: client->conn == pcb", client->conn == pcb);
 3412              		.loc 1 935 3 discriminator 3 view .LVU969
 935:Middlewares/Third_Party/LwIP/src/apps/mqtt/mqtt.c ****   LWIP_ASSERT("mqtt_tcp_recv_cb: client->conn == pcb", client->conn == pcb);
 3413              		.loc 1 935 3 discriminator 3 view .LVU970
 936:Middlewares/Third_Party/LwIP/src/apps/mqtt/mqtt.c **** 
 3414              		.loc 1 936 3 discriminator 3 view .LVU971
 936:Middlewares/Third_Party/LwIP/src/apps/mqtt/mqtt.c **** 
ARM GAS  D:\Dev\msys64\tmp\ccB7TkM7.s 			page 95


 3415              		.loc 1 936 3 discriminator 3 view .LVU972
 3416 000c FB68     		ldr	r3, [r7, #12]
 3417 000e B342     		cmp	r3, r6
 3418 0010 06D0     		beq	.L265
 936:Middlewares/Third_Party/LwIP/src/apps/mqtt/mqtt.c **** 
 3419              		.loc 1 936 3 discriminator 1 view .LVU973
 936:Middlewares/Third_Party/LwIP/src/apps/mqtt/mqtt.c **** 
 3420              		.loc 1 936 3 discriminator 1 view .LVU974
 3421 0012 1A4B     		ldr	r3, .L275
 3422 0014 4FF46A72 		mov	r2, #936
 3423 0018 1949     		ldr	r1, .L275+4
 3424 001a 1A48     		ldr	r0, .L275+8
 3425 001c FFF7FEFF 		bl	printf
 3426              	.LVL367:
 3427              	.L265:
 936:Middlewares/Third_Party/LwIP/src/apps/mqtt/mqtt.c **** 
 3428              		.loc 1 936 3 discriminator 3 view .LVU975
 936:Middlewares/Third_Party/LwIP/src/apps/mqtt/mqtt.c **** 
 3429              		.loc 1 936 3 discriminator 3 view .LVU976
 938:Middlewares/Third_Party/LwIP/src/apps/mqtt/mqtt.c ****     LWIP_DEBUGF(MQTT_DEBUG_TRACE, ("mqtt_tcp_recv_cb: Recv pbuf=NULL, remote has closed connection\
 3430              		.loc 1 938 3 discriminator 3 view .LVU977
 938:Middlewares/Third_Party/LwIP/src/apps/mqtt/mqtt.c ****     LWIP_DEBUGF(MQTT_DEBUG_TRACE, ("mqtt_tcp_recv_cb: Recv pbuf=NULL, remote has closed connection\
 3431              		.loc 1 938 6 is_stmt 0 discriminator 3 view .LVU978
 3432 0020 D4B1     		cbz	r4, .L272
 3433              	.LBB16:
 942:Middlewares/Third_Party/LwIP/src/apps/mqtt/mqtt.c ****     if (err != ERR_OK) {
 3434              		.loc 1 942 5 is_stmt 1 view .LVU979
 943:Middlewares/Third_Party/LwIP/src/apps/mqtt/mqtt.c ****       LWIP_DEBUGF(MQTT_DEBUG_WARN, ("mqtt_tcp_recv_cb: Recv err=%d\n", err));
 3435              		.loc 1 943 5 view .LVU980
 943:Middlewares/Third_Party/LwIP/src/apps/mqtt/mqtt.c ****       LWIP_DEBUGF(MQTT_DEBUG_WARN, ("mqtt_tcp_recv_cb: Recv err=%d\n", err));
 3436              		.loc 1 943 8 is_stmt 0 view .LVU981
 3437 0022 05BB     		cbnz	r5, .L273
 950:Middlewares/Third_Party/LwIP/src/apps/mqtt/mqtt.c ****     res = mqtt_parse_incoming(client, p);
 3438              		.loc 1 950 5 is_stmt 1 view .LVU982
 3439 0024 2189     		ldrh	r1, [r4, #8]
 3440 0026 3046     		mov	r0, r6
 3441 0028 FFF7FEFF 		bl	tcp_recved
 3442              	.LVL368:
 951:Middlewares/Third_Party/LwIP/src/apps/mqtt/mqtt.c ****     pbuf_free(p);
 3443              		.loc 1 951 5 view .LVU983
 951:Middlewares/Third_Party/LwIP/src/apps/mqtt/mqtt.c ****     pbuf_free(p);
 3444              		.loc 1 951 11 is_stmt 0 view .LVU984
 3445 002c 2146     		mov	r1, r4
 3446 002e 3846     		mov	r0, r7
 3447 0030 FFF7FEFF 		bl	mqtt_parse_incoming
 3448              	.LVL369:
 3449 0034 0646     		mov	r6, r0
 3450              	.LVL370:
 952:Middlewares/Third_Party/LwIP/src/apps/mqtt/mqtt.c **** 
 3451              		.loc 1 952 5 is_stmt 1 view .LVU985
 3452 0036 2046     		mov	r0, r4
 3453 0038 FFF7FEFF 		bl	pbuf_free
 3454              	.LVL371:
 954:Middlewares/Third_Party/LwIP/src/apps/mqtt/mqtt.c ****       mqtt_close(client, res);
 3455              		.loc 1 954 5 view .LVU986
 954:Middlewares/Third_Party/LwIP/src/apps/mqtt/mqtt.c ****       mqtt_close(client, res);
 3456              		.loc 1 954 8 is_stmt 0 view .LVU987
ARM GAS  D:\Dev\msys64\tmp\ccB7TkM7.s 			page 96


 3457 003c C6B9     		cbnz	r6, .L274
 3458              	.L269:
 958:Middlewares/Third_Party/LwIP/src/apps/mqtt/mqtt.c ****       /* Reset server alive watchdog */
 3459              		.loc 1 958 5 is_stmt 1 view .LVU988
 958:Middlewares/Third_Party/LwIP/src/apps/mqtt/mqtt.c ****       /* Reset server alive watchdog */
 3460              		.loc 1 958 15 is_stmt 0 view .LVU989
 3461 003e 7B88     		ldrh	r3, [r7, #2]
 958:Middlewares/Third_Party/LwIP/src/apps/mqtt/mqtt.c ****       /* Reset server alive watchdog */
 3462              		.loc 1 958 8 view .LVU990
 3463 0040 A3B1     		cbz	r3, .L267
 960:Middlewares/Third_Party/LwIP/src/apps/mqtt/mqtt.c ****     }
 3464              		.loc 1 960 7 is_stmt 1 view .LVU991
 960:Middlewares/Third_Party/LwIP/src/apps/mqtt/mqtt.c ****     }
 3465              		.loc 1 960 31 is_stmt 0 view .LVU992
 3466 0042 0023     		movs	r3, #0
 3467 0044 BB80     		strh	r3, [r7, #4]	@ movhi
 3468 0046 11E0     		b	.L267
 3469              	.LVL372:
 3470              	.L271:
 960:Middlewares/Third_Party/LwIP/src/apps/mqtt/mqtt.c ****     }
 3471              		.loc 1 960 31 view .LVU993
 3472              	.LBE16:
 935:Middlewares/Third_Party/LwIP/src/apps/mqtt/mqtt.c ****   LWIP_ASSERT("mqtt_tcp_recv_cb: client->conn == pcb", client->conn == pcb);
 3473              		.loc 1 935 3 is_stmt 1 discriminator 1 view .LVU994
 935:Middlewares/Third_Party/LwIP/src/apps/mqtt/mqtt.c ****   LWIP_ASSERT("mqtt_tcp_recv_cb: client->conn == pcb", client->conn == pcb);
 3474              		.loc 1 935 3 discriminator 1 view .LVU995
 3475 0048 0C4B     		ldr	r3, .L275
 3476              	.LVL373:
 935:Middlewares/Third_Party/LwIP/src/apps/mqtt/mqtt.c ****   LWIP_ASSERT("mqtt_tcp_recv_cb: client->conn == pcb", client->conn == pcb);
 3477              		.loc 1 935 3 is_stmt 0 discriminator 1 view .LVU996
 3478 004a 40F2A732 		movw	r2, #935
 3479              	.LVL374:
 935:Middlewares/Third_Party/LwIP/src/apps/mqtt/mqtt.c ****   LWIP_ASSERT("mqtt_tcp_recv_cb: client->conn == pcb", client->conn == pcb);
 3480              		.loc 1 935 3 discriminator 1 view .LVU997
 3481 004e 0E49     		ldr	r1, .L275+12
 3482              	.LVL375:
 935:Middlewares/Third_Party/LwIP/src/apps/mqtt/mqtt.c ****   LWIP_ASSERT("mqtt_tcp_recv_cb: client->conn == pcb", client->conn == pcb);
 3483              		.loc 1 935 3 discriminator 1 view .LVU998
 3484 0050 0C48     		ldr	r0, .L275+8
 3485              	.LVL376:
 935:Middlewares/Third_Party/LwIP/src/apps/mqtt/mqtt.c ****   LWIP_ASSERT("mqtt_tcp_recv_cb: client->conn == pcb", client->conn == pcb);
 3486              		.loc 1 935 3 discriminator 1 view .LVU999
 3487 0052 FFF7FEFF 		bl	printf
 3488              	.LVL377:
 3489 0056 D9E7     		b	.L264
 3490              	.L272:
 939:Middlewares/Third_Party/LwIP/src/apps/mqtt/mqtt.c ****     mqtt_close(client, MQTT_CONNECT_DISCONNECTED);
 3491              		.loc 1 939 104 is_stmt 1 view .LVU1000
 940:Middlewares/Third_Party/LwIP/src/apps/mqtt/mqtt.c ****   } else {
 3492              		.loc 1 940 5 view .LVU1001
 3493 0058 4FF48071 		mov	r1, #256
 3494 005c 3846     		mov	r0, r7
 3495 005e FFF7FEFF 		bl	mqtt_close
 3496              	.LVL378:
 964:Middlewares/Third_Party/LwIP/src/apps/mqtt/mqtt.c **** }
 3497              		.loc 1 964 10 is_stmt 0 view .LVU1002
 3498 0062 0025     		movs	r5, #0
ARM GAS  D:\Dev\msys64\tmp\ccB7TkM7.s 			page 97


 3499 0064 02E0     		b	.L267
 3500              	.L273:
 3501              	.LBB17:
 944:Middlewares/Third_Party/LwIP/src/apps/mqtt/mqtt.c ****       pbuf_free(p);
 3502              		.loc 1 944 77 is_stmt 1 view .LVU1003
 945:Middlewares/Third_Party/LwIP/src/apps/mqtt/mqtt.c ****       return err;
 3503              		.loc 1 945 7 view .LVU1004
 3504 0066 2046     		mov	r0, r4
 3505 0068 FFF7FEFF 		bl	pbuf_free
 3506              	.LVL379:
 946:Middlewares/Third_Party/LwIP/src/apps/mqtt/mqtt.c ****     }
 3507              		.loc 1 946 7 view .LVU1005
 3508              	.L267:
 946:Middlewares/Third_Party/LwIP/src/apps/mqtt/mqtt.c ****     }
 3509              		.loc 1 946 7 is_stmt 0 view .LVU1006
 3510              	.LBE17:
 965:Middlewares/Third_Party/LwIP/src/apps/mqtt/mqtt.c **** 
 3511              		.loc 1 965 1 view .LVU1007
 3512 006c 2846     		mov	r0, r5
 3513 006e F8BD     		pop	{r3, r4, r5, r6, r7, pc}
 3514              	.LVL380:
 3515              	.L274:
 3516              	.LBB18:
 955:Middlewares/Third_Party/LwIP/src/apps/mqtt/mqtt.c ****     }
 3517              		.loc 1 955 7 is_stmt 1 view .LVU1008
 3518 0070 3146     		mov	r1, r6
 3519 0072 3846     		mov	r0, r7
 3520 0074 FFF7FEFF 		bl	mqtt_close
 3521              	.LVL381:
 3522 0078 E1E7     		b	.L269
 3523              	.L276:
 3524 007a 00BF     		.align	2
 3525              	.L275:
 3526 007c 00000000 		.word	.LC0
 3527 0080 24000000 		.word	.LC19
 3528 0084 58000000 		.word	.LC2
 3529 0088 00000000 		.word	.LC18
 3530              	.LBE18:
 3531              		.cfi_endproc
 3532              	.LFE55:
 3534              		.section	.rodata.mqtt_publish.str1.4,"aMS",%progbits,1
 3535              		.align	2
 3536              	.LC20:
 3537 0000 6D717474 		.ascii	"mqtt_publish: client != NULL\000"
 3537      5F707562 
 3537      6C697368 
 3537      3A20636C 
 3537      69656E74 
 3538 001d 000000   		.align	2
 3539              	.LC21:
 3540 0020 6D717474 		.ascii	"mqtt_publish: topic != NULL\000"
 3540      5F707562 
 3540      6C697368 
 3540      3A20746F 
 3540      70696320 
 3541              		.align	2
 3542              	.LC22:
ARM GAS  D:\Dev\msys64\tmp\ccB7TkM7.s 			page 98


 3543 003c 6D717474 		.ascii	"mqtt_publish: TCP disconnected\000"
 3543      5F707562 
 3543      6C697368 
 3543      3A205443 
 3543      50206469 
 3544 005b 00       		.align	2
 3545              	.LC23:
 3546 005c 6D717474 		.ascii	"mqtt_publish: topic length overflow\000"
 3546      5F707562 
 3546      6C697368 
 3546      3A20746F 
 3546      70696320 
 3547              		.align	2
 3548              	.LC24:
 3549 0080 6D717474 		.ascii	"mqtt_publish: total length overflow\000"
 3549      5F707562 
 3549      6C697368 
 3549      3A20746F 
 3549      74616C20 
 3550              		.section	.text.mqtt_publish,"ax",%progbits
 3551              		.align	1
 3552              		.global	mqtt_publish
 3553              		.syntax unified
 3554              		.thumb
 3555              		.thumb_func
 3556              		.fpu fpv5-sp-d16
 3558              	mqtt_publish:
 3559              	.LVL382:
 3560              	.LFB60:
1074:Middlewares/Third_Party/LwIP/src/apps/mqtt/mqtt.c **** 
1075:Middlewares/Third_Party/LwIP/src/apps/mqtt/mqtt.c **** 
1076:Middlewares/Third_Party/LwIP/src/apps/mqtt/mqtt.c **** 
1077:Middlewares/Third_Party/LwIP/src/apps/mqtt/mqtt.c **** /*-------------------------------------------------------------------------------------------------
1078:Middlewares/Third_Party/LwIP/src/apps/mqtt/mqtt.c **** /* Public API */
1079:Middlewares/Third_Party/LwIP/src/apps/mqtt/mqtt.c **** 
1080:Middlewares/Third_Party/LwIP/src/apps/mqtt/mqtt.c **** 
1081:Middlewares/Third_Party/LwIP/src/apps/mqtt/mqtt.c **** /**
1082:Middlewares/Third_Party/LwIP/src/apps/mqtt/mqtt.c ****  * @ingroup mqtt
1083:Middlewares/Third_Party/LwIP/src/apps/mqtt/mqtt.c ****  * MQTT publish function.
1084:Middlewares/Third_Party/LwIP/src/apps/mqtt/mqtt.c ****  * @param client MQTT client
1085:Middlewares/Third_Party/LwIP/src/apps/mqtt/mqtt.c ****  * @param topic Publish topic string
1086:Middlewares/Third_Party/LwIP/src/apps/mqtt/mqtt.c ****  * @param payload Data to publish (NULL is allowed)
1087:Middlewares/Third_Party/LwIP/src/apps/mqtt/mqtt.c ****  * @param payload_length Length of payload (0 is allowed)
1088:Middlewares/Third_Party/LwIP/src/apps/mqtt/mqtt.c ****  * @param qos Quality of service, 0 1 or 2
1089:Middlewares/Third_Party/LwIP/src/apps/mqtt/mqtt.c ****  * @param retain MQTT retain flag
1090:Middlewares/Third_Party/LwIP/src/apps/mqtt/mqtt.c ****  * @param cb Callback to call when publish is complete or has timed out
1091:Middlewares/Third_Party/LwIP/src/apps/mqtt/mqtt.c ****  * @param arg User supplied argument to publish callback
1092:Middlewares/Third_Party/LwIP/src/apps/mqtt/mqtt.c ****  * @return ERR_OK if successful
1093:Middlewares/Third_Party/LwIP/src/apps/mqtt/mqtt.c ****  *         ERR_CONN if client is disconnected
1094:Middlewares/Third_Party/LwIP/src/apps/mqtt/mqtt.c ****  *         ERR_MEM if short on memory
1095:Middlewares/Third_Party/LwIP/src/apps/mqtt/mqtt.c ****  */
1096:Middlewares/Third_Party/LwIP/src/apps/mqtt/mqtt.c **** err_t
1097:Middlewares/Third_Party/LwIP/src/apps/mqtt/mqtt.c **** mqtt_publish(mqtt_client_t *client, const char *topic, const void *payload, u16_t payload_length, u
1098:Middlewares/Third_Party/LwIP/src/apps/mqtt/mqtt.c ****              mqtt_request_cb_t cb, void *arg)
1099:Middlewares/Third_Party/LwIP/src/apps/mqtt/mqtt.c **** {
 3561              		.loc 1 1099 1 view -0
 3562              		.cfi_startproc
ARM GAS  D:\Dev\msys64\tmp\ccB7TkM7.s 			page 99


 3563              		@ args = 16, pretend = 0, frame = 8
 3564              		@ frame_needed = 0, uses_anonymous_args = 0
 3565              		.loc 1 1099 1 is_stmt 0 view .LVU1010
 3566 0000 2DE9F04F 		push	{r4, r5, r6, r7, r8, r9, r10, fp, lr}
 3567              	.LCFI36:
 3568              		.cfi_def_cfa_offset 36
 3569              		.cfi_offset 4, -36
 3570              		.cfi_offset 5, -32
 3571              		.cfi_offset 6, -28
 3572              		.cfi_offset 7, -24
 3573              		.cfi_offset 8, -20
 3574              		.cfi_offset 9, -16
 3575              		.cfi_offset 10, -12
 3576              		.cfi_offset 11, -8
 3577              		.cfi_offset 14, -4
 3578 0004 85B0     		sub	sp, sp, #20
 3579              	.LCFI37:
 3580              		.cfi_def_cfa_offset 56
 3581 0006 0F46     		mov	r7, r1
 3582 0008 0292     		str	r2, [sp, #8]
 3583 000a 9946     		mov	r9, r3
 3584 000c 9DF838A0 		ldrb	r10, [sp, #56]	@ zero_extendqisi2
1100:Middlewares/Third_Party/LwIP/src/apps/mqtt/mqtt.c ****   struct mqtt_request_t *r;
 3585              		.loc 1 1100 3 is_stmt 1 view .LVU1011
1101:Middlewares/Third_Party/LwIP/src/apps/mqtt/mqtt.c ****   u16_t pkt_id;
 3586              		.loc 1 1101 3 view .LVU1012
1102:Middlewares/Third_Party/LwIP/src/apps/mqtt/mqtt.c ****   size_t topic_strlen;
 3587              		.loc 1 1102 3 view .LVU1013
1103:Middlewares/Third_Party/LwIP/src/apps/mqtt/mqtt.c ****   size_t total_len;
 3588              		.loc 1 1103 3 view .LVU1014
1104:Middlewares/Third_Party/LwIP/src/apps/mqtt/mqtt.c ****   u16_t topic_len;
 3589              		.loc 1 1104 3 view .LVU1015
1105:Middlewares/Third_Party/LwIP/src/apps/mqtt/mqtt.c ****   u16_t remaining_length;
 3590              		.loc 1 1105 3 view .LVU1016
1106:Middlewares/Third_Party/LwIP/src/apps/mqtt/mqtt.c **** 
1107:Middlewares/Third_Party/LwIP/src/apps/mqtt/mqtt.c ****   LWIP_ASSERT_CORE_LOCKED();
 3591              		.loc 1 1107 28 view .LVU1017
1108:Middlewares/Third_Party/LwIP/src/apps/mqtt/mqtt.c ****   LWIP_ASSERT("mqtt_publish: client != NULL", client);
 3592              		.loc 1 1108 3 view .LVU1018
 3593              		.loc 1 1108 3 view .LVU1019
 3594 0010 0646     		mov	r6, r0
 3595 0012 0028     		cmp	r0, #0
 3596 0014 54D0     		beq	.L291
 3597              	.LVL383:
 3598              	.L278:
 3599              		.loc 1 1108 3 discriminator 3 view .LVU1020
 3600              		.loc 1 1108 3 discriminator 3 view .LVU1021
1109:Middlewares/Third_Party/LwIP/src/apps/mqtt/mqtt.c ****   LWIP_ASSERT("mqtt_publish: topic != NULL", topic);
 3601              		.loc 1 1109 3 discriminator 3 view .LVU1022
 3602              		.loc 1 1109 3 discriminator 3 view .LVU1023
 3603 0016 002F     		cmp	r7, #0
 3604 0018 5AD0     		beq	.L292
 3605              	.L279:
 3606              		.loc 1 1109 3 discriminator 3 view .LVU1024
 3607              		.loc 1 1109 3 discriminator 3 view .LVU1025
1110:Middlewares/Third_Party/LwIP/src/apps/mqtt/mqtt.c ****   LWIP_ERROR("mqtt_publish: TCP disconnected", (client->conn_state != TCP_DISCONNECTED), return ERR
 3608              		.loc 1 1110 3 discriminator 3 view .LVU1026
ARM GAS  D:\Dev\msys64\tmp\ccB7TkM7.s 			page 100


 3609              		.loc 1 1110 3 discriminator 3 view .LVU1027
 3610 001a B37A     		ldrb	r3, [r6, #10]	@ zero_extendqisi2
 3611 001c 002B     		cmp	r3, #0
 3612 001e 5FD0     		beq	.L293
 3613              		.loc 1 1110 3 discriminator 2 view .LVU1028
1111:Middlewares/Third_Party/LwIP/src/apps/mqtt/mqtt.c **** 
1112:Middlewares/Third_Party/LwIP/src/apps/mqtt/mqtt.c ****   topic_strlen = strlen(topic);
 3614              		.loc 1 1112 3 discriminator 2 view .LVU1029
 3615              		.loc 1 1112 18 is_stmt 0 discriminator 2 view .LVU1030
 3616 0020 3846     		mov	r0, r7
 3617 0022 FFF7FEFF 		bl	strlen
 3618              	.LVL384:
1113:Middlewares/Third_Party/LwIP/src/apps/mqtt/mqtt.c ****   LWIP_ERROR("mqtt_publish: topic length overflow", (topic_strlen <= (0xFFFF - 2)), return ERR_ARG)
 3619              		.loc 1 1113 3 is_stmt 1 discriminator 2 view .LVU1031
 3620              		.loc 1 1113 3 discriminator 2 view .LVU1032
 3621 0026 4FF6FD73 		movw	r3, #65533
 3622 002a 9842     		cmp	r0, r3
 3623 002c 62D8     		bhi	.L294
 3624              		.loc 1 1113 3 discriminator 2 view .LVU1033
1114:Middlewares/Third_Party/LwIP/src/apps/mqtt/mqtt.c ****   topic_len = (u16_t)topic_strlen;
 3625              		.loc 1 1114 3 discriminator 2 view .LVU1034
 3626              		.loc 1 1114 13 is_stmt 0 discriminator 2 view .LVU1035
 3627 002e 85B2     		uxth	r5, r0
 3628              	.LVL385:
1115:Middlewares/Third_Party/LwIP/src/apps/mqtt/mqtt.c ****   total_len = 2 + topic_len + payload_length;
 3629              		.loc 1 1115 3 is_stmt 1 discriminator 2 view .LVU1036
 3630              		.loc 1 1115 17 is_stmt 0 discriminator 2 view .LVU1037
 3631 0030 AC1C     		adds	r4, r5, #2
 3632              		.loc 1 1115 29 discriminator 2 view .LVU1038
 3633 0032 4C44     		add	r4, r4, r9
 3634              	.LVL386:
1116:Middlewares/Third_Party/LwIP/src/apps/mqtt/mqtt.c **** 
1117:Middlewares/Third_Party/LwIP/src/apps/mqtt/mqtt.c ****   if (qos > 0) {
 3635              		.loc 1 1117 3 is_stmt 1 discriminator 2 view .LVU1039
 3636              		.loc 1 1117 6 is_stmt 0 discriminator 2 view .LVU1040
 3637 0034 BAF1000F 		cmp	r10, #0
 3638 0038 66D1     		bne	.L295
1118:Middlewares/Third_Party/LwIP/src/apps/mqtt/mqtt.c ****     total_len += 2;
1119:Middlewares/Third_Party/LwIP/src/apps/mqtt/mqtt.c ****     /* Generate pkt_id id for QoS1 and 2 */
1120:Middlewares/Third_Party/LwIP/src/apps/mqtt/mqtt.c ****     pkt_id = msg_generate_packet_id(client);
1121:Middlewares/Third_Party/LwIP/src/apps/mqtt/mqtt.c ****   } else {
1122:Middlewares/Third_Party/LwIP/src/apps/mqtt/mqtt.c ****     /* Use reserved value pkt_id 0 for QoS 0 in request handle */
1123:Middlewares/Third_Party/LwIP/src/apps/mqtt/mqtt.c ****     pkt_id = 0;
 3639              		.loc 1 1123 12 view .LVU1041
 3640 003a 4FF0000B 		mov	fp, #0
 3641              	.LVL387:
 3642              	.L283:
1124:Middlewares/Third_Party/LwIP/src/apps/mqtt/mqtt.c ****   }
1125:Middlewares/Third_Party/LwIP/src/apps/mqtt/mqtt.c ****   LWIP_ERROR("mqtt_publish: total length overflow", (total_len <= 0xFFFF), return ERR_ARG);
 3643              		.loc 1 1125 3 is_stmt 1 view .LVU1042
 3644              		.loc 1 1125 3 view .LVU1043
 3645 003e B4F5803F 		cmp	r4, #65536
 3646 0042 67D2     		bcs	.L296
 3647              		.loc 1 1125 3 discriminator 2 view .LVU1044
1126:Middlewares/Third_Party/LwIP/src/apps/mqtt/mqtt.c ****   remaining_length = (u16_t)total_len;
 3648              		.loc 1 1126 3 discriminator 2 view .LVU1045
 3649              		.loc 1 1126 20 is_stmt 0 discriminator 2 view .LVU1046
ARM GAS  D:\Dev\msys64\tmp\ccB7TkM7.s 			page 101


 3650 0044 A4B2     		uxth	r4, r4
 3651              	.LVL388:
1127:Middlewares/Third_Party/LwIP/src/apps/mqtt/mqtt.c **** 
1128:Middlewares/Third_Party/LwIP/src/apps/mqtt/mqtt.c ****   LWIP_DEBUGF(MQTT_DEBUG_TRACE, ("mqtt_publish: Publish with payload length %d to topic \"%s\"\n", 
 3652              		.loc 1 1128 123 is_stmt 1 discriminator 2 view .LVU1047
1129:Middlewares/Third_Party/LwIP/src/apps/mqtt/mqtt.c **** 
1130:Middlewares/Third_Party/LwIP/src/apps/mqtt/mqtt.c ****   r = mqtt_create_request(client->req_list, LWIP_ARRAYSIZE(client->req_list), pkt_id, cb, arg);
 3653              		.loc 1 1130 3 discriminator 2 view .LVU1048
 3654              		.loc 1 1130 7 is_stmt 0 discriminator 2 view .LVU1049
 3655 0046 119B     		ldr	r3, [sp, #68]
 3656 0048 0093     		str	r3, [sp]
 3657 004a 109B     		ldr	r3, [sp, #64]
 3658 004c 5A46     		mov	r2, fp
 3659 004e 0421     		movs	r1, #4
 3660 0050 06F11C00 		add	r0, r6, #28
 3661 0054 FFF7FEFF 		bl	mqtt_create_request
 3662              	.LVL389:
1131:Middlewares/Third_Party/LwIP/src/apps/mqtt/mqtt.c ****   if (r == NULL) {
 3663              		.loc 1 1131 3 is_stmt 1 discriminator 2 view .LVU1050
 3664              		.loc 1 1131 6 is_stmt 0 discriminator 2 view .LVU1051
 3665 0058 0390     		str	r0, [sp, #12]
 3666 005a 0028     		cmp	r0, #0
 3667 005c 75D0     		beq	.L289
1132:Middlewares/Third_Party/LwIP/src/apps/mqtt/mqtt.c ****     return ERR_MEM;
1133:Middlewares/Third_Party/LwIP/src/apps/mqtt/mqtt.c ****   }
1134:Middlewares/Third_Party/LwIP/src/apps/mqtt/mqtt.c **** 
1135:Middlewares/Third_Party/LwIP/src/apps/mqtt/mqtt.c ****   if (mqtt_output_check_space(&client->output, remaining_length) == 0) {
 3668              		.loc 1 1135 3 is_stmt 1 view .LVU1052
 3669              		.loc 1 1135 7 is_stmt 0 view .LVU1053
 3670 005e 06F1EC08 		add	r8, r6, #236
 3671 0062 2146     		mov	r1, r4
 3672 0064 4046     		mov	r0, r8
 3673              	.LVL390:
 3674              		.loc 1 1135 7 view .LVU1054
 3675 0066 FFF7FEFF 		bl	mqtt_output_check_space
 3676              	.LVL391:
 3677              		.loc 1 1135 6 view .LVU1055
 3678 006a 0028     		cmp	r0, #0
 3679 006c 5CD0     		beq	.L297
1136:Middlewares/Third_Party/LwIP/src/apps/mqtt/mqtt.c ****     mqtt_delete_request(r);
1137:Middlewares/Third_Party/LwIP/src/apps/mqtt/mqtt.c ****     return ERR_MEM;
1138:Middlewares/Third_Party/LwIP/src/apps/mqtt/mqtt.c ****   }
1139:Middlewares/Third_Party/LwIP/src/apps/mqtt/mqtt.c ****   /* Append fixed header */
1140:Middlewares/Third_Party/LwIP/src/apps/mqtt/mqtt.c ****   mqtt_output_append_fixed_header(&client->output, MQTT_MSG_TYPE_PUBLISH, 0, qos, retain, remaining
 3680              		.loc 1 1140 3 is_stmt 1 view .LVU1056
 3681 006e 0194     		str	r4, [sp, #4]
 3682 0070 9DF83C30 		ldrb	r3, [sp, #60]	@ zero_extendqisi2
 3683 0074 0093     		str	r3, [sp]
 3684 0076 5346     		mov	r3, r10
 3685 0078 0022     		movs	r2, #0
 3686 007a 0321     		movs	r1, #3
 3687 007c 4046     		mov	r0, r8
 3688 007e FFF7FEFF 		bl	mqtt_output_append_fixed_header
 3689              	.LVL392:
1141:Middlewares/Third_Party/LwIP/src/apps/mqtt/mqtt.c **** 
1142:Middlewares/Third_Party/LwIP/src/apps/mqtt/mqtt.c ****   /* Append Topic */
1143:Middlewares/Third_Party/LwIP/src/apps/mqtt/mqtt.c ****   mqtt_output_append_string(&client->output, topic, topic_len);
ARM GAS  D:\Dev\msys64\tmp\ccB7TkM7.s 			page 102


 3690              		.loc 1 1143 3 view .LVU1057
 3691 0082 2A46     		mov	r2, r5
 3692 0084 3946     		mov	r1, r7
 3693 0086 4046     		mov	r0, r8
 3694 0088 FFF7FEFF 		bl	mqtt_output_append_string
 3695              	.LVL393:
1144:Middlewares/Third_Party/LwIP/src/apps/mqtt/mqtt.c **** 
1145:Middlewares/Third_Party/LwIP/src/apps/mqtt/mqtt.c ****   /* Append packet if for QoS 1 and 2*/
1146:Middlewares/Third_Party/LwIP/src/apps/mqtt/mqtt.c ****   if (qos > 0) {
 3696              		.loc 1 1146 3 view .LVU1058
 3697              		.loc 1 1146 6 is_stmt 0 view .LVU1059
 3698 008c BAF1000F 		cmp	r10, #0
 3699 0090 50D1     		bne	.L298
 3700              	.L286:
1147:Middlewares/Third_Party/LwIP/src/apps/mqtt/mqtt.c ****     mqtt_output_append_u16(&client->output, pkt_id);
1148:Middlewares/Third_Party/LwIP/src/apps/mqtt/mqtt.c ****   }
1149:Middlewares/Third_Party/LwIP/src/apps/mqtt/mqtt.c **** 
1150:Middlewares/Third_Party/LwIP/src/apps/mqtt/mqtt.c ****   /* Append optional publish payload */
1151:Middlewares/Third_Party/LwIP/src/apps/mqtt/mqtt.c ****   if ((payload != NULL) && (payload_length > 0)) {
 3701              		.loc 1 1151 3 is_stmt 1 view .LVU1060
 3702              		.loc 1 1151 44 is_stmt 0 view .LVU1061
 3703 0092 B9F10003 		subs	r3, r9, #0
 3704 0096 18BF     		it	ne
 3705 0098 0123     		movne	r3, #1
 3706              		.loc 1 1151 25 view .LVU1062
 3707 009a 029A     		ldr	r2, [sp, #8]
 3708 009c 002A     		cmp	r2, #0
 3709 009e 08BF     		it	eq
 3710 00a0 0023     		moveq	r3, #0
 3711              		.loc 1 1151 6 view .LVU1063
 3712 00a2 002B     		cmp	r3, #0
 3713 00a4 4BD1     		bne	.L299
 3714              	.L287:
1152:Middlewares/Third_Party/LwIP/src/apps/mqtt/mqtt.c ****     mqtt_output_append_buf(&client->output, payload, payload_length);
1153:Middlewares/Third_Party/LwIP/src/apps/mqtt/mqtt.c ****   }
1154:Middlewares/Third_Party/LwIP/src/apps/mqtt/mqtt.c **** 
1155:Middlewares/Third_Party/LwIP/src/apps/mqtt/mqtt.c ****   mqtt_append_request(&client->pend_req_queue, r);
 3715              		.loc 1 1155 3 is_stmt 1 view .LVU1064
 3716 00a6 0399     		ldr	r1, [sp, #12]
 3717 00a8 06F11800 		add	r0, r6, #24
 3718 00ac FFF7FEFF 		bl	mqtt_append_request
 3719              	.LVL394:
1156:Middlewares/Third_Party/LwIP/src/apps/mqtt/mqtt.c ****   mqtt_output_send(&client->output, client->conn);
 3720              		.loc 1 1156 3 view .LVU1065
 3721 00b0 F168     		ldr	r1, [r6, #12]
 3722 00b2 4046     		mov	r0, r8
 3723 00b4 FFF7FEFF 		bl	mqtt_output_send
 3724              	.LVL395:
1157:Middlewares/Third_Party/LwIP/src/apps/mqtt/mqtt.c ****   return ERR_OK;
 3725              		.loc 1 1157 3 view .LVU1066
 3726              		.loc 1 1157 10 is_stmt 0 view .LVU1067
 3727 00b8 0020     		movs	r0, #0
 3728              	.LVL396:
 3729              	.L281:
1158:Middlewares/Third_Party/LwIP/src/apps/mqtt/mqtt.c **** }
 3730              		.loc 1 1158 1 view .LVU1068
 3731 00ba 05B0     		add	sp, sp, #20
ARM GAS  D:\Dev\msys64\tmp\ccB7TkM7.s 			page 103


 3732              	.LCFI38:
 3733              		.cfi_remember_state
 3734              		.cfi_def_cfa_offset 36
 3735              		@ sp needed
 3736 00bc BDE8F08F 		pop	{r4, r5, r6, r7, r8, r9, r10, fp, pc}
 3737              	.LVL397:
 3738              	.L291:
 3739              	.LCFI39:
 3740              		.cfi_restore_state
1108:Middlewares/Third_Party/LwIP/src/apps/mqtt/mqtt.c ****   LWIP_ASSERT("mqtt_publish: topic != NULL", topic);
 3741              		.loc 1 1108 3 is_stmt 1 discriminator 1 view .LVU1069
1108:Middlewares/Third_Party/LwIP/src/apps/mqtt/mqtt.c ****   LWIP_ASSERT("mqtt_publish: topic != NULL", topic);
 3742              		.loc 1 1108 3 discriminator 1 view .LVU1070
 3743 00c0 234B     		ldr	r3, .L300
 3744              	.LVL398:
1108:Middlewares/Third_Party/LwIP/src/apps/mqtt/mqtt.c ****   LWIP_ASSERT("mqtt_publish: topic != NULL", topic);
 3745              		.loc 1 1108 3 is_stmt 0 discriminator 1 view .LVU1071
 3746 00c2 40F25442 		movw	r2, #1108
 3747              	.LVL399:
1108:Middlewares/Third_Party/LwIP/src/apps/mqtt/mqtt.c ****   LWIP_ASSERT("mqtt_publish: topic != NULL", topic);
 3748              		.loc 1 1108 3 discriminator 1 view .LVU1072
 3749 00c6 2349     		ldr	r1, .L300+4
 3750              	.LVL400:
1108:Middlewares/Third_Party/LwIP/src/apps/mqtt/mqtt.c ****   LWIP_ASSERT("mqtt_publish: topic != NULL", topic);
 3751              		.loc 1 1108 3 discriminator 1 view .LVU1073
 3752 00c8 2348     		ldr	r0, .L300+8
 3753              	.LVL401:
1108:Middlewares/Third_Party/LwIP/src/apps/mqtt/mqtt.c ****   LWIP_ASSERT("mqtt_publish: topic != NULL", topic);
 3754              		.loc 1 1108 3 discriminator 1 view .LVU1074
 3755 00ca FFF7FEFF 		bl	printf
 3756              	.LVL402:
 3757 00ce A2E7     		b	.L278
 3758              	.L292:
1109:Middlewares/Third_Party/LwIP/src/apps/mqtt/mqtt.c ****   LWIP_ERROR("mqtt_publish: TCP disconnected", (client->conn_state != TCP_DISCONNECTED), return ERR
 3759              		.loc 1 1109 3 is_stmt 1 discriminator 1 view .LVU1075
1109:Middlewares/Third_Party/LwIP/src/apps/mqtt/mqtt.c ****   LWIP_ERROR("mqtt_publish: TCP disconnected", (client->conn_state != TCP_DISCONNECTED), return ERR
 3760              		.loc 1 1109 3 discriminator 1 view .LVU1076
 3761 00d0 1F4B     		ldr	r3, .L300
 3762 00d2 40F25542 		movw	r2, #1109
 3763 00d6 2149     		ldr	r1, .L300+12
 3764 00d8 1F48     		ldr	r0, .L300+8
 3765 00da FFF7FEFF 		bl	printf
 3766              	.LVL403:
 3767 00de 9CE7     		b	.L279
 3768              	.L293:
1110:Middlewares/Third_Party/LwIP/src/apps/mqtt/mqtt.c **** 
 3769              		.loc 1 1110 3 discriminator 1 view .LVU1077
1110:Middlewares/Third_Party/LwIP/src/apps/mqtt/mqtt.c **** 
 3770              		.loc 1 1110 3 discriminator 1 view .LVU1078
 3771 00e0 1B4B     		ldr	r3, .L300
 3772 00e2 40F25642 		movw	r2, #1110
 3773 00e6 1E49     		ldr	r1, .L300+16
 3774 00e8 1B48     		ldr	r0, .L300+8
 3775 00ea FFF7FEFF 		bl	printf
 3776              	.LVL404:
1110:Middlewares/Third_Party/LwIP/src/apps/mqtt/mqtt.c **** 
 3777              		.loc 1 1110 3 discriminator 1 view .LVU1079
ARM GAS  D:\Dev\msys64\tmp\ccB7TkM7.s 			page 104


1110:Middlewares/Third_Party/LwIP/src/apps/mqtt/mqtt.c **** 
 3778              		.loc 1 1110 3 discriminator 1 view .LVU1080
 3779 00ee 6FF00A00 		mvn	r0, #10
 3780 00f2 E2E7     		b	.L281
 3781              	.LVL405:
 3782              	.L294:
1113:Middlewares/Third_Party/LwIP/src/apps/mqtt/mqtt.c ****   topic_len = (u16_t)topic_strlen;
 3783              		.loc 1 1113 3 discriminator 1 view .LVU1081
1113:Middlewares/Third_Party/LwIP/src/apps/mqtt/mqtt.c ****   topic_len = (u16_t)topic_strlen;
 3784              		.loc 1 1113 3 discriminator 1 view .LVU1082
 3785 00f4 164B     		ldr	r3, .L300
 3786 00f6 40F25942 		movw	r2, #1113
 3787 00fa 1A49     		ldr	r1, .L300+20
 3788 00fc 1648     		ldr	r0, .L300+8
 3789              	.LVL406:
1113:Middlewares/Third_Party/LwIP/src/apps/mqtt/mqtt.c ****   topic_len = (u16_t)topic_strlen;
 3790              		.loc 1 1113 3 is_stmt 0 discriminator 1 view .LVU1083
 3791 00fe FFF7FEFF 		bl	printf
 3792              	.LVL407:
1113:Middlewares/Third_Party/LwIP/src/apps/mqtt/mqtt.c ****   topic_len = (u16_t)topic_strlen;
 3793              		.loc 1 1113 3 is_stmt 1 discriminator 1 view .LVU1084
1113:Middlewares/Third_Party/LwIP/src/apps/mqtt/mqtt.c ****   topic_len = (u16_t)topic_strlen;
 3794              		.loc 1 1113 3 discriminator 1 view .LVU1085
 3795 0102 6FF00F00 		mvn	r0, #15
 3796 0106 D8E7     		b	.L281
 3797              	.LVL408:
 3798              	.L295:
1118:Middlewares/Third_Party/LwIP/src/apps/mqtt/mqtt.c ****     /* Generate pkt_id id for QoS1 and 2 */
 3799              		.loc 1 1118 5 view .LVU1086
1118:Middlewares/Third_Party/LwIP/src/apps/mqtt/mqtt.c ****     /* Generate pkt_id id for QoS1 and 2 */
 3800              		.loc 1 1118 15 is_stmt 0 view .LVU1087
 3801 0108 0234     		adds	r4, r4, #2
 3802              	.LVL409:
1120:Middlewares/Third_Party/LwIP/src/apps/mqtt/mqtt.c ****   } else {
 3803              		.loc 1 1120 5 is_stmt 1 view .LVU1088
1120:Middlewares/Third_Party/LwIP/src/apps/mqtt/mqtt.c ****   } else {
 3804              		.loc 1 1120 14 is_stmt 0 view .LVU1089
 3805 010a 3046     		mov	r0, r6
 3806              	.LVL410:
1120:Middlewares/Third_Party/LwIP/src/apps/mqtt/mqtt.c ****   } else {
 3807              		.loc 1 1120 14 view .LVU1090
 3808 010c FFF7FEFF 		bl	msg_generate_packet_id
 3809              	.LVL411:
 3810 0110 8346     		mov	fp, r0
 3811              	.LVL412:
1120:Middlewares/Third_Party/LwIP/src/apps/mqtt/mqtt.c ****   } else {
 3812              		.loc 1 1120 14 view .LVU1091
 3813 0112 94E7     		b	.L283
 3814              	.L296:
1125:Middlewares/Third_Party/LwIP/src/apps/mqtt/mqtt.c ****   remaining_length = (u16_t)total_len;
 3815              		.loc 1 1125 3 is_stmt 1 discriminator 1 view .LVU1092
1125:Middlewares/Third_Party/LwIP/src/apps/mqtt/mqtt.c ****   remaining_length = (u16_t)total_len;
 3816              		.loc 1 1125 3 discriminator 1 view .LVU1093
 3817 0114 0E4B     		ldr	r3, .L300
 3818 0116 40F26542 		movw	r2, #1125
 3819 011a 1349     		ldr	r1, .L300+24
 3820 011c 0E48     		ldr	r0, .L300+8
ARM GAS  D:\Dev\msys64\tmp\ccB7TkM7.s 			page 105


 3821 011e FFF7FEFF 		bl	printf
 3822              	.LVL413:
1125:Middlewares/Third_Party/LwIP/src/apps/mqtt/mqtt.c ****   remaining_length = (u16_t)total_len;
 3823              		.loc 1 1125 3 discriminator 1 view .LVU1094
1125:Middlewares/Third_Party/LwIP/src/apps/mqtt/mqtt.c ****   remaining_length = (u16_t)total_len;
 3824              		.loc 1 1125 3 discriminator 1 view .LVU1095
 3825 0122 6FF00F00 		mvn	r0, #15
 3826 0126 C8E7     		b	.L281
 3827              	.LVL414:
 3828              	.L297:
1136:Middlewares/Third_Party/LwIP/src/apps/mqtt/mqtt.c ****     return ERR_MEM;
 3829              		.loc 1 1136 5 view .LVU1096
 3830 0128 0398     		ldr	r0, [sp, #12]
 3831 012a FFF7FEFF 		bl	mqtt_delete_request
 3832              	.LVL415:
1137:Middlewares/Third_Party/LwIP/src/apps/mqtt/mqtt.c ****   }
 3833              		.loc 1 1137 5 view .LVU1097
1137:Middlewares/Third_Party/LwIP/src/apps/mqtt/mqtt.c ****   }
 3834              		.loc 1 1137 12 is_stmt 0 view .LVU1098
 3835 012e 4FF0FF30 		mov	r0, #-1
 3836 0132 C2E7     		b	.L281
 3837              	.L298:
1147:Middlewares/Third_Party/LwIP/src/apps/mqtt/mqtt.c ****   }
 3838              		.loc 1 1147 5 is_stmt 1 view .LVU1099
 3839 0134 5946     		mov	r1, fp
 3840 0136 4046     		mov	r0, r8
 3841 0138 FFF7FEFF 		bl	mqtt_output_append_u16
 3842              	.LVL416:
 3843 013c A9E7     		b	.L286
 3844              	.L299:
1152:Middlewares/Third_Party/LwIP/src/apps/mqtt/mqtt.c ****   }
 3845              		.loc 1 1152 5 view .LVU1100
 3846 013e 4A46     		mov	r2, r9
 3847 0140 0299     		ldr	r1, [sp, #8]
 3848 0142 4046     		mov	r0, r8
 3849 0144 FFF7FEFF 		bl	mqtt_output_append_buf
 3850              	.LVL417:
 3851 0148 ADE7     		b	.L287
 3852              	.LVL418:
 3853              	.L289:
1132:Middlewares/Third_Party/LwIP/src/apps/mqtt/mqtt.c ****   }
 3854              		.loc 1 1132 12 is_stmt 0 view .LVU1101
 3855 014a 4FF0FF30 		mov	r0, #-1
 3856              	.LVL419:
1132:Middlewares/Third_Party/LwIP/src/apps/mqtt/mqtt.c ****   }
 3857              		.loc 1 1132 12 view .LVU1102
 3858 014e B4E7     		b	.L281
 3859              	.L301:
 3860              		.align	2
 3861              	.L300:
 3862 0150 00000000 		.word	.LC0
 3863 0154 00000000 		.word	.LC20
 3864 0158 58000000 		.word	.LC2
 3865 015c 20000000 		.word	.LC21
 3866 0160 3C000000 		.word	.LC22
 3867 0164 5C000000 		.word	.LC23
 3868 0168 80000000 		.word	.LC24
ARM GAS  D:\Dev\msys64\tmp\ccB7TkM7.s 			page 106


 3869              		.cfi_endproc
 3870              	.LFE60:
 3872              		.section	.rodata.mqtt_sub_unsub.str1.4,"aMS",%progbits,1
 3873              		.align	2
 3874              	.LC25:
 3875 0000 6D717474 		.ascii	"mqtt_sub_unsub: client != NULL\000"
 3875      5F737562 
 3875      5F756E73 
 3875      75623A20 
 3875      636C6965 
 3876 001f 00       		.align	2
 3877              	.LC26:
 3878 0020 6D717474 		.ascii	"mqtt_sub_unsub: topic != NULL\000"
 3878      5F737562 
 3878      5F756E73 
 3878      75623A20 
 3878      746F7069 
 3879 003e 0000     		.align	2
 3880              	.LC27:
 3881 0040 6D717474 		.ascii	"mqtt_sub_unsub: topic length overflow\000"
 3881      5F737562 
 3881      5F756E73 
 3881      75623A20 
 3881      746F7069 
 3882 0066 0000     		.align	2
 3883              	.LC28:
 3884 0068 6D717474 		.ascii	"mqtt_sub_unsub: total length overflow\000"
 3884      5F737562 
 3884      5F756E73 
 3884      75623A20 
 3884      746F7461 
 3885 008e 0000     		.align	2
 3886              	.LC29:
 3887 0090 6D717474 		.ascii	"mqtt_sub_unsub: qos < 3\000"
 3887      5F737562 
 3887      5F756E73 
 3887      75623A20 
 3887      716F7320 
 3888              		.section	.text.mqtt_sub_unsub,"ax",%progbits
 3889              		.align	1
 3890              		.global	mqtt_sub_unsub
 3891              		.syntax unified
 3892              		.thumb
 3893              		.thumb_func
 3894              		.fpu fpv5-sp-d16
 3896              	mqtt_sub_unsub:
 3897              	.LVL420:
 3898              	.LFB61:
1159:Middlewares/Third_Party/LwIP/src/apps/mqtt/mqtt.c **** 
1160:Middlewares/Third_Party/LwIP/src/apps/mqtt/mqtt.c **** 
1161:Middlewares/Third_Party/LwIP/src/apps/mqtt/mqtt.c **** /**
1162:Middlewares/Third_Party/LwIP/src/apps/mqtt/mqtt.c ****  * @ingroup mqtt
1163:Middlewares/Third_Party/LwIP/src/apps/mqtt/mqtt.c ****  * MQTT subscribe/unsubscribe function.
1164:Middlewares/Third_Party/LwIP/src/apps/mqtt/mqtt.c ****  * @param client MQTT client
1165:Middlewares/Third_Party/LwIP/src/apps/mqtt/mqtt.c ****  * @param topic topic to subscribe to
1166:Middlewares/Third_Party/LwIP/src/apps/mqtt/mqtt.c ****  * @param qos Quality of service, 0 1 or 2 (only used for subscribe)
1167:Middlewares/Third_Party/LwIP/src/apps/mqtt/mqtt.c ****  * @param cb Callback to call when subscribe/unsubscribe reponse is received
ARM GAS  D:\Dev\msys64\tmp\ccB7TkM7.s 			page 107


1168:Middlewares/Third_Party/LwIP/src/apps/mqtt/mqtt.c ****  * @param arg User supplied argument to publish callback
1169:Middlewares/Third_Party/LwIP/src/apps/mqtt/mqtt.c ****  * @param sub 1 for subscribe, 0 for unsubscribe
1170:Middlewares/Third_Party/LwIP/src/apps/mqtt/mqtt.c ****  * @return ERR_OK if successful, @see err_t enum for other results
1171:Middlewares/Third_Party/LwIP/src/apps/mqtt/mqtt.c ****  */
1172:Middlewares/Third_Party/LwIP/src/apps/mqtt/mqtt.c **** err_t
1173:Middlewares/Third_Party/LwIP/src/apps/mqtt/mqtt.c **** mqtt_sub_unsub(mqtt_client_t *client, const char *topic, u8_t qos, mqtt_request_cb_t cb, void *arg,
1174:Middlewares/Third_Party/LwIP/src/apps/mqtt/mqtt.c **** {
 3899              		.loc 1 1174 1 is_stmt 1 view -0
 3900              		.cfi_startproc
 3901              		@ args = 8, pretend = 0, frame = 8
 3902              		@ frame_needed = 0, uses_anonymous_args = 0
 3903              		.loc 1 1174 1 is_stmt 0 view .LVU1104
 3904 0000 2DE9F04F 		push	{r4, r5, r6, r7, r8, r9, r10, fp, lr}
 3905              	.LCFI40:
 3906              		.cfi_def_cfa_offset 36
 3907              		.cfi_offset 4, -36
 3908              		.cfi_offset 5, -32
 3909              		.cfi_offset 6, -28
 3910              		.cfi_offset 7, -24
 3911              		.cfi_offset 8, -20
 3912              		.cfi_offset 9, -16
 3913              		.cfi_offset 10, -12
 3914              		.cfi_offset 11, -8
 3915              		.cfi_offset 14, -4
 3916 0004 85B0     		sub	sp, sp, #20
 3917              	.LCFI41:
 3918              		.cfi_def_cfa_offset 56
 3919 0006 8846     		mov	r8, r1
 3920 0008 9246     		mov	r10, r2
 3921 000a 1F46     		mov	r7, r3
 3922 000c 9DF83CB0 		ldrb	fp, [sp, #60]	@ zero_extendqisi2
1175:Middlewares/Third_Party/LwIP/src/apps/mqtt/mqtt.c ****   size_t topic_strlen;
 3923              		.loc 1 1175 3 is_stmt 1 view .LVU1105
1176:Middlewares/Third_Party/LwIP/src/apps/mqtt/mqtt.c ****   size_t total_len;
 3924              		.loc 1 1176 3 view .LVU1106
1177:Middlewares/Third_Party/LwIP/src/apps/mqtt/mqtt.c ****   u16_t topic_len;
 3925              		.loc 1 1177 3 view .LVU1107
1178:Middlewares/Third_Party/LwIP/src/apps/mqtt/mqtt.c ****   u16_t remaining_length;
 3926              		.loc 1 1178 3 view .LVU1108
1179:Middlewares/Third_Party/LwIP/src/apps/mqtt/mqtt.c ****   u16_t pkt_id;
 3927              		.loc 1 1179 3 view .LVU1109
1180:Middlewares/Third_Party/LwIP/src/apps/mqtt/mqtt.c ****   struct mqtt_request_t *r;
 3928              		.loc 1 1180 3 view .LVU1110
1181:Middlewares/Third_Party/LwIP/src/apps/mqtt/mqtt.c **** 
1182:Middlewares/Third_Party/LwIP/src/apps/mqtt/mqtt.c ****   LWIP_ASSERT_CORE_LOCKED();
 3929              		.loc 1 1182 28 view .LVU1111
1183:Middlewares/Third_Party/LwIP/src/apps/mqtt/mqtt.c ****   LWIP_ASSERT("mqtt_sub_unsub: client != NULL", client);
 3930              		.loc 1 1183 3 view .LVU1112
 3931              		.loc 1 1183 3 view .LVU1113
 3932 0010 0646     		mov	r6, r0
 3933 0012 0028     		cmp	r0, #0
 3934 0014 55D0     		beq	.L316
 3935              	.LVL421:
 3936              	.L303:
 3937              		.loc 1 1183 3 discriminator 3 view .LVU1114
 3938              		.loc 1 1183 3 discriminator 3 view .LVU1115
1184:Middlewares/Third_Party/LwIP/src/apps/mqtt/mqtt.c ****   LWIP_ASSERT("mqtt_sub_unsub: topic != NULL", topic);
ARM GAS  D:\Dev\msys64\tmp\ccB7TkM7.s 			page 108


 3939              		.loc 1 1184 3 discriminator 3 view .LVU1116
 3940              		.loc 1 1184 3 discriminator 3 view .LVU1117
 3941 0016 B8F1000F 		cmp	r8, #0
 3942 001a 5AD0     		beq	.L317
 3943              	.L304:
 3944              		.loc 1 1184 3 discriminator 3 view .LVU1118
 3945              		.loc 1 1184 3 discriminator 3 view .LVU1119
1185:Middlewares/Third_Party/LwIP/src/apps/mqtt/mqtt.c **** 
1186:Middlewares/Third_Party/LwIP/src/apps/mqtt/mqtt.c ****   topic_strlen = strlen(topic);
 3946              		.loc 1 1186 3 discriminator 3 view .LVU1120
 3947              		.loc 1 1186 18 is_stmt 0 discriminator 3 view .LVU1121
 3948 001c 4046     		mov	r0, r8
 3949 001e FFF7FEFF 		bl	strlen
 3950              	.LVL422:
1187:Middlewares/Third_Party/LwIP/src/apps/mqtt/mqtt.c ****   LWIP_ERROR("mqtt_sub_unsub: topic length overflow", (topic_strlen <= (0xFFFF - 2)), return ERR_AR
 3951              		.loc 1 1187 3 is_stmt 1 discriminator 3 view .LVU1122
 3952              		.loc 1 1187 3 discriminator 3 view .LVU1123
 3953 0022 4FF6FD73 		movw	r3, #65533
 3954 0026 9842     		cmp	r0, r3
 3955 0028 5BD8     		bhi	.L318
 3956              		.loc 1 1187 3 discriminator 2 view .LVU1124
1188:Middlewares/Third_Party/LwIP/src/apps/mqtt/mqtt.c ****   topic_len = (u16_t)topic_strlen;
 3957              		.loc 1 1188 3 discriminator 2 view .LVU1125
 3958              		.loc 1 1188 13 is_stmt 0 discriminator 2 view .LVU1126
 3959 002a 84B2     		uxth	r4, r0
 3960              	.LVL423:
1189:Middlewares/Third_Party/LwIP/src/apps/mqtt/mqtt.c ****   /* Topic string, pkt_id, qos for subscribe */
1190:Middlewares/Third_Party/LwIP/src/apps/mqtt/mqtt.c ****   total_len =  topic_len + 2 + 2 + (sub != 0);
 3961              		.loc 1 1190 3 is_stmt 1 discriminator 2 view .LVU1127
 3962              		.loc 1 1190 30 is_stmt 0 discriminator 2 view .LVU1128
 3963 002c 251D     		adds	r5, r4, #4
 3964              		.loc 1 1190 34 discriminator 2 view .LVU1129
 3965 002e BBF1000F 		cmp	fp, #0
 3966 0032 18BF     		it	ne
 3967 0034 0135     		addne	r5, r5, #1
 3968              	.LVL424:
1191:Middlewares/Third_Party/LwIP/src/apps/mqtt/mqtt.c ****   LWIP_ERROR("mqtt_sub_unsub: total length overflow", (total_len <= 0xFFFF), return ERR_ARG);
 3969              		.loc 1 1191 3 is_stmt 1 discriminator 2 view .LVU1130
 3970              		.loc 1 1191 3 discriminator 2 view .LVU1131
 3971 0036 B5F5803F 		cmp	r5, #65536
 3972 003a 5CD2     		bcs	.L319
 3973              		.loc 1 1191 3 discriminator 2 view .LVU1132
1192:Middlewares/Third_Party/LwIP/src/apps/mqtt/mqtt.c ****   remaining_length = (u16_t)total_len;
 3974              		.loc 1 1192 3 discriminator 2 view .LVU1133
 3975              		.loc 1 1192 20 is_stmt 0 discriminator 2 view .LVU1134
 3976 003c ADB2     		uxth	r5, r5
 3977              	.LVL425:
1193:Middlewares/Third_Party/LwIP/src/apps/mqtt/mqtt.c **** 
1194:Middlewares/Third_Party/LwIP/src/apps/mqtt/mqtt.c ****   LWIP_ASSERT("mqtt_sub_unsub: qos < 3", qos < 3);
 3978              		.loc 1 1194 3 is_stmt 1 discriminator 2 view .LVU1135
 3979              		.loc 1 1194 3 discriminator 2 view .LVU1136
 3980 003e BAF1020F 		cmp	r10, #2
 3981 0042 62D8     		bhi	.L320
 3982              	.LVL426:
 3983              	.L308:
 3984              		.loc 1 1194 3 discriminator 3 view .LVU1137
 3985              		.loc 1 1194 3 discriminator 3 view .LVU1138
ARM GAS  D:\Dev\msys64\tmp\ccB7TkM7.s 			page 109


1195:Middlewares/Third_Party/LwIP/src/apps/mqtt/mqtt.c ****   if (client->conn_state == TCP_DISCONNECTED) {
 3986              		.loc 1 1195 3 discriminator 3 view .LVU1139
 3987              		.loc 1 1195 13 is_stmt 0 discriminator 3 view .LVU1140
 3988 0044 B37A     		ldrb	r3, [r6, #10]	@ zero_extendqisi2
 3989              		.loc 1 1195 6 discriminator 3 view .LVU1141
 3990 0046 002B     		cmp	r3, #0
 3991 0048 77D0     		beq	.L312
1196:Middlewares/Third_Party/LwIP/src/apps/mqtt/mqtt.c ****     LWIP_DEBUGF(MQTT_DEBUG_WARN, ("mqtt_sub_unsub: Can not (un)subscribe in disconnected state\n"))
1197:Middlewares/Third_Party/LwIP/src/apps/mqtt/mqtt.c ****     return ERR_CONN;
1198:Middlewares/Third_Party/LwIP/src/apps/mqtt/mqtt.c ****   }
1199:Middlewares/Third_Party/LwIP/src/apps/mqtt/mqtt.c **** 
1200:Middlewares/Third_Party/LwIP/src/apps/mqtt/mqtt.c ****   pkt_id = msg_generate_packet_id(client);
 3992              		.loc 1 1200 3 is_stmt 1 view .LVU1142
 3993              		.loc 1 1200 12 is_stmt 0 view .LVU1143
 3994 004a 3046     		mov	r0, r6
 3995 004c FFF7FEFF 		bl	msg_generate_packet_id
 3996              	.LVL427:
 3997 0050 8146     		mov	r9, r0
 3998              	.LVL428:
1201:Middlewares/Third_Party/LwIP/src/apps/mqtt/mqtt.c ****   r = mqtt_create_request(client->req_list, LWIP_ARRAYSIZE(client->req_list), pkt_id, cb, arg);
 3999              		.loc 1 1201 3 is_stmt 1 view .LVU1144
 4000              		.loc 1 1201 7 is_stmt 0 view .LVU1145
 4001 0052 0E9B     		ldr	r3, [sp, #56]
 4002 0054 0093     		str	r3, [sp]
 4003 0056 3B46     		mov	r3, r7
 4004 0058 0246     		mov	r2, r0
 4005 005a 0421     		movs	r1, #4
 4006 005c 06F11C00 		add	r0, r6, #28
 4007              	.LVL429:
 4008              		.loc 1 1201 7 view .LVU1146
 4009 0060 FFF7FEFF 		bl	mqtt_create_request
 4010              	.LVL430:
1202:Middlewares/Third_Party/LwIP/src/apps/mqtt/mqtt.c ****   if (r == NULL) {
 4011              		.loc 1 1202 3 is_stmt 1 view .LVU1147
 4012              		.loc 1 1202 6 is_stmt 0 view .LVU1148
 4013 0064 0390     		str	r0, [sp, #12]
 4014 0066 0028     		cmp	r0, #0
 4015 0068 6AD0     		beq	.L313
1203:Middlewares/Third_Party/LwIP/src/apps/mqtt/mqtt.c ****     return ERR_MEM;
1204:Middlewares/Third_Party/LwIP/src/apps/mqtt/mqtt.c ****   }
1205:Middlewares/Third_Party/LwIP/src/apps/mqtt/mqtt.c **** 
1206:Middlewares/Third_Party/LwIP/src/apps/mqtt/mqtt.c ****   if (mqtt_output_check_space(&client->output, remaining_length) == 0) {
 4016              		.loc 1 1206 3 is_stmt 1 view .LVU1149
 4017              		.loc 1 1206 7 is_stmt 0 view .LVU1150
 4018 006a 06F1EC07 		add	r7, r6, #236
 4019              	.LVL431:
 4020              		.loc 1 1206 7 view .LVU1151
 4021 006e 2946     		mov	r1, r5
 4022 0070 3846     		mov	r0, r7
 4023              	.LVL432:
 4024              		.loc 1 1206 7 view .LVU1152
 4025 0072 FFF7FEFF 		bl	mqtt_output_check_space
 4026              	.LVL433:
 4027              		.loc 1 1206 6 view .LVU1153
 4028 0076 0028     		cmp	r0, #0
 4029 0078 4FD0     		beq	.L321
1207:Middlewares/Third_Party/LwIP/src/apps/mqtt/mqtt.c ****     mqtt_delete_request(r);
ARM GAS  D:\Dev\msys64\tmp\ccB7TkM7.s 			page 110


1208:Middlewares/Third_Party/LwIP/src/apps/mqtt/mqtt.c ****     return ERR_MEM;
1209:Middlewares/Third_Party/LwIP/src/apps/mqtt/mqtt.c ****   }
1210:Middlewares/Third_Party/LwIP/src/apps/mqtt/mqtt.c **** 
1211:Middlewares/Third_Party/LwIP/src/apps/mqtt/mqtt.c ****   LWIP_DEBUGF(MQTT_DEBUG_TRACE, ("mqtt_sub_unsub: Client (un)subscribe to topic \"%s\", id: %d\n", 
 4030              		.loc 1 1211 115 is_stmt 1 view .LVU1154
1212:Middlewares/Third_Party/LwIP/src/apps/mqtt/mqtt.c **** 
1213:Middlewares/Third_Party/LwIP/src/apps/mqtt/mqtt.c ****   mqtt_output_append_fixed_header(&client->output, sub ? MQTT_MSG_TYPE_SUBSCRIBE : MQTT_MSG_TYPE_UN
 4031              		.loc 1 1213 3 view .LVU1155
 4032 007a BBF1000F 		cmp	fp, #0
 4033 007e 52D0     		beq	.L314
 4034 0080 0821     		movs	r1, #8
 4035              	.L310:
 4036              		.loc 1 1213 3 is_stmt 0 discriminator 4 view .LVU1156
 4037 0082 0195     		str	r5, [sp, #4]
 4038 0084 0022     		movs	r2, #0
 4039 0086 0092     		str	r2, [sp]
 4040 0088 0123     		movs	r3, #1
 4041 008a 3846     		mov	r0, r7
 4042 008c FFF7FEFF 		bl	mqtt_output_append_fixed_header
 4043              	.LVL434:
1214:Middlewares/Third_Party/LwIP/src/apps/mqtt/mqtt.c ****   /* Packet id */
1215:Middlewares/Third_Party/LwIP/src/apps/mqtt/mqtt.c ****   mqtt_output_append_u16(&client->output, pkt_id);
 4044              		.loc 1 1215 3 is_stmt 1 discriminator 4 view .LVU1157
 4045 0090 4946     		mov	r1, r9
 4046 0092 3846     		mov	r0, r7
 4047 0094 FFF7FEFF 		bl	mqtt_output_append_u16
 4048              	.LVL435:
1216:Middlewares/Third_Party/LwIP/src/apps/mqtt/mqtt.c ****   /* Topic */
1217:Middlewares/Third_Party/LwIP/src/apps/mqtt/mqtt.c ****   mqtt_output_append_string(&client->output, topic, topic_len);
 4049              		.loc 1 1217 3 discriminator 4 view .LVU1158
 4050 0098 2246     		mov	r2, r4
 4051 009a 4146     		mov	r1, r8
 4052 009c 3846     		mov	r0, r7
 4053 009e FFF7FEFF 		bl	mqtt_output_append_string
 4054              	.LVL436:
1218:Middlewares/Third_Party/LwIP/src/apps/mqtt/mqtt.c ****   /* QoS */
1219:Middlewares/Third_Party/LwIP/src/apps/mqtt/mqtt.c ****   if (sub != 0) {
 4055              		.loc 1 1219 3 discriminator 4 view .LVU1159
 4056              		.loc 1 1219 6 is_stmt 0 discriminator 4 view .LVU1160
 4057 00a2 BBF1000F 		cmp	fp, #0
 4058 00a6 40D1     		bne	.L322
 4059              	.L311:
1220:Middlewares/Third_Party/LwIP/src/apps/mqtt/mqtt.c ****     mqtt_output_append_u8(&client->output, LWIP_MIN(qos, 2));
1221:Middlewares/Third_Party/LwIP/src/apps/mqtt/mqtt.c ****   }
1222:Middlewares/Third_Party/LwIP/src/apps/mqtt/mqtt.c **** 
1223:Middlewares/Third_Party/LwIP/src/apps/mqtt/mqtt.c ****   mqtt_append_request(&client->pend_req_queue, r);
 4060              		.loc 1 1223 3 is_stmt 1 view .LVU1161
 4061 00a8 0399     		ldr	r1, [sp, #12]
 4062 00aa 06F11800 		add	r0, r6, #24
 4063 00ae FFF7FEFF 		bl	mqtt_append_request
 4064              	.LVL437:
1224:Middlewares/Third_Party/LwIP/src/apps/mqtt/mqtt.c ****   mqtt_output_send(&client->output, client->conn);
 4065              		.loc 1 1224 3 view .LVU1162
 4066 00b2 F168     		ldr	r1, [r6, #12]
 4067 00b4 3846     		mov	r0, r7
 4068 00b6 FFF7FEFF 		bl	mqtt_output_send
 4069              	.LVL438:
ARM GAS  D:\Dev\msys64\tmp\ccB7TkM7.s 			page 111


1225:Middlewares/Third_Party/LwIP/src/apps/mqtt/mqtt.c ****   return ERR_OK;
 4070              		.loc 1 1225 3 view .LVU1163
 4071              		.loc 1 1225 10 is_stmt 0 view .LVU1164
 4072 00ba 0020     		movs	r0, #0
 4073              	.LVL439:
 4074              	.L306:
1226:Middlewares/Third_Party/LwIP/src/apps/mqtt/mqtt.c **** }
 4075              		.loc 1 1226 1 view .LVU1165
 4076 00bc 05B0     		add	sp, sp, #20
 4077              	.LCFI42:
 4078              		.cfi_remember_state
 4079              		.cfi_def_cfa_offset 36
 4080              		@ sp needed
 4081 00be BDE8F08F 		pop	{r4, r5, r6, r7, r8, r9, r10, fp, pc}
 4082              	.LVL440:
 4083              	.L316:
 4084              	.LCFI43:
 4085              		.cfi_restore_state
1183:Middlewares/Third_Party/LwIP/src/apps/mqtt/mqtt.c ****   LWIP_ASSERT("mqtt_sub_unsub: topic != NULL", topic);
 4086              		.loc 1 1183 3 is_stmt 1 discriminator 1 view .LVU1166
1183:Middlewares/Third_Party/LwIP/src/apps/mqtt/mqtt.c ****   LWIP_ASSERT("mqtt_sub_unsub: topic != NULL", topic);
 4087              		.loc 1 1183 3 discriminator 1 view .LVU1167
 4088 00c2 214B     		ldr	r3, .L323
 4089              	.LVL441:
1183:Middlewares/Third_Party/LwIP/src/apps/mqtt/mqtt.c ****   LWIP_ASSERT("mqtt_sub_unsub: topic != NULL", topic);
 4090              		.loc 1 1183 3 is_stmt 0 discriminator 1 view .LVU1168
 4091 00c4 40F29F42 		movw	r2, #1183
 4092              	.LVL442:
1183:Middlewares/Third_Party/LwIP/src/apps/mqtt/mqtt.c ****   LWIP_ASSERT("mqtt_sub_unsub: topic != NULL", topic);
 4093              		.loc 1 1183 3 discriminator 1 view .LVU1169
 4094 00c8 2049     		ldr	r1, .L323+4
 4095              	.LVL443:
1183:Middlewares/Third_Party/LwIP/src/apps/mqtt/mqtt.c ****   LWIP_ASSERT("mqtt_sub_unsub: topic != NULL", topic);
 4096              		.loc 1 1183 3 discriminator 1 view .LVU1170
 4097 00ca 2148     		ldr	r0, .L323+8
 4098              	.LVL444:
1183:Middlewares/Third_Party/LwIP/src/apps/mqtt/mqtt.c ****   LWIP_ASSERT("mqtt_sub_unsub: topic != NULL", topic);
 4099              		.loc 1 1183 3 discriminator 1 view .LVU1171
 4100 00cc FFF7FEFF 		bl	printf
 4101              	.LVL445:
 4102 00d0 A1E7     		b	.L303
 4103              	.L317:
1184:Middlewares/Third_Party/LwIP/src/apps/mqtt/mqtt.c **** 
 4104              		.loc 1 1184 3 is_stmt 1 discriminator 1 view .LVU1172
1184:Middlewares/Third_Party/LwIP/src/apps/mqtt/mqtt.c **** 
 4105              		.loc 1 1184 3 discriminator 1 view .LVU1173
 4106 00d2 1D4B     		ldr	r3, .L323
 4107 00d4 4FF49462 		mov	r2, #1184
 4108 00d8 1E49     		ldr	r1, .L323+12
 4109 00da 1D48     		ldr	r0, .L323+8
 4110 00dc FFF7FEFF 		bl	printf
 4111              	.LVL446:
 4112 00e0 9CE7     		b	.L304
 4113              	.LVL447:
 4114              	.L318:
1187:Middlewares/Third_Party/LwIP/src/apps/mqtt/mqtt.c ****   topic_len = (u16_t)topic_strlen;
 4115              		.loc 1 1187 3 discriminator 1 view .LVU1174
ARM GAS  D:\Dev\msys64\tmp\ccB7TkM7.s 			page 112


1187:Middlewares/Third_Party/LwIP/src/apps/mqtt/mqtt.c ****   topic_len = (u16_t)topic_strlen;
 4116              		.loc 1 1187 3 discriminator 1 view .LVU1175
 4117 00e2 194B     		ldr	r3, .L323
 4118 00e4 40F2A342 		movw	r2, #1187
 4119 00e8 1B49     		ldr	r1, .L323+16
 4120 00ea 1948     		ldr	r0, .L323+8
 4121              	.LVL448:
1187:Middlewares/Third_Party/LwIP/src/apps/mqtt/mqtt.c ****   topic_len = (u16_t)topic_strlen;
 4122              		.loc 1 1187 3 is_stmt 0 discriminator 1 view .LVU1176
 4123 00ec FFF7FEFF 		bl	printf
 4124              	.LVL449:
1187:Middlewares/Third_Party/LwIP/src/apps/mqtt/mqtt.c ****   topic_len = (u16_t)topic_strlen;
 4125              		.loc 1 1187 3 is_stmt 1 discriminator 1 view .LVU1177
1187:Middlewares/Third_Party/LwIP/src/apps/mqtt/mqtt.c ****   topic_len = (u16_t)topic_strlen;
 4126              		.loc 1 1187 3 discriminator 1 view .LVU1178
 4127 00f0 6FF00F00 		mvn	r0, #15
 4128 00f4 E2E7     		b	.L306
 4129              	.LVL450:
 4130              	.L319:
1191:Middlewares/Third_Party/LwIP/src/apps/mqtt/mqtt.c ****   remaining_length = (u16_t)total_len;
 4131              		.loc 1 1191 3 discriminator 1 view .LVU1179
1191:Middlewares/Third_Party/LwIP/src/apps/mqtt/mqtt.c ****   remaining_length = (u16_t)total_len;
 4132              		.loc 1 1191 3 discriminator 1 view .LVU1180
 4133 00f6 144B     		ldr	r3, .L323
 4134 00f8 40F2A742 		movw	r2, #1191
 4135 00fc 1749     		ldr	r1, .L323+20
 4136 00fe 1448     		ldr	r0, .L323+8
 4137              	.LVL451:
1191:Middlewares/Third_Party/LwIP/src/apps/mqtt/mqtt.c ****   remaining_length = (u16_t)total_len;
 4138              		.loc 1 1191 3 is_stmt 0 discriminator 1 view .LVU1181
 4139 0100 FFF7FEFF 		bl	printf
 4140              	.LVL452:
1191:Middlewares/Third_Party/LwIP/src/apps/mqtt/mqtt.c ****   remaining_length = (u16_t)total_len;
 4141              		.loc 1 1191 3 is_stmt 1 discriminator 1 view .LVU1182
1191:Middlewares/Third_Party/LwIP/src/apps/mqtt/mqtt.c ****   remaining_length = (u16_t)total_len;
 4142              		.loc 1 1191 3 discriminator 1 view .LVU1183
 4143 0104 6FF00F00 		mvn	r0, #15
 4144 0108 D8E7     		b	.L306
 4145              	.LVL453:
 4146              	.L320:
1194:Middlewares/Third_Party/LwIP/src/apps/mqtt/mqtt.c ****   if (client->conn_state == TCP_DISCONNECTED) {
 4147              		.loc 1 1194 3 discriminator 1 view .LVU1184
1194:Middlewares/Third_Party/LwIP/src/apps/mqtt/mqtt.c ****   if (client->conn_state == TCP_DISCONNECTED) {
 4148              		.loc 1 1194 3 discriminator 1 view .LVU1185
 4149 010a 0F4B     		ldr	r3, .L323
 4150 010c 40F2AA42 		movw	r2, #1194
 4151 0110 1349     		ldr	r1, .L323+24
 4152 0112 0F48     		ldr	r0, .L323+8
 4153              	.LVL454:
1194:Middlewares/Third_Party/LwIP/src/apps/mqtt/mqtt.c ****   if (client->conn_state == TCP_DISCONNECTED) {
 4154              		.loc 1 1194 3 is_stmt 0 discriminator 1 view .LVU1186
 4155 0114 FFF7FEFF 		bl	printf
 4156              	.LVL455:
 4157 0118 94E7     		b	.L308
 4158              	.LVL456:
 4159              	.L321:
1207:Middlewares/Third_Party/LwIP/src/apps/mqtt/mqtt.c ****     return ERR_MEM;
ARM GAS  D:\Dev\msys64\tmp\ccB7TkM7.s 			page 113


 4160              		.loc 1 1207 5 is_stmt 1 view .LVU1187
 4161 011a 0398     		ldr	r0, [sp, #12]
 4162 011c FFF7FEFF 		bl	mqtt_delete_request
 4163              	.LVL457:
1208:Middlewares/Third_Party/LwIP/src/apps/mqtt/mqtt.c ****   }
 4164              		.loc 1 1208 5 view .LVU1188
1208:Middlewares/Third_Party/LwIP/src/apps/mqtt/mqtt.c ****   }
 4165              		.loc 1 1208 12 is_stmt 0 view .LVU1189
 4166 0120 4FF0FF30 		mov	r0, #-1
 4167 0124 CAE7     		b	.L306
 4168              	.L314:
1213:Middlewares/Third_Party/LwIP/src/apps/mqtt/mqtt.c ****   /* Packet id */
 4169              		.loc 1 1213 3 view .LVU1190
 4170 0126 0A21     		movs	r1, #10
 4171 0128 ABE7     		b	.L310
 4172              	.L322:
1220:Middlewares/Third_Party/LwIP/src/apps/mqtt/mqtt.c ****   }
 4173              		.loc 1 1220 5 is_stmt 1 view .LVU1191
 4174 012a 5146     		mov	r1, r10
 4175 012c 0229     		cmp	r1, #2
 4176 012e 28BF     		it	cs
 4177 0130 0221     		movcs	r1, #2
 4178 0132 3846     		mov	r0, r7
 4179 0134 FFF7FEFF 		bl	mqtt_output_append_u8
 4180              	.LVL458:
 4181 0138 B6E7     		b	.L311
 4182              	.LVL459:
 4183              	.L312:
1197:Middlewares/Third_Party/LwIP/src/apps/mqtt/mqtt.c ****   }
 4184              		.loc 1 1197 12 is_stmt 0 view .LVU1192
 4185 013a 6FF00A00 		mvn	r0, #10
 4186 013e BDE7     		b	.L306
 4187              	.LVL460:
 4188              	.L313:
1203:Middlewares/Third_Party/LwIP/src/apps/mqtt/mqtt.c ****   }
 4189              		.loc 1 1203 12 view .LVU1193
 4190 0140 4FF0FF30 		mov	r0, #-1
 4191              	.LVL461:
1203:Middlewares/Third_Party/LwIP/src/apps/mqtt/mqtt.c ****   }
 4192              		.loc 1 1203 12 view .LVU1194
 4193 0144 BAE7     		b	.L306
 4194              	.L324:
 4195 0146 00BF     		.align	2
 4196              	.L323:
 4197 0148 00000000 		.word	.LC0
 4198 014c 00000000 		.word	.LC25
 4199 0150 58000000 		.word	.LC2
 4200 0154 20000000 		.word	.LC26
 4201 0158 40000000 		.word	.LC27
 4202 015c 68000000 		.word	.LC28
 4203 0160 90000000 		.word	.LC29
 4204              		.cfi_endproc
 4205              	.LFE61:
 4207              		.section	.rodata.mqtt_set_inpub_callback.str1.4,"aMS",%progbits,1
 4208              		.align	2
 4209              	.LC30:
 4210 0000 6D717474 		.ascii	"mqtt_set_inpub_callback: client != NULL\000"
ARM GAS  D:\Dev\msys64\tmp\ccB7TkM7.s 			page 114


 4210      5F736574 
 4210      5F696E70 
 4210      75625F63 
 4210      616C6C62 
 4211              		.section	.text.mqtt_set_inpub_callback,"ax",%progbits
 4212              		.align	1
 4213              		.global	mqtt_set_inpub_callback
 4214              		.syntax unified
 4215              		.thumb
 4216              		.thumb_func
 4217              		.fpu fpv5-sp-d16
 4219              	mqtt_set_inpub_callback:
 4220              	.LVL462:
 4221              	.LFB62:
1227:Middlewares/Third_Party/LwIP/src/apps/mqtt/mqtt.c **** 
1228:Middlewares/Third_Party/LwIP/src/apps/mqtt/mqtt.c **** 
1229:Middlewares/Third_Party/LwIP/src/apps/mqtt/mqtt.c **** /**
1230:Middlewares/Third_Party/LwIP/src/apps/mqtt/mqtt.c ****  * @ingroup mqtt
1231:Middlewares/Third_Party/LwIP/src/apps/mqtt/mqtt.c ****  * Set callback to handle incoming publish requests from server
1232:Middlewares/Third_Party/LwIP/src/apps/mqtt/mqtt.c ****  * @param client MQTT client
1233:Middlewares/Third_Party/LwIP/src/apps/mqtt/mqtt.c ****  * @param pub_cb Callback invoked when publish starts, contain topic and total length of payload
1234:Middlewares/Third_Party/LwIP/src/apps/mqtt/mqtt.c ****  * @param data_cb Callback for each fragment of payload that arrives
1235:Middlewares/Third_Party/LwIP/src/apps/mqtt/mqtt.c ****  * @param arg User supplied argument to both callbacks
1236:Middlewares/Third_Party/LwIP/src/apps/mqtt/mqtt.c ****  */
1237:Middlewares/Third_Party/LwIP/src/apps/mqtt/mqtt.c **** void
1238:Middlewares/Third_Party/LwIP/src/apps/mqtt/mqtt.c **** mqtt_set_inpub_callback(mqtt_client_t *client, mqtt_incoming_publish_cb_t pub_cb,
1239:Middlewares/Third_Party/LwIP/src/apps/mqtt/mqtt.c ****                         mqtt_incoming_data_cb_t data_cb, void *arg)
1240:Middlewares/Third_Party/LwIP/src/apps/mqtt/mqtt.c **** {
 4222              		.loc 1 1240 1 is_stmt 1 view -0
 4223              		.cfi_startproc
 4224              		@ args = 0, pretend = 0, frame = 0
 4225              		@ frame_needed = 0, uses_anonymous_args = 0
 4226              		.loc 1 1240 1 is_stmt 0 view .LVU1196
 4227 0000 F8B5     		push	{r3, r4, r5, r6, r7, lr}
 4228              	.LCFI44:
 4229              		.cfi_def_cfa_offset 24
 4230              		.cfi_offset 3, -24
 4231              		.cfi_offset 4, -20
 4232              		.cfi_offset 5, -16
 4233              		.cfi_offset 6, -12
 4234              		.cfi_offset 7, -8
 4235              		.cfi_offset 14, -4
 4236 0002 0E46     		mov	r6, r1
 4237 0004 1746     		mov	r7, r2
 4238 0006 1D46     		mov	r5, r3
1241:Middlewares/Third_Party/LwIP/src/apps/mqtt/mqtt.c ****   LWIP_ASSERT_CORE_LOCKED();
 4239              		.loc 1 1241 28 is_stmt 1 view .LVU1197
1242:Middlewares/Third_Party/LwIP/src/apps/mqtt/mqtt.c ****   LWIP_ASSERT("mqtt_set_inpub_callback: client != NULL", client != NULL);
 4240              		.loc 1 1242 3 view .LVU1198
 4241              		.loc 1 1242 3 view .LVU1199
 4242 0008 0446     		mov	r4, r0
 4243 000a 18B1     		cbz	r0, .L328
 4244              	.LVL463:
 4245              	.L326:
 4246              		.loc 1 1242 3 discriminator 3 view .LVU1200
 4247              		.loc 1 1242 3 discriminator 3 view .LVU1201
1243:Middlewares/Third_Party/LwIP/src/apps/mqtt/mqtt.c ****   client->data_cb = data_cb;
ARM GAS  D:\Dev\msys64\tmp\ccB7TkM7.s 			page 115


 4248              		.loc 1 1243 3 discriminator 3 view .LVU1202
 4249              		.loc 1 1243 19 is_stmt 0 discriminator 3 view .LVU1203
 4250 000c 2766     		str	r7, [r4, #96]
1244:Middlewares/Third_Party/LwIP/src/apps/mqtt/mqtt.c ****   client->pub_cb = pub_cb;
 4251              		.loc 1 1244 3 is_stmt 1 discriminator 3 view .LVU1204
 4252              		.loc 1 1244 18 is_stmt 0 discriminator 3 view .LVU1205
 4253 000e 6666     		str	r6, [r4, #100]
1245:Middlewares/Third_Party/LwIP/src/apps/mqtt/mqtt.c ****   client->inpub_arg = arg;
 4254              		.loc 1 1245 3 is_stmt 1 discriminator 3 view .LVU1206
 4255              		.loc 1 1245 21 is_stmt 0 discriminator 3 view .LVU1207
 4256 0010 E565     		str	r5, [r4, #92]
1246:Middlewares/Third_Party/LwIP/src/apps/mqtt/mqtt.c **** }
 4257              		.loc 1 1246 1 discriminator 3 view .LVU1208
 4258 0012 F8BD     		pop	{r3, r4, r5, r6, r7, pc}
 4259              	.LVL464:
 4260              	.L328:
1242:Middlewares/Third_Party/LwIP/src/apps/mqtt/mqtt.c ****   client->data_cb = data_cb;
 4261              		.loc 1 1242 3 is_stmt 1 discriminator 1 view .LVU1209
1242:Middlewares/Third_Party/LwIP/src/apps/mqtt/mqtt.c ****   client->data_cb = data_cb;
 4262              		.loc 1 1242 3 discriminator 1 view .LVU1210
 4263 0014 034B     		ldr	r3, .L329
 4264              	.LVL465:
1242:Middlewares/Third_Party/LwIP/src/apps/mqtt/mqtt.c ****   client->data_cb = data_cb;
 4265              		.loc 1 1242 3 is_stmt 0 discriminator 1 view .LVU1211
 4266 0016 40F2DA42 		movw	r2, #1242
 4267              	.LVL466:
1242:Middlewares/Third_Party/LwIP/src/apps/mqtt/mqtt.c ****   client->data_cb = data_cb;
 4268              		.loc 1 1242 3 discriminator 1 view .LVU1212
 4269 001a 0349     		ldr	r1, .L329+4
 4270              	.LVL467:
1242:Middlewares/Third_Party/LwIP/src/apps/mqtt/mqtt.c ****   client->data_cb = data_cb;
 4271              		.loc 1 1242 3 discriminator 1 view .LVU1213
 4272 001c 0348     		ldr	r0, .L329+8
 4273              	.LVL468:
1242:Middlewares/Third_Party/LwIP/src/apps/mqtt/mqtt.c ****   client->data_cb = data_cb;
 4274              		.loc 1 1242 3 discriminator 1 view .LVU1214
 4275 001e FFF7FEFF 		bl	printf
 4276              	.LVL469:
 4277 0022 F3E7     		b	.L326
 4278              	.L330:
 4279              		.align	2
 4280              	.L329:
 4281 0024 00000000 		.word	.LC0
 4282 0028 00000000 		.word	.LC30
 4283 002c 58000000 		.word	.LC2
 4284              		.cfi_endproc
 4285              	.LFE62:
 4287              		.section	.text.mqtt_client_new,"ax",%progbits
 4288              		.align	1
 4289              		.global	mqtt_client_new
 4290              		.syntax unified
 4291              		.thumb
 4292              		.thumb_func
 4293              		.fpu fpv5-sp-d16
 4295              	mqtt_client_new:
 4296              	.LFB63:
1247:Middlewares/Third_Party/LwIP/src/apps/mqtt/mqtt.c **** 
ARM GAS  D:\Dev\msys64\tmp\ccB7TkM7.s 			page 116


1248:Middlewares/Third_Party/LwIP/src/apps/mqtt/mqtt.c **** /**
1249:Middlewares/Third_Party/LwIP/src/apps/mqtt/mqtt.c ****  * @ingroup mqtt
1250:Middlewares/Third_Party/LwIP/src/apps/mqtt/mqtt.c ****  * Create a new MQTT client instance
1251:Middlewares/Third_Party/LwIP/src/apps/mqtt/mqtt.c ****  * @return Pointer to instance on success, NULL otherwise
1252:Middlewares/Third_Party/LwIP/src/apps/mqtt/mqtt.c ****  */
1253:Middlewares/Third_Party/LwIP/src/apps/mqtt/mqtt.c **** mqtt_client_t *
1254:Middlewares/Third_Party/LwIP/src/apps/mqtt/mqtt.c **** mqtt_client_new(void)
1255:Middlewares/Third_Party/LwIP/src/apps/mqtt/mqtt.c **** {
 4297              		.loc 1 1255 1 is_stmt 1 view -0
 4298              		.cfi_startproc
 4299              		@ args = 0, pretend = 0, frame = 0
 4300              		@ frame_needed = 0, uses_anonymous_args = 0
 4301 0000 08B5     		push	{r3, lr}
 4302              	.LCFI45:
 4303              		.cfi_def_cfa_offset 8
 4304              		.cfi_offset 3, -8
 4305              		.cfi_offset 14, -4
1256:Middlewares/Third_Party/LwIP/src/apps/mqtt/mqtt.c ****   LWIP_ASSERT_CORE_LOCKED();
 4306              		.loc 1 1256 28 view .LVU1216
1257:Middlewares/Third_Party/LwIP/src/apps/mqtt/mqtt.c ****   return (mqtt_client_t *)mem_calloc(1, sizeof(mqtt_client_t));
 4307              		.loc 1 1257 3 view .LVU1217
 4308              		.loc 1 1257 27 is_stmt 0 view .LVU1218
 4309 0002 4FF4F871 		mov	r1, #496
 4310 0006 0120     		movs	r0, #1
 4311 0008 FFF7FEFF 		bl	mem_calloc
 4312              	.LVL470:
1258:Middlewares/Third_Party/LwIP/src/apps/mqtt/mqtt.c **** }
 4313              		.loc 1 1258 1 view .LVU1219
 4314 000c 08BD     		pop	{r3, pc}
 4315              		.cfi_endproc
 4316              	.LFE63:
 4318              		.section	.text.mqtt_client_free,"ax",%progbits
 4319              		.align	1
 4320              		.global	mqtt_client_free
 4321              		.syntax unified
 4322              		.thumb
 4323              		.thumb_func
 4324              		.fpu fpv5-sp-d16
 4326              	mqtt_client_free:
 4327              	.LVL471:
 4328              	.LFB64:
1259:Middlewares/Third_Party/LwIP/src/apps/mqtt/mqtt.c **** 
1260:Middlewares/Third_Party/LwIP/src/apps/mqtt/mqtt.c **** /**
1261:Middlewares/Third_Party/LwIP/src/apps/mqtt/mqtt.c ****  * @ingroup mqtt
1262:Middlewares/Third_Party/LwIP/src/apps/mqtt/mqtt.c ****  * Free MQTT client instance
1263:Middlewares/Third_Party/LwIP/src/apps/mqtt/mqtt.c ****  * @param client Pointer to instance to be freed
1264:Middlewares/Third_Party/LwIP/src/apps/mqtt/mqtt.c ****  */
1265:Middlewares/Third_Party/LwIP/src/apps/mqtt/mqtt.c **** void
1266:Middlewares/Third_Party/LwIP/src/apps/mqtt/mqtt.c **** mqtt_client_free(mqtt_client_t *client)
1267:Middlewares/Third_Party/LwIP/src/apps/mqtt/mqtt.c **** {
 4329              		.loc 1 1267 1 is_stmt 1 view -0
 4330              		.cfi_startproc
 4331              		@ args = 0, pretend = 0, frame = 0
 4332              		@ frame_needed = 0, uses_anonymous_args = 0
 4333              		.loc 1 1267 1 is_stmt 0 view .LVU1221
 4334 0000 08B5     		push	{r3, lr}
 4335              	.LCFI46:
ARM GAS  D:\Dev\msys64\tmp\ccB7TkM7.s 			page 117


 4336              		.cfi_def_cfa_offset 8
 4337              		.cfi_offset 3, -8
 4338              		.cfi_offset 14, -4
1268:Middlewares/Third_Party/LwIP/src/apps/mqtt/mqtt.c ****   mem_free(client);
 4339              		.loc 1 1268 3 is_stmt 1 view .LVU1222
 4340 0002 FFF7FEFF 		bl	mem_free
 4341              	.LVL472:
1269:Middlewares/Third_Party/LwIP/src/apps/mqtt/mqtt.c **** }
 4342              		.loc 1 1269 1 is_stmt 0 view .LVU1223
 4343 0006 08BD     		pop	{r3, pc}
 4344              		.cfi_endproc
 4345              	.LFE64:
 4347              		.section	.rodata.mqtt_client_connect.str1.4,"aMS",%progbits,1
 4348              		.align	2
 4349              	.LC31:
 4350 0000 6D717474 		.ascii	"mqtt_client_connect: client != NULL\000"
 4350      5F636C69 
 4350      656E745F 
 4350      636F6E6E 
 4350      6563743A 
 4351              		.align	2
 4352              	.LC32:
 4353 0024 6D717474 		.ascii	"mqtt_client_connect: ip_addr != NULL\000"
 4353      5F636C69 
 4353      656E745F 
 4353      636F6E6E 
 4353      6563743A 
 4354 0049 000000   		.align	2
 4355              	.LC33:
 4356 004c 6D717474 		.ascii	"mqtt_client_connect: client_info != NULL\000"
 4356      5F636C69 
 4356      656E745F 
 4356      636F6E6E 
 4356      6563743A 
 4357 0075 000000   		.align	2
 4358              	.LC34:
 4359 0078 6D717474 		.ascii	"mqtt_client_connect: client_info->client_id != NULL"
 4359      5F636C69 
 4359      656E745F 
 4359      636F6E6E 
 4359      6563743A 
 4360 00ab 00       		.ascii	"\000"
 4361              		.align	2
 4362              	.LC35:
 4363 00ac 6D717474 		.ascii	"mqtt_client_connect: client_info->will_topic length"
 4363      5F636C69 
 4363      656E745F 
 4363      636F6E6E 
 4363      6563743A 
 4364 00df 206F7665 		.ascii	" overflow\000"
 4364      72666C6F 
 4364      7700
 4365 00e9 000000   		.align	2
 4366              	.LC36:
 4367 00ec 6D717474 		.ascii	"mqtt_client_connect: client_info->will_topic length"
 4367      5F636C69 
 4367      656E745F 
ARM GAS  D:\Dev\msys64\tmp\ccB7TkM7.s 			page 118


 4367      636F6E6E 
 4367      6563743A 
 4368 011f 206D7573 		.ascii	" must be > 0\000"
 4368      74206265 
 4368      203E2030 
 4368      00
 4369              		.align	2
 4370              	.LC37:
 4371 012c 6D717474 		.ascii	"mqtt_client_connect: client_info->will_msg length o"
 4371      5F636C69 
 4371      656E745F 
 4371      636F6E6E 
 4371      6563743A 
 4372 015f 76657266 		.ascii	"verflow\000"
 4372      6C6F7700 
 4373 0167 00       		.align	2
 4374              	.LC38:
 4375 0168 6D717474 		.ascii	"mqtt_client_connect: remaining_length overflow\000"
 4375      5F636C69 
 4375      656E745F 
 4375      636F6E6E 
 4375      6563743A 
 4376 0197 00       		.align	2
 4377              	.LC39:
 4378 0198 6D717474 		.ascii	"mqtt_client_connect: client_info->client_user lengt"
 4378      5F636C69 
 4378      656E745F 
 4378      636F6E6E 
 4378      6563743A 
 4379 01cb 68206F76 		.ascii	"h overflow\000"
 4379      6572666C 
 4379      6F7700
 4380 01d6 0000     		.align	2
 4381              	.LC40:
 4382 01d8 6D717474 		.ascii	"mqtt_client_connect: client_info->client_user lengt"
 4382      5F636C69 
 4382      656E745F 
 4382      636F6E6E 
 4382      6563743A 
 4383 020b 68206D75 		.ascii	"h must be > 0\000"
 4383      73742062 
 4383      65203E20 
 4383      3000
 4384 0219 000000   		.align	2
 4385              	.LC41:
 4386 021c 6D717474 		.ascii	"mqtt_client_connect: client_info->client_pass lengt"
 4386      5F636C69 
 4386      656E745F 
 4386      636F6E6E 
 4386      6563743A 
 4387 024f 68206F76 		.ascii	"h overflow\000"
 4387      6572666C 
 4387      6F7700
 4388 025a 0000     		.align	2
 4389              	.LC42:
 4390 025c 6D717474 		.ascii	"mqtt_client_connect: client_info->client_pass lengt"
 4390      5F636C69 
ARM GAS  D:\Dev\msys64\tmp\ccB7TkM7.s 			page 119


 4390      656E745F 
 4390      636F6E6E 
 4390      6563743A 
 4391 028f 68206D75 		.ascii	"h must be > 0\000"
 4391      73742062 
 4391      65203E20 
 4391      3000
 4392 029d 000000   		.align	2
 4393              	.LC43:
 4394 02a0 6D717474 		.ascii	"mqtt_client_connect: client_info->client_id length "
 4394      5F636C69 
 4394      656E745F 
 4394      636F6E6E 
 4394      6563743A 
 4395 02d3 6F766572 		.ascii	"overflow\000"
 4395      666C6F77 
 4395      00
 4396              		.align	2
 4397              	.LC44:
 4398 02dc 4D515454 		.ascii	"MQTT\000"
 4398      00
 4399              		.section	.text.mqtt_client_connect,"ax",%progbits
 4400              		.align	1
 4401              		.global	mqtt_client_connect
 4402              		.syntax unified
 4403              		.thumb
 4404              		.thumb_func
 4405              		.fpu fpv5-sp-d16
 4407              	mqtt_client_connect:
 4408              	.LVL473:
 4409              	.LFB65:
1270:Middlewares/Third_Party/LwIP/src/apps/mqtt/mqtt.c **** 
1271:Middlewares/Third_Party/LwIP/src/apps/mqtt/mqtt.c **** /**
1272:Middlewares/Third_Party/LwIP/src/apps/mqtt/mqtt.c ****  * @ingroup mqtt
1273:Middlewares/Third_Party/LwIP/src/apps/mqtt/mqtt.c ****  * Connect to MQTT server
1274:Middlewares/Third_Party/LwIP/src/apps/mqtt/mqtt.c ****  * @param client MQTT client
1275:Middlewares/Third_Party/LwIP/src/apps/mqtt/mqtt.c ****  * @param ip_addr Server IP
1276:Middlewares/Third_Party/LwIP/src/apps/mqtt/mqtt.c ****  * @param port Server port
1277:Middlewares/Third_Party/LwIP/src/apps/mqtt/mqtt.c ****  * @param cb Connection state change callback
1278:Middlewares/Third_Party/LwIP/src/apps/mqtt/mqtt.c ****  * @param arg User supplied argument to connection callback
1279:Middlewares/Third_Party/LwIP/src/apps/mqtt/mqtt.c ****  * @param client_info Client identification and connection options
1280:Middlewares/Third_Party/LwIP/src/apps/mqtt/mqtt.c ****  * @return ERR_OK if successful, @see err_t enum for other results
1281:Middlewares/Third_Party/LwIP/src/apps/mqtt/mqtt.c ****  */
1282:Middlewares/Third_Party/LwIP/src/apps/mqtt/mqtt.c **** err_t
1283:Middlewares/Third_Party/LwIP/src/apps/mqtt/mqtt.c **** mqtt_client_connect(mqtt_client_t *client, const ip_addr_t *ip_addr, u16_t port, mqtt_connection_cb
1284:Middlewares/Third_Party/LwIP/src/apps/mqtt/mqtt.c ****                     const struct mqtt_connect_client_info_t *client_info)
1285:Middlewares/Third_Party/LwIP/src/apps/mqtt/mqtt.c **** {
 4410              		.loc 1 1285 1 is_stmt 1 view -0
 4411              		.cfi_startproc
 4412              		@ args = 8, pretend = 0, frame = 24
 4413              		@ frame_needed = 0, uses_anonymous_args = 0
 4414              		.loc 1 1285 1 is_stmt 0 view .LVU1225
 4415 0000 2DE9F04F 		push	{r4, r5, r6, r7, r8, r9, r10, fp, lr}
 4416              	.LCFI47:
 4417              		.cfi_def_cfa_offset 36
 4418              		.cfi_offset 4, -36
 4419              		.cfi_offset 5, -32
ARM GAS  D:\Dev\msys64\tmp\ccB7TkM7.s 			page 120


 4420              		.cfi_offset 6, -28
 4421              		.cfi_offset 7, -24
 4422              		.cfi_offset 8, -20
 4423              		.cfi_offset 9, -16
 4424              		.cfi_offset 10, -12
 4425              		.cfi_offset 11, -8
 4426              		.cfi_offset 14, -4
 4427 0004 89B0     		sub	sp, sp, #36
 4428              	.LCFI48:
 4429              		.cfi_def_cfa_offset 72
 4430 0006 0291     		str	r1, [sp, #8]
 4431 0008 0492     		str	r2, [sp, #16]
 4432 000a 1C46     		mov	r4, r3
 4433 000c 139F     		ldr	r7, [sp, #76]
1286:Middlewares/Third_Party/LwIP/src/apps/mqtt/mqtt.c ****   err_t err;
 4434              		.loc 1 1286 3 is_stmt 1 view .LVU1226
1287:Middlewares/Third_Party/LwIP/src/apps/mqtt/mqtt.c ****   size_t len;
 4435              		.loc 1 1287 3 view .LVU1227
1288:Middlewares/Third_Party/LwIP/src/apps/mqtt/mqtt.c ****   u16_t client_id_length;
 4436              		.loc 1 1288 3 view .LVU1228
1289:Middlewares/Third_Party/LwIP/src/apps/mqtt/mqtt.c ****   /* Length is the sum of 2+"MQTT", protocol level, flags and keep alive */
1290:Middlewares/Third_Party/LwIP/src/apps/mqtt/mqtt.c ****   u16_t remaining_length = 2 + 4 + 1 + 1 + 2;
 4437              		.loc 1 1290 3 view .LVU1229
 4438              	.LVL474:
1291:Middlewares/Third_Party/LwIP/src/apps/mqtt/mqtt.c ****   u8_t flags = 0, will_topic_len = 0, will_msg_len = 0;
 4439              		.loc 1 1291 3 view .LVU1230
1292:Middlewares/Third_Party/LwIP/src/apps/mqtt/mqtt.c ****   u16_t client_user_len = 0, client_pass_len = 0;
 4440              		.loc 1 1292 3 view .LVU1231
1293:Middlewares/Third_Party/LwIP/src/apps/mqtt/mqtt.c **** 
1294:Middlewares/Third_Party/LwIP/src/apps/mqtt/mqtt.c ****   LWIP_ASSERT_CORE_LOCKED();
 4441              		.loc 1 1294 28 view .LVU1232
1295:Middlewares/Third_Party/LwIP/src/apps/mqtt/mqtt.c ****   LWIP_ASSERT("mqtt_client_connect: client != NULL", client != NULL);
 4442              		.loc 1 1295 3 view .LVU1233
 4443              		.loc 1 1295 3 view .LVU1234
 4444 000e 0546     		mov	r5, r0
 4445 0010 0028     		cmp	r0, #0
 4446 0012 00F0B280 		beq	.L368
 4447              	.LVL475:
 4448              	.L336:
 4449              		.loc 1 1295 3 discriminator 3 view .LVU1235
 4450              		.loc 1 1295 3 discriminator 3 view .LVU1236
1296:Middlewares/Third_Party/LwIP/src/apps/mqtt/mqtt.c ****   LWIP_ASSERT("mqtt_client_connect: ip_addr != NULL", ip_addr != NULL);
 4451              		.loc 1 1296 3 discriminator 3 view .LVU1237
 4452              		.loc 1 1296 3 discriminator 3 view .LVU1238
 4453 0016 029B     		ldr	r3, [sp, #8]
 4454 0018 002B     		cmp	r3, #0
 4455 001a 00F0B680 		beq	.L369
 4456              	.L337:
 4457              		.loc 1 1296 3 discriminator 3 view .LVU1239
 4458              		.loc 1 1296 3 discriminator 3 view .LVU1240
1297:Middlewares/Third_Party/LwIP/src/apps/mqtt/mqtt.c ****   LWIP_ASSERT("mqtt_client_connect: client_info != NULL", client_info != NULL);
 4459              		.loc 1 1297 3 discriminator 3 view .LVU1241
 4460              		.loc 1 1297 3 discriminator 3 view .LVU1242
 4461 001e 002F     		cmp	r7, #0
 4462 0020 00F0BB80 		beq	.L370
 4463              	.L338:
 4464              		.loc 1 1297 3 discriminator 3 view .LVU1243
ARM GAS  D:\Dev\msys64\tmp\ccB7TkM7.s 			page 121


 4465              		.loc 1 1297 3 discriminator 3 view .LVU1244
1298:Middlewares/Third_Party/LwIP/src/apps/mqtt/mqtt.c ****   LWIP_ASSERT("mqtt_client_connect: client_info->client_id != NULL", client_info->client_id != NULL
 4466              		.loc 1 1298 3 discriminator 3 view .LVU1245
 4467              		.loc 1 1298 3 discriminator 3 view .LVU1246
 4468 0024 3A68     		ldr	r2, [r7]
 4469 0026 002A     		cmp	r2, #0
 4470 0028 00F0BF80 		beq	.L371
 4471              	.L339:
 4472              		.loc 1 1298 3 discriminator 3 view .LVU1247
 4473              		.loc 1 1298 3 discriminator 3 view .LVU1248
1299:Middlewares/Third_Party/LwIP/src/apps/mqtt/mqtt.c **** 
1300:Middlewares/Third_Party/LwIP/src/apps/mqtt/mqtt.c ****   if (client->conn_state != TCP_DISCONNECTED) {
 4474              		.loc 1 1300 3 discriminator 3 view .LVU1249
 4475              		.loc 1 1300 13 is_stmt 0 discriminator 3 view .LVU1250
 4476 002c AE7A     		ldrb	r6, [r5, #10]	@ zero_extendqisi2
 4477              		.loc 1 1300 6 discriminator 3 view .LVU1251
 4478 002e 002E     		cmp	r6, #0
 4479 0030 40F09B81 		bne	.L360
1301:Middlewares/Third_Party/LwIP/src/apps/mqtt/mqtt.c ****     LWIP_DEBUGF(MQTT_DEBUG_WARN, ("mqtt_client_connect: Already connected\n"));
1302:Middlewares/Third_Party/LwIP/src/apps/mqtt/mqtt.c ****     return ERR_ISCONN;
1303:Middlewares/Third_Party/LwIP/src/apps/mqtt/mqtt.c ****   }
1304:Middlewares/Third_Party/LwIP/src/apps/mqtt/mqtt.c **** 
1305:Middlewares/Third_Party/LwIP/src/apps/mqtt/mqtt.c ****   /* Wipe clean */
1306:Middlewares/Third_Party/LwIP/src/apps/mqtt/mqtt.c ****   memset(client, 0, sizeof(mqtt_client_t));
 4480              		.loc 1 1306 3 is_stmt 1 view .LVU1252
 4481 0034 4FF4F872 		mov	r2, #496
 4482 0038 0021     		movs	r1, #0
 4483 003a 2846     		mov	r0, r5
 4484 003c FFF7FEFF 		bl	memset
 4485              	.LVL476:
1307:Middlewares/Third_Party/LwIP/src/apps/mqtt/mqtt.c ****   client->connect_arg = arg;
 4486              		.loc 1 1307 3 view .LVU1253
 4487              		.loc 1 1307 23 is_stmt 0 view .LVU1254
 4488 0040 129B     		ldr	r3, [sp, #72]
 4489 0042 2B61     		str	r3, [r5, #16]
1308:Middlewares/Third_Party/LwIP/src/apps/mqtt/mqtt.c ****   client->connect_cb = cb;
 4490              		.loc 1 1308 3 is_stmt 1 view .LVU1255
 4491              		.loc 1 1308 22 is_stmt 0 view .LVU1256
 4492 0044 6C61     		str	r4, [r5, #20]
1309:Middlewares/Third_Party/LwIP/src/apps/mqtt/mqtt.c ****   client->keep_alive = client_info->keep_alive;
 4493              		.loc 1 1309 3 is_stmt 1 view .LVU1257
 4494              		.loc 1 1309 35 is_stmt 0 view .LVU1258
 4495 0046 BB89     		ldrh	r3, [r7, #12]
 4496              		.loc 1 1309 22 view .LVU1259
 4497 0048 6B80     		strh	r3, [r5, #2]	@ movhi
1310:Middlewares/Third_Party/LwIP/src/apps/mqtt/mqtt.c ****   mqtt_init_requests(client->req_list, LWIP_ARRAYSIZE(client->req_list));
 4498              		.loc 1 1310 3 is_stmt 1 view .LVU1260
 4499 004a 0421     		movs	r1, #4
 4500 004c 05F11C00 		add	r0, r5, #28
 4501 0050 FFF7FEFF 		bl	mqtt_init_requests
 4502              	.LVL477:
1311:Middlewares/Third_Party/LwIP/src/apps/mqtt/mqtt.c **** 
1312:Middlewares/Third_Party/LwIP/src/apps/mqtt/mqtt.c ****   /* Build connect message */
1313:Middlewares/Third_Party/LwIP/src/apps/mqtt/mqtt.c ****   if (client_info->will_topic != NULL && client_info->will_msg != NULL) {
 4503              		.loc 1 1313 3 view .LVU1261
 4504              		.loc 1 1313 18 is_stmt 0 view .LVU1262
 4505 0054 3869     		ldr	r0, [r7, #16]
ARM GAS  D:\Dev\msys64\tmp\ccB7TkM7.s 			page 122


 4506              		.loc 1 1313 6 view .LVU1263
 4507 0056 0028     		cmp	r0, #0
 4508 0058 00F0D080 		beq	.L361
 4509              		.loc 1 1313 53 discriminator 1 view .LVU1264
 4510 005c D7F81480 		ldr	r8, [r7, #20]
 4511              		.loc 1 1313 39 discriminator 1 view .LVU1265
 4512 0060 B8F1000F 		cmp	r8, #0
 4513 0064 00F0CE80 		beq	.L362
1314:Middlewares/Third_Party/LwIP/src/apps/mqtt/mqtt.c ****     flags |= MQTT_CONNECT_FLAG_WILL;
 4514              		.loc 1 1314 5 is_stmt 1 view .LVU1266
 4515              	.LVL478:
1315:Middlewares/Third_Party/LwIP/src/apps/mqtt/mqtt.c ****     flags |= (client_info->will_qos & 3) << 3;
 4516              		.loc 1 1315 5 view .LVU1267
 4517              		.loc 1 1315 26 is_stmt 0 view .LVU1268
 4518 0068 3E7E     		ldrb	r6, [r7, #24]	@ zero_extendqisi2
 4519              		.loc 1 1315 42 view .LVU1269
 4520 006a F600     		lsls	r6, r6, #3
 4521 006c 06F01806 		and	r6, r6, #24
 4522              		.loc 1 1315 11 view .LVU1270
 4523 0070 46F00406 		orr	r6, r6, #4
 4524              	.LVL479:
1316:Middlewares/Third_Party/LwIP/src/apps/mqtt/mqtt.c ****     if (client_info->will_retain) {
 4525              		.loc 1 1316 5 is_stmt 1 view .LVU1271
 4526              		.loc 1 1316 20 is_stmt 0 view .LVU1272
 4527 0074 7B7E     		ldrb	r3, [r7, #25]	@ zero_extendqisi2
 4528              		.loc 1 1316 8 view .LVU1273
 4529 0076 0BB1     		cbz	r3, .L342
1317:Middlewares/Third_Party/LwIP/src/apps/mqtt/mqtt.c ****       flags |= MQTT_CONNECT_FLAG_WILL_RETAIN;
 4530              		.loc 1 1317 7 is_stmt 1 view .LVU1274
 4531              		.loc 1 1317 13 is_stmt 0 view .LVU1275
 4532 0078 46F02006 		orr	r6, r6, #32
 4533              	.LVL480:
 4534              	.L342:
1318:Middlewares/Third_Party/LwIP/src/apps/mqtt/mqtt.c ****     }
1319:Middlewares/Third_Party/LwIP/src/apps/mqtt/mqtt.c ****     len = strlen(client_info->will_topic);
 4535              		.loc 1 1319 5 is_stmt 1 view .LVU1276
 4536              		.loc 1 1319 11 is_stmt 0 view .LVU1277
 4537 007c FFF7FEFF 		bl	strlen
 4538              	.LVL481:
 4539 0080 0446     		mov	r4, r0
 4540              	.LVL482:
1320:Middlewares/Third_Party/LwIP/src/apps/mqtt/mqtt.c ****     LWIP_ERROR("mqtt_client_connect: client_info->will_topic length overflow", len <= 0xFF, return 
 4541              		.loc 1 1320 5 is_stmt 1 view .LVU1278
 4542              		.loc 1 1320 5 view .LVU1279
 4543 0082 FF28     		cmp	r0, #255
 4544 0084 00F29980 		bhi	.L372
 4545              		.loc 1 1320 5 discriminator 2 view .LVU1280
1321:Middlewares/Third_Party/LwIP/src/apps/mqtt/mqtt.c ****     LWIP_ERROR("mqtt_client_connect: client_info->will_topic length must be > 0", len > 0, return E
 4546              		.loc 1 1321 5 discriminator 2 view .LVU1281
 4547              		.loc 1 1321 5 discriminator 2 view .LVU1282
 4548 0088 0028     		cmp	r0, #0
 4549 008a 00F0A180 		beq	.L373
 4550              		.loc 1 1321 5 discriminator 2 view .LVU1283
1322:Middlewares/Third_Party/LwIP/src/apps/mqtt/mqtt.c ****     will_topic_len = (u8_t)len;
 4551              		.loc 1 1322 5 discriminator 2 view .LVU1284
 4552              		.loc 1 1322 20 is_stmt 0 discriminator 2 view .LVU1285
 4553 008e C3B2     		uxtb	r3, r0
ARM GAS  D:\Dev\msys64\tmp\ccB7TkM7.s 			page 123


 4554 0090 0693     		str	r3, [sp, #24]
 4555              	.LVL483:
1323:Middlewares/Third_Party/LwIP/src/apps/mqtt/mqtt.c ****     len = strlen(client_info->will_msg);
 4556              		.loc 1 1323 5 is_stmt 1 discriminator 2 view .LVU1286
 4557              		.loc 1 1323 11 is_stmt 0 discriminator 2 view .LVU1287
 4558 0092 4046     		mov	r0, r8
 4559              	.LVL484:
 4560              		.loc 1 1323 11 discriminator 2 view .LVU1288
 4561 0094 FFF7FEFF 		bl	strlen
 4562              	.LVL485:
1324:Middlewares/Third_Party/LwIP/src/apps/mqtt/mqtt.c ****     LWIP_ERROR("mqtt_client_connect: client_info->will_msg length overflow", len <= 0xFF, return ER
 4563              		.loc 1 1324 5 is_stmt 1 discriminator 2 view .LVU1289
 4564              		.loc 1 1324 5 discriminator 2 view .LVU1290
 4565 0098 FF28     		cmp	r0, #255
 4566 009a 00F2A480 		bhi	.L374
 4567              		.loc 1 1324 5 discriminator 2 view .LVU1291
1325:Middlewares/Third_Party/LwIP/src/apps/mqtt/mqtt.c ****     will_msg_len = (u8_t)len;
 4568              		.loc 1 1325 5 discriminator 2 view .LVU1292
 4569              		.loc 1 1325 18 is_stmt 0 discriminator 2 view .LVU1293
 4570 009e C3B2     		uxtb	r3, r0
 4571 00a0 0793     		str	r3, [sp, #28]
 4572              	.LVL486:
1326:Middlewares/Third_Party/LwIP/src/apps/mqtt/mqtt.c ****     len = remaining_length + 2 + will_topic_len + 2 + will_msg_len;
 4573              		.loc 1 1326 5 is_stmt 1 discriminator 2 view .LVU1294
 4574              		.loc 1 1326 32 is_stmt 0 discriminator 2 view .LVU1295
 4575 00a2 E4B2     		uxtb	r4, r4
 4576              		.loc 1 1326 49 discriminator 2 view .LVU1296
 4577 00a4 0E34     		adds	r4, r4, #14
 4578              		.loc 1 1326 53 discriminator 2 view .LVU1297
 4579 00a6 1C44     		add	r4, r4, r3
 4580              	.LVL487:
1327:Middlewares/Third_Party/LwIP/src/apps/mqtt/mqtt.c ****     LWIP_ERROR("mqtt_client_connect: remaining_length overflow", len <= 0xFFFF, return ERR_VAL);
 4581              		.loc 1 1327 5 is_stmt 1 discriminator 2 view .LVU1298
 4582              		.loc 1 1327 5 discriminator 2 view .LVU1299
 4583              		.loc 1 1327 5 discriminator 2 view .LVU1300
1328:Middlewares/Third_Party/LwIP/src/apps/mqtt/mqtt.c ****     remaining_length = (u16_t)len;
 4584              		.loc 1 1328 5 discriminator 2 view .LVU1301
 4585              		.loc 1 1328 22 is_stmt 0 discriminator 2 view .LVU1302
 4586 00a8 A4B2     		uxth	r4, r4
 4587              	.LVL488:
 4588              	.L341:
1329:Middlewares/Third_Party/LwIP/src/apps/mqtt/mqtt.c ****   }
1330:Middlewares/Third_Party/LwIP/src/apps/mqtt/mqtt.c ****   if (client_info->client_user != NULL) {
 4589              		.loc 1 1330 3 is_stmt 1 view .LVU1303
 4590              		.loc 1 1330 18 is_stmt 0 view .LVU1304
 4591 00aa 7868     		ldr	r0, [r7, #4]
 4592              		.loc 1 1330 6 view .LVU1305
 4593 00ac 0028     		cmp	r0, #0
 4594 00ae 00F0CE80 		beq	.L363
1331:Middlewares/Third_Party/LwIP/src/apps/mqtt/mqtt.c ****     flags |= MQTT_CONNECT_FLAG_USERNAME;
 4595              		.loc 1 1331 5 is_stmt 1 view .LVU1306
 4596              		.loc 1 1331 11 is_stmt 0 view .LVU1307
 4597 00b2 46F08006 		orr	r6, r6, #128
 4598              	.LVL489:
1332:Middlewares/Third_Party/LwIP/src/apps/mqtt/mqtt.c ****     len = strlen(client_info->client_user);
 4599              		.loc 1 1332 5 is_stmt 1 view .LVU1308
 4600              		.loc 1 1332 11 is_stmt 0 view .LVU1309
ARM GAS  D:\Dev\msys64\tmp\ccB7TkM7.s 			page 124


 4601 00b6 FFF7FEFF 		bl	strlen
 4602              	.LVL490:
1333:Middlewares/Third_Party/LwIP/src/apps/mqtt/mqtt.c ****     LWIP_ERROR("mqtt_client_connect: client_info->client_user length overflow", len <= 0xFFFF, retu
 4603              		.loc 1 1333 5 is_stmt 1 view .LVU1310
 4604              		.loc 1 1333 5 view .LVU1311
 4605 00ba B0F5803F 		cmp	r0, #65536
 4606 00be 80F0A580 		bcs	.L375
 4607              		.loc 1 1333 5 discriminator 2 view .LVU1312
1334:Middlewares/Third_Party/LwIP/src/apps/mqtt/mqtt.c ****     LWIP_ERROR("mqtt_client_connect: client_info->client_user length must be > 0", len > 0, return 
 4608              		.loc 1 1334 5 discriminator 2 view .LVU1313
 4609              		.loc 1 1334 5 discriminator 2 view .LVU1314
 4610 00c2 0028     		cmp	r0, #0
 4611 00c4 00F0AD80 		beq	.L376
 4612              		.loc 1 1334 5 discriminator 2 view .LVU1315
1335:Middlewares/Third_Party/LwIP/src/apps/mqtt/mqtt.c ****     client_user_len = (u16_t)len;
 4613              		.loc 1 1335 5 discriminator 2 view .LVU1316
 4614              		.loc 1 1335 21 is_stmt 0 discriminator 2 view .LVU1317
 4615 00c8 1FFA80F9 		uxth	r9, r0
 4616              	.LVL491:
1336:Middlewares/Third_Party/LwIP/src/apps/mqtt/mqtt.c ****     len = remaining_length + 2 + client_user_len;
 4617              		.loc 1 1336 5 is_stmt 1 discriminator 2 view .LVU1318
 4618              		.loc 1 1336 28 is_stmt 0 discriminator 2 view .LVU1319
 4619 00cc 0234     		adds	r4, r4, #2
 4620              	.LVL492:
 4621              		.loc 1 1336 32 discriminator 2 view .LVU1320
 4622 00ce 4C44     		add	r4, r4, r9
 4623              	.LVL493:
1337:Middlewares/Third_Party/LwIP/src/apps/mqtt/mqtt.c ****     LWIP_ERROR("mqtt_client_connect: remaining_length overflow", len <= 0xFFFF, return ERR_VAL);
 4624              		.loc 1 1337 5 is_stmt 1 discriminator 2 view .LVU1321
 4625              		.loc 1 1337 5 discriminator 2 view .LVU1322
 4626 00d0 B4F5803F 		cmp	r4, #65536
 4627 00d4 80F0B080 		bcs	.L377
 4628              		.loc 1 1337 5 discriminator 2 view .LVU1323
1338:Middlewares/Third_Party/LwIP/src/apps/mqtt/mqtt.c ****     remaining_length = (u16_t)len;
 4629              		.loc 1 1338 5 discriminator 2 view .LVU1324
 4630              		.loc 1 1338 22 is_stmt 0 discriminator 2 view .LVU1325
 4631 00d8 A4B2     		uxth	r4, r4
 4632              	.LVL494:
 4633              	.L347:
1339:Middlewares/Third_Party/LwIP/src/apps/mqtt/mqtt.c ****   }
1340:Middlewares/Third_Party/LwIP/src/apps/mqtt/mqtt.c ****   if (client_info->client_pass != NULL) {
 4634              		.loc 1 1340 3 is_stmt 1 view .LVU1326
 4635              		.loc 1 1340 18 is_stmt 0 view .LVU1327
 4636 00da B868     		ldr	r0, [r7, #8]
 4637              		.loc 1 1340 6 view .LVU1328
 4638 00dc 0028     		cmp	r0, #0
 4639 00de 00F0DA80 		beq	.L364
1341:Middlewares/Third_Party/LwIP/src/apps/mqtt/mqtt.c ****     flags |= MQTT_CONNECT_FLAG_PASSWORD;
 4640              		.loc 1 1341 5 is_stmt 1 view .LVU1329
 4641              		.loc 1 1341 11 is_stmt 0 view .LVU1330
 4642 00e2 46F04006 		orr	r6, r6, #64
 4643              	.LVL495:
1342:Middlewares/Third_Party/LwIP/src/apps/mqtt/mqtt.c ****     len = strlen(client_info->client_pass);
 4644              		.loc 1 1342 5 is_stmt 1 view .LVU1331
 4645              		.loc 1 1342 11 is_stmt 0 view .LVU1332
 4646 00e6 FFF7FEFF 		bl	strlen
 4647              	.LVL496:
ARM GAS  D:\Dev\msys64\tmp\ccB7TkM7.s 			page 125


1343:Middlewares/Third_Party/LwIP/src/apps/mqtt/mqtt.c ****     LWIP_ERROR("mqtt_client_connect: client_info->client_pass length overflow", len <= 0xFFFF, retu
 4648              		.loc 1 1343 5 is_stmt 1 view .LVU1333
 4649              		.loc 1 1343 5 view .LVU1334
 4650 00ea B0F5803F 		cmp	r0, #65536
 4651 00ee 80F0B180 		bcs	.L378
 4652              		.loc 1 1343 5 discriminator 2 view .LVU1335
1344:Middlewares/Third_Party/LwIP/src/apps/mqtt/mqtt.c ****     LWIP_ERROR("mqtt_client_connect: client_info->client_pass length must be > 0", len > 0, return 
 4653              		.loc 1 1344 5 discriminator 2 view .LVU1336
 4654              		.loc 1 1344 5 discriminator 2 view .LVU1337
 4655 00f2 0028     		cmp	r0, #0
 4656 00f4 00F0B980 		beq	.L379
 4657              		.loc 1 1344 5 discriminator 2 view .LVU1338
1345:Middlewares/Third_Party/LwIP/src/apps/mqtt/mqtt.c ****     client_pass_len = (u16_t)len;
 4658              		.loc 1 1345 5 discriminator 2 view .LVU1339
 4659              		.loc 1 1345 21 is_stmt 0 discriminator 2 view .LVU1340
 4660 00f8 1FFA80FB 		uxth	fp, r0
 4661              	.LVL497:
1346:Middlewares/Third_Party/LwIP/src/apps/mqtt/mqtt.c ****     len = remaining_length + 2 + client_pass_len;
 4662              		.loc 1 1346 5 is_stmt 1 discriminator 2 view .LVU1341
 4663              		.loc 1 1346 28 is_stmt 0 discriminator 2 view .LVU1342
 4664 00fc 0234     		adds	r4, r4, #2
 4665              	.LVL498:
 4666              		.loc 1 1346 32 discriminator 2 view .LVU1343
 4667 00fe 5C44     		add	r4, r4, fp
 4668              	.LVL499:
1347:Middlewares/Third_Party/LwIP/src/apps/mqtt/mqtt.c ****     LWIP_ERROR("mqtt_client_connect: remaining_length overflow", len <= 0xFFFF, return ERR_VAL);
 4669              		.loc 1 1347 5 is_stmt 1 discriminator 2 view .LVU1344
 4670              		.loc 1 1347 5 discriminator 2 view .LVU1345
 4671 0100 B4F5803F 		cmp	r4, #65536
 4672 0104 80F0BC80 		bcs	.L380
 4673              		.loc 1 1347 5 discriminator 2 view .LVU1346
1348:Middlewares/Third_Party/LwIP/src/apps/mqtt/mqtt.c ****     remaining_length = (u16_t)len;
 4674              		.loc 1 1348 5 discriminator 2 view .LVU1347
 4675              		.loc 1 1348 22 is_stmt 0 discriminator 2 view .LVU1348
 4676 0108 A4B2     		uxth	r4, r4
 4677              	.LVL500:
 4678              	.L351:
1349:Middlewares/Third_Party/LwIP/src/apps/mqtt/mqtt.c ****   }
1350:Middlewares/Third_Party/LwIP/src/apps/mqtt/mqtt.c **** 
1351:Middlewares/Third_Party/LwIP/src/apps/mqtt/mqtt.c ****   /* Don't complicate things, always connect using clean session */
1352:Middlewares/Third_Party/LwIP/src/apps/mqtt/mqtt.c ****   flags |= MQTT_CONNECT_FLAG_CLEAN_SESSION;
 4679              		.loc 1 1352 3 is_stmt 1 view .LVU1349
 4680              		.loc 1 1352 9 is_stmt 0 view .LVU1350
 4681 010a 46F00203 		orr	r3, r6, #2
 4682 010e 0593     		str	r3, [sp, #20]
 4683              	.LVL501:
1353:Middlewares/Third_Party/LwIP/src/apps/mqtt/mqtt.c **** 
1354:Middlewares/Third_Party/LwIP/src/apps/mqtt/mqtt.c ****   len = strlen(client_info->client_id);
 4684              		.loc 1 1354 3 is_stmt 1 view .LVU1351
 4685              		.loc 1 1354 9 is_stmt 0 view .LVU1352
 4686 0110 3868     		ldr	r0, [r7]
 4687 0112 FFF7FEFF 		bl	strlen
 4688              	.LVL502:
1355:Middlewares/Third_Party/LwIP/src/apps/mqtt/mqtt.c ****   LWIP_ERROR("mqtt_client_connect: client_info->client_id length overflow", len <= 0xFFFF, return E
 4689              		.loc 1 1355 3 is_stmt 1 view .LVU1353
 4690              		.loc 1 1355 3 view .LVU1354
 4691 0116 B0F5803F 		cmp	r0, #65536
ARM GAS  D:\Dev\msys64\tmp\ccB7TkM7.s 			page 126


 4692 011a 80F0BF80 		bcs	.L381
 4693              		.loc 1 1355 3 discriminator 2 view .LVU1355
1356:Middlewares/Third_Party/LwIP/src/apps/mqtt/mqtt.c ****   client_id_length = (u16_t)len;
 4694              		.loc 1 1356 3 discriminator 2 view .LVU1356
 4695              		.loc 1 1356 20 is_stmt 0 discriminator 2 view .LVU1357
 4696 011e 1FFA80F8 		uxth	r8, r0
 4697              	.LVL503:
1357:Middlewares/Third_Party/LwIP/src/apps/mqtt/mqtt.c ****   len = remaining_length + 2 + client_id_length;
 4698              		.loc 1 1357 3 is_stmt 1 discriminator 2 view .LVU1358
 4699              		.loc 1 1357 26 is_stmt 0 discriminator 2 view .LVU1359
 4700 0122 0234     		adds	r4, r4, #2
 4701              	.LVL504:
 4702              		.loc 1 1357 30 discriminator 2 view .LVU1360
 4703 0124 4444     		add	r4, r4, r8
 4704              	.LVL505:
1358:Middlewares/Third_Party/LwIP/src/apps/mqtt/mqtt.c ****   LWIP_ERROR("mqtt_client_connect: remaining_length overflow", len <= 0xFFFF, return ERR_VAL);
 4705              		.loc 1 1358 3 is_stmt 1 discriminator 2 view .LVU1361
 4706              		.loc 1 1358 3 discriminator 2 view .LVU1362
 4707 0126 B4F5803F 		cmp	r4, #65536
 4708 012a 80F0C280 		bcs	.L382
 4709              		.loc 1 1358 3 discriminator 2 view .LVU1363
1359:Middlewares/Third_Party/LwIP/src/apps/mqtt/mqtt.c ****   remaining_length = (u16_t)len;
 4710              		.loc 1 1359 3 discriminator 2 view .LVU1364
 4711              		.loc 1 1359 20 is_stmt 0 discriminator 2 view .LVU1365
 4712 012e A4B2     		uxth	r4, r4
 4713              	.LVL506:
1360:Middlewares/Third_Party/LwIP/src/apps/mqtt/mqtt.c **** 
1361:Middlewares/Third_Party/LwIP/src/apps/mqtt/mqtt.c ****   if (mqtt_output_check_space(&client->output, remaining_length) == 0) {
 4714              		.loc 1 1361 3 is_stmt 1 discriminator 2 view .LVU1366
 4715              		.loc 1 1361 7 is_stmt 0 discriminator 2 view .LVU1367
 4716 0130 05F1EC0A 		add	r10, r5, #236
 4717 0134 2146     		mov	r1, r4
 4718 0136 5046     		mov	r0, r10
 4719 0138 FFF7FEFF 		bl	mqtt_output_check_space
 4720              	.LVL507:
 4721              		.loc 1 1361 6 discriminator 2 view .LVU1368
 4722 013c 0028     		cmp	r0, #0
 4723 013e 00F01881 		beq	.L365
1362:Middlewares/Third_Party/LwIP/src/apps/mqtt/mqtt.c ****     return ERR_MEM;
1363:Middlewares/Third_Party/LwIP/src/apps/mqtt/mqtt.c ****   }
1364:Middlewares/Third_Party/LwIP/src/apps/mqtt/mqtt.c **** 
1365:Middlewares/Third_Party/LwIP/src/apps/mqtt/mqtt.c **** #if LWIP_ALTCP && LWIP_ALTCP_TLS
1366:Middlewares/Third_Party/LwIP/src/apps/mqtt/mqtt.c ****   if (client_info->tls_config) {
1367:Middlewares/Third_Party/LwIP/src/apps/mqtt/mqtt.c ****     client->conn = altcp_tls_new(client_info->tls_config, IP_GET_TYPE(ip_addr));
1368:Middlewares/Third_Party/LwIP/src/apps/mqtt/mqtt.c ****   } else
1369:Middlewares/Third_Party/LwIP/src/apps/mqtt/mqtt.c **** #endif
1370:Middlewares/Third_Party/LwIP/src/apps/mqtt/mqtt.c ****   {
1371:Middlewares/Third_Party/LwIP/src/apps/mqtt/mqtt.c ****     client->conn = altcp_tcp_new_ip_type(IP_GET_TYPE(ip_addr));
 4724              		.loc 1 1371 5 is_stmt 1 view .LVU1369
 4725              		.loc 1 1371 20 is_stmt 0 view .LVU1370
 4726 0142 0020     		movs	r0, #0
 4727 0144 FFF7FEFF 		bl	tcp_new_ip_type
 4728              	.LVL508:
 4729              		.loc 1 1371 18 view .LVU1371
 4730 0148 E860     		str	r0, [r5, #12]
1372:Middlewares/Third_Party/LwIP/src/apps/mqtt/mqtt.c ****   }
1373:Middlewares/Third_Party/LwIP/src/apps/mqtt/mqtt.c ****   if (client->conn == NULL) {
ARM GAS  D:\Dev\msys64\tmp\ccB7TkM7.s 			page 127


 4731              		.loc 1 1373 3 is_stmt 1 view .LVU1372
 4732              		.loc 1 1373 6 is_stmt 0 view .LVU1373
 4733 014a 0028     		cmp	r0, #0
 4734 014c 00F01581 		beq	.L366
1374:Middlewares/Third_Party/LwIP/src/apps/mqtt/mqtt.c ****     return ERR_MEM;
1375:Middlewares/Third_Party/LwIP/src/apps/mqtt/mqtt.c ****   }
1376:Middlewares/Third_Party/LwIP/src/apps/mqtt/mqtt.c **** 
1377:Middlewares/Third_Party/LwIP/src/apps/mqtt/mqtt.c ****   /* Set arg pointer for callbacks */
1378:Middlewares/Third_Party/LwIP/src/apps/mqtt/mqtt.c ****   altcp_arg(client->conn, client);
 4735              		.loc 1 1378 3 is_stmt 1 view .LVU1374
 4736 0150 2946     		mov	r1, r5
 4737 0152 FFF7FEFF 		bl	tcp_arg
 4738              	.LVL509:
1379:Middlewares/Third_Party/LwIP/src/apps/mqtt/mqtt.c ****   /* Any local address, pick random local port number */
1380:Middlewares/Third_Party/LwIP/src/apps/mqtt/mqtt.c ****   err = altcp_bind(client->conn, IP_ADDR_ANY, 0);
 4739              		.loc 1 1380 3 view .LVU1375
 4740              		.loc 1 1380 9 is_stmt 0 view .LVU1376
 4741 0156 0022     		movs	r2, #0
 4742 0158 8A49     		ldr	r1, .L386
 4743 015a E868     		ldr	r0, [r5, #12]
 4744 015c FFF7FEFF 		bl	tcp_bind
 4745              	.LVL510:
1381:Middlewares/Third_Party/LwIP/src/apps/mqtt/mqtt.c ****   if (err != ERR_OK) {
 4746              		.loc 1 1381 3 is_stmt 1 view .LVU1377
 4747              		.loc 1 1381 6 is_stmt 0 view .LVU1378
 4748 0160 0390     		str	r0, [sp, #12]
 4749 0162 0028     		cmp	r0, #0
 4750 0164 00F0B080 		beq	.L383
 4751              	.L357:
 4752              	.LVL511:
1382:Middlewares/Third_Party/LwIP/src/apps/mqtt/mqtt.c ****     LWIP_DEBUGF(MQTT_DEBUG_WARN, ("mqtt_client_connect: Error binding to local ip/port, %d\n", err)
1383:Middlewares/Third_Party/LwIP/src/apps/mqtt/mqtt.c ****     goto tcp_fail;
1384:Middlewares/Third_Party/LwIP/src/apps/mqtt/mqtt.c ****   }
1385:Middlewares/Third_Party/LwIP/src/apps/mqtt/mqtt.c ****   LWIP_DEBUGF(MQTT_DEBUG_TRACE, ("mqtt_client_connect: Connecting to host: %s at port:%"U16_F"\n", 
1386:Middlewares/Third_Party/LwIP/src/apps/mqtt/mqtt.c **** 
1387:Middlewares/Third_Party/LwIP/src/apps/mqtt/mqtt.c ****   /* Connect to server */
1388:Middlewares/Third_Party/LwIP/src/apps/mqtt/mqtt.c ****   err = altcp_connect(client->conn, ip_addr, port, mqtt_tcp_connect_cb);
1389:Middlewares/Third_Party/LwIP/src/apps/mqtt/mqtt.c ****   if (err != ERR_OK) {
1390:Middlewares/Third_Party/LwIP/src/apps/mqtt/mqtt.c ****     LWIP_DEBUGF(MQTT_DEBUG_TRACE, ("mqtt_client_connect: Error connecting to remote ip/port, %d\n",
1391:Middlewares/Third_Party/LwIP/src/apps/mqtt/mqtt.c ****     goto tcp_fail;
1392:Middlewares/Third_Party/LwIP/src/apps/mqtt/mqtt.c ****   }
1393:Middlewares/Third_Party/LwIP/src/apps/mqtt/mqtt.c ****   /* Set error callback */
1394:Middlewares/Third_Party/LwIP/src/apps/mqtt/mqtt.c ****   altcp_err(client->conn, mqtt_tcp_err_cb);
1395:Middlewares/Third_Party/LwIP/src/apps/mqtt/mqtt.c ****   client->conn_state = TCP_CONNECTING;
1396:Middlewares/Third_Party/LwIP/src/apps/mqtt/mqtt.c **** 
1397:Middlewares/Third_Party/LwIP/src/apps/mqtt/mqtt.c ****   /* Append fixed header */
1398:Middlewares/Third_Party/LwIP/src/apps/mqtt/mqtt.c ****   mqtt_output_append_fixed_header(&client->output, MQTT_MSG_TYPE_CONNECT, 0, 0, 0, remaining_length
1399:Middlewares/Third_Party/LwIP/src/apps/mqtt/mqtt.c ****   /* Append Protocol string */
1400:Middlewares/Third_Party/LwIP/src/apps/mqtt/mqtt.c ****   mqtt_output_append_string(&client->output, "MQTT", 4);
1401:Middlewares/Third_Party/LwIP/src/apps/mqtt/mqtt.c ****   /* Append Protocol level */
1402:Middlewares/Third_Party/LwIP/src/apps/mqtt/mqtt.c ****   mqtt_output_append_u8(&client->output, 4);
1403:Middlewares/Third_Party/LwIP/src/apps/mqtt/mqtt.c ****   /* Append connect flags */
1404:Middlewares/Third_Party/LwIP/src/apps/mqtt/mqtt.c ****   mqtt_output_append_u8(&client->output, flags);
1405:Middlewares/Third_Party/LwIP/src/apps/mqtt/mqtt.c ****   /* Append keep-alive */
1406:Middlewares/Third_Party/LwIP/src/apps/mqtt/mqtt.c ****   mqtt_output_append_u16(&client->output, client_info->keep_alive);
1407:Middlewares/Third_Party/LwIP/src/apps/mqtt/mqtt.c ****   /* Append client id */
1408:Middlewares/Third_Party/LwIP/src/apps/mqtt/mqtt.c ****   mqtt_output_append_string(&client->output, client_info->client_id, client_id_length);
ARM GAS  D:\Dev\msys64\tmp\ccB7TkM7.s 			page 128


1409:Middlewares/Third_Party/LwIP/src/apps/mqtt/mqtt.c ****   /* Append will message if used */
1410:Middlewares/Third_Party/LwIP/src/apps/mqtt/mqtt.c ****   if ((flags & MQTT_CONNECT_FLAG_WILL) != 0) {
1411:Middlewares/Third_Party/LwIP/src/apps/mqtt/mqtt.c ****     mqtt_output_append_string(&client->output, client_info->will_topic, will_topic_len);
1412:Middlewares/Third_Party/LwIP/src/apps/mqtt/mqtt.c ****     mqtt_output_append_string(&client->output, client_info->will_msg, will_msg_len);
1413:Middlewares/Third_Party/LwIP/src/apps/mqtt/mqtt.c ****   }
1414:Middlewares/Third_Party/LwIP/src/apps/mqtt/mqtt.c ****   /* Append user name if given */
1415:Middlewares/Third_Party/LwIP/src/apps/mqtt/mqtt.c ****   if ((flags & MQTT_CONNECT_FLAG_USERNAME) != 0) {
1416:Middlewares/Third_Party/LwIP/src/apps/mqtt/mqtt.c ****     mqtt_output_append_string(&client->output, client_info->client_user, client_user_len);
1417:Middlewares/Third_Party/LwIP/src/apps/mqtt/mqtt.c ****   }
1418:Middlewares/Third_Party/LwIP/src/apps/mqtt/mqtt.c ****   /* Append password if given */
1419:Middlewares/Third_Party/LwIP/src/apps/mqtt/mqtt.c ****   if ((flags & MQTT_CONNECT_FLAG_PASSWORD) != 0) {
1420:Middlewares/Third_Party/LwIP/src/apps/mqtt/mqtt.c ****     mqtt_output_append_string(&client->output, client_info->client_pass, client_pass_len);
1421:Middlewares/Third_Party/LwIP/src/apps/mqtt/mqtt.c ****   }
1422:Middlewares/Third_Party/LwIP/src/apps/mqtt/mqtt.c ****   return ERR_OK;
1423:Middlewares/Third_Party/LwIP/src/apps/mqtt/mqtt.c **** 
1424:Middlewares/Third_Party/LwIP/src/apps/mqtt/mqtt.c **** tcp_fail:
1425:Middlewares/Third_Party/LwIP/src/apps/mqtt/mqtt.c ****   altcp_abort(client->conn);
 4753              		.loc 1 1425 3 is_stmt 1 view .LVU1379
 4754 0168 E868     		ldr	r0, [r5, #12]
 4755 016a FFF7FEFF 		bl	tcp_abort
 4756              	.LVL512:
1426:Middlewares/Third_Party/LwIP/src/apps/mqtt/mqtt.c ****   client->conn = NULL;
 4757              		.loc 1 1426 3 view .LVU1380
 4758              		.loc 1 1426 16 is_stmt 0 view .LVU1381
 4759 016e 0023     		movs	r3, #0
 4760 0170 EB60     		str	r3, [r5, #12]
1427:Middlewares/Third_Party/LwIP/src/apps/mqtt/mqtt.c ****   return err;
 4761              		.loc 1 1427 3 is_stmt 1 view .LVU1382
 4762              	.LVL513:
 4763              	.L340:
1428:Middlewares/Third_Party/LwIP/src/apps/mqtt/mqtt.c **** }
 4764              		.loc 1 1428 1 is_stmt 0 view .LVU1383
 4765 0172 0398     		ldr	r0, [sp, #12]
 4766 0174 09B0     		add	sp, sp, #36
 4767              	.LCFI49:
 4768              		.cfi_remember_state
 4769              		.cfi_def_cfa_offset 36
 4770              		@ sp needed
 4771 0176 BDE8F08F 		pop	{r4, r5, r6, r7, r8, r9, r10, fp, pc}
 4772              	.LVL514:
 4773              	.L368:
 4774              	.LCFI50:
 4775              		.cfi_restore_state
1295:Middlewares/Third_Party/LwIP/src/apps/mqtt/mqtt.c ****   LWIP_ASSERT("mqtt_client_connect: ip_addr != NULL", ip_addr != NULL);
 4776              		.loc 1 1295 3 is_stmt 1 discriminator 1 view .LVU1384
1295:Middlewares/Third_Party/LwIP/src/apps/mqtt/mqtt.c ****   LWIP_ASSERT("mqtt_client_connect: ip_addr != NULL", ip_addr != NULL);
 4777              		.loc 1 1295 3 discriminator 1 view .LVU1385
 4778 017a 834B     		ldr	r3, .L386+4
 4779              	.LVL515:
1295:Middlewares/Third_Party/LwIP/src/apps/mqtt/mqtt.c ****   LWIP_ASSERT("mqtt_client_connect: ip_addr != NULL", ip_addr != NULL);
 4780              		.loc 1 1295 3 is_stmt 0 discriminator 1 view .LVU1386
 4781 017c 40F20F52 		movw	r2, #1295
 4782              	.LVL516:
1295:Middlewares/Third_Party/LwIP/src/apps/mqtt/mqtt.c ****   LWIP_ASSERT("mqtt_client_connect: ip_addr != NULL", ip_addr != NULL);
 4783              		.loc 1 1295 3 discriminator 1 view .LVU1387
 4784 0180 8249     		ldr	r1, .L386+8
 4785              	.LVL517:
ARM GAS  D:\Dev\msys64\tmp\ccB7TkM7.s 			page 129


1295:Middlewares/Third_Party/LwIP/src/apps/mqtt/mqtt.c ****   LWIP_ASSERT("mqtt_client_connect: ip_addr != NULL", ip_addr != NULL);
 4786              		.loc 1 1295 3 discriminator 1 view .LVU1388
 4787 0182 8348     		ldr	r0, .L386+12
 4788              	.LVL518:
1295:Middlewares/Third_Party/LwIP/src/apps/mqtt/mqtt.c ****   LWIP_ASSERT("mqtt_client_connect: ip_addr != NULL", ip_addr != NULL);
 4789              		.loc 1 1295 3 discriminator 1 view .LVU1389
 4790 0184 FFF7FEFF 		bl	printf
 4791              	.LVL519:
 4792 0188 45E7     		b	.L336
 4793              	.L369:
1296:Middlewares/Third_Party/LwIP/src/apps/mqtt/mqtt.c ****   LWIP_ASSERT("mqtt_client_connect: client_info != NULL", client_info != NULL);
 4794              		.loc 1 1296 3 is_stmt 1 discriminator 1 view .LVU1390
1296:Middlewares/Third_Party/LwIP/src/apps/mqtt/mqtt.c ****   LWIP_ASSERT("mqtt_client_connect: client_info != NULL", client_info != NULL);
 4795              		.loc 1 1296 3 discriminator 1 view .LVU1391
 4796 018a 7F4B     		ldr	r3, .L386+4
 4797 018c 4FF4A262 		mov	r2, #1296
 4798 0190 8049     		ldr	r1, .L386+16
 4799 0192 7F48     		ldr	r0, .L386+12
 4800 0194 FFF7FEFF 		bl	printf
 4801              	.LVL520:
 4802 0198 41E7     		b	.L337
 4803              	.L370:
1297:Middlewares/Third_Party/LwIP/src/apps/mqtt/mqtt.c ****   LWIP_ASSERT("mqtt_client_connect: client_info->client_id != NULL", client_info->client_id != NULL
 4804              		.loc 1 1297 3 discriminator 1 view .LVU1392
1297:Middlewares/Third_Party/LwIP/src/apps/mqtt/mqtt.c ****   LWIP_ASSERT("mqtt_client_connect: client_info->client_id != NULL", client_info->client_id != NULL
 4805              		.loc 1 1297 3 discriminator 1 view .LVU1393
 4806 019a 7B4B     		ldr	r3, .L386+4
 4807 019c 40F21152 		movw	r2, #1297
 4808 01a0 7D49     		ldr	r1, .L386+20
 4809 01a2 7B48     		ldr	r0, .L386+12
 4810 01a4 FFF7FEFF 		bl	printf
 4811              	.LVL521:
 4812 01a8 3CE7     		b	.L338
 4813              	.L371:
1298:Middlewares/Third_Party/LwIP/src/apps/mqtt/mqtt.c **** 
 4814              		.loc 1 1298 3 discriminator 1 view .LVU1394
1298:Middlewares/Third_Party/LwIP/src/apps/mqtt/mqtt.c **** 
 4815              		.loc 1 1298 3 discriminator 1 view .LVU1395
 4816 01aa 774B     		ldr	r3, .L386+4
 4817 01ac 40F21252 		movw	r2, #1298
 4818 01b0 7A49     		ldr	r1, .L386+24
 4819 01b2 7748     		ldr	r0, .L386+12
 4820 01b4 FFF7FEFF 		bl	printf
 4821              	.LVL522:
 4822 01b8 38E7     		b	.L339
 4823              	.LVL523:
 4824              	.L372:
1320:Middlewares/Third_Party/LwIP/src/apps/mqtt/mqtt.c ****     LWIP_ERROR("mqtt_client_connect: client_info->will_topic length must be > 0", len > 0, return E
 4825              		.loc 1 1320 5 discriminator 1 view .LVU1396
1320:Middlewares/Third_Party/LwIP/src/apps/mqtt/mqtt.c ****     LWIP_ERROR("mqtt_client_connect: client_info->will_topic length must be > 0", len > 0, return E
 4826              		.loc 1 1320 5 discriminator 1 view .LVU1397
 4827 01ba 734B     		ldr	r3, .L386+4
 4828 01bc 4FF4A562 		mov	r2, #1320
 4829 01c0 7749     		ldr	r1, .L386+28
 4830 01c2 7348     		ldr	r0, .L386+12
 4831              	.LVL524:
1320:Middlewares/Third_Party/LwIP/src/apps/mqtt/mqtt.c ****     LWIP_ERROR("mqtt_client_connect: client_info->will_topic length must be > 0", len > 0, return E
ARM GAS  D:\Dev\msys64\tmp\ccB7TkM7.s 			page 130


 4832              		.loc 1 1320 5 is_stmt 0 discriminator 1 view .LVU1398
 4833 01c4 FFF7FEFF 		bl	printf
 4834              	.LVL525:
1320:Middlewares/Third_Party/LwIP/src/apps/mqtt/mqtt.c ****     LWIP_ERROR("mqtt_client_connect: client_info->will_topic length must be > 0", len > 0, return E
 4835              		.loc 1 1320 5 is_stmt 1 discriminator 1 view .LVU1399
1320:Middlewares/Third_Party/LwIP/src/apps/mqtt/mqtt.c ****     LWIP_ERROR("mqtt_client_connect: client_info->will_topic length must be > 0", len > 0, return E
 4836              		.loc 1 1320 5 discriminator 1 view .LVU1400
 4837 01c8 6FF00503 		mvn	r3, #5
 4838 01cc 0393     		str	r3, [sp, #12]
 4839 01ce D0E7     		b	.L340
 4840              	.LVL526:
 4841              	.L373:
1321:Middlewares/Third_Party/LwIP/src/apps/mqtt/mqtt.c ****     will_topic_len = (u8_t)len;
 4842              		.loc 1 1321 5 discriminator 1 view .LVU1401
1321:Middlewares/Third_Party/LwIP/src/apps/mqtt/mqtt.c ****     will_topic_len = (u8_t)len;
 4843              		.loc 1 1321 5 discriminator 1 view .LVU1402
 4844 01d0 6D4B     		ldr	r3, .L386+4
 4845 01d2 40F22952 		movw	r2, #1321
 4846 01d6 7349     		ldr	r1, .L386+32
 4847 01d8 6D48     		ldr	r0, .L386+12
 4848              	.LVL527:
1321:Middlewares/Third_Party/LwIP/src/apps/mqtt/mqtt.c ****     will_topic_len = (u8_t)len;
 4849              		.loc 1 1321 5 is_stmt 0 discriminator 1 view .LVU1403
 4850 01da FFF7FEFF 		bl	printf
 4851              	.LVL528:
1321:Middlewares/Third_Party/LwIP/src/apps/mqtt/mqtt.c ****     will_topic_len = (u8_t)len;
 4852              		.loc 1 1321 5 is_stmt 1 discriminator 1 view .LVU1404
1321:Middlewares/Third_Party/LwIP/src/apps/mqtt/mqtt.c ****     will_topic_len = (u8_t)len;
 4853              		.loc 1 1321 5 discriminator 1 view .LVU1405
 4854 01de 6FF00503 		mvn	r3, #5
 4855 01e2 0393     		str	r3, [sp, #12]
 4856 01e4 C5E7     		b	.L340
 4857              	.LVL529:
 4858              	.L374:
1324:Middlewares/Third_Party/LwIP/src/apps/mqtt/mqtt.c ****     will_msg_len = (u8_t)len;
 4859              		.loc 1 1324 5 discriminator 1 view .LVU1406
1324:Middlewares/Third_Party/LwIP/src/apps/mqtt/mqtt.c ****     will_msg_len = (u8_t)len;
 4860              		.loc 1 1324 5 discriminator 1 view .LVU1407
 4861 01e6 684B     		ldr	r3, .L386+4
 4862 01e8 40F22C52 		movw	r2, #1324
 4863 01ec 6E49     		ldr	r1, .L386+36
 4864 01ee 6848     		ldr	r0, .L386+12
 4865              	.LVL530:
1324:Middlewares/Third_Party/LwIP/src/apps/mqtt/mqtt.c ****     will_msg_len = (u8_t)len;
 4866              		.loc 1 1324 5 is_stmt 0 discriminator 1 view .LVU1408
 4867 01f0 FFF7FEFF 		bl	printf
 4868              	.LVL531:
1324:Middlewares/Third_Party/LwIP/src/apps/mqtt/mqtt.c ****     will_msg_len = (u8_t)len;
 4869              		.loc 1 1324 5 is_stmt 1 discriminator 1 view .LVU1409
1324:Middlewares/Third_Party/LwIP/src/apps/mqtt/mqtt.c ****     will_msg_len = (u8_t)len;
 4870              		.loc 1 1324 5 discriminator 1 view .LVU1410
 4871 01f4 6FF00503 		mvn	r3, #5
 4872 01f8 0393     		str	r3, [sp, #12]
 4873 01fa BAE7     		b	.L340
 4874              	.LVL532:
 4875              	.L361:
1291:Middlewares/Third_Party/LwIP/src/apps/mqtt/mqtt.c ****   u16_t client_user_len = 0, client_pass_len = 0;
ARM GAS  D:\Dev\msys64\tmp\ccB7TkM7.s 			page 131


 4876              		.loc 1 1291 39 is_stmt 0 view .LVU1411
 4877 01fc 0796     		str	r6, [sp, #28]
1291:Middlewares/Third_Party/LwIP/src/apps/mqtt/mqtt.c ****   u16_t client_user_len = 0, client_pass_len = 0;
 4878              		.loc 1 1291 19 view .LVU1412
 4879 01fe 0696     		str	r6, [sp, #24]
1290:Middlewares/Third_Party/LwIP/src/apps/mqtt/mqtt.c ****   u8_t flags = 0, will_topic_len = 0, will_msg_len = 0;
 4880              		.loc 1 1290 9 view .LVU1413
 4881 0200 0A24     		movs	r4, #10
 4882              	.LVL533:
1290:Middlewares/Third_Party/LwIP/src/apps/mqtt/mqtt.c ****   u8_t flags = 0, will_topic_len = 0, will_msg_len = 0;
 4883              		.loc 1 1290 9 view .LVU1414
 4884 0202 52E7     		b	.L341
 4885              	.LVL534:
 4886              	.L362:
1291:Middlewares/Third_Party/LwIP/src/apps/mqtt/mqtt.c ****   u16_t client_user_len = 0, client_pass_len = 0;
 4887              		.loc 1 1291 39 view .LVU1415
 4888 0204 0796     		str	r6, [sp, #28]
1291:Middlewares/Third_Party/LwIP/src/apps/mqtt/mqtt.c ****   u16_t client_user_len = 0, client_pass_len = 0;
 4889              		.loc 1 1291 19 view .LVU1416
 4890 0206 0696     		str	r6, [sp, #24]
1290:Middlewares/Third_Party/LwIP/src/apps/mqtt/mqtt.c ****   u8_t flags = 0, will_topic_len = 0, will_msg_len = 0;
 4891              		.loc 1 1290 9 view .LVU1417
 4892 0208 0A24     		movs	r4, #10
 4893              	.LVL535:
1290:Middlewares/Third_Party/LwIP/src/apps/mqtt/mqtt.c ****   u8_t flags = 0, will_topic_len = 0, will_msg_len = 0;
 4894              		.loc 1 1290 9 view .LVU1418
 4895 020a 4EE7     		b	.L341
 4896              	.LVL536:
 4897              	.L375:
1333:Middlewares/Third_Party/LwIP/src/apps/mqtt/mqtt.c ****     LWIP_ERROR("mqtt_client_connect: client_info->client_user length must be > 0", len > 0, return 
 4898              		.loc 1 1333 5 is_stmt 1 discriminator 1 view .LVU1419
1333:Middlewares/Third_Party/LwIP/src/apps/mqtt/mqtt.c ****     LWIP_ERROR("mqtt_client_connect: client_info->client_user length must be > 0", len > 0, return 
 4899              		.loc 1 1333 5 discriminator 1 view .LVU1420
 4900 020c 5E4B     		ldr	r3, .L386+4
 4901 020e 40F23552 		movw	r2, #1333
 4902 0212 6649     		ldr	r1, .L386+40
 4903 0214 5E48     		ldr	r0, .L386+12
 4904              	.LVL537:
1333:Middlewares/Third_Party/LwIP/src/apps/mqtt/mqtt.c ****     LWIP_ERROR("mqtt_client_connect: client_info->client_user length must be > 0", len > 0, return 
 4905              		.loc 1 1333 5 is_stmt 0 discriminator 1 view .LVU1421
 4906 0216 FFF7FEFF 		bl	printf
 4907              	.LVL538:
1333:Middlewares/Third_Party/LwIP/src/apps/mqtt/mqtt.c ****     LWIP_ERROR("mqtt_client_connect: client_info->client_user length must be > 0", len > 0, return 
 4908              		.loc 1 1333 5 is_stmt 1 discriminator 1 view .LVU1422
1333:Middlewares/Third_Party/LwIP/src/apps/mqtt/mqtt.c ****     LWIP_ERROR("mqtt_client_connect: client_info->client_user length must be > 0", len > 0, return 
 4909              		.loc 1 1333 5 discriminator 1 view .LVU1423
 4910 021a 6FF00503 		mvn	r3, #5
 4911 021e 0393     		str	r3, [sp, #12]
 4912 0220 A7E7     		b	.L340
 4913              	.LVL539:
 4914              	.L376:
1334:Middlewares/Third_Party/LwIP/src/apps/mqtt/mqtt.c ****     client_user_len = (u16_t)len;
 4915              		.loc 1 1334 5 discriminator 1 view .LVU1424
1334:Middlewares/Third_Party/LwIP/src/apps/mqtt/mqtt.c ****     client_user_len = (u16_t)len;
 4916              		.loc 1 1334 5 discriminator 1 view .LVU1425
 4917 0222 594B     		ldr	r3, .L386+4
 4918 0224 40F23652 		movw	r2, #1334
ARM GAS  D:\Dev\msys64\tmp\ccB7TkM7.s 			page 132


 4919 0228 6149     		ldr	r1, .L386+44
 4920 022a 5948     		ldr	r0, .L386+12
 4921              	.LVL540:
1334:Middlewares/Third_Party/LwIP/src/apps/mqtt/mqtt.c ****     client_user_len = (u16_t)len;
 4922              		.loc 1 1334 5 is_stmt 0 discriminator 1 view .LVU1426
 4923 022c FFF7FEFF 		bl	printf
 4924              	.LVL541:
1334:Middlewares/Third_Party/LwIP/src/apps/mqtt/mqtt.c ****     client_user_len = (u16_t)len;
 4925              		.loc 1 1334 5 is_stmt 1 discriminator 1 view .LVU1427
1334:Middlewares/Third_Party/LwIP/src/apps/mqtt/mqtt.c ****     client_user_len = (u16_t)len;
 4926              		.loc 1 1334 5 discriminator 1 view .LVU1428
 4927 0230 6FF00503 		mvn	r3, #5
 4928 0234 0393     		str	r3, [sp, #12]
 4929 0236 9CE7     		b	.L340
 4930              	.LVL542:
 4931              	.L377:
1337:Middlewares/Third_Party/LwIP/src/apps/mqtt/mqtt.c ****     remaining_length = (u16_t)len;
 4932              		.loc 1 1337 5 discriminator 1 view .LVU1429
1337:Middlewares/Third_Party/LwIP/src/apps/mqtt/mqtt.c ****     remaining_length = (u16_t)len;
 4933              		.loc 1 1337 5 discriminator 1 view .LVU1430
 4934 0238 534B     		ldr	r3, .L386+4
 4935 023a 40F23952 		movw	r2, #1337
 4936 023e 5D49     		ldr	r1, .L386+48
 4937 0240 5348     		ldr	r0, .L386+12
 4938 0242 FFF7FEFF 		bl	printf
 4939              	.LVL543:
1337:Middlewares/Third_Party/LwIP/src/apps/mqtt/mqtt.c ****     remaining_length = (u16_t)len;
 4940              		.loc 1 1337 5 discriminator 1 view .LVU1431
1337:Middlewares/Third_Party/LwIP/src/apps/mqtt/mqtt.c ****     remaining_length = (u16_t)len;
 4941              		.loc 1 1337 5 discriminator 1 view .LVU1432
 4942 0246 6FF00503 		mvn	r3, #5
 4943 024a 0393     		str	r3, [sp, #12]
 4944 024c 91E7     		b	.L340
 4945              	.LVL544:
 4946              	.L363:
1292:Middlewares/Third_Party/LwIP/src/apps/mqtt/mqtt.c **** 
 4947              		.loc 1 1292 9 is_stmt 0 view .LVU1433
 4948 024e 4FF00009 		mov	r9, #0
 4949 0252 42E7     		b	.L347
 4950              	.LVL545:
 4951              	.L378:
1343:Middlewares/Third_Party/LwIP/src/apps/mqtt/mqtt.c ****     LWIP_ERROR("mqtt_client_connect: client_info->client_pass length must be > 0", len > 0, return 
 4952              		.loc 1 1343 5 is_stmt 1 discriminator 1 view .LVU1434
1343:Middlewares/Third_Party/LwIP/src/apps/mqtt/mqtt.c ****     LWIP_ERROR("mqtt_client_connect: client_info->client_pass length must be > 0", len > 0, return 
 4953              		.loc 1 1343 5 discriminator 1 view .LVU1435
 4954 0254 4C4B     		ldr	r3, .L386+4
 4955 0256 40F23F52 		movw	r2, #1343
 4956 025a 5749     		ldr	r1, .L386+52
 4957 025c 4C48     		ldr	r0, .L386+12
 4958              	.LVL546:
1343:Middlewares/Third_Party/LwIP/src/apps/mqtt/mqtt.c ****     LWIP_ERROR("mqtt_client_connect: client_info->client_pass length must be > 0", len > 0, return 
 4959              		.loc 1 1343 5 is_stmt 0 discriminator 1 view .LVU1436
 4960 025e FFF7FEFF 		bl	printf
 4961              	.LVL547:
1343:Middlewares/Third_Party/LwIP/src/apps/mqtt/mqtt.c ****     LWIP_ERROR("mqtt_client_connect: client_info->client_pass length must be > 0", len > 0, return 
 4962              		.loc 1 1343 5 is_stmt 1 discriminator 1 view .LVU1437
1343:Middlewares/Third_Party/LwIP/src/apps/mqtt/mqtt.c ****     LWIP_ERROR("mqtt_client_connect: client_info->client_pass length must be > 0", len > 0, return 
ARM GAS  D:\Dev\msys64\tmp\ccB7TkM7.s 			page 133


 4963              		.loc 1 1343 5 discriminator 1 view .LVU1438
 4964 0262 6FF00503 		mvn	r3, #5
 4965 0266 0393     		str	r3, [sp, #12]
 4966 0268 83E7     		b	.L340
 4967              	.LVL548:
 4968              	.L379:
1344:Middlewares/Third_Party/LwIP/src/apps/mqtt/mqtt.c ****     client_pass_len = (u16_t)len;
 4969              		.loc 1 1344 5 discriminator 1 view .LVU1439
1344:Middlewares/Third_Party/LwIP/src/apps/mqtt/mqtt.c ****     client_pass_len = (u16_t)len;
 4970              		.loc 1 1344 5 discriminator 1 view .LVU1440
 4971 026a 474B     		ldr	r3, .L386+4
 4972 026c 4FF4A862 		mov	r2, #1344
 4973 0270 5249     		ldr	r1, .L386+56
 4974 0272 4748     		ldr	r0, .L386+12
 4975              	.LVL549:
1344:Middlewares/Third_Party/LwIP/src/apps/mqtt/mqtt.c ****     client_pass_len = (u16_t)len;
 4976              		.loc 1 1344 5 is_stmt 0 discriminator 1 view .LVU1441
 4977 0274 FFF7FEFF 		bl	printf
 4978              	.LVL550:
1344:Middlewares/Third_Party/LwIP/src/apps/mqtt/mqtt.c ****     client_pass_len = (u16_t)len;
 4979              		.loc 1 1344 5 is_stmt 1 discriminator 1 view .LVU1442
1344:Middlewares/Third_Party/LwIP/src/apps/mqtt/mqtt.c ****     client_pass_len = (u16_t)len;
 4980              		.loc 1 1344 5 discriminator 1 view .LVU1443
 4981 0278 6FF00503 		mvn	r3, #5
 4982 027c 0393     		str	r3, [sp, #12]
 4983 027e 78E7     		b	.L340
 4984              	.LVL551:
 4985              	.L380:
1347:Middlewares/Third_Party/LwIP/src/apps/mqtt/mqtt.c ****     remaining_length = (u16_t)len;
 4986              		.loc 1 1347 5 discriminator 1 view .LVU1444
1347:Middlewares/Third_Party/LwIP/src/apps/mqtt/mqtt.c ****     remaining_length = (u16_t)len;
 4987              		.loc 1 1347 5 discriminator 1 view .LVU1445
 4988 0280 414B     		ldr	r3, .L386+4
 4989 0282 40F24352 		movw	r2, #1347
 4990 0286 4B49     		ldr	r1, .L386+48
 4991 0288 4148     		ldr	r0, .L386+12
 4992 028a FFF7FEFF 		bl	printf
 4993              	.LVL552:
1347:Middlewares/Third_Party/LwIP/src/apps/mqtt/mqtt.c ****     remaining_length = (u16_t)len;
 4994              		.loc 1 1347 5 discriminator 1 view .LVU1446
1347:Middlewares/Third_Party/LwIP/src/apps/mqtt/mqtt.c ****     remaining_length = (u16_t)len;
 4995              		.loc 1 1347 5 discriminator 1 view .LVU1447
 4996 028e 6FF00503 		mvn	r3, #5
 4997 0292 0393     		str	r3, [sp, #12]
 4998 0294 6DE7     		b	.L340
 4999              	.LVL553:
 5000              	.L364:
1292:Middlewares/Third_Party/LwIP/src/apps/mqtt/mqtt.c **** 
 5001              		.loc 1 1292 30 is_stmt 0 view .LVU1448
 5002 0296 4FF0000B 		mov	fp, #0
 5003 029a 36E7     		b	.L351
 5004              	.LVL554:
 5005              	.L381:
1355:Middlewares/Third_Party/LwIP/src/apps/mqtt/mqtt.c ****   client_id_length = (u16_t)len;
 5006              		.loc 1 1355 3 is_stmt 1 discriminator 1 view .LVU1449
1355:Middlewares/Third_Party/LwIP/src/apps/mqtt/mqtt.c ****   client_id_length = (u16_t)len;
 5007              		.loc 1 1355 3 discriminator 1 view .LVU1450
ARM GAS  D:\Dev\msys64\tmp\ccB7TkM7.s 			page 134


 5008 029c 3A4B     		ldr	r3, .L386+4
 5009 029e 40F24B52 		movw	r2, #1355
 5010 02a2 4749     		ldr	r1, .L386+60
 5011 02a4 3A48     		ldr	r0, .L386+12
 5012              	.LVL555:
1355:Middlewares/Third_Party/LwIP/src/apps/mqtt/mqtt.c ****   client_id_length = (u16_t)len;
 5013              		.loc 1 1355 3 is_stmt 0 discriminator 1 view .LVU1451
 5014 02a6 FFF7FEFF 		bl	printf
 5015              	.LVL556:
1355:Middlewares/Third_Party/LwIP/src/apps/mqtt/mqtt.c ****   client_id_length = (u16_t)len;
 5016              		.loc 1 1355 3 is_stmt 1 discriminator 1 view .LVU1452
1355:Middlewares/Third_Party/LwIP/src/apps/mqtt/mqtt.c ****   client_id_length = (u16_t)len;
 5017              		.loc 1 1355 3 discriminator 1 view .LVU1453
 5018 02aa 6FF00503 		mvn	r3, #5
 5019 02ae 0393     		str	r3, [sp, #12]
 5020 02b0 5FE7     		b	.L340
 5021              	.LVL557:
 5022              	.L382:
1358:Middlewares/Third_Party/LwIP/src/apps/mqtt/mqtt.c ****   remaining_length = (u16_t)len;
 5023              		.loc 1 1358 3 discriminator 1 view .LVU1454
1358:Middlewares/Third_Party/LwIP/src/apps/mqtt/mqtt.c ****   remaining_length = (u16_t)len;
 5024              		.loc 1 1358 3 discriminator 1 view .LVU1455
 5025 02b2 354B     		ldr	r3, .L386+4
 5026 02b4 40F24E52 		movw	r2, #1358
 5027 02b8 3E49     		ldr	r1, .L386+48
 5028 02ba 3548     		ldr	r0, .L386+12
 5029 02bc FFF7FEFF 		bl	printf
 5030              	.LVL558:
1358:Middlewares/Third_Party/LwIP/src/apps/mqtt/mqtt.c ****   remaining_length = (u16_t)len;
 5031              		.loc 1 1358 3 discriminator 1 view .LVU1456
1358:Middlewares/Third_Party/LwIP/src/apps/mqtt/mqtt.c ****   remaining_length = (u16_t)len;
 5032              		.loc 1 1358 3 discriminator 1 view .LVU1457
 5033 02c0 6FF00503 		mvn	r3, #5
 5034 02c4 0393     		str	r3, [sp, #12]
 5035 02c6 54E7     		b	.L340
 5036              	.LVL559:
 5037              	.L383:
1385:Middlewares/Third_Party/LwIP/src/apps/mqtt/mqtt.c **** 
 5038              		.loc 1 1385 128 view .LVU1458
1388:Middlewares/Third_Party/LwIP/src/apps/mqtt/mqtt.c ****   if (err != ERR_OK) {
 5039              		.loc 1 1388 3 view .LVU1459
1388:Middlewares/Third_Party/LwIP/src/apps/mqtt/mqtt.c ****   if (err != ERR_OK) {
 5040              		.loc 1 1388 9 is_stmt 0 view .LVU1460
 5041 02c8 3E4B     		ldr	r3, .L386+64
 5042 02ca 049A     		ldr	r2, [sp, #16]
 5043 02cc 0299     		ldr	r1, [sp, #8]
 5044 02ce E868     		ldr	r0, [r5, #12]
 5045              	.LVL560:
1388:Middlewares/Third_Party/LwIP/src/apps/mqtt/mqtt.c ****   if (err != ERR_OK) {
 5046              		.loc 1 1388 9 view .LVU1461
 5047 02d0 FFF7FEFF 		bl	tcp_connect
 5048              	.LVL561:
1389:Middlewares/Third_Party/LwIP/src/apps/mqtt/mqtt.c ****     LWIP_DEBUGF(MQTT_DEBUG_TRACE, ("mqtt_client_connect: Error connecting to remote ip/port, %d\n",
 5049              		.loc 1 1389 3 is_stmt 1 view .LVU1462
1389:Middlewares/Third_Party/LwIP/src/apps/mqtt/mqtt.c ****     LWIP_DEBUGF(MQTT_DEBUG_TRACE, ("mqtt_client_connect: Error connecting to remote ip/port, %d\n",
 5050              		.loc 1 1389 6 is_stmt 0 view .LVU1463
 5051 02d4 0390     		str	r0, [sp, #12]
ARM GAS  D:\Dev\msys64\tmp\ccB7TkM7.s 			page 135


 5052 02d6 0028     		cmp	r0, #0
 5053 02d8 7FF446AF 		bne	.L357
1394:Middlewares/Third_Party/LwIP/src/apps/mqtt/mqtt.c ****   client->conn_state = TCP_CONNECTING;
 5054              		.loc 1 1394 3 is_stmt 1 view .LVU1464
 5055 02dc 3A49     		ldr	r1, .L386+68
 5056 02de E868     		ldr	r0, [r5, #12]
 5057              	.LVL562:
1394:Middlewares/Third_Party/LwIP/src/apps/mqtt/mqtt.c ****   client->conn_state = TCP_CONNECTING;
 5058              		.loc 1 1394 3 is_stmt 0 view .LVU1465
 5059 02e0 FFF7FEFF 		bl	tcp_err
 5060              	.LVL563:
1395:Middlewares/Third_Party/LwIP/src/apps/mqtt/mqtt.c **** 
 5061              		.loc 1 1395 3 is_stmt 1 view .LVU1466
1395:Middlewares/Third_Party/LwIP/src/apps/mqtt/mqtt.c **** 
 5062              		.loc 1 1395 22 is_stmt 0 view .LVU1467
 5063 02e4 0121     		movs	r1, #1
 5064 02e6 A972     		strb	r1, [r5, #10]
1398:Middlewares/Third_Party/LwIP/src/apps/mqtt/mqtt.c ****   /* Append Protocol string */
 5065              		.loc 1 1398 3 is_stmt 1 view .LVU1468
 5066 02e8 0194     		str	r4, [sp, #4]
 5067 02ea 0022     		movs	r2, #0
 5068 02ec 0092     		str	r2, [sp]
 5069 02ee 1346     		mov	r3, r2
 5070 02f0 5046     		mov	r0, r10
 5071 02f2 FFF7FEFF 		bl	mqtt_output_append_fixed_header
 5072              	.LVL564:
1400:Middlewares/Third_Party/LwIP/src/apps/mqtt/mqtt.c ****   /* Append Protocol level */
 5073              		.loc 1 1400 3 view .LVU1469
 5074 02f6 0422     		movs	r2, #4
 5075 02f8 3449     		ldr	r1, .L386+72
 5076 02fa 5046     		mov	r0, r10
 5077 02fc FFF7FEFF 		bl	mqtt_output_append_string
 5078              	.LVL565:
1402:Middlewares/Third_Party/LwIP/src/apps/mqtt/mqtt.c ****   /* Append connect flags */
 5079              		.loc 1 1402 3 view .LVU1470
 5080 0300 0421     		movs	r1, #4
 5081 0302 5046     		mov	r0, r10
 5082 0304 FFF7FEFF 		bl	mqtt_output_append_u8
 5083              	.LVL566:
1404:Middlewares/Third_Party/LwIP/src/apps/mqtt/mqtt.c ****   /* Append keep-alive */
 5084              		.loc 1 1404 3 view .LVU1471
 5085 0308 0599     		ldr	r1, [sp, #20]
 5086 030a 5046     		mov	r0, r10
 5087 030c FFF7FEFF 		bl	mqtt_output_append_u8
 5088              	.LVL567:
1406:Middlewares/Third_Party/LwIP/src/apps/mqtt/mqtt.c ****   /* Append client id */
 5089              		.loc 1 1406 3 view .LVU1472
 5090 0310 B989     		ldrh	r1, [r7, #12]
 5091 0312 5046     		mov	r0, r10
 5092 0314 FFF7FEFF 		bl	mqtt_output_append_u16
 5093              	.LVL568:
1408:Middlewares/Third_Party/LwIP/src/apps/mqtt/mqtt.c ****   /* Append will message if used */
 5094              		.loc 1 1408 3 view .LVU1473
 5095 0318 4246     		mov	r2, r8
 5096 031a 3968     		ldr	r1, [r7]
 5097 031c 5046     		mov	r0, r10
 5098 031e FFF7FEFF 		bl	mqtt_output_append_string
ARM GAS  D:\Dev\msys64\tmp\ccB7TkM7.s 			page 136


 5099              	.LVL569:
1410:Middlewares/Third_Party/LwIP/src/apps/mqtt/mqtt.c ****     mqtt_output_append_string(&client->output, client_info->will_topic, will_topic_len);
 5100              		.loc 1 1410 3 view .LVU1474
1410:Middlewares/Third_Party/LwIP/src/apps/mqtt/mqtt.c ****     mqtt_output_append_string(&client->output, client_info->will_topic, will_topic_len);
 5101              		.loc 1 1410 6 is_stmt 0 view .LVU1475
 5102 0322 16F0040F 		tst	r6, #4
 5103 0326 0DD1     		bne	.L384
 5104              	.L358:
1415:Middlewares/Third_Party/LwIP/src/apps/mqtt/mqtt.c ****     mqtt_output_append_string(&client->output, client_info->client_user, client_user_len);
 5105              		.loc 1 1415 3 is_stmt 1 view .LVU1476
1415:Middlewares/Third_Party/LwIP/src/apps/mqtt/mqtt.c ****     mqtt_output_append_string(&client->output, client_info->client_user, client_user_len);
 5106              		.loc 1 1415 6 is_stmt 0 view .LVU1477
 5107 0328 059B     		ldr	r3, [sp, #20]
 5108 032a 13F0800F 		tst	r3, #128
 5109 032e 16D1     		bne	.L385
 5110              	.L359:
1419:Middlewares/Third_Party/LwIP/src/apps/mqtt/mqtt.c ****     mqtt_output_append_string(&client->output, client_info->client_pass, client_pass_len);
 5111              		.loc 1 1419 3 is_stmt 1 view .LVU1478
1419:Middlewares/Third_Party/LwIP/src/apps/mqtt/mqtt.c ****     mqtt_output_append_string(&client->output, client_info->client_pass, client_pass_len);
 5112              		.loc 1 1419 6 is_stmt 0 view .LVU1479
 5113 0330 16F0400F 		tst	r6, #64
 5114 0334 3FF41DAF 		beq	.L340
1420:Middlewares/Third_Party/LwIP/src/apps/mqtt/mqtt.c ****   }
 5115              		.loc 1 1420 5 is_stmt 1 view .LVU1480
 5116 0338 5A46     		mov	r2, fp
 5117 033a B968     		ldr	r1, [r7, #8]
 5118 033c 5046     		mov	r0, r10
 5119 033e FFF7FEFF 		bl	mqtt_output_append_string
 5120              	.LVL570:
 5121 0342 16E7     		b	.L340
 5122              	.L384:
1411:Middlewares/Third_Party/LwIP/src/apps/mqtt/mqtt.c ****     mqtt_output_append_string(&client->output, client_info->will_msg, will_msg_len);
 5123              		.loc 1 1411 5 view .LVU1481
 5124 0344 BDF81820 		ldrh	r2, [sp, #24]
 5125 0348 3969     		ldr	r1, [r7, #16]
 5126 034a 5046     		mov	r0, r10
 5127 034c FFF7FEFF 		bl	mqtt_output_append_string
 5128              	.LVL571:
1412:Middlewares/Third_Party/LwIP/src/apps/mqtt/mqtt.c ****   }
 5129              		.loc 1 1412 5 view .LVU1482
 5130 0350 BDF81C20 		ldrh	r2, [sp, #28]
 5131 0354 7969     		ldr	r1, [r7, #20]
 5132 0356 5046     		mov	r0, r10
 5133 0358 FFF7FEFF 		bl	mqtt_output_append_string
 5134              	.LVL572:
 5135 035c E4E7     		b	.L358
 5136              	.L385:
1416:Middlewares/Third_Party/LwIP/src/apps/mqtt/mqtt.c ****   }
 5137              		.loc 1 1416 5 view .LVU1483
 5138 035e 4A46     		mov	r2, r9
 5139 0360 7968     		ldr	r1, [r7, #4]
 5140 0362 5046     		mov	r0, r10
 5141 0364 FFF7FEFF 		bl	mqtt_output_append_string
 5142              	.LVL573:
 5143 0368 E2E7     		b	.L359
 5144              	.LVL574:
 5145              	.L360:
ARM GAS  D:\Dev\msys64\tmp\ccB7TkM7.s 			page 137


1302:Middlewares/Third_Party/LwIP/src/apps/mqtt/mqtt.c ****   }
 5146              		.loc 1 1302 12 is_stmt 0 view .LVU1484
 5147 036a 6FF00903 		mvn	r3, #9
 5148 036e 0393     		str	r3, [sp, #12]
 5149 0370 FFE6     		b	.L340
 5150              	.LVL575:
 5151              	.L365:
1362:Middlewares/Third_Party/LwIP/src/apps/mqtt/mqtt.c ****   }
 5152              		.loc 1 1362 12 view .LVU1485
 5153 0372 4FF0FF33 		mov	r3, #-1
 5154 0376 0393     		str	r3, [sp, #12]
 5155 0378 FBE6     		b	.L340
 5156              	.L366:
1374:Middlewares/Third_Party/LwIP/src/apps/mqtt/mqtt.c ****   }
 5157              		.loc 1 1374 12 view .LVU1486
 5158 037a 4FF0FF33 		mov	r3, #-1
 5159 037e 0393     		str	r3, [sp, #12]
 5160 0380 F7E6     		b	.L340
 5161              	.L387:
 5162 0382 00BF     		.align	2
 5163              	.L386:
 5164 0384 00000000 		.word	ip_addr_any
 5165 0388 00000000 		.word	.LC0
 5166 038c 00000000 		.word	.LC31
 5167 0390 58000000 		.word	.LC2
 5168 0394 24000000 		.word	.LC32
 5169 0398 4C000000 		.word	.LC33
 5170 039c 78000000 		.word	.LC34
 5171 03a0 AC000000 		.word	.LC35
 5172 03a4 EC000000 		.word	.LC36
 5173 03a8 2C010000 		.word	.LC37
 5174 03ac 98010000 		.word	.LC39
 5175 03b0 D8010000 		.word	.LC40
 5176 03b4 68010000 		.word	.LC38
 5177 03b8 1C020000 		.word	.LC41
 5178 03bc 5C020000 		.word	.LC42
 5179 03c0 A0020000 		.word	.LC43
 5180 03c4 00000000 		.word	mqtt_tcp_connect_cb
 5181 03c8 00000000 		.word	mqtt_tcp_err_cb
 5182 03cc DC020000 		.word	.LC44
 5183              		.cfi_endproc
 5184              	.LFE65:
 5186              		.section	.rodata.mqtt_disconnect.str1.4,"aMS",%progbits,1
 5187              		.align	2
 5188              	.LC45:
 5189 0000 6D717474 		.ascii	"mqtt_disconnect: client != NULL\000"
 5189      5F646973 
 5189      636F6E6E 
 5189      6563743A 
 5189      20636C69 
 5190              		.section	.text.mqtt_disconnect,"ax",%progbits
 5191              		.align	1
 5192              		.global	mqtt_disconnect
 5193              		.syntax unified
 5194              		.thumb
 5195              		.thumb_func
 5196              		.fpu fpv5-sp-d16
ARM GAS  D:\Dev\msys64\tmp\ccB7TkM7.s 			page 138


 5198              	mqtt_disconnect:
 5199              	.LVL576:
 5200              	.LFB66:
1429:Middlewares/Third_Party/LwIP/src/apps/mqtt/mqtt.c **** 
1430:Middlewares/Third_Party/LwIP/src/apps/mqtt/mqtt.c **** 
1431:Middlewares/Third_Party/LwIP/src/apps/mqtt/mqtt.c **** /**
1432:Middlewares/Third_Party/LwIP/src/apps/mqtt/mqtt.c ****  * @ingroup mqtt
1433:Middlewares/Third_Party/LwIP/src/apps/mqtt/mqtt.c ****  * Disconnect from MQTT server
1434:Middlewares/Third_Party/LwIP/src/apps/mqtt/mqtt.c ****  * @param client MQTT client
1435:Middlewares/Third_Party/LwIP/src/apps/mqtt/mqtt.c ****  */
1436:Middlewares/Third_Party/LwIP/src/apps/mqtt/mqtt.c **** void
1437:Middlewares/Third_Party/LwIP/src/apps/mqtt/mqtt.c **** mqtt_disconnect(mqtt_client_t *client)
1438:Middlewares/Third_Party/LwIP/src/apps/mqtt/mqtt.c **** {
 5201              		.loc 1 1438 1 is_stmt 1 view -0
 5202              		.cfi_startproc
 5203              		@ args = 0, pretend = 0, frame = 0
 5204              		@ frame_needed = 0, uses_anonymous_args = 0
 5205              		.loc 1 1438 1 is_stmt 0 view .LVU1488
 5206 0000 10B5     		push	{r4, lr}
 5207              	.LCFI51:
 5208              		.cfi_def_cfa_offset 8
 5209              		.cfi_offset 4, -8
 5210              		.cfi_offset 14, -4
1439:Middlewares/Third_Party/LwIP/src/apps/mqtt/mqtt.c ****   LWIP_ASSERT_CORE_LOCKED();
 5211              		.loc 1 1439 28 is_stmt 1 view .LVU1489
1440:Middlewares/Third_Party/LwIP/src/apps/mqtt/mqtt.c ****   LWIP_ASSERT("mqtt_disconnect: client != NULL", client);
 5212              		.loc 1 1440 3 view .LVU1490
 5213              		.loc 1 1440 3 view .LVU1491
 5214 0002 0446     		mov	r4, r0
 5215 0004 10B1     		cbz	r0, .L392
 5216              	.LVL577:
 5217              	.L389:
 5218              		.loc 1 1440 3 discriminator 3 view .LVU1492
 5219              		.loc 1 1440 3 discriminator 3 view .LVU1493
1441:Middlewares/Third_Party/LwIP/src/apps/mqtt/mqtt.c ****   /* If connection in not already closed */
1442:Middlewares/Third_Party/LwIP/src/apps/mqtt/mqtt.c ****   if (client->conn_state != TCP_DISCONNECTED) {
 5220              		.loc 1 1442 3 discriminator 3 view .LVU1494
 5221              		.loc 1 1442 13 is_stmt 0 discriminator 3 view .LVU1495
 5222 0006 A37A     		ldrb	r3, [r4, #10]	@ zero_extendqisi2
 5223              		.loc 1 1442 6 discriminator 3 view .LVU1496
 5224 0008 43B9     		cbnz	r3, .L393
 5225              	.L388:
1443:Middlewares/Third_Party/LwIP/src/apps/mqtt/mqtt.c ****     /* Set conn_state before calling mqtt_close to prevent callback from being called */
1444:Middlewares/Third_Party/LwIP/src/apps/mqtt/mqtt.c ****     client->conn_state = TCP_DISCONNECTED;
1445:Middlewares/Third_Party/LwIP/src/apps/mqtt/mqtt.c ****     mqtt_close(client, (mqtt_connection_status_t)0);
1446:Middlewares/Third_Party/LwIP/src/apps/mqtt/mqtt.c ****   }
1447:Middlewares/Third_Party/LwIP/src/apps/mqtt/mqtt.c **** }
 5226              		.loc 1 1447 1 view .LVU1497
 5227 000a 10BD     		pop	{r4, pc}
 5228              	.LVL578:
 5229              	.L392:
1440:Middlewares/Third_Party/LwIP/src/apps/mqtt/mqtt.c ****   /* If connection in not already closed */
 5230              		.loc 1 1440 3 is_stmt 1 discriminator 1 view .LVU1498
1440:Middlewares/Third_Party/LwIP/src/apps/mqtt/mqtt.c ****   /* If connection in not already closed */
 5231              		.loc 1 1440 3 discriminator 1 view .LVU1499
 5232 000c 064B     		ldr	r3, .L394
 5233 000e 4FF4B462 		mov	r2, #1440
ARM GAS  D:\Dev\msys64\tmp\ccB7TkM7.s 			page 139


 5234 0012 0649     		ldr	r1, .L394+4
 5235 0014 0648     		ldr	r0, .L394+8
 5236              	.LVL579:
1440:Middlewares/Third_Party/LwIP/src/apps/mqtt/mqtt.c ****   /* If connection in not already closed */
 5237              		.loc 1 1440 3 is_stmt 0 discriminator 1 view .LVU1500
 5238 0016 FFF7FEFF 		bl	printf
 5239              	.LVL580:
 5240 001a F4E7     		b	.L389
 5241              	.L393:
1444:Middlewares/Third_Party/LwIP/src/apps/mqtt/mqtt.c ****     mqtt_close(client, (mqtt_connection_status_t)0);
 5242              		.loc 1 1444 5 is_stmt 1 view .LVU1501
1444:Middlewares/Third_Party/LwIP/src/apps/mqtt/mqtt.c ****     mqtt_close(client, (mqtt_connection_status_t)0);
 5243              		.loc 1 1444 24 is_stmt 0 view .LVU1502
 5244 001c 0021     		movs	r1, #0
 5245 001e A172     		strb	r1, [r4, #10]
1445:Middlewares/Third_Party/LwIP/src/apps/mqtt/mqtt.c ****   }
 5246              		.loc 1 1445 5 is_stmt 1 view .LVU1503
 5247 0020 2046     		mov	r0, r4
 5248 0022 FFF7FEFF 		bl	mqtt_close
 5249              	.LVL581:
 5250              		.loc 1 1447 1 is_stmt 0 view .LVU1504
 5251 0026 F0E7     		b	.L388
 5252              	.L395:
 5253              		.align	2
 5254              	.L394:
 5255 0028 00000000 		.word	.LC0
 5256 002c 00000000 		.word	.LC45
 5257 0030 58000000 		.word	.LC2
 5258              		.cfi_endproc
 5259              	.LFE66:
 5261              		.section	.rodata.mqtt_client_is_connected.str1.4,"aMS",%progbits,1
 5262              		.align	2
 5263              	.LC46:
 5264 0000 6D717474 		.ascii	"mqtt_client_is_connected: client != NULL\000"
 5264      5F636C69 
 5264      656E745F 
 5264      69735F63 
 5264      6F6E6E65 
 5265              		.section	.text.mqtt_client_is_connected,"ax",%progbits
 5266              		.align	1
 5267              		.global	mqtt_client_is_connected
 5268              		.syntax unified
 5269              		.thumb
 5270              		.thumb_func
 5271              		.fpu fpv5-sp-d16
 5273              	mqtt_client_is_connected:
 5274              	.LVL582:
 5275              	.LFB67:
1448:Middlewares/Third_Party/LwIP/src/apps/mqtt/mqtt.c **** 
1449:Middlewares/Third_Party/LwIP/src/apps/mqtt/mqtt.c **** /**
1450:Middlewares/Third_Party/LwIP/src/apps/mqtt/mqtt.c ****  * @ingroup mqtt
1451:Middlewares/Third_Party/LwIP/src/apps/mqtt/mqtt.c ****  * Check connection with server
1452:Middlewares/Third_Party/LwIP/src/apps/mqtt/mqtt.c ****  * @param client MQTT client
1453:Middlewares/Third_Party/LwIP/src/apps/mqtt/mqtt.c ****  * @return 1 if connected to server, 0 otherwise
1454:Middlewares/Third_Party/LwIP/src/apps/mqtt/mqtt.c ****  */
1455:Middlewares/Third_Party/LwIP/src/apps/mqtt/mqtt.c **** u8_t
1456:Middlewares/Third_Party/LwIP/src/apps/mqtt/mqtt.c **** mqtt_client_is_connected(mqtt_client_t *client)
ARM GAS  D:\Dev\msys64\tmp\ccB7TkM7.s 			page 140


1457:Middlewares/Third_Party/LwIP/src/apps/mqtt/mqtt.c **** {
 5276              		.loc 1 1457 1 is_stmt 1 view -0
 5277              		.cfi_startproc
 5278              		@ args = 0, pretend = 0, frame = 0
 5279              		@ frame_needed = 0, uses_anonymous_args = 0
 5280              		.loc 1 1457 1 is_stmt 0 view .LVU1506
 5281 0000 10B5     		push	{r4, lr}
 5282              	.LCFI52:
 5283              		.cfi_def_cfa_offset 8
 5284              		.cfi_offset 4, -8
 5285              		.cfi_offset 14, -4
1458:Middlewares/Third_Party/LwIP/src/apps/mqtt/mqtt.c ****   LWIP_ASSERT_CORE_LOCKED();
 5286              		.loc 1 1458 28 is_stmt 1 view .LVU1507
1459:Middlewares/Third_Party/LwIP/src/apps/mqtt/mqtt.c ****   LWIP_ASSERT("mqtt_client_is_connected: client != NULL", client);
 5287              		.loc 1 1459 3 view .LVU1508
 5288              		.loc 1 1459 3 view .LVU1509
 5289 0002 0446     		mov	r4, r0
 5290 0004 28B1     		cbz	r0, .L399
 5291              	.LVL583:
 5292              	.L397:
 5293              		.loc 1 1459 3 discriminator 3 view .LVU1510
 5294              		.loc 1 1459 3 discriminator 3 view .LVU1511
1460:Middlewares/Third_Party/LwIP/src/apps/mqtt/mqtt.c ****   return client->conn_state == MQTT_CONNECTED;
 5295              		.loc 1 1460 3 discriminator 3 view .LVU1512
 5296              		.loc 1 1460 16 is_stmt 0 discriminator 3 view .LVU1513
 5297 0006 A07A     		ldrb	r0, [r4, #10]	@ zero_extendqisi2
1461:Middlewares/Third_Party/LwIP/src/apps/mqtt/mqtt.c **** }
 5298              		.loc 1 1461 1 discriminator 3 view .LVU1514
 5299 0008 0328     		cmp	r0, #3
 5300 000a 14BF     		ite	ne
 5301 000c 0020     		movne	r0, #0
 5302 000e 0120     		moveq	r0, #1
 5303 0010 10BD     		pop	{r4, pc}
 5304              	.LVL584:
 5305              	.L399:
1459:Middlewares/Third_Party/LwIP/src/apps/mqtt/mqtt.c ****   LWIP_ASSERT("mqtt_client_is_connected: client != NULL", client);
 5306              		.loc 1 1459 3 is_stmt 1 discriminator 1 view .LVU1515
1459:Middlewares/Third_Party/LwIP/src/apps/mqtt/mqtt.c ****   LWIP_ASSERT("mqtt_client_is_connected: client != NULL", client);
 5307              		.loc 1 1459 3 discriminator 1 view .LVU1516
 5308 0012 044B     		ldr	r3, .L400
 5309 0014 40F2B352 		movw	r2, #1459
 5310 0018 0349     		ldr	r1, .L400+4
 5311 001a 0448     		ldr	r0, .L400+8
 5312              	.LVL585:
1459:Middlewares/Third_Party/LwIP/src/apps/mqtt/mqtt.c ****   LWIP_ASSERT("mqtt_client_is_connected: client != NULL", client);
 5313              		.loc 1 1459 3 is_stmt 0 discriminator 1 view .LVU1517
 5314 001c FFF7FEFF 		bl	printf
 5315              	.LVL586:
 5316 0020 F1E7     		b	.L397
 5317              	.L401:
 5318 0022 00BF     		.align	2
 5319              	.L400:
 5320 0024 00000000 		.word	.LC0
 5321 0028 00000000 		.word	.LC46
 5322 002c 58000000 		.word	.LC2
 5323              		.cfi_endproc
 5324              	.LFE67:
ARM GAS  D:\Dev\msys64\tmp\ccB7TkM7.s 			page 141


 5326              		.text
 5327              	.Letext0:
 5328              		.file 2 "d:\\dev\\gcc-arm-none-eabi\\9_2019_q4-major\\lib\\gcc\\arm-none-eabi\\9.2.1\\include\\std
 5329              		.file 3 "d:\\dev\\gcc-arm-none-eabi\\9_2019_q4-major\\arm-none-eabi\\include\\machine\\_default_ty
 5330              		.file 4 "d:\\dev\\gcc-arm-none-eabi\\9_2019_q4-major\\arm-none-eabi\\include\\sys\\lock.h"
 5331              		.file 5 "d:\\dev\\gcc-arm-none-eabi\\9_2019_q4-major\\arm-none-eabi\\include\\sys\\_types.h"
 5332              		.file 6 "d:\\dev\\gcc-arm-none-eabi\\9_2019_q4-major\\arm-none-eabi\\include\\sys\\reent.h"
 5333              		.file 7 "d:\\dev\\gcc-arm-none-eabi\\9_2019_q4-major\\arm-none-eabi\\include\\stdlib.h"
 5334              		.file 8 "d:\\dev\\gcc-arm-none-eabi\\9_2019_q4-major\\arm-none-eabi\\include\\sys\\_stdint.h"
 5335              		.file 9 "d:\\dev\\gcc-arm-none-eabi\\9_2019_q4-major\\arm-none-eabi\\include\\time.h"
 5336              		.file 10 "Middlewares/Third_Party/LwIP/src/include/lwip/arch.h"
 5337              		.file 11 "d:\\dev\\gcc-arm-none-eabi\\9_2019_q4-major\\arm-none-eabi\\include\\ctype.h"
 5338              		.file 12 "Middlewares/Third_Party/LwIP/src/include/lwip/err.h"
 5339              		.file 13 "Middlewares/Third_Party/LwIP/src/include/lwip/ip4_addr.h"
 5340              		.file 14 "Middlewares/Third_Party/LwIP/src/include/lwip/ip_addr.h"
 5341              		.file 15 "Middlewares/Third_Party/LwIP/src/include/lwip/apps/mqtt.h"
 5342              		.file 16 "Middlewares/Third_Party/LwIP/src/include/lwip/apps/mqtt_priv.h"
 5343              		.file 17 "Middlewares/Third_Party/LwIP/src/include/lwip/tcpbase.h"
 5344              		.file 18 "Middlewares/Third_Party/LwIP/src/include/lwip/pbuf.h"
 5345              		.file 19 "Middlewares/Third_Party/LwIP/src/include/lwip/priv/memp_priv.h"
 5346              		.file 20 "Middlewares/Third_Party/LwIP/src/include/lwip/memp.h"
 5347              		.file 21 "Middlewares/Third_Party/LwIP/src/include/lwip/netif.h"
 5348              		.file 22 "Middlewares/Third_Party/LwIP/src/include/lwip/prot/ip4.h"
 5349              		.file 23 "Middlewares/Third_Party/LwIP/src/include/lwip/ip.h"
 5350              		.file 24 "Middlewares/Third_Party/LwIP/src/include/lwip/tcp.h"
 5351              		.file 25 "Core/Inc/FreeRTOSConfig.h"
 5352              		.file 26 "Middlewares/Third_Party/LwIP/src/include/lwip/timeouts.h"
 5353              		.file 27 "d:\\dev\\gcc-arm-none-eabi\\9_2019_q4-major\\arm-none-eabi\\include\\stdio.h"
 5354              		.file 28 "d:\\dev\\gcc-arm-none-eabi\\9_2019_q4-major\\arm-none-eabi\\include\\string.h"
 5355              		.file 29 "Middlewares/Third_Party/LwIP/src/include/lwip/mem.h"
 5356              		.file 30 "<built-in>"
ARM GAS  D:\Dev\msys64\tmp\ccB7TkM7.s 			page 142


DEFINED SYMBOLS
                            *ABS*:00000000 mqtt.c
D:\Dev\msys64\tmp\ccB7TkM7.s:18     .text.msg_generate_packet_id:00000000 $t
D:\Dev\msys64\tmp\ccB7TkM7.s:25     .text.msg_generate_packet_id:00000000 msg_generate_packet_id
D:\Dev\msys64\tmp\ccB7TkM7.s:59     .text.mqtt_ringbuf_put:00000000 $t
D:\Dev\msys64\tmp\ccB7TkM7.s:65     .text.mqtt_ringbuf_put:00000000 mqtt_ringbuf_put
D:\Dev\msys64\tmp\ccB7TkM7.s:99     .text.mqtt_ringbuf_get_ptr:00000000 $t
D:\Dev\msys64\tmp\ccB7TkM7.s:105    .text.mqtt_ringbuf_get_ptr:00000000 mqtt_ringbuf_get_ptr
D:\Dev\msys64\tmp\ccB7TkM7.s:126    .text.mqtt_ringbuf_len:00000000 $t
D:\Dev\msys64\tmp\ccB7TkM7.s:132    .text.mqtt_ringbuf_len:00000000 mqtt_ringbuf_len
D:\Dev\msys64\tmp\ccB7TkM7.s:168    .text.mqtt_delete_request:00000000 $t
D:\Dev\msys64\tmp\ccB7TkM7.s:174    .text.mqtt_delete_request:00000000 mqtt_delete_request
D:\Dev\msys64\tmp\ccB7TkM7.s:196    .text.mqtt_output_append_u8:00000000 $t
D:\Dev\msys64\tmp\ccB7TkM7.s:202    .text.mqtt_output_append_u8:00000000 mqtt_output_append_u8
D:\Dev\msys64\tmp\ccB7TkM7.s:224    .text.mqtt_output_append_u16:00000000 $t
D:\Dev\msys64\tmp\ccB7TkM7.s:230    .text.mqtt_output_append_u16:00000000 mqtt_output_append_u16
D:\Dev\msys64\tmp\ccB7TkM7.s:265    .text.mqtt_output_append_buf:00000000 $t
D:\Dev\msys64\tmp\ccB7TkM7.s:271    .text.mqtt_output_append_buf:00000000 mqtt_output_append_buf
D:\Dev\msys64\tmp\ccB7TkM7.s:324    .text.mqtt_output_append_string:00000000 $t
D:\Dev\msys64\tmp\ccB7TkM7.s:330    .text.mqtt_output_append_string:00000000 mqtt_output_append_string
D:\Dev\msys64\tmp\ccB7TkM7.s:393    .text.mqtt_output_append_fixed_header:00000000 $t
D:\Dev\msys64\tmp\ccB7TkM7.s:399    .text.mqtt_output_append_fixed_header:00000000 mqtt_output_append_fixed_header
D:\Dev\msys64\tmp\ccB7TkM7.s:482    .text.mqtt_incomming_suback:00000000 $t
D:\Dev\msys64\tmp\ccB7TkM7.s:488    .text.mqtt_incomming_suback:00000000 mqtt_incomming_suback
D:\Dev\msys64\tmp\ccB7TkM7.s:532    .rodata.mqtt_create_request.str1.4:00000000 $d
D:\Dev\msys64\tmp\ccB7TkM7.s:542    .text.mqtt_create_request:00000000 $t
D:\Dev\msys64\tmp\ccB7TkM7.s:548    .text.mqtt_create_request:00000000 mqtt_create_request
D:\Dev\msys64\tmp\ccB7TkM7.s:660    .text.mqtt_create_request:00000050 $d
D:\Dev\msys64\tmp\ccB7TkM7.s:667    .rodata.mqtt_output_check_space.str1.4:00000000 $d
D:\Dev\msys64\tmp\ccB7TkM7.s:671    .text.mqtt_output_check_space:00000000 $t
D:\Dev\msys64\tmp\ccB7TkM7.s:677    .text.mqtt_output_check_space:00000000 mqtt_output_check_space
D:\Dev\msys64\tmp\ccB7TkM7.s:751    .text.mqtt_output_check_space:00000038 $d
D:\Dev\msys64\tmp\ccB7TkM7.s:758    .rodata.mqtt_append_request.str1.4:00000000 $d
D:\Dev\msys64\tmp\ccB7TkM7.s:766    .text.mqtt_append_request:00000000 $t
D:\Dev\msys64\tmp\ccB7TkM7.s:772    .text.mqtt_append_request:00000000 mqtt_append_request
D:\Dev\msys64\tmp\ccB7TkM7.s:895    .text.mqtt_append_request:00000050 $d
D:\Dev\msys64\tmp\ccB7TkM7.s:903    .rodata.mqtt_ringbuf_advance_get_idx.str1.4:00000000 $d
D:\Dev\msys64\tmp\ccB7TkM7.s:908    .text.mqtt_ringbuf_advance_get_idx:00000000 $t
D:\Dev\msys64\tmp\ccB7TkM7.s:914    .text.mqtt_ringbuf_advance_get_idx:00000000 mqtt_ringbuf_advance_get_idx
D:\Dev\msys64\tmp\ccB7TkM7.s:975    .text.mqtt_ringbuf_advance_get_idx:0000002c $d
D:\Dev\msys64\tmp\ccB7TkM7.s:982    .rodata.mqtt_request_time_elapsed.str1.4:00000000 $d
D:\Dev\msys64\tmp\ccB7TkM7.s:986    .text.mqtt_request_time_elapsed:00000000 $t
D:\Dev\msys64\tmp\ccB7TkM7.s:992    .text.mqtt_request_time_elapsed:00000000 mqtt_request_time_elapsed
D:\Dev\msys64\tmp\ccB7TkM7.s:1112   .text.mqtt_request_time_elapsed:00000060 $d
D:\Dev\msys64\tmp\ccB7TkM7.s:1119   .rodata.mqtt_clear_requests.str1.4:00000000 $d
D:\Dev\msys64\tmp\ccB7TkM7.s:1123   .text.mqtt_clear_requests:00000000 $t
D:\Dev\msys64\tmp\ccB7TkM7.s:1129   .text.mqtt_clear_requests:00000000 mqtt_clear_requests
D:\Dev\msys64\tmp\ccB7TkM7.s:1198   .text.mqtt_clear_requests:0000002c $d
D:\Dev\msys64\tmp\ccB7TkM7.s:1205   .rodata.mqtt_take_request.str1.4:00000000 $d
D:\Dev\msys64\tmp\ccB7TkM7.s:1209   .text.mqtt_take_request:00000000 $t
D:\Dev\msys64\tmp\ccB7TkM7.s:1215   .text.mqtt_take_request:00000000 mqtt_take_request
D:\Dev\msys64\tmp\ccB7TkM7.s:1330   .text.mqtt_take_request:0000004c $d
D:\Dev\msys64\tmp\ccB7TkM7.s:1337   .rodata.mqtt_init_requests.str1.4:00000000 $d
D:\Dev\msys64\tmp\ccB7TkM7.s:1341   .text.mqtt_init_requests:00000000 $t
D:\Dev\msys64\tmp\ccB7TkM7.s:1347   .text.mqtt_init_requests:00000000 mqtt_init_requests
D:\Dev\msys64\tmp\ccB7TkM7.s:1418   .text.mqtt_init_requests:00000030 $d
D:\Dev\msys64\tmp\ccB7TkM7.s:1425   .rodata.mqtt_output_send.str1.4:00000000 $d
ARM GAS  D:\Dev\msys64\tmp\ccB7TkM7.s 			page 143


D:\Dev\msys64\tmp\ccB7TkM7.s:1429   .text.mqtt_output_send:00000000 $t
D:\Dev\msys64\tmp\ccB7TkM7.s:1435   .text.mqtt_output_send:00000000 mqtt_output_send
D:\Dev\msys64\tmp\ccB7TkM7.s:1642   .text.mqtt_output_send:000000e4 $d
D:\Dev\msys64\tmp\ccB7TkM7.s:1649   .text.mqtt_tcp_poll_cb:00000000 $t
D:\Dev\msys64\tmp\ccB7TkM7.s:1655   .text.mqtt_tcp_poll_cb:00000000 mqtt_tcp_poll_cb
D:\Dev\msys64\tmp\ccB7TkM7.s:1696   .text.mqtt_tcp_sent_cb:00000000 $t
D:\Dev\msys64\tmp\ccB7TkM7.s:1702   .text.mqtt_tcp_sent_cb:00000000 mqtt_tcp_sent_cb
D:\Dev\msys64\tmp\ccB7TkM7.s:1795   .text.pub_ack_rec_rel_response:00000000 $t
D:\Dev\msys64\tmp\ccB7TkM7.s:1801   .text.pub_ack_rec_rel_response:00000000 pub_ack_rec_rel_response
D:\Dev\msys64\tmp\ccB7TkM7.s:1885   .rodata.mqtt_message_received.str1.4:00000000 $d
D:\Dev\msys64\tmp\ccB7TkM7.s:1895   .text.mqtt_message_received:00000000 $t
D:\Dev\msys64\tmp\ccB7TkM7.s:1901   .text.mqtt_message_received:00000000 mqtt_message_received
D:\Dev\msys64\tmp\ccB7TkM7.s:2533   .text.mqtt_message_received:000002ac $d
D:\Dev\msys64\tmp\ccB7TkM7.s:2542   .rodata.mqtt_close.str1.4:00000000 $d
D:\Dev\msys64\tmp\ccB7TkM7.s:2546   .text.mqtt_close:00000000 $t
D:\Dev\msys64\tmp\ccB7TkM7.s:2552   .text.mqtt_close:00000000 mqtt_close
D:\Dev\msys64\tmp\ccB7TkM7.s:2675   .text.mqtt_close:0000006c $d
D:\Dev\msys64\tmp\ccB7TkM7.s:2765   .text.mqtt_cyclic_timer:00000000 mqtt_cyclic_timer
D:\Dev\msys64\tmp\ccB7TkM7.s:2684   .rodata.mqtt_tcp_err_cb.str1.4:00000000 $d
D:\Dev\msys64\tmp\ccB7TkM7.s:2688   .text.mqtt_tcp_err_cb:00000000 $t
D:\Dev\msys64\tmp\ccB7TkM7.s:2694   .text.mqtt_tcp_err_cb:00000000 mqtt_tcp_err_cb
D:\Dev\msys64\tmp\ccB7TkM7.s:2748   .text.mqtt_tcp_err_cb:00000028 $d
D:\Dev\msys64\tmp\ccB7TkM7.s:2755   .rodata.mqtt_cyclic_timer.str1.4:00000000 $d
D:\Dev\msys64\tmp\ccB7TkM7.s:2759   .text.mqtt_cyclic_timer:00000000 $t
D:\Dev\msys64\tmp\ccB7TkM7.s:2958   .text.mqtt_cyclic_timer:000000c0 $d
D:\Dev\msys64\tmp\ccB7TkM7.s:2966   .text.mqtt_tcp_connect_cb:00000000 $t
D:\Dev\msys64\tmp\ccB7TkM7.s:2972   .text.mqtt_tcp_connect_cb:00000000 mqtt_tcp_connect_cb
D:\Dev\msys64\tmp\ccB7TkM7.s:3054   .text.mqtt_tcp_connect_cb:0000004c $d
D:\Dev\msys64\tmp\ccB7TkM7.s:3384   .text.mqtt_tcp_recv_cb:00000000 mqtt_tcp_recv_cb
D:\Dev\msys64\tmp\ccB7TkM7.s:3062   .text.mqtt_parse_incoming:00000000 $t
D:\Dev\msys64\tmp\ccB7TkM7.s:3068   .text.mqtt_parse_incoming:00000000 mqtt_parse_incoming
D:\Dev\msys64\tmp\ccB7TkM7.s:3371   .rodata.mqtt_tcp_recv_cb.str1.4:00000000 $d
D:\Dev\msys64\tmp\ccB7TkM7.s:3378   .text.mqtt_tcp_recv_cb:00000000 $t
D:\Dev\msys64\tmp\ccB7TkM7.s:3526   .text.mqtt_tcp_recv_cb:0000007c $d
D:\Dev\msys64\tmp\ccB7TkM7.s:3535   .rodata.mqtt_publish.str1.4:00000000 $d
D:\Dev\msys64\tmp\ccB7TkM7.s:3551   .text.mqtt_publish:00000000 $t
D:\Dev\msys64\tmp\ccB7TkM7.s:3558   .text.mqtt_publish:00000000 mqtt_publish
D:\Dev\msys64\tmp\ccB7TkM7.s:3862   .text.mqtt_publish:00000150 $d
D:\Dev\msys64\tmp\ccB7TkM7.s:3873   .rodata.mqtt_sub_unsub.str1.4:00000000 $d
D:\Dev\msys64\tmp\ccB7TkM7.s:3889   .text.mqtt_sub_unsub:00000000 $t
D:\Dev\msys64\tmp\ccB7TkM7.s:3896   .text.mqtt_sub_unsub:00000000 mqtt_sub_unsub
D:\Dev\msys64\tmp\ccB7TkM7.s:4197   .text.mqtt_sub_unsub:00000148 $d
D:\Dev\msys64\tmp\ccB7TkM7.s:4208   .rodata.mqtt_set_inpub_callback.str1.4:00000000 $d
D:\Dev\msys64\tmp\ccB7TkM7.s:4212   .text.mqtt_set_inpub_callback:00000000 $t
D:\Dev\msys64\tmp\ccB7TkM7.s:4219   .text.mqtt_set_inpub_callback:00000000 mqtt_set_inpub_callback
D:\Dev\msys64\tmp\ccB7TkM7.s:4281   .text.mqtt_set_inpub_callback:00000024 $d
D:\Dev\msys64\tmp\ccB7TkM7.s:4288   .text.mqtt_client_new:00000000 $t
D:\Dev\msys64\tmp\ccB7TkM7.s:4295   .text.mqtt_client_new:00000000 mqtt_client_new
D:\Dev\msys64\tmp\ccB7TkM7.s:4319   .text.mqtt_client_free:00000000 $t
D:\Dev\msys64\tmp\ccB7TkM7.s:4326   .text.mqtt_client_free:00000000 mqtt_client_free
D:\Dev\msys64\tmp\ccB7TkM7.s:4348   .rodata.mqtt_client_connect.str1.4:00000000 $d
D:\Dev\msys64\tmp\ccB7TkM7.s:4400   .text.mqtt_client_connect:00000000 $t
D:\Dev\msys64\tmp\ccB7TkM7.s:4407   .text.mqtt_client_connect:00000000 mqtt_client_connect
D:\Dev\msys64\tmp\ccB7TkM7.s:5164   .text.mqtt_client_connect:00000384 $d
D:\Dev\msys64\tmp\ccB7TkM7.s:5187   .rodata.mqtt_disconnect.str1.4:00000000 $d
D:\Dev\msys64\tmp\ccB7TkM7.s:5191   .text.mqtt_disconnect:00000000 $t
D:\Dev\msys64\tmp\ccB7TkM7.s:5198   .text.mqtt_disconnect:00000000 mqtt_disconnect
ARM GAS  D:\Dev\msys64\tmp\ccB7TkM7.s 			page 144


D:\Dev\msys64\tmp\ccB7TkM7.s:5255   .text.mqtt_disconnect:00000028 $d
D:\Dev\msys64\tmp\ccB7TkM7.s:5262   .rodata.mqtt_client_is_connected.str1.4:00000000 $d
D:\Dev\msys64\tmp\ccB7TkM7.s:5266   .text.mqtt_client_is_connected:00000000 $t
D:\Dev\msys64\tmp\ccB7TkM7.s:5273   .text.mqtt_client_is_connected:00000000 mqtt_client_is_connected
D:\Dev\msys64\tmp\ccB7TkM7.s:5320   .text.mqtt_client_is_connected:00000024 $d

UNDEFINED SYMBOLS
printf
tcp_write
tcp_output
tcp_recv
tcp_err
tcp_sent
tcp_close
sys_untimeout
tcp_abort
sys_timeout
tcp_poll
pbuf_get_at
pbuf_copy_partial
tcp_recved
pbuf_free
strlen
mem_calloc
mem_free
memset
tcp_new_ip_type
tcp_arg
tcp_bind
tcp_connect
ip_addr_any
