ARM GAS  D:\Dev\msys64\tmp\ccB7TkM7.s 			page 1


   1              		.cpu cortex-m7
   2              		.eabi_attribute 27, 1
   3              		.eabi_attribute 28, 1
   4              		.eabi_attribute 20, 1
   5              		.eabi_attribute 21, 1
   6              		.eabi_attribute 23, 3
   7              		.eabi_attribute 24, 1
   8              		.eabi_attribute 25, 1
   9              		.eabi_attribute 26, 1
  10              		.eabi_attribute 30, 1
  11              		.eabi_attribute 34, 1
  12              		.eabi_attribute 18, 4
  13              		.file	"mqtt.c"
  14              		.text
  15              	.Ltext0:
  16              		.cfi_sections	.debug_frame
  17              		.section	.text.msg_generate_packet_id,"ax",%progbits
  18              		.align	1
  19              		.arch armv7e-m
  20              		.syntax unified
  21              		.thumb
  22              		.thumb_func
  23              		.fpu fpv5-sp-d16
  25              	msg_generate_packet_id:
  26              	.LVL0:
  27              	.LFB30:
  28              		.file 1 "Middlewares/Third_Party/LwIP/src/apps/mqtt/mqtt.c"
   1:Middlewares/Third_Party/LwIP/src/apps/mqtt/mqtt.c **** /**
   2:Middlewares/Third_Party/LwIP/src/apps/mqtt/mqtt.c ****  * @file
   3:Middlewares/Third_Party/LwIP/src/apps/mqtt/mqtt.c ****  * MQTT client
   4:Middlewares/Third_Party/LwIP/src/apps/mqtt/mqtt.c ****  *
   5:Middlewares/Third_Party/LwIP/src/apps/mqtt/mqtt.c ****  * @defgroup mqtt MQTT client
   6:Middlewares/Third_Party/LwIP/src/apps/mqtt/mqtt.c ****  * @ingroup apps
   7:Middlewares/Third_Party/LwIP/src/apps/mqtt/mqtt.c ****  * @verbinclude mqtt_client.txt
   8:Middlewares/Third_Party/LwIP/src/apps/mqtt/mqtt.c ****  */
   9:Middlewares/Third_Party/LwIP/src/apps/mqtt/mqtt.c **** 
  10:Middlewares/Third_Party/LwIP/src/apps/mqtt/mqtt.c **** /*
  11:Middlewares/Third_Party/LwIP/src/apps/mqtt/mqtt.c ****  * Copyright (c) 2016 Erik Andersson <erian747@gmail.com>
  12:Middlewares/Third_Party/LwIP/src/apps/mqtt/mqtt.c ****  * All rights reserved.
  13:Middlewares/Third_Party/LwIP/src/apps/mqtt/mqtt.c ****  *
  14:Middlewares/Third_Party/LwIP/src/apps/mqtt/mqtt.c ****  * Redistribution and use in source and binary forms, with or without modification,
  15:Middlewares/Third_Party/LwIP/src/apps/mqtt/mqtt.c ****  * are permitted provided that the following conditions are met:
  16:Middlewares/Third_Party/LwIP/src/apps/mqtt/mqtt.c ****  *
  17:Middlewares/Third_Party/LwIP/src/apps/mqtt/mqtt.c ****  * 1. Redistributions of source code must retain the above copyright notice,
  18:Middlewares/Third_Party/LwIP/src/apps/mqtt/mqtt.c ****  *    this list of conditions and the following disclaimer.
  19:Middlewares/Third_Party/LwIP/src/apps/mqtt/mqtt.c ****  * 2. Redistributions in binary form must reproduce the above copyright notice,
  20:Middlewares/Third_Party/LwIP/src/apps/mqtt/mqtt.c ****  *    this list of conditions and the following disclaimer in the documentation
  21:Middlewares/Third_Party/LwIP/src/apps/mqtt/mqtt.c ****  *    and/or other materials provided with the distribution.
  22:Middlewares/Third_Party/LwIP/src/apps/mqtt/mqtt.c ****  * 3. The name of the author may not be used to endorse or promote products
  23:Middlewares/Third_Party/LwIP/src/apps/mqtt/mqtt.c ****  *    derived from this software without specific prior written permission.
  24:Middlewares/Third_Party/LwIP/src/apps/mqtt/mqtt.c ****  *
  25:Middlewares/Third_Party/LwIP/src/apps/mqtt/mqtt.c ****  * THIS SOFTWARE IS PROVIDED BY THE AUTHOR ``AS IS'' AND ANY EXPRESS OR IMPLIED
  26:Middlewares/Third_Party/LwIP/src/apps/mqtt/mqtt.c ****  * WARRANTIES, INCLUDING, BUT NOT LIMITED TO, THE IMPLIED WARRANTIES OF
  27:Middlewares/Third_Party/LwIP/src/apps/mqtt/mqtt.c ****  * MERCHANTABILITY AND FITNESS FOR A PARTICULAR PURPOSE ARE DISCLAIMED. IN NO EVENT
  28:Middlewares/Third_Party/LwIP/src/apps/mqtt/mqtt.c ****  * SHALL THE AUTHOR BE LIABLE FOR ANY DIRECT, INDIRECT, INCIDENTAL, SPECIAL,
  29:Middlewares/Third_Party/LwIP/src/apps/mqtt/mqtt.c ****  * EXEMPLARY, OR CONSEQUENTIAL DAMAGES (INCLUDING, BUT NOT LIMITED TO, PROCUREMENT
  30:Middlewares/Third_Party/LwIP/src/apps/mqtt/mqtt.c ****  * OF SUBSTITUTE GOODS OR SERVICES; LOSS OF USE, DATA, OR PROFITS; OR BUSINESS
ARM GAS  D:\Dev\msys64\tmp\ccB7TkM7.s 			page 2


  31:Middlewares/Third_Party/LwIP/src/apps/mqtt/mqtt.c ****  * INTERRUPTION) HOWEVER CAUSED AND ON ANY THEORY OF LIABILITY, WHETHER IN
  32:Middlewares/Third_Party/LwIP/src/apps/mqtt/mqtt.c ****  * CONTRACT, STRICT LIABILITY, OR TORT (INCLUDING NEGLIGENCE OR OTHERWISE) ARISING
  33:Middlewares/Third_Party/LwIP/src/apps/mqtt/mqtt.c ****  * IN ANY WAY OUT OF THE USE OF THIS SOFTWARE, EVEN IF ADVISED OF THE POSSIBILITY
  34:Middlewares/Third_Party/LwIP/src/apps/mqtt/mqtt.c ****  * OF SUCH DAMAGE.
  35:Middlewares/Third_Party/LwIP/src/apps/mqtt/mqtt.c ****  *
  36:Middlewares/Third_Party/LwIP/src/apps/mqtt/mqtt.c ****  * This file is part of the lwIP TCP/IP stack
  37:Middlewares/Third_Party/LwIP/src/apps/mqtt/mqtt.c ****  *
  38:Middlewares/Third_Party/LwIP/src/apps/mqtt/mqtt.c ****  * Author: Erik Andersson <erian747@gmail.com>
  39:Middlewares/Third_Party/LwIP/src/apps/mqtt/mqtt.c ****  *
  40:Middlewares/Third_Party/LwIP/src/apps/mqtt/mqtt.c ****  *
  41:Middlewares/Third_Party/LwIP/src/apps/mqtt/mqtt.c ****  * @todo:
  42:Middlewares/Third_Party/LwIP/src/apps/mqtt/mqtt.c ****  * - Handle large outgoing payloads for PUBLISH messages
  43:Middlewares/Third_Party/LwIP/src/apps/mqtt/mqtt.c ****  * - Fix restriction of a single topic in each (UN)SUBSCRIBE message (protocol has support for mult
  44:Middlewares/Third_Party/LwIP/src/apps/mqtt/mqtt.c ****  * - Add support for legacy MQTT protocol version
  45:Middlewares/Third_Party/LwIP/src/apps/mqtt/mqtt.c ****  *
  46:Middlewares/Third_Party/LwIP/src/apps/mqtt/mqtt.c ****  * Please coordinate changes and requests with Erik Andersson
  47:Middlewares/Third_Party/LwIP/src/apps/mqtt/mqtt.c ****  * Erik Andersson <erian747@gmail.com>
  48:Middlewares/Third_Party/LwIP/src/apps/mqtt/mqtt.c ****  *
  49:Middlewares/Third_Party/LwIP/src/apps/mqtt/mqtt.c ****  */
  50:Middlewares/Third_Party/LwIP/src/apps/mqtt/mqtt.c **** #include "lwip/apps/mqtt.h"
  51:Middlewares/Third_Party/LwIP/src/apps/mqtt/mqtt.c **** #include "lwip/apps/mqtt_priv.h"
  52:Middlewares/Third_Party/LwIP/src/apps/mqtt/mqtt.c **** #include "lwip/timeouts.h"
  53:Middlewares/Third_Party/LwIP/src/apps/mqtt/mqtt.c **** #include "lwip/ip_addr.h"
  54:Middlewares/Third_Party/LwIP/src/apps/mqtt/mqtt.c **** #include "lwip/mem.h"
  55:Middlewares/Third_Party/LwIP/src/apps/mqtt/mqtt.c **** #include "lwip/err.h"
  56:Middlewares/Third_Party/LwIP/src/apps/mqtt/mqtt.c **** #include "lwip/pbuf.h"
  57:Middlewares/Third_Party/LwIP/src/apps/mqtt/mqtt.c **** #include "lwip/altcp.h"
  58:Middlewares/Third_Party/LwIP/src/apps/mqtt/mqtt.c **** #include "lwip/altcp_tcp.h"
  59:Middlewares/Third_Party/LwIP/src/apps/mqtt/mqtt.c **** #include "lwip/altcp_tls.h"
  60:Middlewares/Third_Party/LwIP/src/apps/mqtt/mqtt.c **** #include <string.h>
  61:Middlewares/Third_Party/LwIP/src/apps/mqtt/mqtt.c **** 
  62:Middlewares/Third_Party/LwIP/src/apps/mqtt/mqtt.c **** #if LWIP_TCP && LWIP_CALLBACK_API
  63:Middlewares/Third_Party/LwIP/src/apps/mqtt/mqtt.c **** 
  64:Middlewares/Third_Party/LwIP/src/apps/mqtt/mqtt.c **** /**
  65:Middlewares/Third_Party/LwIP/src/apps/mqtt/mqtt.c ****  * MQTT_DEBUG: Default is off.
  66:Middlewares/Third_Party/LwIP/src/apps/mqtt/mqtt.c ****  */
  67:Middlewares/Third_Party/LwIP/src/apps/mqtt/mqtt.c **** #if !defined MQTT_DEBUG || defined __DOXYGEN__
  68:Middlewares/Third_Party/LwIP/src/apps/mqtt/mqtt.c **** #define MQTT_DEBUG                  LWIP_DBG_OFF
  69:Middlewares/Third_Party/LwIP/src/apps/mqtt/mqtt.c **** #endif
  70:Middlewares/Third_Party/LwIP/src/apps/mqtt/mqtt.c **** 
  71:Middlewares/Third_Party/LwIP/src/apps/mqtt/mqtt.c **** #define MQTT_DEBUG_TRACE        (MQTT_DEBUG | LWIP_DBG_TRACE)
  72:Middlewares/Third_Party/LwIP/src/apps/mqtt/mqtt.c **** #define MQTT_DEBUG_STATE        (MQTT_DEBUG | LWIP_DBG_STATE)
  73:Middlewares/Third_Party/LwIP/src/apps/mqtt/mqtt.c **** #define MQTT_DEBUG_WARN         (MQTT_DEBUG | LWIP_DBG_LEVEL_WARNING)
  74:Middlewares/Third_Party/LwIP/src/apps/mqtt/mqtt.c **** #define MQTT_DEBUG_WARN_STATE   (MQTT_DEBUG | LWIP_DBG_LEVEL_WARNING | LWIP_DBG_STATE)
  75:Middlewares/Third_Party/LwIP/src/apps/mqtt/mqtt.c **** #define MQTT_DEBUG_SERIOUS      (MQTT_DEBUG | LWIP_DBG_LEVEL_SERIOUS)
  76:Middlewares/Third_Party/LwIP/src/apps/mqtt/mqtt.c **** 
  77:Middlewares/Third_Party/LwIP/src/apps/mqtt/mqtt.c **** 
  78:Middlewares/Third_Party/LwIP/src/apps/mqtt/mqtt.c **** 
  79:Middlewares/Third_Party/LwIP/src/apps/mqtt/mqtt.c **** /**
  80:Middlewares/Third_Party/LwIP/src/apps/mqtt/mqtt.c ****  * MQTT client connection states
  81:Middlewares/Third_Party/LwIP/src/apps/mqtt/mqtt.c ****  */
  82:Middlewares/Third_Party/LwIP/src/apps/mqtt/mqtt.c **** enum {
  83:Middlewares/Third_Party/LwIP/src/apps/mqtt/mqtt.c ****   TCP_DISCONNECTED,
  84:Middlewares/Third_Party/LwIP/src/apps/mqtt/mqtt.c ****   TCP_CONNECTING,
  85:Middlewares/Third_Party/LwIP/src/apps/mqtt/mqtt.c ****   MQTT_CONNECTING,
  86:Middlewares/Third_Party/LwIP/src/apps/mqtt/mqtt.c ****   MQTT_CONNECTED
  87:Middlewares/Third_Party/LwIP/src/apps/mqtt/mqtt.c **** };
ARM GAS  D:\Dev\msys64\tmp\ccB7TkM7.s 			page 3


  88:Middlewares/Third_Party/LwIP/src/apps/mqtt/mqtt.c **** 
  89:Middlewares/Third_Party/LwIP/src/apps/mqtt/mqtt.c **** /**
  90:Middlewares/Third_Party/LwIP/src/apps/mqtt/mqtt.c ****  * MQTT control message types
  91:Middlewares/Third_Party/LwIP/src/apps/mqtt/mqtt.c ****  */
  92:Middlewares/Third_Party/LwIP/src/apps/mqtt/mqtt.c **** enum mqtt_message_type {
  93:Middlewares/Third_Party/LwIP/src/apps/mqtt/mqtt.c ****   MQTT_MSG_TYPE_CONNECT = 1,
  94:Middlewares/Third_Party/LwIP/src/apps/mqtt/mqtt.c ****   MQTT_MSG_TYPE_CONNACK = 2,
  95:Middlewares/Third_Party/LwIP/src/apps/mqtt/mqtt.c ****   MQTT_MSG_TYPE_PUBLISH = 3,
  96:Middlewares/Third_Party/LwIP/src/apps/mqtt/mqtt.c ****   MQTT_MSG_TYPE_PUBACK = 4,
  97:Middlewares/Third_Party/LwIP/src/apps/mqtt/mqtt.c ****   MQTT_MSG_TYPE_PUBREC = 5,
  98:Middlewares/Third_Party/LwIP/src/apps/mqtt/mqtt.c ****   MQTT_MSG_TYPE_PUBREL = 6,
  99:Middlewares/Third_Party/LwIP/src/apps/mqtt/mqtt.c ****   MQTT_MSG_TYPE_PUBCOMP = 7,
 100:Middlewares/Third_Party/LwIP/src/apps/mqtt/mqtt.c ****   MQTT_MSG_TYPE_SUBSCRIBE = 8,
 101:Middlewares/Third_Party/LwIP/src/apps/mqtt/mqtt.c ****   MQTT_MSG_TYPE_SUBACK = 9,
 102:Middlewares/Third_Party/LwIP/src/apps/mqtt/mqtt.c ****   MQTT_MSG_TYPE_UNSUBSCRIBE = 10,
 103:Middlewares/Third_Party/LwIP/src/apps/mqtt/mqtt.c ****   MQTT_MSG_TYPE_UNSUBACK = 11,
 104:Middlewares/Third_Party/LwIP/src/apps/mqtt/mqtt.c ****   MQTT_MSG_TYPE_PINGREQ = 12,
 105:Middlewares/Third_Party/LwIP/src/apps/mqtt/mqtt.c ****   MQTT_MSG_TYPE_PINGRESP = 13,
 106:Middlewares/Third_Party/LwIP/src/apps/mqtt/mqtt.c ****   MQTT_MSG_TYPE_DISCONNECT = 14
 107:Middlewares/Third_Party/LwIP/src/apps/mqtt/mqtt.c **** };
 108:Middlewares/Third_Party/LwIP/src/apps/mqtt/mqtt.c **** 
 109:Middlewares/Third_Party/LwIP/src/apps/mqtt/mqtt.c **** /** Helpers to extract control packet type and qos from first byte in fixed header */
 110:Middlewares/Third_Party/LwIP/src/apps/mqtt/mqtt.c **** #define MQTT_CTL_PACKET_TYPE(fixed_hdr_byte0) ((fixed_hdr_byte0 & 0xf0) >> 4)
 111:Middlewares/Third_Party/LwIP/src/apps/mqtt/mqtt.c **** #define MQTT_CTL_PACKET_QOS(fixed_hdr_byte0) ((fixed_hdr_byte0 & 0x6) >> 1)
 112:Middlewares/Third_Party/LwIP/src/apps/mqtt/mqtt.c **** 
 113:Middlewares/Third_Party/LwIP/src/apps/mqtt/mqtt.c **** /**
 114:Middlewares/Third_Party/LwIP/src/apps/mqtt/mqtt.c ****  * MQTT connect flags, only used in CONNECT message
 115:Middlewares/Third_Party/LwIP/src/apps/mqtt/mqtt.c ****  */
 116:Middlewares/Third_Party/LwIP/src/apps/mqtt/mqtt.c **** enum mqtt_connect_flag {
 117:Middlewares/Third_Party/LwIP/src/apps/mqtt/mqtt.c ****   MQTT_CONNECT_FLAG_USERNAME = 1 << 7,
 118:Middlewares/Third_Party/LwIP/src/apps/mqtt/mqtt.c ****   MQTT_CONNECT_FLAG_PASSWORD = 1 << 6,
 119:Middlewares/Third_Party/LwIP/src/apps/mqtt/mqtt.c ****   MQTT_CONNECT_FLAG_WILL_RETAIN = 1 << 5,
 120:Middlewares/Third_Party/LwIP/src/apps/mqtt/mqtt.c ****   MQTT_CONNECT_FLAG_WILL = 1 << 2,
 121:Middlewares/Third_Party/LwIP/src/apps/mqtt/mqtt.c ****   MQTT_CONNECT_FLAG_CLEAN_SESSION = 1 << 1
 122:Middlewares/Third_Party/LwIP/src/apps/mqtt/mqtt.c **** };
 123:Middlewares/Third_Party/LwIP/src/apps/mqtt/mqtt.c **** 
 124:Middlewares/Third_Party/LwIP/src/apps/mqtt/mqtt.c **** 
 125:Middlewares/Third_Party/LwIP/src/apps/mqtt/mqtt.c **** static void mqtt_cyclic_timer(void *arg);
 126:Middlewares/Third_Party/LwIP/src/apps/mqtt/mqtt.c **** 
 127:Middlewares/Third_Party/LwIP/src/apps/mqtt/mqtt.c **** #if defined(LWIP_DEBUG)
 128:Middlewares/Third_Party/LwIP/src/apps/mqtt/mqtt.c **** static const char *const mqtt_message_type_str[15] = {
 129:Middlewares/Third_Party/LwIP/src/apps/mqtt/mqtt.c ****   "UNDEFINED",
 130:Middlewares/Third_Party/LwIP/src/apps/mqtt/mqtt.c ****   "CONNECT",
 131:Middlewares/Third_Party/LwIP/src/apps/mqtt/mqtt.c ****   "CONNACK",
 132:Middlewares/Third_Party/LwIP/src/apps/mqtt/mqtt.c ****   "PUBLISH",
 133:Middlewares/Third_Party/LwIP/src/apps/mqtt/mqtt.c ****   "PUBACK",
 134:Middlewares/Third_Party/LwIP/src/apps/mqtt/mqtt.c ****   "PUBREC",
 135:Middlewares/Third_Party/LwIP/src/apps/mqtt/mqtt.c ****   "PUBREL",
 136:Middlewares/Third_Party/LwIP/src/apps/mqtt/mqtt.c ****   "PUBCOMP",
 137:Middlewares/Third_Party/LwIP/src/apps/mqtt/mqtt.c ****   "SUBSCRIBE",
 138:Middlewares/Third_Party/LwIP/src/apps/mqtt/mqtt.c ****   "SUBACK",
 139:Middlewares/Third_Party/LwIP/src/apps/mqtt/mqtt.c ****   "UNSUBSCRIBE",
 140:Middlewares/Third_Party/LwIP/src/apps/mqtt/mqtt.c ****   "UNSUBACK",
 141:Middlewares/Third_Party/LwIP/src/apps/mqtt/mqtt.c ****   "PINGREQ",
 142:Middlewares/Third_Party/LwIP/src/apps/mqtt/mqtt.c ****   "PINGRESP",
 143:Middlewares/Third_Party/LwIP/src/apps/mqtt/mqtt.c ****   "DISCONNECT"
 144:Middlewares/Third_Party/LwIP/src/apps/mqtt/mqtt.c **** };
ARM GAS  D:\Dev\msys64\tmp\ccB7TkM7.s 			page 4


 145:Middlewares/Third_Party/LwIP/src/apps/mqtt/mqtt.c **** 
 146:Middlewares/Third_Party/LwIP/src/apps/mqtt/mqtt.c **** /**
 147:Middlewares/Third_Party/LwIP/src/apps/mqtt/mqtt.c ****  * Message type value to string
 148:Middlewares/Third_Party/LwIP/src/apps/mqtt/mqtt.c ****  * @param msg_type see enum mqtt_message_type
 149:Middlewares/Third_Party/LwIP/src/apps/mqtt/mqtt.c ****  *
 150:Middlewares/Third_Party/LwIP/src/apps/mqtt/mqtt.c ****  * @return Control message type text string
 151:Middlewares/Third_Party/LwIP/src/apps/mqtt/mqtt.c ****  */
 152:Middlewares/Third_Party/LwIP/src/apps/mqtt/mqtt.c **** static const char *
 153:Middlewares/Third_Party/LwIP/src/apps/mqtt/mqtt.c **** mqtt_msg_type_to_str(u8_t msg_type)
 154:Middlewares/Third_Party/LwIP/src/apps/mqtt/mqtt.c **** {
 155:Middlewares/Third_Party/LwIP/src/apps/mqtt/mqtt.c ****   if (msg_type >= LWIP_ARRAYSIZE(mqtt_message_type_str)) {
 156:Middlewares/Third_Party/LwIP/src/apps/mqtt/mqtt.c ****     msg_type = 0;
 157:Middlewares/Third_Party/LwIP/src/apps/mqtt/mqtt.c ****   }
 158:Middlewares/Third_Party/LwIP/src/apps/mqtt/mqtt.c ****   return mqtt_message_type_str[msg_type];
 159:Middlewares/Third_Party/LwIP/src/apps/mqtt/mqtt.c **** }
 160:Middlewares/Third_Party/LwIP/src/apps/mqtt/mqtt.c **** 
 161:Middlewares/Third_Party/LwIP/src/apps/mqtt/mqtt.c **** #endif
 162:Middlewares/Third_Party/LwIP/src/apps/mqtt/mqtt.c **** 
 163:Middlewares/Third_Party/LwIP/src/apps/mqtt/mqtt.c **** 
 164:Middlewares/Third_Party/LwIP/src/apps/mqtt/mqtt.c **** /**
 165:Middlewares/Third_Party/LwIP/src/apps/mqtt/mqtt.c ****  * Generate MQTT packet identifier
 166:Middlewares/Third_Party/LwIP/src/apps/mqtt/mqtt.c ****  * @param client MQTT client
 167:Middlewares/Third_Party/LwIP/src/apps/mqtt/mqtt.c ****  * @return New packet identifier, range 1 to 65535
 168:Middlewares/Third_Party/LwIP/src/apps/mqtt/mqtt.c ****  */
 169:Middlewares/Third_Party/LwIP/src/apps/mqtt/mqtt.c **** static u16_t
 170:Middlewares/Third_Party/LwIP/src/apps/mqtt/mqtt.c **** msg_generate_packet_id(mqtt_client_t *client)
 171:Middlewares/Third_Party/LwIP/src/apps/mqtt/mqtt.c **** {
  29              		.loc 1 171 1 view -0
  30              		.cfi_startproc
  31              		@ args = 0, pretend = 0, frame = 0
  32              		@ frame_needed = 0, uses_anonymous_args = 0
  33              		@ link register save eliminated.
 172:Middlewares/Third_Party/LwIP/src/apps/mqtt/mqtt.c ****   client->pkt_id_seq++;
  34              		.loc 1 172 3 view .LVU1
  35              		.loc 1 172 9 is_stmt 0 view .LVU2
  36 0000 C388     		ldrh	r3, [r0, #6]
  37              		.loc 1 172 21 view .LVU3
  38 0002 0133     		adds	r3, r3, #1
  39 0004 9BB2     		uxth	r3, r3
  40 0006 C380     		strh	r3, [r0, #6]	@ movhi
 173:Middlewares/Third_Party/LwIP/src/apps/mqtt/mqtt.c ****   if (client->pkt_id_seq == 0) {
  41              		.loc 1 173 3 is_stmt 1 view .LVU4
  42              		.loc 1 173 6 is_stmt 0 view .LVU5
  43 0008 0BB9     		cbnz	r3, .L2
 174:Middlewares/Third_Party/LwIP/src/apps/mqtt/mqtt.c ****     client->pkt_id_seq++;
  44              		.loc 1 174 5 is_stmt 1 view .LVU6
  45              		.loc 1 174 23 is_stmt 0 view .LVU7
  46 000a 0133     		adds	r3, r3, #1
  47 000c C380     		strh	r3, [r0, #6]	@ movhi
  48              	.L2:
 175:Middlewares/Third_Party/LwIP/src/apps/mqtt/mqtt.c ****   }
 176:Middlewares/Third_Party/LwIP/src/apps/mqtt/mqtt.c ****   return client->pkt_id_seq;
  49              		.loc 1 176 3 is_stmt 1 view .LVU8
 177:Middlewares/Third_Party/LwIP/src/apps/mqtt/mqtt.c **** }
  50              		.loc 1 177 1 is_stmt 0 view .LVU9
  51 000e C088     		ldrh	r0, [r0, #6]
  52              	.LVL1:
ARM GAS  D:\Dev\msys64\tmp\ccB7TkM7.s 			page 5


  53              		.loc 1 177 1 view .LVU10
  54 0010 7047     		bx	lr
  55              		.cfi_endproc
  56              	.LFE30:
  58              		.section	.text.mqtt_ringbuf_put,"ax",%progbits
  59              		.align	1
  60              		.syntax unified
  61              		.thumb
  62              		.thumb_func
  63              		.fpu fpv5-sp-d16
  65              	mqtt_ringbuf_put:
  66              	.LVL2:
  67              	.LFB31:
 178:Middlewares/Third_Party/LwIP/src/apps/mqtt/mqtt.c **** 
 179:Middlewares/Third_Party/LwIP/src/apps/mqtt/mqtt.c **** /*-------------------------------------------------------------------------------------------------
 180:Middlewares/Third_Party/LwIP/src/apps/mqtt/mqtt.c **** /* Output ring buffer */
 181:Middlewares/Third_Party/LwIP/src/apps/mqtt/mqtt.c **** 
 182:Middlewares/Third_Party/LwIP/src/apps/mqtt/mqtt.c **** /** Add single item to ring buffer */
 183:Middlewares/Third_Party/LwIP/src/apps/mqtt/mqtt.c **** static void
 184:Middlewares/Third_Party/LwIP/src/apps/mqtt/mqtt.c **** mqtt_ringbuf_put(struct mqtt_ringbuf_t *rb, u8_t item)
 185:Middlewares/Third_Party/LwIP/src/apps/mqtt/mqtt.c **** {
  68              		.loc 1 185 1 is_stmt 1 view -0
  69              		.cfi_startproc
  70              		@ args = 0, pretend = 0, frame = 0
  71              		@ frame_needed = 0, uses_anonymous_args = 0
  72              		@ link register save eliminated.
 186:Middlewares/Third_Party/LwIP/src/apps/mqtt/mqtt.c ****   rb->buf[rb->put] = item;
  73              		.loc 1 186 3 view .LVU12
  74              		.loc 1 186 13 is_stmt 0 view .LVU13
  75 0000 0388     		ldrh	r3, [r0]
  76              		.loc 1 186 20 view .LVU14
  77 0002 C218     		adds	r2, r0, r3
  78 0004 1171     		strb	r1, [r2, #4]
 187:Middlewares/Third_Party/LwIP/src/apps/mqtt/mqtt.c ****   rb->put++;
  79              		.loc 1 187 3 is_stmt 1 view .LVU15
  80              		.loc 1 187 10 is_stmt 0 view .LVU16
  81 0006 0133     		adds	r3, r3, #1
  82 0008 9BB2     		uxth	r3, r3
  83 000a 0380     		strh	r3, [r0]	@ movhi
 188:Middlewares/Third_Party/LwIP/src/apps/mqtt/mqtt.c ****   if (rb->put >= MQTT_OUTPUT_RINGBUF_SIZE) {
  84              		.loc 1 188 3 is_stmt 1 view .LVU17
  85              		.loc 1 188 6 is_stmt 0 view .LVU18
  86 000c FF2B     		cmp	r3, #255
  87 000e 01D9     		bls	.L3
 189:Middlewares/Third_Party/LwIP/src/apps/mqtt/mqtt.c ****     rb->put = 0;
  88              		.loc 1 189 5 is_stmt 1 view .LVU19
  89              		.loc 1 189 13 is_stmt 0 view .LVU20
  90 0010 0023     		movs	r3, #0
  91 0012 0380     		strh	r3, [r0]	@ movhi
  92              	.L3:
 190:Middlewares/Third_Party/LwIP/src/apps/mqtt/mqtt.c ****   }
 191:Middlewares/Third_Party/LwIP/src/apps/mqtt/mqtt.c **** }
  93              		.loc 1 191 1 view .LVU21
  94 0014 7047     		bx	lr
  95              		.cfi_endproc
  96              	.LFE31:
  98              		.section	.text.mqtt_ringbuf_get_ptr,"ax",%progbits
ARM GAS  D:\Dev\msys64\tmp\ccB7TkM7.s 			page 6


  99              		.align	1
 100              		.syntax unified
 101              		.thumb
 102              		.thumb_func
 103              		.fpu fpv5-sp-d16
 105              	mqtt_ringbuf_get_ptr:
 106              	.LVL3:
 107              	.LFB32:
 192:Middlewares/Third_Party/LwIP/src/apps/mqtt/mqtt.c **** 
 193:Middlewares/Third_Party/LwIP/src/apps/mqtt/mqtt.c **** /** Return pointer to ring buffer get position */
 194:Middlewares/Third_Party/LwIP/src/apps/mqtt/mqtt.c **** static u8_t *
 195:Middlewares/Third_Party/LwIP/src/apps/mqtt/mqtt.c **** mqtt_ringbuf_get_ptr(struct mqtt_ringbuf_t *rb)
 196:Middlewares/Third_Party/LwIP/src/apps/mqtt/mqtt.c **** {
 108              		.loc 1 196 1 is_stmt 1 view -0
 109              		.cfi_startproc
 110              		@ args = 0, pretend = 0, frame = 0
 111              		@ frame_needed = 0, uses_anonymous_args = 0
 112              		@ link register save eliminated.
 197:Middlewares/Third_Party/LwIP/src/apps/mqtt/mqtt.c ****   return &rb->buf[rb->get];
 113              		.loc 1 197 3 view .LVU23
 114              		.loc 1 197 21 is_stmt 0 view .LVU24
 115 0000 4388     		ldrh	r3, [r0, #2]
 116              		.loc 1 197 10 view .LVU25
 117 0002 1844     		add	r0, r0, r3
 118              	.LVL4:
 198:Middlewares/Third_Party/LwIP/src/apps/mqtt/mqtt.c **** }
 119              		.loc 1 198 1 view .LVU26
 120 0004 0430     		adds	r0, r0, #4
 121 0006 7047     		bx	lr
 122              		.cfi_endproc
 123              	.LFE32:
 125              		.section	.text.mqtt_ringbuf_len,"ax",%progbits
 126              		.align	1
 127              		.syntax unified
 128              		.thumb
 129              		.thumb_func
 130              		.fpu fpv5-sp-d16
 132              	mqtt_ringbuf_len:
 133              	.LVL5:
 134              	.LFB34:
 199:Middlewares/Third_Party/LwIP/src/apps/mqtt/mqtt.c **** 
 200:Middlewares/Third_Party/LwIP/src/apps/mqtt/mqtt.c **** static void
 201:Middlewares/Third_Party/LwIP/src/apps/mqtt/mqtt.c **** mqtt_ringbuf_advance_get_idx(struct mqtt_ringbuf_t *rb, u16_t len)
 202:Middlewares/Third_Party/LwIP/src/apps/mqtt/mqtt.c **** {
 203:Middlewares/Third_Party/LwIP/src/apps/mqtt/mqtt.c ****   LWIP_ASSERT("mqtt_ringbuf_advance_get_idx: len < MQTT_OUTPUT_RINGBUF_SIZE", len < MQTT_OUTPUT_RIN
 204:Middlewares/Third_Party/LwIP/src/apps/mqtt/mqtt.c **** 
 205:Middlewares/Third_Party/LwIP/src/apps/mqtt/mqtt.c ****   rb->get += len;
 206:Middlewares/Third_Party/LwIP/src/apps/mqtt/mqtt.c ****   if (rb->get >= MQTT_OUTPUT_RINGBUF_SIZE) {
 207:Middlewares/Third_Party/LwIP/src/apps/mqtt/mqtt.c ****     rb->get = rb->get - MQTT_OUTPUT_RINGBUF_SIZE;
 208:Middlewares/Third_Party/LwIP/src/apps/mqtt/mqtt.c ****   }
 209:Middlewares/Third_Party/LwIP/src/apps/mqtt/mqtt.c **** }
 210:Middlewares/Third_Party/LwIP/src/apps/mqtt/mqtt.c **** 
 211:Middlewares/Third_Party/LwIP/src/apps/mqtt/mqtt.c **** /** Return number of bytes in ring buffer */
 212:Middlewares/Third_Party/LwIP/src/apps/mqtt/mqtt.c **** static u16_t
 213:Middlewares/Third_Party/LwIP/src/apps/mqtt/mqtt.c **** mqtt_ringbuf_len(struct mqtt_ringbuf_t *rb)
 214:Middlewares/Third_Party/LwIP/src/apps/mqtt/mqtt.c **** {
 135              		.loc 1 214 1 is_stmt 1 view -0
ARM GAS  D:\Dev\msys64\tmp\ccB7TkM7.s 			page 7


 136              		.cfi_startproc
 137              		@ args = 0, pretend = 0, frame = 0
 138              		@ frame_needed = 0, uses_anonymous_args = 0
 139              		@ link register save eliminated.
 215:Middlewares/Third_Party/LwIP/src/apps/mqtt/mqtt.c ****   u32_t len = rb->put - rb->get;
 140              		.loc 1 215 3 view .LVU28
 141              		.loc 1 215 17 is_stmt 0 view .LVU29
 142 0000 0388     		ldrh	r3, [r0]
 143              		.loc 1 215 27 view .LVU30
 144 0002 4088     		ldrh	r0, [r0, #2]
 145              	.LVL6:
 146              		.loc 1 215 23 view .LVU31
 147 0004 181A     		subs	r0, r3, r0
 148              	.LVL7:
 216:Middlewares/Third_Party/LwIP/src/apps/mqtt/mqtt.c ****   if (len > 0xFFFF) {
 149              		.loc 1 216 3 is_stmt 1 view .LVU32
 150              		.loc 1 216 6 is_stmt 0 view .LVU33
 151 0006 B0F5803F 		cmp	r0, #65536
 152 000a 01D3     		bcc	.L7
 217:Middlewares/Third_Party/LwIP/src/apps/mqtt/mqtt.c ****     len += MQTT_OUTPUT_RINGBUF_SIZE;
 153              		.loc 1 217 5 is_stmt 1 view .LVU34
 154              		.loc 1 217 9 is_stmt 0 view .LVU35
 155 000c 00F58070 		add	r0, r0, #256
 156              	.LVL8:
 157              	.L7:
 218:Middlewares/Third_Party/LwIP/src/apps/mqtt/mqtt.c ****   }
 219:Middlewares/Third_Party/LwIP/src/apps/mqtt/mqtt.c ****   return (u16_t)len;
 158              		.loc 1 219 3 is_stmt 1 view .LVU36
 220:Middlewares/Third_Party/LwIP/src/apps/mqtt/mqtt.c **** }
 159              		.loc 1 220 1 is_stmt 0 view .LVU37
 160 0010 80B2     		uxth	r0, r0
 161              	.LVL9:
 162              		.loc 1 220 1 view .LVU38
 163 0012 7047     		bx	lr
 164              		.cfi_endproc
 165              	.LFE34:
 167              		.section	.text.mqtt_delete_request,"ax",%progbits
 168              		.align	1
 169              		.syntax unified
 170              		.thumb
 171              		.thumb_func
 172              		.fpu fpv5-sp-d16
 174              	mqtt_delete_request:
 175              	.LVL10:
 176              	.LFB38:
 221:Middlewares/Third_Party/LwIP/src/apps/mqtt/mqtt.c **** 
 222:Middlewares/Third_Party/LwIP/src/apps/mqtt/mqtt.c **** /** Return number of bytes free in ring buffer */
 223:Middlewares/Third_Party/LwIP/src/apps/mqtt/mqtt.c **** #define mqtt_ringbuf_free(rb) (MQTT_OUTPUT_RINGBUF_SIZE - mqtt_ringbuf_len(rb))
 224:Middlewares/Third_Party/LwIP/src/apps/mqtt/mqtt.c **** 
 225:Middlewares/Third_Party/LwIP/src/apps/mqtt/mqtt.c **** /** Return number of bytes possible to read without wrapping around */
 226:Middlewares/Third_Party/LwIP/src/apps/mqtt/mqtt.c **** #define mqtt_ringbuf_linear_read_length(rb) LWIP_MIN(mqtt_ringbuf_len(rb), (MQTT_OUTPUT_RINGBUF_SIZ
 227:Middlewares/Third_Party/LwIP/src/apps/mqtt/mqtt.c **** 
 228:Middlewares/Third_Party/LwIP/src/apps/mqtt/mqtt.c **** /**
 229:Middlewares/Third_Party/LwIP/src/apps/mqtt/mqtt.c ****  * Try send as many bytes as possible from output ring buffer
 230:Middlewares/Third_Party/LwIP/src/apps/mqtt/mqtt.c ****  * @param rb Output ring buffer
 231:Middlewares/Third_Party/LwIP/src/apps/mqtt/mqtt.c ****  * @param tpcb TCP connection handle
 232:Middlewares/Third_Party/LwIP/src/apps/mqtt/mqtt.c ****  */
ARM GAS  D:\Dev\msys64\tmp\ccB7TkM7.s 			page 8


 233:Middlewares/Third_Party/LwIP/src/apps/mqtt/mqtt.c **** static void
 234:Middlewares/Third_Party/LwIP/src/apps/mqtt/mqtt.c **** mqtt_output_send(struct mqtt_ringbuf_t *rb, struct altcp_pcb *tpcb)
 235:Middlewares/Third_Party/LwIP/src/apps/mqtt/mqtt.c **** {
 236:Middlewares/Third_Party/LwIP/src/apps/mqtt/mqtt.c ****   err_t err;
 237:Middlewares/Third_Party/LwIP/src/apps/mqtt/mqtt.c ****   u8_t wrap = 0;
 238:Middlewares/Third_Party/LwIP/src/apps/mqtt/mqtt.c ****   u16_t ringbuf_lin_len = mqtt_ringbuf_linear_read_length(rb);
 239:Middlewares/Third_Party/LwIP/src/apps/mqtt/mqtt.c ****   u16_t send_len = altcp_sndbuf(tpcb);
 240:Middlewares/Third_Party/LwIP/src/apps/mqtt/mqtt.c ****   LWIP_ASSERT("mqtt_output_send: tpcb != NULL", tpcb != NULL);
 241:Middlewares/Third_Party/LwIP/src/apps/mqtt/mqtt.c **** 
 242:Middlewares/Third_Party/LwIP/src/apps/mqtt/mqtt.c ****   if (send_len == 0 || ringbuf_lin_len == 0) {
 243:Middlewares/Third_Party/LwIP/src/apps/mqtt/mqtt.c ****     return;
 244:Middlewares/Third_Party/LwIP/src/apps/mqtt/mqtt.c ****   }
 245:Middlewares/Third_Party/LwIP/src/apps/mqtt/mqtt.c **** 
 246:Middlewares/Third_Party/LwIP/src/apps/mqtt/mqtt.c ****   LWIP_DEBUGF(MQTT_DEBUG_TRACE, ("mqtt_output_send: tcp_sndbuf: %d bytes, ringbuf_linear_available:
 247:Middlewares/Third_Party/LwIP/src/apps/mqtt/mqtt.c ****                                  send_len, ringbuf_lin_len, rb->get, rb->put));
 248:Middlewares/Third_Party/LwIP/src/apps/mqtt/mqtt.c **** 
 249:Middlewares/Third_Party/LwIP/src/apps/mqtt/mqtt.c ****   if (send_len > ringbuf_lin_len) {
 250:Middlewares/Third_Party/LwIP/src/apps/mqtt/mqtt.c ****     /* Space in TCP output buffer is larger than available in ring buffer linear portion */
 251:Middlewares/Third_Party/LwIP/src/apps/mqtt/mqtt.c ****     send_len = ringbuf_lin_len;
 252:Middlewares/Third_Party/LwIP/src/apps/mqtt/mqtt.c ****     /* Wrap around if more data in ring buffer after linear portion */
 253:Middlewares/Third_Party/LwIP/src/apps/mqtt/mqtt.c ****     wrap = (mqtt_ringbuf_len(rb) > ringbuf_lin_len);
 254:Middlewares/Third_Party/LwIP/src/apps/mqtt/mqtt.c ****   }
 255:Middlewares/Third_Party/LwIP/src/apps/mqtt/mqtt.c ****   err = altcp_write(tpcb, mqtt_ringbuf_get_ptr(rb), send_len, TCP_WRITE_FLAG_COPY | (wrap ? TCP_WRI
 256:Middlewares/Third_Party/LwIP/src/apps/mqtt/mqtt.c ****   if ((err == ERR_OK) && wrap) {
 257:Middlewares/Third_Party/LwIP/src/apps/mqtt/mqtt.c ****     mqtt_ringbuf_advance_get_idx(rb, send_len);
 258:Middlewares/Third_Party/LwIP/src/apps/mqtt/mqtt.c ****     /* Use the lesser one of ring buffer linear length and TCP send buffer size */
 259:Middlewares/Third_Party/LwIP/src/apps/mqtt/mqtt.c ****     send_len = LWIP_MIN(altcp_sndbuf(tpcb), mqtt_ringbuf_linear_read_length(rb));
 260:Middlewares/Third_Party/LwIP/src/apps/mqtt/mqtt.c ****     err = altcp_write(tpcb, mqtt_ringbuf_get_ptr(rb), send_len, TCP_WRITE_FLAG_COPY);
 261:Middlewares/Third_Party/LwIP/src/apps/mqtt/mqtt.c ****   }
 262:Middlewares/Third_Party/LwIP/src/apps/mqtt/mqtt.c **** 
 263:Middlewares/Third_Party/LwIP/src/apps/mqtt/mqtt.c ****   if (err == ERR_OK) {
 264:Middlewares/Third_Party/LwIP/src/apps/mqtt/mqtt.c ****     mqtt_ringbuf_advance_get_idx(rb, send_len);
 265:Middlewares/Third_Party/LwIP/src/apps/mqtt/mqtt.c ****     /* Flush */
 266:Middlewares/Third_Party/LwIP/src/apps/mqtt/mqtt.c ****     altcp_output(tpcb);
 267:Middlewares/Third_Party/LwIP/src/apps/mqtt/mqtt.c ****   } else {
 268:Middlewares/Third_Party/LwIP/src/apps/mqtt/mqtt.c ****     LWIP_DEBUGF(MQTT_DEBUG_WARN, ("mqtt_output_send: Send failed with err %d (\"%s\")\n", err, lwip
 269:Middlewares/Third_Party/LwIP/src/apps/mqtt/mqtt.c ****   }
 270:Middlewares/Third_Party/LwIP/src/apps/mqtt/mqtt.c **** }
 271:Middlewares/Third_Party/LwIP/src/apps/mqtt/mqtt.c **** 
 272:Middlewares/Third_Party/LwIP/src/apps/mqtt/mqtt.c **** 
 273:Middlewares/Third_Party/LwIP/src/apps/mqtt/mqtt.c **** 
 274:Middlewares/Third_Party/LwIP/src/apps/mqtt/mqtt.c **** /*-------------------------------------------------------------------------------------------------
 275:Middlewares/Third_Party/LwIP/src/apps/mqtt/mqtt.c **** /* Request queue */
 276:Middlewares/Third_Party/LwIP/src/apps/mqtt/mqtt.c **** 
 277:Middlewares/Third_Party/LwIP/src/apps/mqtt/mqtt.c **** /**
 278:Middlewares/Third_Party/LwIP/src/apps/mqtt/mqtt.c ****  * Create request item
 279:Middlewares/Third_Party/LwIP/src/apps/mqtt/mqtt.c ****  * @param r_objs Pointer to request objects
 280:Middlewares/Third_Party/LwIP/src/apps/mqtt/mqtt.c ****  * @param r_objs_len Number of array entries
 281:Middlewares/Third_Party/LwIP/src/apps/mqtt/mqtt.c ****  * @param pkt_id Packet identifier of request
 282:Middlewares/Third_Party/LwIP/src/apps/mqtt/mqtt.c ****  * @param cb Packet callback to call when requests lifetime ends
 283:Middlewares/Third_Party/LwIP/src/apps/mqtt/mqtt.c ****  * @param arg Parameter following callback
 284:Middlewares/Third_Party/LwIP/src/apps/mqtt/mqtt.c ****  * @return Request or NULL if failed to create
 285:Middlewares/Third_Party/LwIP/src/apps/mqtt/mqtt.c ****  */
 286:Middlewares/Third_Party/LwIP/src/apps/mqtt/mqtt.c **** static struct mqtt_request_t *
 287:Middlewares/Third_Party/LwIP/src/apps/mqtt/mqtt.c **** mqtt_create_request(struct mqtt_request_t *r_objs, size_t r_objs_len, u16_t pkt_id, mqtt_request_cb
 288:Middlewares/Third_Party/LwIP/src/apps/mqtt/mqtt.c **** {
 289:Middlewares/Third_Party/LwIP/src/apps/mqtt/mqtt.c ****   struct mqtt_request_t *r = NULL;
ARM GAS  D:\Dev\msys64\tmp\ccB7TkM7.s 			page 9


 290:Middlewares/Third_Party/LwIP/src/apps/mqtt/mqtt.c ****   u8_t n;
 291:Middlewares/Third_Party/LwIP/src/apps/mqtt/mqtt.c ****   LWIP_ASSERT("mqtt_create_request: r_objs != NULL", r_objs != NULL);
 292:Middlewares/Third_Party/LwIP/src/apps/mqtt/mqtt.c ****   for (n = 0; n < r_objs_len; n++) {
 293:Middlewares/Third_Party/LwIP/src/apps/mqtt/mqtt.c ****     /* Item point to itself if not in use */
 294:Middlewares/Third_Party/LwIP/src/apps/mqtt/mqtt.c ****     if (r_objs[n].next == &r_objs[n]) {
 295:Middlewares/Third_Party/LwIP/src/apps/mqtt/mqtt.c ****       r = &r_objs[n];
 296:Middlewares/Third_Party/LwIP/src/apps/mqtt/mqtt.c ****       r->next = NULL;
 297:Middlewares/Third_Party/LwIP/src/apps/mqtt/mqtt.c ****       r->cb = cb;
 298:Middlewares/Third_Party/LwIP/src/apps/mqtt/mqtt.c ****       r->arg = arg;
 299:Middlewares/Third_Party/LwIP/src/apps/mqtt/mqtt.c ****       r->pkt_id = pkt_id;
 300:Middlewares/Third_Party/LwIP/src/apps/mqtt/mqtt.c ****       break;
 301:Middlewares/Third_Party/LwIP/src/apps/mqtt/mqtt.c ****     }
 302:Middlewares/Third_Party/LwIP/src/apps/mqtt/mqtt.c ****   }
 303:Middlewares/Third_Party/LwIP/src/apps/mqtt/mqtt.c ****   return r;
 304:Middlewares/Third_Party/LwIP/src/apps/mqtt/mqtt.c **** }
 305:Middlewares/Third_Party/LwIP/src/apps/mqtt/mqtt.c **** 
 306:Middlewares/Third_Party/LwIP/src/apps/mqtt/mqtt.c **** 
 307:Middlewares/Third_Party/LwIP/src/apps/mqtt/mqtt.c **** /**
 308:Middlewares/Third_Party/LwIP/src/apps/mqtt/mqtt.c ****  * Append request to pending request queue
 309:Middlewares/Third_Party/LwIP/src/apps/mqtt/mqtt.c ****  * @param tail Pointer to request queue tail pointer
 310:Middlewares/Third_Party/LwIP/src/apps/mqtt/mqtt.c ****  * @param r Request to append
 311:Middlewares/Third_Party/LwIP/src/apps/mqtt/mqtt.c ****  */
 312:Middlewares/Third_Party/LwIP/src/apps/mqtt/mqtt.c **** static void
 313:Middlewares/Third_Party/LwIP/src/apps/mqtt/mqtt.c **** mqtt_append_request(struct mqtt_request_t **tail, struct mqtt_request_t *r)
 314:Middlewares/Third_Party/LwIP/src/apps/mqtt/mqtt.c **** {
 315:Middlewares/Third_Party/LwIP/src/apps/mqtt/mqtt.c ****   struct mqtt_request_t *head = NULL;
 316:Middlewares/Third_Party/LwIP/src/apps/mqtt/mqtt.c ****   s16_t time_before = 0;
 317:Middlewares/Third_Party/LwIP/src/apps/mqtt/mqtt.c ****   struct mqtt_request_t *iter;
 318:Middlewares/Third_Party/LwIP/src/apps/mqtt/mqtt.c **** 
 319:Middlewares/Third_Party/LwIP/src/apps/mqtt/mqtt.c ****   LWIP_ASSERT("mqtt_append_request: tail != NULL", tail != NULL);
 320:Middlewares/Third_Party/LwIP/src/apps/mqtt/mqtt.c **** 
 321:Middlewares/Third_Party/LwIP/src/apps/mqtt/mqtt.c ****   /* Iterate trough queue to find head, and count total timeout time */
 322:Middlewares/Third_Party/LwIP/src/apps/mqtt/mqtt.c ****   for (iter = *tail; iter != NULL; iter = iter->next) {
 323:Middlewares/Third_Party/LwIP/src/apps/mqtt/mqtt.c ****     time_before += iter->timeout_diff;
 324:Middlewares/Third_Party/LwIP/src/apps/mqtt/mqtt.c ****     head = iter;
 325:Middlewares/Third_Party/LwIP/src/apps/mqtt/mqtt.c ****   }
 326:Middlewares/Third_Party/LwIP/src/apps/mqtt/mqtt.c **** 
 327:Middlewares/Third_Party/LwIP/src/apps/mqtt/mqtt.c ****   LWIP_ASSERT("mqtt_append_request: time_before <= MQTT_REQ_TIMEOUT", time_before <= MQTT_REQ_TIMEO
 328:Middlewares/Third_Party/LwIP/src/apps/mqtt/mqtt.c ****   r->timeout_diff = MQTT_REQ_TIMEOUT - time_before;
 329:Middlewares/Third_Party/LwIP/src/apps/mqtt/mqtt.c ****   if (head == NULL) {
 330:Middlewares/Third_Party/LwIP/src/apps/mqtt/mqtt.c ****     *tail = r;
 331:Middlewares/Third_Party/LwIP/src/apps/mqtt/mqtt.c ****   } else {
 332:Middlewares/Third_Party/LwIP/src/apps/mqtt/mqtt.c ****     head->next = r;
 333:Middlewares/Third_Party/LwIP/src/apps/mqtt/mqtt.c ****   }
 334:Middlewares/Third_Party/LwIP/src/apps/mqtt/mqtt.c **** }
 335:Middlewares/Third_Party/LwIP/src/apps/mqtt/mqtt.c **** 
 336:Middlewares/Third_Party/LwIP/src/apps/mqtt/mqtt.c **** 
 337:Middlewares/Third_Party/LwIP/src/apps/mqtt/mqtt.c **** /**
 338:Middlewares/Third_Party/LwIP/src/apps/mqtt/mqtt.c ****  * Delete request item
 339:Middlewares/Third_Party/LwIP/src/apps/mqtt/mqtt.c ****  * @param r Request item to delete
 340:Middlewares/Third_Party/LwIP/src/apps/mqtt/mqtt.c ****  */
 341:Middlewares/Third_Party/LwIP/src/apps/mqtt/mqtt.c **** static void
 342:Middlewares/Third_Party/LwIP/src/apps/mqtt/mqtt.c **** mqtt_delete_request(struct mqtt_request_t *r)
 343:Middlewares/Third_Party/LwIP/src/apps/mqtt/mqtt.c **** {
 177              		.loc 1 343 1 is_stmt 1 view -0
 178              		.cfi_startproc
 179              		@ args = 0, pretend = 0, frame = 0
ARM GAS  D:\Dev\msys64\tmp\ccB7TkM7.s 			page 10


 180              		@ frame_needed = 0, uses_anonymous_args = 0
 181              		@ link register save eliminated.
 344:Middlewares/Third_Party/LwIP/src/apps/mqtt/mqtt.c ****   if (r != NULL) {
 182              		.loc 1 344 3 view .LVU40
 183              		.loc 1 344 6 is_stmt 0 view .LVU41
 184 0000 0346     		mov	r3, r0
 185 0002 00B1     		cbz	r0, .L8
 345:Middlewares/Third_Party/LwIP/src/apps/mqtt/mqtt.c ****     r->next = r;
 186              		.loc 1 345 5 is_stmt 1 view .LVU42
 187              		.loc 1 345 13 is_stmt 0 view .LVU43
 188 0004 1860     		str	r0, [r3]
 189              	.L8:
 346:Middlewares/Third_Party/LwIP/src/apps/mqtt/mqtt.c ****   }
 347:Middlewares/Third_Party/LwIP/src/apps/mqtt/mqtt.c **** }
 190              		.loc 1 347 1 view .LVU44
 191 0006 7047     		bx	lr
 192              		.cfi_endproc
 193              	.LFE38:
 195              		.section	.text.mqtt_output_append_u8,"ax",%progbits
 196              		.align	1
 197              		.syntax unified
 198              		.thumb
 199              		.thumb_func
 200              		.fpu fpv5-sp-d16
 202              	mqtt_output_append_u8:
 203              	.LVL11:
 204              	.LFB43:
 348:Middlewares/Third_Party/LwIP/src/apps/mqtt/mqtt.c **** 
 349:Middlewares/Third_Party/LwIP/src/apps/mqtt/mqtt.c **** /**
 350:Middlewares/Third_Party/LwIP/src/apps/mqtt/mqtt.c ****  * Remove a request item with a specific packet identifier from request queue
 351:Middlewares/Third_Party/LwIP/src/apps/mqtt/mqtt.c ****  * @param tail Pointer to request queue tail pointer
 352:Middlewares/Third_Party/LwIP/src/apps/mqtt/mqtt.c ****  * @param pkt_id Packet identifier of request to take
 353:Middlewares/Third_Party/LwIP/src/apps/mqtt/mqtt.c ****  * @return Request item if found, NULL if not
 354:Middlewares/Third_Party/LwIP/src/apps/mqtt/mqtt.c ****  */
 355:Middlewares/Third_Party/LwIP/src/apps/mqtt/mqtt.c **** static struct mqtt_request_t *
 356:Middlewares/Third_Party/LwIP/src/apps/mqtt/mqtt.c **** mqtt_take_request(struct mqtt_request_t **tail, u16_t pkt_id)
 357:Middlewares/Third_Party/LwIP/src/apps/mqtt/mqtt.c **** {
 358:Middlewares/Third_Party/LwIP/src/apps/mqtt/mqtt.c ****   struct mqtt_request_t *iter = NULL, *prev = NULL;
 359:Middlewares/Third_Party/LwIP/src/apps/mqtt/mqtt.c ****   LWIP_ASSERT("mqtt_take_request: tail != NULL", tail != NULL);
 360:Middlewares/Third_Party/LwIP/src/apps/mqtt/mqtt.c ****   /* Search all request for pkt_id */
 361:Middlewares/Third_Party/LwIP/src/apps/mqtt/mqtt.c ****   for (iter = *tail; iter != NULL; iter = iter->next) {
 362:Middlewares/Third_Party/LwIP/src/apps/mqtt/mqtt.c ****     if (iter->pkt_id == pkt_id) {
 363:Middlewares/Third_Party/LwIP/src/apps/mqtt/mqtt.c ****       break;
 364:Middlewares/Third_Party/LwIP/src/apps/mqtt/mqtt.c ****     }
 365:Middlewares/Third_Party/LwIP/src/apps/mqtt/mqtt.c ****     prev = iter;
 366:Middlewares/Third_Party/LwIP/src/apps/mqtt/mqtt.c ****   }
 367:Middlewares/Third_Party/LwIP/src/apps/mqtt/mqtt.c **** 
 368:Middlewares/Third_Party/LwIP/src/apps/mqtt/mqtt.c ****   /* If request was found */
 369:Middlewares/Third_Party/LwIP/src/apps/mqtt/mqtt.c ****   if (iter != NULL) {
 370:Middlewares/Third_Party/LwIP/src/apps/mqtt/mqtt.c ****     /* unchain */
 371:Middlewares/Third_Party/LwIP/src/apps/mqtt/mqtt.c ****     if (prev == NULL) {
 372:Middlewares/Third_Party/LwIP/src/apps/mqtt/mqtt.c ****       *tail = iter->next;
 373:Middlewares/Third_Party/LwIP/src/apps/mqtt/mqtt.c ****     } else {
 374:Middlewares/Third_Party/LwIP/src/apps/mqtt/mqtt.c ****       prev->next = iter->next;
 375:Middlewares/Third_Party/LwIP/src/apps/mqtt/mqtt.c ****     }
 376:Middlewares/Third_Party/LwIP/src/apps/mqtt/mqtt.c ****     /* If exists, add remaining timeout time for the request to next */
 377:Middlewares/Third_Party/LwIP/src/apps/mqtt/mqtt.c ****     if (iter->next != NULL) {
ARM GAS  D:\Dev\msys64\tmp\ccB7TkM7.s 			page 11


 378:Middlewares/Third_Party/LwIP/src/apps/mqtt/mqtt.c ****       iter->next->timeout_diff += iter->timeout_diff;
 379:Middlewares/Third_Party/LwIP/src/apps/mqtt/mqtt.c ****     }
 380:Middlewares/Third_Party/LwIP/src/apps/mqtt/mqtt.c ****     iter->next = NULL;
 381:Middlewares/Third_Party/LwIP/src/apps/mqtt/mqtt.c ****   }
 382:Middlewares/Third_Party/LwIP/src/apps/mqtt/mqtt.c ****   return iter;
 383:Middlewares/Third_Party/LwIP/src/apps/mqtt/mqtt.c **** }
 384:Middlewares/Third_Party/LwIP/src/apps/mqtt/mqtt.c **** 
 385:Middlewares/Third_Party/LwIP/src/apps/mqtt/mqtt.c **** /**
 386:Middlewares/Third_Party/LwIP/src/apps/mqtt/mqtt.c ****  * Handle requests timeout
 387:Middlewares/Third_Party/LwIP/src/apps/mqtt/mqtt.c ****  * @param tail Pointer to request queue tail pointer
 388:Middlewares/Third_Party/LwIP/src/apps/mqtt/mqtt.c ****  * @param t Time since last call in seconds
 389:Middlewares/Third_Party/LwIP/src/apps/mqtt/mqtt.c ****  */
 390:Middlewares/Third_Party/LwIP/src/apps/mqtt/mqtt.c **** static void
 391:Middlewares/Third_Party/LwIP/src/apps/mqtt/mqtt.c **** mqtt_request_time_elapsed(struct mqtt_request_t **tail, u8_t t)
 392:Middlewares/Third_Party/LwIP/src/apps/mqtt/mqtt.c **** {
 393:Middlewares/Third_Party/LwIP/src/apps/mqtt/mqtt.c ****   struct mqtt_request_t *r;
 394:Middlewares/Third_Party/LwIP/src/apps/mqtt/mqtt.c ****   LWIP_ASSERT("mqtt_request_time_elapsed: tail != NULL", tail != NULL);
 395:Middlewares/Third_Party/LwIP/src/apps/mqtt/mqtt.c ****   r = *tail;
 396:Middlewares/Third_Party/LwIP/src/apps/mqtt/mqtt.c ****   while (t > 0 && r != NULL) {
 397:Middlewares/Third_Party/LwIP/src/apps/mqtt/mqtt.c ****     if (t >= r->timeout_diff) {
 398:Middlewares/Third_Party/LwIP/src/apps/mqtt/mqtt.c ****       t -= (u8_t)r->timeout_diff;
 399:Middlewares/Third_Party/LwIP/src/apps/mqtt/mqtt.c ****       /* Unchain */
 400:Middlewares/Third_Party/LwIP/src/apps/mqtt/mqtt.c ****       *tail = r->next;
 401:Middlewares/Third_Party/LwIP/src/apps/mqtt/mqtt.c ****       /* Notify upper layer about timeout */
 402:Middlewares/Third_Party/LwIP/src/apps/mqtt/mqtt.c ****       if (r->cb != NULL) {
 403:Middlewares/Third_Party/LwIP/src/apps/mqtt/mqtt.c ****         r->cb(r->arg, ERR_TIMEOUT);
 404:Middlewares/Third_Party/LwIP/src/apps/mqtt/mqtt.c ****       }
 405:Middlewares/Third_Party/LwIP/src/apps/mqtt/mqtt.c ****       mqtt_delete_request(r);
 406:Middlewares/Third_Party/LwIP/src/apps/mqtt/mqtt.c ****       /* Tail might be be modified in callback, so re-read it in every iteration */
 407:Middlewares/Third_Party/LwIP/src/apps/mqtt/mqtt.c ****       r = *(struct mqtt_request_t *const volatile *)tail;
 408:Middlewares/Third_Party/LwIP/src/apps/mqtt/mqtt.c ****     } else {
 409:Middlewares/Third_Party/LwIP/src/apps/mqtt/mqtt.c ****       r->timeout_diff -= t;
 410:Middlewares/Third_Party/LwIP/src/apps/mqtt/mqtt.c ****       t = 0;
 411:Middlewares/Third_Party/LwIP/src/apps/mqtt/mqtt.c ****     }
 412:Middlewares/Third_Party/LwIP/src/apps/mqtt/mqtt.c ****   }
 413:Middlewares/Third_Party/LwIP/src/apps/mqtt/mqtt.c **** }
 414:Middlewares/Third_Party/LwIP/src/apps/mqtt/mqtt.c **** 
 415:Middlewares/Third_Party/LwIP/src/apps/mqtt/mqtt.c **** /**
 416:Middlewares/Third_Party/LwIP/src/apps/mqtt/mqtt.c ****  * Free all request items
 417:Middlewares/Third_Party/LwIP/src/apps/mqtt/mqtt.c ****  * @param tail Pointer to request queue tail pointer
 418:Middlewares/Third_Party/LwIP/src/apps/mqtt/mqtt.c ****  */
 419:Middlewares/Third_Party/LwIP/src/apps/mqtt/mqtt.c **** static void
 420:Middlewares/Third_Party/LwIP/src/apps/mqtt/mqtt.c **** mqtt_clear_requests(struct mqtt_request_t **tail)
 421:Middlewares/Third_Party/LwIP/src/apps/mqtt/mqtt.c **** {
 422:Middlewares/Third_Party/LwIP/src/apps/mqtt/mqtt.c ****   struct mqtt_request_t *iter, *next;
 423:Middlewares/Third_Party/LwIP/src/apps/mqtt/mqtt.c ****   LWIP_ASSERT("mqtt_clear_requests: tail != NULL", tail != NULL);
 424:Middlewares/Third_Party/LwIP/src/apps/mqtt/mqtt.c ****   for (iter = *tail; iter != NULL; iter = next) {
 425:Middlewares/Third_Party/LwIP/src/apps/mqtt/mqtt.c ****     next = iter->next;
 426:Middlewares/Third_Party/LwIP/src/apps/mqtt/mqtt.c ****     mqtt_delete_request(iter);
 427:Middlewares/Third_Party/LwIP/src/apps/mqtt/mqtt.c ****   }
 428:Middlewares/Third_Party/LwIP/src/apps/mqtt/mqtt.c ****   *tail = NULL;
 429:Middlewares/Third_Party/LwIP/src/apps/mqtt/mqtt.c **** }
 430:Middlewares/Third_Party/LwIP/src/apps/mqtt/mqtt.c **** /**
 431:Middlewares/Third_Party/LwIP/src/apps/mqtt/mqtt.c ****  * Initialize all request items
 432:Middlewares/Third_Party/LwIP/src/apps/mqtt/mqtt.c ****  * @param r_objs Pointer to request objects
 433:Middlewares/Third_Party/LwIP/src/apps/mqtt/mqtt.c ****  * @param r_objs_len Number of array entries
 434:Middlewares/Third_Party/LwIP/src/apps/mqtt/mqtt.c ****  */
ARM GAS  D:\Dev\msys64\tmp\ccB7TkM7.s 			page 12


 435:Middlewares/Third_Party/LwIP/src/apps/mqtt/mqtt.c **** static void
 436:Middlewares/Third_Party/LwIP/src/apps/mqtt/mqtt.c **** mqtt_init_requests(struct mqtt_request_t *r_objs, size_t r_objs_len)
 437:Middlewares/Third_Party/LwIP/src/apps/mqtt/mqtt.c **** {
 438:Middlewares/Third_Party/LwIP/src/apps/mqtt/mqtt.c ****   u8_t n;
 439:Middlewares/Third_Party/LwIP/src/apps/mqtt/mqtt.c ****   LWIP_ASSERT("mqtt_init_requests: r_objs != NULL", r_objs != NULL);
 440:Middlewares/Third_Party/LwIP/src/apps/mqtt/mqtt.c ****   for (n = 0; n < r_objs_len; n++) {
 441:Middlewares/Third_Party/LwIP/src/apps/mqtt/mqtt.c ****     /* Item pointing to itself indicates unused */
 442:Middlewares/Third_Party/LwIP/src/apps/mqtt/mqtt.c ****     r_objs[n].next = &r_objs[n];
 443:Middlewares/Third_Party/LwIP/src/apps/mqtt/mqtt.c ****   }
 444:Middlewares/Third_Party/LwIP/src/apps/mqtt/mqtt.c **** }
 445:Middlewares/Third_Party/LwIP/src/apps/mqtt/mqtt.c **** 
 446:Middlewares/Third_Party/LwIP/src/apps/mqtt/mqtt.c **** /*-------------------------------------------------------------------------------------------------
 447:Middlewares/Third_Party/LwIP/src/apps/mqtt/mqtt.c **** /* Output message build helpers */
 448:Middlewares/Third_Party/LwIP/src/apps/mqtt/mqtt.c **** 
 449:Middlewares/Third_Party/LwIP/src/apps/mqtt/mqtt.c **** 
 450:Middlewares/Third_Party/LwIP/src/apps/mqtt/mqtt.c **** static void
 451:Middlewares/Third_Party/LwIP/src/apps/mqtt/mqtt.c **** mqtt_output_append_u8(struct mqtt_ringbuf_t *rb, u8_t value)
 452:Middlewares/Third_Party/LwIP/src/apps/mqtt/mqtt.c **** {
 205              		.loc 1 452 1 is_stmt 1 view -0
 206              		.cfi_startproc
 207              		@ args = 0, pretend = 0, frame = 0
 208              		@ frame_needed = 0, uses_anonymous_args = 0
 209              		.loc 1 452 1 is_stmt 0 view .LVU46
 210 0000 08B5     		push	{r3, lr}
 211              	.LCFI0:
 212              		.cfi_def_cfa_offset 8
 213              		.cfi_offset 3, -8
 214              		.cfi_offset 14, -4
 453:Middlewares/Third_Party/LwIP/src/apps/mqtt/mqtt.c ****   mqtt_ringbuf_put(rb, value);
 215              		.loc 1 453 3 is_stmt 1 view .LVU47
 216 0002 FFF7FEFF 		bl	mqtt_ringbuf_put
 217              	.LVL12:
 454:Middlewares/Third_Party/LwIP/src/apps/mqtt/mqtt.c **** }
 218              		.loc 1 454 1 is_stmt 0 view .LVU48
 219 0006 08BD     		pop	{r3, pc}
 220              		.cfi_endproc
 221              	.LFE43:
 223              		.section	.text.mqtt_output_append_u16,"ax",%progbits
 224              		.align	1
 225              		.syntax unified
 226              		.thumb
 227              		.thumb_func
 228              		.fpu fpv5-sp-d16
 230              	mqtt_output_append_u16:
 231              	.LVL13:
 232              	.LFB44:
 455:Middlewares/Third_Party/LwIP/src/apps/mqtt/mqtt.c **** 
 456:Middlewares/Third_Party/LwIP/src/apps/mqtt/mqtt.c **** static
 457:Middlewares/Third_Party/LwIP/src/apps/mqtt/mqtt.c **** void mqtt_output_append_u16(struct mqtt_ringbuf_t *rb, u16_t value)
 458:Middlewares/Third_Party/LwIP/src/apps/mqtt/mqtt.c **** {
 233              		.loc 1 458 1 is_stmt 1 view -0
 234              		.cfi_startproc
 235              		@ args = 0, pretend = 0, frame = 0
 236              		@ frame_needed = 0, uses_anonymous_args = 0
 237              		.loc 1 458 1 is_stmt 0 view .LVU50
 238 0000 38B5     		push	{r3, r4, r5, lr}
 239              	.LCFI1:
ARM GAS  D:\Dev\msys64\tmp\ccB7TkM7.s 			page 13


 240              		.cfi_def_cfa_offset 16
 241              		.cfi_offset 3, -16
 242              		.cfi_offset 4, -12
 243              		.cfi_offset 5, -8
 244              		.cfi_offset 14, -4
 245 0002 0546     		mov	r5, r0
 246 0004 0C46     		mov	r4, r1
 459:Middlewares/Third_Party/LwIP/src/apps/mqtt/mqtt.c ****   mqtt_ringbuf_put(rb, value >> 8);
 247              		.loc 1 459 3 is_stmt 1 view .LVU51
 248 0006 090A     		lsrs	r1, r1, #8
 249              	.LVL14:
 250              		.loc 1 459 3 is_stmt 0 view .LVU52
 251 0008 FFF7FEFF 		bl	mqtt_ringbuf_put
 252              	.LVL15:
 460:Middlewares/Third_Party/LwIP/src/apps/mqtt/mqtt.c ****   mqtt_ringbuf_put(rb, value & 0xff);
 253              		.loc 1 460 3 is_stmt 1 view .LVU53
 254 000c E1B2     		uxtb	r1, r4
 255 000e 2846     		mov	r0, r5
 256 0010 FFF7FEFF 		bl	mqtt_ringbuf_put
 257              	.LVL16:
 461:Middlewares/Third_Party/LwIP/src/apps/mqtt/mqtt.c **** }
 258              		.loc 1 461 1 is_stmt 0 view .LVU54
 259 0014 38BD     		pop	{r3, r4, r5, pc}
 260              		.loc 1 461 1 view .LVU55
 261              		.cfi_endproc
 262              	.LFE44:
 264              		.section	.text.mqtt_output_append_buf,"ax",%progbits
 265              		.align	1
 266              		.syntax unified
 267              		.thumb
 268              		.thumb_func
 269              		.fpu fpv5-sp-d16
 271              	mqtt_output_append_buf:
 272              	.LVL17:
 273              	.LFB45:
 462:Middlewares/Third_Party/LwIP/src/apps/mqtt/mqtt.c **** 
 463:Middlewares/Third_Party/LwIP/src/apps/mqtt/mqtt.c **** static void
 464:Middlewares/Third_Party/LwIP/src/apps/mqtt/mqtt.c **** mqtt_output_append_buf(struct mqtt_ringbuf_t *rb, const void *data, u16_t length)
 465:Middlewares/Third_Party/LwIP/src/apps/mqtt/mqtt.c **** {
 274              		.loc 1 465 1 is_stmt 1 view -0
 275              		.cfi_startproc
 276              		@ args = 0, pretend = 0, frame = 0
 277              		@ frame_needed = 0, uses_anonymous_args = 0
 278              		.loc 1 465 1 is_stmt 0 view .LVU57
 279 0000 F8B5     		push	{r3, r4, r5, r6, r7, lr}
 280              	.LCFI2:
 281              		.cfi_def_cfa_offset 24
 282              		.cfi_offset 3, -24
 283              		.cfi_offset 4, -20
 284              		.cfi_offset 5, -16
 285              		.cfi_offset 6, -12
 286              		.cfi_offset 7, -8
 287              		.cfi_offset 14, -4
 288 0002 0746     		mov	r7, r0
 289 0004 0E46     		mov	r6, r1
 290 0006 1546     		mov	r5, r2
 466:Middlewares/Third_Party/LwIP/src/apps/mqtt/mqtt.c ****   u16_t n;
ARM GAS  D:\Dev\msys64\tmp\ccB7TkM7.s 			page 14


 291              		.loc 1 466 3 is_stmt 1 view .LVU58
 467:Middlewares/Third_Party/LwIP/src/apps/mqtt/mqtt.c ****   for (n = 0; n < length; n++) {
 292              		.loc 1 467 3 view .LVU59
 293              	.LVL18:
 294              		.loc 1 467 10 is_stmt 0 view .LVU60
 295 0008 0024     		movs	r4, #0
 296              	.LVL19:
 297              	.L15:
 298              		.loc 1 467 15 is_stmt 1 discriminator 1 view .LVU61
 299              		.loc 1 467 3 is_stmt 0 discriminator 1 view .LVU62
 300 000a AC42     		cmp	r4, r5
 301 000c 06D2     		bcs	.L18
 468:Middlewares/Third_Party/LwIP/src/apps/mqtt/mqtt.c ****     mqtt_ringbuf_put(rb, ((const u8_t *)data)[n]);
 302              		.loc 1 468 5 is_stmt 1 discriminator 3 view .LVU63
 303 000e 315D     		ldrb	r1, [r6, r4]	@ zero_extendqisi2
 304 0010 3846     		mov	r0, r7
 305 0012 FFF7FEFF 		bl	mqtt_ringbuf_put
 306              	.LVL20:
 467:Middlewares/Third_Party/LwIP/src/apps/mqtt/mqtt.c ****   for (n = 0; n < length; n++) {
 307              		.loc 1 467 27 discriminator 3 view .LVU64
 467:Middlewares/Third_Party/LwIP/src/apps/mqtt/mqtt.c ****   for (n = 0; n < length; n++) {
 308              		.loc 1 467 28 is_stmt 0 discriminator 3 view .LVU65
 309 0016 0134     		adds	r4, r4, #1
 310              	.LVL21:
 467:Middlewares/Third_Party/LwIP/src/apps/mqtt/mqtt.c ****   for (n = 0; n < length; n++) {
 311              		.loc 1 467 28 discriminator 3 view .LVU66
 312 0018 A4B2     		uxth	r4, r4
 313              	.LVL22:
 467:Middlewares/Third_Party/LwIP/src/apps/mqtt/mqtt.c ****   for (n = 0; n < length; n++) {
 314              		.loc 1 467 28 discriminator 3 view .LVU67
 315 001a F6E7     		b	.L15
 316              	.L18:
 469:Middlewares/Third_Party/LwIP/src/apps/mqtt/mqtt.c ****   }
 470:Middlewares/Third_Party/LwIP/src/apps/mqtt/mqtt.c **** }
 317              		.loc 1 470 1 view .LVU68
 318 001c F8BD     		pop	{r3, r4, r5, r6, r7, pc}
 319              		.loc 1 470 1 view .LVU69
 320              		.cfi_endproc
 321              	.LFE45:
 323              		.section	.text.mqtt_output_append_string,"ax",%progbits
 324              		.align	1
 325              		.syntax unified
 326              		.thumb
 327              		.thumb_func
 328              		.fpu fpv5-sp-d16
 330              	mqtt_output_append_string:
 331              	.LVL23:
 332              	.LFB46:
 471:Middlewares/Third_Party/LwIP/src/apps/mqtt/mqtt.c **** 
 472:Middlewares/Third_Party/LwIP/src/apps/mqtt/mqtt.c **** static void
 473:Middlewares/Third_Party/LwIP/src/apps/mqtt/mqtt.c **** mqtt_output_append_string(struct mqtt_ringbuf_t *rb, const char *str, u16_t length)
 474:Middlewares/Third_Party/LwIP/src/apps/mqtt/mqtt.c **** {
 333              		.loc 1 474 1 is_stmt 1 view -0
 334              		.cfi_startproc
 335              		@ args = 0, pretend = 0, frame = 0
 336              		@ frame_needed = 0, uses_anonymous_args = 0
 337              		.loc 1 474 1 is_stmt 0 view .LVU71
ARM GAS  D:\Dev\msys64\tmp\ccB7TkM7.s 			page 15


 338 0000 F8B5     		push	{r3, r4, r5, r6, r7, lr}
 339              	.LCFI3:
 340              		.cfi_def_cfa_offset 24
 341              		.cfi_offset 3, -24
 342              		.cfi_offset 4, -20
 343              		.cfi_offset 5, -16
 344              		.cfi_offset 6, -12
 345              		.cfi_offset 7, -8
 346              		.cfi_offset 14, -4
 347 0002 0646     		mov	r6, r0
 348 0004 0F46     		mov	r7, r1
 349 0006 1546     		mov	r5, r2
 475:Middlewares/Third_Party/LwIP/src/apps/mqtt/mqtt.c ****   u16_t n;
 350              		.loc 1 475 3 is_stmt 1 view .LVU72
 476:Middlewares/Third_Party/LwIP/src/apps/mqtt/mqtt.c ****   mqtt_ringbuf_put(rb, length >> 8);
 351              		.loc 1 476 3 view .LVU73
 352 0008 110A     		lsrs	r1, r2, #8
 353              	.LVL24:
 354              		.loc 1 476 3 is_stmt 0 view .LVU74
 355 000a FFF7FEFF 		bl	mqtt_ringbuf_put
 356              	.LVL25:
 477:Middlewares/Third_Party/LwIP/src/apps/mqtt/mqtt.c ****   mqtt_ringbuf_put(rb, length & 0xff);
 357              		.loc 1 477 3 is_stmt 1 view .LVU75
 358 000e E9B2     		uxtb	r1, r5
 359 0010 3046     		mov	r0, r6
 360 0012 FFF7FEFF 		bl	mqtt_ringbuf_put
 361              	.LVL26:
 478:Middlewares/Third_Party/LwIP/src/apps/mqtt/mqtt.c ****   for (n = 0; n < length; n++) {
 362              		.loc 1 478 3 view .LVU76
 363              		.loc 1 478 10 is_stmt 0 view .LVU77
 364 0016 0024     		movs	r4, #0
 365              	.LVL27:
 366              	.L20:
 367              		.loc 1 478 15 is_stmt 1 discriminator 1 view .LVU78
 368              		.loc 1 478 3 is_stmt 0 discriminator 1 view .LVU79
 369 0018 AC42     		cmp	r4, r5
 370 001a 06D2     		bcs	.L23
 479:Middlewares/Third_Party/LwIP/src/apps/mqtt/mqtt.c ****     mqtt_ringbuf_put(rb, str[n]);
 371              		.loc 1 479 5 is_stmt 1 discriminator 3 view .LVU80
 372 001c 395D     		ldrb	r1, [r7, r4]	@ zero_extendqisi2
 373 001e 3046     		mov	r0, r6
 374 0020 FFF7FEFF 		bl	mqtt_ringbuf_put
 375              	.LVL28:
 478:Middlewares/Third_Party/LwIP/src/apps/mqtt/mqtt.c ****   for (n = 0; n < length; n++) {
 376              		.loc 1 478 27 discriminator 3 view .LVU81
 478:Middlewares/Third_Party/LwIP/src/apps/mqtt/mqtt.c ****   for (n = 0; n < length; n++) {
 377              		.loc 1 478 28 is_stmt 0 discriminator 3 view .LVU82
 378 0024 0134     		adds	r4, r4, #1
 379              	.LVL29:
 478:Middlewares/Third_Party/LwIP/src/apps/mqtt/mqtt.c ****   for (n = 0; n < length; n++) {
 380              		.loc 1 478 28 discriminator 3 view .LVU83
 381 0026 A4B2     		uxth	r4, r4
 382              	.LVL30:
 478:Middlewares/Third_Party/LwIP/src/apps/mqtt/mqtt.c ****   for (n = 0; n < length; n++) {
 383              		.loc 1 478 28 discriminator 3 view .LVU84
 384 0028 F6E7     		b	.L20
 385              	.L23:
ARM GAS  D:\Dev\msys64\tmp\ccB7TkM7.s 			page 16


 480:Middlewares/Third_Party/LwIP/src/apps/mqtt/mqtt.c ****   }
 481:Middlewares/Third_Party/LwIP/src/apps/mqtt/mqtt.c **** }
 386              		.loc 1 481 1 view .LVU85
 387 002a F8BD     		pop	{r3, r4, r5, r6, r7, pc}
 388              		.loc 1 481 1 view .LVU86
 389              		.cfi_endproc
 390              	.LFE46:
 392              		.section	.text.mqtt_output_append_fixed_header,"ax",%progbits
 393              		.align	1
 394              		.syntax unified
 395              		.thumb
 396              		.thumb_func
 397              		.fpu fpv5-sp-d16
 399              	mqtt_output_append_fixed_header:
 400              	.LVL31:
 401              	.LFB47:
 482:Middlewares/Third_Party/LwIP/src/apps/mqtt/mqtt.c **** 
 483:Middlewares/Third_Party/LwIP/src/apps/mqtt/mqtt.c **** /**
 484:Middlewares/Third_Party/LwIP/src/apps/mqtt/mqtt.c ****  * Append fixed header
 485:Middlewares/Third_Party/LwIP/src/apps/mqtt/mqtt.c ****  * @param rb Output ring buffer
 486:Middlewares/Third_Party/LwIP/src/apps/mqtt/mqtt.c ****  * @param msg_type see enum mqtt_message_type
 487:Middlewares/Third_Party/LwIP/src/apps/mqtt/mqtt.c ****  * @param fdup MQTT DUP flag
 488:Middlewares/Third_Party/LwIP/src/apps/mqtt/mqtt.c ****  * @param fqos MQTT QoS field
 489:Middlewares/Third_Party/LwIP/src/apps/mqtt/mqtt.c ****  * @param fretain MQTT retain flag
 490:Middlewares/Third_Party/LwIP/src/apps/mqtt/mqtt.c ****  * @param r_length Remaining length after fixed header
 491:Middlewares/Third_Party/LwIP/src/apps/mqtt/mqtt.c ****  */
 492:Middlewares/Third_Party/LwIP/src/apps/mqtt/mqtt.c **** 
 493:Middlewares/Third_Party/LwIP/src/apps/mqtt/mqtt.c **** static void
 494:Middlewares/Third_Party/LwIP/src/apps/mqtt/mqtt.c **** mqtt_output_append_fixed_header(struct mqtt_ringbuf_t *rb, u8_t msg_type, u8_t fdup,
 495:Middlewares/Third_Party/LwIP/src/apps/mqtt/mqtt.c ****                                 u8_t fqos, u8_t fretain, u16_t r_length)
 496:Middlewares/Third_Party/LwIP/src/apps/mqtt/mqtt.c **** {
 402              		.loc 1 496 1 is_stmt 1 view -0
 403              		.cfi_startproc
 404              		@ args = 8, pretend = 0, frame = 0
 405              		@ frame_needed = 0, uses_anonymous_args = 0
 406              		.loc 1 496 1 is_stmt 0 view .LVU88
 407 0000 38B5     		push	{r3, r4, r5, lr}
 408              	.LCFI4:
 409              		.cfi_def_cfa_offset 16
 410              		.cfi_offset 3, -16
 411              		.cfi_offset 4, -12
 412              		.cfi_offset 5, -8
 413              		.cfi_offset 14, -4
 414 0002 0546     		mov	r5, r0
 415 0004 BDF81440 		ldrh	r4, [sp, #20]
 497:Middlewares/Third_Party/LwIP/src/apps/mqtt/mqtt.c ****   /* Start with control byte */
 498:Middlewares/Third_Party/LwIP/src/apps/mqtt/mqtt.c ****   mqtt_output_append_u8(rb, (((msg_type & 0x0f) << 4) | ((fdup & 1) << 3) | ((fqos & 3) << 1) | (fr
 416              		.loc 1 498 3 is_stmt 1 view .LVU89
 417              		.loc 1 498 69 is_stmt 0 view .LVU90
 418 0008 D200     		lsls	r2, r2, #3
 419              	.LVL32:
 420              		.loc 1 498 69 view .LVU91
 421 000a 02F00802 		and	r2, r2, #8
 422              		.loc 1 498 55 view .LVU92
 423 000e 42EA0112 		orr	r2, r2, r1, lsl #4
 424 0012 52B2     		sxtb	r2, r2
 425              		.loc 1 498 89 view .LVU93
ARM GAS  D:\Dev\msys64\tmp\ccB7TkM7.s 			page 17


 426 0014 5900     		lsls	r1, r3, #1
 427              	.LVL33:
 428              		.loc 1 498 89 view .LVU94
 429 0016 01F00601 		and	r1, r1, #6
 430              		.loc 1 498 75 view .LVU95
 431 001a 0A43     		orrs	r2, r2, r1
 432              		.loc 1 498 106 view .LVU96
 433 001c 9DF81010 		ldrb	r1, [sp, #16]	@ zero_extendqisi2
 434 0020 01F00101 		and	r1, r1, #1
 435              		.loc 1 498 95 view .LVU97
 436 0024 1143     		orrs	r1, r1, r2
 437              		.loc 1 498 3 view .LVU98
 438 0026 C9B2     		uxtb	r1, r1
 439 0028 FFF7FEFF 		bl	mqtt_output_append_u8
 440              	.LVL34:
 441              		.loc 1 498 3 view .LVU99
 442 002c 07E0     		b	.L26
 443              	.LVL35:
 444              	.L27:
 499:Middlewares/Third_Party/LwIP/src/apps/mqtt/mqtt.c ****   /* Encode remaining length field */
 500:Middlewares/Third_Party/LwIP/src/apps/mqtt/mqtt.c ****   do {
 501:Middlewares/Third_Party/LwIP/src/apps/mqtt/mqtt.c ****     mqtt_output_append_u8(rb, (r_length & 0x7f) | (r_length >= 128 ? 0x80 : 0));
 445              		.loc 1 501 49 view .LVU100
 446 002e 0023     		movs	r3, #0
 447              	.L25:
 448              		.loc 1 501 49 discriminator 4 view .LVU101
 449 0030 1943     		orrs	r1, r1, r3
 450              		.loc 1 501 5 discriminator 4 view .LVU102
 451 0032 C9B2     		uxtb	r1, r1
 452 0034 2846     		mov	r0, r5
 453 0036 FFF7FEFF 		bl	mqtt_output_append_u8
 454              	.LVL36:
 502:Middlewares/Third_Party/LwIP/src/apps/mqtt/mqtt.c ****     r_length >>= 7;
 455              		.loc 1 502 5 is_stmt 1 discriminator 4 view .LVU103
 503:Middlewares/Third_Party/LwIP/src/apps/mqtt/mqtt.c ****   } while (r_length > 0);
 456              		.loc 1 503 11 discriminator 4 view .LVU104
 457              		.loc 1 503 3 is_stmt 0 discriminator 4 view .LVU105
 458 003a E409     		lsrs	r4, r4, #7
 459              	.LVL37:
 460              		.loc 1 503 3 discriminator 4 view .LVU106
 461 003c 06D0     		beq	.L29
 462              	.L26:
 463              	.LVL38:
 500:Middlewares/Third_Party/LwIP/src/apps/mqtt/mqtt.c ****     mqtt_output_append_u8(rb, (r_length & 0x7f) | (r_length >= 128 ? 0x80 : 0));
 464              		.loc 1 500 3 is_stmt 1 view .LVU107
 501:Middlewares/Third_Party/LwIP/src/apps/mqtt/mqtt.c ****     r_length >>= 7;
 465              		.loc 1 501 5 view .LVU108
 501:Middlewares/Third_Party/LwIP/src/apps/mqtt/mqtt.c ****     r_length >>= 7;
 466              		.loc 1 501 41 is_stmt 0 view .LVU109
 467 003e 04F07F01 		and	r1, r4, #127
 501:Middlewares/Third_Party/LwIP/src/apps/mqtt/mqtt.c ****     r_length >>= 7;
 468              		.loc 1 501 49 view .LVU110
 469 0042 7F2C     		cmp	r4, #127
 470 0044 F3D9     		bls	.L27
 471 0046 6FF07F03 		mvn	r3, #127
 472 004a F1E7     		b	.L25
 473              	.LVL39:
ARM GAS  D:\Dev\msys64\tmp\ccB7TkM7.s 			page 18


 474              	.L29:
 504:Middlewares/Third_Party/LwIP/src/apps/mqtt/mqtt.c **** }
 475              		.loc 1 504 1 view .LVU111
 476 004c 38BD     		pop	{r3, r4, r5, pc}
 477              		.loc 1 504 1 view .LVU112
 478              		.cfi_endproc
 479              	.LFE47:
 481              		.section	.text.mqtt_incomming_suback,"ax",%progbits
 482              		.align	1
 483              		.syntax unified
 484              		.thumb
 485              		.thumb_func
 486              		.fpu fpv5-sp-d16
 488              	mqtt_incomming_suback:
 489              	.LVL40:
 490              	.LFB52:
 505:Middlewares/Third_Party/LwIP/src/apps/mqtt/mqtt.c **** 
 506:Middlewares/Third_Party/LwIP/src/apps/mqtt/mqtt.c **** 
 507:Middlewares/Third_Party/LwIP/src/apps/mqtt/mqtt.c **** /**
 508:Middlewares/Third_Party/LwIP/src/apps/mqtt/mqtt.c ****  * Check output buffer space
 509:Middlewares/Third_Party/LwIP/src/apps/mqtt/mqtt.c ****  * @param rb Output ring buffer
 510:Middlewares/Third_Party/LwIP/src/apps/mqtt/mqtt.c ****  * @param r_length Remaining length after fixed header
 511:Middlewares/Third_Party/LwIP/src/apps/mqtt/mqtt.c ****  * @return 1 if message will fit, 0 if not enough buffer space
 512:Middlewares/Third_Party/LwIP/src/apps/mqtt/mqtt.c ****  */
 513:Middlewares/Third_Party/LwIP/src/apps/mqtt/mqtt.c **** static u8_t
 514:Middlewares/Third_Party/LwIP/src/apps/mqtt/mqtt.c **** mqtt_output_check_space(struct mqtt_ringbuf_t *rb, u16_t r_length)
 515:Middlewares/Third_Party/LwIP/src/apps/mqtt/mqtt.c **** {
 516:Middlewares/Third_Party/LwIP/src/apps/mqtt/mqtt.c ****   /* Start with length of type byte + remaining length */
 517:Middlewares/Third_Party/LwIP/src/apps/mqtt/mqtt.c ****   u16_t total_len = 1 + r_length;
 518:Middlewares/Third_Party/LwIP/src/apps/mqtt/mqtt.c **** 
 519:Middlewares/Third_Party/LwIP/src/apps/mqtt/mqtt.c ****   LWIP_ASSERT("mqtt_output_check_space: rb != NULL", rb != NULL);
 520:Middlewares/Third_Party/LwIP/src/apps/mqtt/mqtt.c **** 
 521:Middlewares/Third_Party/LwIP/src/apps/mqtt/mqtt.c ****   /* Calculate number of required bytes to contain the remaining bytes field and add to total*/
 522:Middlewares/Third_Party/LwIP/src/apps/mqtt/mqtt.c ****   do {
 523:Middlewares/Third_Party/LwIP/src/apps/mqtt/mqtt.c ****     total_len++;
 524:Middlewares/Third_Party/LwIP/src/apps/mqtt/mqtt.c ****     r_length >>= 7;
 525:Middlewares/Third_Party/LwIP/src/apps/mqtt/mqtt.c ****   } while (r_length > 0);
 526:Middlewares/Third_Party/LwIP/src/apps/mqtt/mqtt.c **** 
 527:Middlewares/Third_Party/LwIP/src/apps/mqtt/mqtt.c ****   return (total_len <= mqtt_ringbuf_free(rb));
 528:Middlewares/Third_Party/LwIP/src/apps/mqtt/mqtt.c **** }
 529:Middlewares/Third_Party/LwIP/src/apps/mqtt/mqtt.c **** 
 530:Middlewares/Third_Party/LwIP/src/apps/mqtt/mqtt.c **** 
 531:Middlewares/Third_Party/LwIP/src/apps/mqtt/mqtt.c **** /**
 532:Middlewares/Third_Party/LwIP/src/apps/mqtt/mqtt.c ****  * Close connection to server
 533:Middlewares/Third_Party/LwIP/src/apps/mqtt/mqtt.c ****  * @param client MQTT client
 534:Middlewares/Third_Party/LwIP/src/apps/mqtt/mqtt.c ****  * @param reason Reason for disconnection
 535:Middlewares/Third_Party/LwIP/src/apps/mqtt/mqtt.c ****  */
 536:Middlewares/Third_Party/LwIP/src/apps/mqtt/mqtt.c **** static void
 537:Middlewares/Third_Party/LwIP/src/apps/mqtt/mqtt.c **** mqtt_close(mqtt_client_t *client, mqtt_connection_status_t reason)
 538:Middlewares/Third_Party/LwIP/src/apps/mqtt/mqtt.c **** {
 539:Middlewares/Third_Party/LwIP/src/apps/mqtt/mqtt.c ****   LWIP_ASSERT("mqtt_close: client != NULL", client != NULL);
 540:Middlewares/Third_Party/LwIP/src/apps/mqtt/mqtt.c **** 
 541:Middlewares/Third_Party/LwIP/src/apps/mqtt/mqtt.c ****   /* Bring down TCP connection if not already done */
 542:Middlewares/Third_Party/LwIP/src/apps/mqtt/mqtt.c ****   if (client->conn != NULL) {
 543:Middlewares/Third_Party/LwIP/src/apps/mqtt/mqtt.c ****     err_t res;
 544:Middlewares/Third_Party/LwIP/src/apps/mqtt/mqtt.c ****     altcp_recv(client->conn, NULL);
 545:Middlewares/Third_Party/LwIP/src/apps/mqtt/mqtt.c ****     altcp_err(client->conn,  NULL);
ARM GAS  D:\Dev\msys64\tmp\ccB7TkM7.s 			page 19


 546:Middlewares/Third_Party/LwIP/src/apps/mqtt/mqtt.c ****     altcp_sent(client->conn, NULL);
 547:Middlewares/Third_Party/LwIP/src/apps/mqtt/mqtt.c ****     res = altcp_close(client->conn);
 548:Middlewares/Third_Party/LwIP/src/apps/mqtt/mqtt.c ****     if (res != ERR_OK) {
 549:Middlewares/Third_Party/LwIP/src/apps/mqtt/mqtt.c ****       altcp_abort(client->conn);
 550:Middlewares/Third_Party/LwIP/src/apps/mqtt/mqtt.c ****       LWIP_DEBUGF(MQTT_DEBUG_TRACE, ("mqtt_close: Close err=%s\n", lwip_strerr(res)));
 551:Middlewares/Third_Party/LwIP/src/apps/mqtt/mqtt.c ****     }
 552:Middlewares/Third_Party/LwIP/src/apps/mqtt/mqtt.c ****     client->conn = NULL;
 553:Middlewares/Third_Party/LwIP/src/apps/mqtt/mqtt.c ****   }
 554:Middlewares/Third_Party/LwIP/src/apps/mqtt/mqtt.c **** 
 555:Middlewares/Third_Party/LwIP/src/apps/mqtt/mqtt.c ****   /* Remove all pending requests */
 556:Middlewares/Third_Party/LwIP/src/apps/mqtt/mqtt.c ****   mqtt_clear_requests(&client->pend_req_queue);
 557:Middlewares/Third_Party/LwIP/src/apps/mqtt/mqtt.c ****   /* Stop cyclic timer */
 558:Middlewares/Third_Party/LwIP/src/apps/mqtt/mqtt.c ****   sys_untimeout(mqtt_cyclic_timer, client);
 559:Middlewares/Third_Party/LwIP/src/apps/mqtt/mqtt.c **** 
 560:Middlewares/Third_Party/LwIP/src/apps/mqtt/mqtt.c ****   /* Notify upper layer of disconnection if changed state */
 561:Middlewares/Third_Party/LwIP/src/apps/mqtt/mqtt.c ****   if (client->conn_state != TCP_DISCONNECTED) {
 562:Middlewares/Third_Party/LwIP/src/apps/mqtt/mqtt.c **** 
 563:Middlewares/Third_Party/LwIP/src/apps/mqtt/mqtt.c ****     client->conn_state = TCP_DISCONNECTED;
 564:Middlewares/Third_Party/LwIP/src/apps/mqtt/mqtt.c ****     if (client->connect_cb != NULL) {
 565:Middlewares/Third_Party/LwIP/src/apps/mqtt/mqtt.c ****       client->connect_cb(client, client->connect_arg, reason);
 566:Middlewares/Third_Party/LwIP/src/apps/mqtt/mqtt.c ****     }
 567:Middlewares/Third_Party/LwIP/src/apps/mqtt/mqtt.c ****   }
 568:Middlewares/Third_Party/LwIP/src/apps/mqtt/mqtt.c **** }
 569:Middlewares/Third_Party/LwIP/src/apps/mqtt/mqtt.c **** 
 570:Middlewares/Third_Party/LwIP/src/apps/mqtt/mqtt.c **** 
 571:Middlewares/Third_Party/LwIP/src/apps/mqtt/mqtt.c **** /**
 572:Middlewares/Third_Party/LwIP/src/apps/mqtt/mqtt.c ****  * Interval timer, called every MQTT_CYCLIC_TIMER_INTERVAL seconds in MQTT_CONNECTING and MQTT_CONN
 573:Middlewares/Third_Party/LwIP/src/apps/mqtt/mqtt.c ****  * @param arg MQTT client
 574:Middlewares/Third_Party/LwIP/src/apps/mqtt/mqtt.c ****  */
 575:Middlewares/Third_Party/LwIP/src/apps/mqtt/mqtt.c **** static void
 576:Middlewares/Third_Party/LwIP/src/apps/mqtt/mqtt.c **** mqtt_cyclic_timer(void *arg)
 577:Middlewares/Third_Party/LwIP/src/apps/mqtt/mqtt.c **** {
 578:Middlewares/Third_Party/LwIP/src/apps/mqtt/mqtt.c ****   u8_t restart_timer = 1;
 579:Middlewares/Third_Party/LwIP/src/apps/mqtt/mqtt.c ****   mqtt_client_t *client = (mqtt_client_t *)arg;
 580:Middlewares/Third_Party/LwIP/src/apps/mqtt/mqtt.c ****   LWIP_ASSERT("mqtt_cyclic_timer: client != NULL", client != NULL);
 581:Middlewares/Third_Party/LwIP/src/apps/mqtt/mqtt.c **** 
 582:Middlewares/Third_Party/LwIP/src/apps/mqtt/mqtt.c ****   if (client->conn_state == MQTT_CONNECTING) {
 583:Middlewares/Third_Party/LwIP/src/apps/mqtt/mqtt.c ****     client->cyclic_tick++;
 584:Middlewares/Third_Party/LwIP/src/apps/mqtt/mqtt.c ****     if ((client->cyclic_tick * MQTT_CYCLIC_TIMER_INTERVAL) >= MQTT_CONNECT_TIMOUT) {
 585:Middlewares/Third_Party/LwIP/src/apps/mqtt/mqtt.c ****       LWIP_DEBUGF(MQTT_DEBUG_TRACE, ("mqtt_cyclic_timer: CONNECT attempt to server timed out\n"));
 586:Middlewares/Third_Party/LwIP/src/apps/mqtt/mqtt.c ****       /* Disconnect TCP */
 587:Middlewares/Third_Party/LwIP/src/apps/mqtt/mqtt.c ****       mqtt_close(client, MQTT_CONNECT_TIMEOUT);
 588:Middlewares/Third_Party/LwIP/src/apps/mqtt/mqtt.c ****       restart_timer = 0;
 589:Middlewares/Third_Party/LwIP/src/apps/mqtt/mqtt.c ****     }
 590:Middlewares/Third_Party/LwIP/src/apps/mqtt/mqtt.c ****   } else if (client->conn_state == MQTT_CONNECTED) {
 591:Middlewares/Third_Party/LwIP/src/apps/mqtt/mqtt.c ****     /* Handle timeout for pending requests */
 592:Middlewares/Third_Party/LwIP/src/apps/mqtt/mqtt.c ****     mqtt_request_time_elapsed(&client->pend_req_queue, MQTT_CYCLIC_TIMER_INTERVAL);
 593:Middlewares/Third_Party/LwIP/src/apps/mqtt/mqtt.c **** 
 594:Middlewares/Third_Party/LwIP/src/apps/mqtt/mqtt.c ****     /* keep_alive > 0 means keep alive functionality shall be used */
 595:Middlewares/Third_Party/LwIP/src/apps/mqtt/mqtt.c ****     if (client->keep_alive > 0) {
 596:Middlewares/Third_Party/LwIP/src/apps/mqtt/mqtt.c **** 
 597:Middlewares/Third_Party/LwIP/src/apps/mqtt/mqtt.c ****       client->server_watchdog++;
 598:Middlewares/Third_Party/LwIP/src/apps/mqtt/mqtt.c ****       /* If reception from server has been idle for 1.5*keep_alive time, server is considered unres
 599:Middlewares/Third_Party/LwIP/src/apps/mqtt/mqtt.c ****       if ((client->server_watchdog * MQTT_CYCLIC_TIMER_INTERVAL) > (client->keep_alive + client->ke
 600:Middlewares/Third_Party/LwIP/src/apps/mqtt/mqtt.c ****         LWIP_DEBUGF(MQTT_DEBUG_WARN, ("mqtt_cyclic_timer: Server incoming keep-alive timeout\n"));
 601:Middlewares/Third_Party/LwIP/src/apps/mqtt/mqtt.c ****         mqtt_close(client, MQTT_CONNECT_TIMEOUT);
 602:Middlewares/Third_Party/LwIP/src/apps/mqtt/mqtt.c ****         restart_timer = 0;
ARM GAS  D:\Dev\msys64\tmp\ccB7TkM7.s 			page 20


 603:Middlewares/Third_Party/LwIP/src/apps/mqtt/mqtt.c ****       }
 604:Middlewares/Third_Party/LwIP/src/apps/mqtt/mqtt.c **** 
 605:Middlewares/Third_Party/LwIP/src/apps/mqtt/mqtt.c ****       /* If time for a keep alive message to be sent, transmission has been idle for keep_alive tim
 606:Middlewares/Third_Party/LwIP/src/apps/mqtt/mqtt.c ****       if ((client->cyclic_tick * MQTT_CYCLIC_TIMER_INTERVAL) >= client->keep_alive) {
 607:Middlewares/Third_Party/LwIP/src/apps/mqtt/mqtt.c ****         LWIP_DEBUGF(MQTT_DEBUG_TRACE, ("mqtt_cyclic_timer: Sending keep-alive message to server\n")
 608:Middlewares/Third_Party/LwIP/src/apps/mqtt/mqtt.c ****         if (mqtt_output_check_space(&client->output, 0) != 0) {
 609:Middlewares/Third_Party/LwIP/src/apps/mqtt/mqtt.c ****           mqtt_output_append_fixed_header(&client->output, MQTT_MSG_TYPE_PINGREQ, 0, 0, 0, 0);
 610:Middlewares/Third_Party/LwIP/src/apps/mqtt/mqtt.c ****           client->cyclic_tick = 0;
 611:Middlewares/Third_Party/LwIP/src/apps/mqtt/mqtt.c ****         }
 612:Middlewares/Third_Party/LwIP/src/apps/mqtt/mqtt.c ****       } else {
 613:Middlewares/Third_Party/LwIP/src/apps/mqtt/mqtt.c ****         client->cyclic_tick++;
 614:Middlewares/Third_Party/LwIP/src/apps/mqtt/mqtt.c ****       }
 615:Middlewares/Third_Party/LwIP/src/apps/mqtt/mqtt.c ****     }
 616:Middlewares/Third_Party/LwIP/src/apps/mqtt/mqtt.c ****   } else {
 617:Middlewares/Third_Party/LwIP/src/apps/mqtt/mqtt.c ****     LWIP_DEBUGF(MQTT_DEBUG_WARN, ("mqtt_cyclic_timer: Timer should not be running in state %d\n", c
 618:Middlewares/Third_Party/LwIP/src/apps/mqtt/mqtt.c ****     restart_timer = 0;
 619:Middlewares/Third_Party/LwIP/src/apps/mqtt/mqtt.c ****   }
 620:Middlewares/Third_Party/LwIP/src/apps/mqtt/mqtt.c ****   if (restart_timer) {
 621:Middlewares/Third_Party/LwIP/src/apps/mqtt/mqtt.c ****     sys_timeout(MQTT_CYCLIC_TIMER_INTERVAL * 1000, mqtt_cyclic_timer, arg);
 622:Middlewares/Third_Party/LwIP/src/apps/mqtt/mqtt.c ****   }
 623:Middlewares/Third_Party/LwIP/src/apps/mqtt/mqtt.c **** }
 624:Middlewares/Third_Party/LwIP/src/apps/mqtt/mqtt.c **** 
 625:Middlewares/Third_Party/LwIP/src/apps/mqtt/mqtt.c **** 
 626:Middlewares/Third_Party/LwIP/src/apps/mqtt/mqtt.c **** /**
 627:Middlewares/Third_Party/LwIP/src/apps/mqtt/mqtt.c ****  * Send PUBACK, PUBREC or PUBREL response message
 628:Middlewares/Third_Party/LwIP/src/apps/mqtt/mqtt.c ****  * @param client MQTT client
 629:Middlewares/Third_Party/LwIP/src/apps/mqtt/mqtt.c ****  * @param msg PUBACK, PUBREC or PUBREL
 630:Middlewares/Third_Party/LwIP/src/apps/mqtt/mqtt.c ****  * @param pkt_id Packet identifier
 631:Middlewares/Third_Party/LwIP/src/apps/mqtt/mqtt.c ****  * @param qos QoS value
 632:Middlewares/Third_Party/LwIP/src/apps/mqtt/mqtt.c ****  * @return ERR_OK if successful, ERR_MEM if out of memory
 633:Middlewares/Third_Party/LwIP/src/apps/mqtt/mqtt.c ****  */
 634:Middlewares/Third_Party/LwIP/src/apps/mqtt/mqtt.c **** static err_t
 635:Middlewares/Third_Party/LwIP/src/apps/mqtt/mqtt.c **** pub_ack_rec_rel_response(mqtt_client_t *client, u8_t msg, u16_t pkt_id, u8_t qos)
 636:Middlewares/Third_Party/LwIP/src/apps/mqtt/mqtt.c **** {
 637:Middlewares/Third_Party/LwIP/src/apps/mqtt/mqtt.c ****   err_t err = ERR_OK;
 638:Middlewares/Third_Party/LwIP/src/apps/mqtt/mqtt.c ****   if (mqtt_output_check_space(&client->output, 2)) {
 639:Middlewares/Third_Party/LwIP/src/apps/mqtt/mqtt.c ****     mqtt_output_append_fixed_header(&client->output, msg, 0, qos, 0, 2);
 640:Middlewares/Third_Party/LwIP/src/apps/mqtt/mqtt.c ****     mqtt_output_append_u16(&client->output, pkt_id);
 641:Middlewares/Third_Party/LwIP/src/apps/mqtt/mqtt.c ****     mqtt_output_send(&client->output, client->conn);
 642:Middlewares/Third_Party/LwIP/src/apps/mqtt/mqtt.c ****   } else {
 643:Middlewares/Third_Party/LwIP/src/apps/mqtt/mqtt.c ****     LWIP_DEBUGF(MQTT_DEBUG_TRACE, ("pub_ack_rec_rel_response: OOM creating response: %s with pkt_id
 644:Middlewares/Third_Party/LwIP/src/apps/mqtt/mqtt.c ****                                    mqtt_msg_type_to_str(msg), pkt_id));
 645:Middlewares/Third_Party/LwIP/src/apps/mqtt/mqtt.c ****     err = ERR_MEM;
 646:Middlewares/Third_Party/LwIP/src/apps/mqtt/mqtt.c ****   }
 647:Middlewares/Third_Party/LwIP/src/apps/mqtt/mqtt.c ****   return err;
 648:Middlewares/Third_Party/LwIP/src/apps/mqtt/mqtt.c **** }
 649:Middlewares/Third_Party/LwIP/src/apps/mqtt/mqtt.c **** 
 650:Middlewares/Third_Party/LwIP/src/apps/mqtt/mqtt.c **** /**
 651:Middlewares/Third_Party/LwIP/src/apps/mqtt/mqtt.c ****  * Subscribe response from server
 652:Middlewares/Third_Party/LwIP/src/apps/mqtt/mqtt.c ****  * @param r Matching request
 653:Middlewares/Third_Party/LwIP/src/apps/mqtt/mqtt.c ****  * @param result Result code from server
 654:Middlewares/Third_Party/LwIP/src/apps/mqtt/mqtt.c ****  */
 655:Middlewares/Third_Party/LwIP/src/apps/mqtt/mqtt.c **** static void
 656:Middlewares/Third_Party/LwIP/src/apps/mqtt/mqtt.c **** mqtt_incomming_suback(struct mqtt_request_t *r, u8_t result)
 657:Middlewares/Third_Party/LwIP/src/apps/mqtt/mqtt.c **** {
 491              		.loc 1 657 1 is_stmt 1 view -0
 492              		.cfi_startproc
ARM GAS  D:\Dev\msys64\tmp\ccB7TkM7.s 			page 21


 493              		@ args = 0, pretend = 0, frame = 0
 494              		@ frame_needed = 0, uses_anonymous_args = 0
 495              		.loc 1 657 1 is_stmt 0 view .LVU114
 496 0000 08B5     		push	{r3, lr}
 497              	.LCFI5:
 498              		.cfi_def_cfa_offset 8
 499              		.cfi_offset 3, -8
 500              		.cfi_offset 14, -4
 658:Middlewares/Third_Party/LwIP/src/apps/mqtt/mqtt.c ****   if (r->cb != NULL) {
 501              		.loc 1 658 3 is_stmt 1 view .LVU115
 502              		.loc 1 658 8 is_stmt 0 view .LVU116
 503 0002 4368     		ldr	r3, [r0, #4]
 504              		.loc 1 658 6 view .LVU117
 505 0004 23B1     		cbz	r3, .L30
 659:Middlewares/Third_Party/LwIP/src/apps/mqtt/mqtt.c ****     r->cb(r->arg, result < 3 ? ERR_OK : ERR_ABRT);
 506              		.loc 1 659 5 is_stmt 1 view .LVU118
 507 0006 8068     		ldr	r0, [r0, #8]
 508              	.LVL41:
 509              		.loc 1 659 5 is_stmt 0 view .LVU119
 510 0008 0229     		cmp	r1, #2
 511 000a 02D8     		bhi	.L33
 512 000c 0021     		movs	r1, #0
 513              	.LVL42:
 514              	.L32:
 515              		.loc 1 659 5 discriminator 4 view .LVU120
 516 000e 9847     		blx	r3
 517              	.LVL43:
 518              	.L30:
 660:Middlewares/Third_Party/LwIP/src/apps/mqtt/mqtt.c ****   }
 661:Middlewares/Third_Party/LwIP/src/apps/mqtt/mqtt.c **** }
 519              		.loc 1 661 1 view .LVU121
 520 0010 08BD     		pop	{r3, pc}
 521              	.LVL44:
 522              	.L33:
 659:Middlewares/Third_Party/LwIP/src/apps/mqtt/mqtt.c ****     r->cb(r->arg, result < 3 ? ERR_OK : ERR_ABRT);
 523              		.loc 1 659 5 view .LVU122
 524 0012 6FF00C01 		mvn	r1, #12
 525              	.LVL45:
 659:Middlewares/Third_Party/LwIP/src/apps/mqtt/mqtt.c ****     r->cb(r->arg, result < 3 ? ERR_OK : ERR_ABRT);
 526              		.loc 1 659 5 view .LVU123
 527 0016 FAE7     		b	.L32
 528              		.cfi_endproc
 529              	.LFE52:
 531              		.section	.rodata.mqtt_create_request.str1.4,"aMS",%progbits,1
 532              		.align	2
 533              	.LC0:
 534 0000 4D696464 		.ascii	"Middlewares/Third_Party/LwIP/src/apps/mqtt/mqtt.c\000"
 534      6C657761 
 534      7265732F 
 534      54686972 
 534      645F5061 
 535 0032 0000     		.align	2
 536              	.LC1:
 537 0034 6D717474 		.ascii	"mqtt_create_request: r_objs != NULL\000"
 537      5F637265 
 537      6174655F 
 537      72657175 
ARM GAS  D:\Dev\msys64\tmp\ccB7TkM7.s 			page 22


 537      6573743A 
 538              		.align	2
 539              	.LC2:
 540 0058 41737365 		.ascii	"Assertion \"%s\" failed at line %d in %s\012\000"
 540      7274696F 
 540      6E202225 
 540      73222066 
 540      61696C65 
 541              		.section	.text.mqtt_create_request,"ax",%progbits
 542              		.align	1
 543              		.syntax unified
 544              		.thumb
 545              		.thumb_func
 546              		.fpu fpv5-sp-d16
 548              	mqtt_create_request:
 549              	.LVL46:
 550              	.LFB36:
 288:Middlewares/Third_Party/LwIP/src/apps/mqtt/mqtt.c ****   struct mqtt_request_t *r = NULL;
 551              		.loc 1 288 1 is_stmt 1 view -0
 552              		.cfi_startproc
 553              		@ args = 4, pretend = 0, frame = 0
 554              		@ frame_needed = 0, uses_anonymous_args = 0
 288:Middlewares/Third_Party/LwIP/src/apps/mqtt/mqtt.c ****   struct mqtt_request_t *r = NULL;
 555              		.loc 1 288 1 is_stmt 0 view .LVU125
 556 0000 2DE9F843 		push	{r3, r4, r5, r6, r7, r8, r9, lr}
 557              	.LCFI6:
 558              		.cfi_def_cfa_offset 32
 559              		.cfi_offset 3, -32
 560              		.cfi_offset 4, -28
 561              		.cfi_offset 5, -24
 562              		.cfi_offset 6, -20
 563              		.cfi_offset 7, -16
 564              		.cfi_offset 8, -12
 565              		.cfi_offset 9, -8
 566              		.cfi_offset 14, -4
 567 0004 0F46     		mov	r7, r1
 568 0006 9046     		mov	r8, r2
 569 0008 9946     		mov	r9, r3
 289:Middlewares/Third_Party/LwIP/src/apps/mqtt/mqtt.c ****   u8_t n;
 570              		.loc 1 289 3 is_stmt 1 view .LVU126
 571              	.LVL47:
 290:Middlewares/Third_Party/LwIP/src/apps/mqtt/mqtt.c ****   LWIP_ASSERT("mqtt_create_request: r_objs != NULL", r_objs != NULL);
 572              		.loc 1 290 3 view .LVU127
 291:Middlewares/Third_Party/LwIP/src/apps/mqtt/mqtt.c ****   for (n = 0; n < r_objs_len; n++) {
 573              		.loc 1 291 3 view .LVU128
 291:Middlewares/Third_Party/LwIP/src/apps/mqtt/mqtt.c ****   for (n = 0; n < r_objs_len; n++) {
 574              		.loc 1 291 3 view .LVU129
 575 000a 0646     		mov	r6, r0
 576 000c 58B1     		cbz	r0, .L42
 577              	.LVL48:
 578              	.L36:
 291:Middlewares/Third_Party/LwIP/src/apps/mqtt/mqtt.c ****   for (n = 0; n < r_objs_len; n++) {
 579              		.loc 1 291 3 discriminator 3 view .LVU130
 291:Middlewares/Third_Party/LwIP/src/apps/mqtt/mqtt.c ****   for (n = 0; n < r_objs_len; n++) {
 580              		.loc 1 291 3 discriminator 3 view .LVU131
 292:Middlewares/Third_Party/LwIP/src/apps/mqtt/mqtt.c ****     /* Item point to itself if not in use */
 581              		.loc 1 292 3 discriminator 3 view .LVU132
ARM GAS  D:\Dev\msys64\tmp\ccB7TkM7.s 			page 23


 292:Middlewares/Third_Party/LwIP/src/apps/mqtt/mqtt.c ****     /* Item point to itself if not in use */
 582              		.loc 1 292 10 is_stmt 0 discriminator 3 view .LVU133
 583 000e 0024     		movs	r4, #0
 584              	.LVL49:
 585              	.L37:
 292:Middlewares/Third_Party/LwIP/src/apps/mqtt/mqtt.c ****     /* Item point to itself if not in use */
 586              		.loc 1 292 15 is_stmt 1 discriminator 1 view .LVU134
 292:Middlewares/Third_Party/LwIP/src/apps/mqtt/mqtt.c ****     /* Item point to itself if not in use */
 587              		.loc 1 292 3 is_stmt 0 discriminator 1 view .LVU135
 588 0010 BC42     		cmp	r4, r7
 589 0012 19D2     		bcs	.L43
 294:Middlewares/Third_Party/LwIP/src/apps/mqtt/mqtt.c ****       r = &r_objs[n];
 590              		.loc 1 294 5 is_stmt 1 view .LVU136
 294:Middlewares/Third_Party/LwIP/src/apps/mqtt/mqtt.c ****       r = &r_objs[n];
 591              		.loc 1 294 15 is_stmt 0 view .LVU137
 592 0014 2501     		lsls	r5, r4, #4
 593 0016 06EB0410 		add	r0, r6, r4, lsl #4
 294:Middlewares/Third_Party/LwIP/src/apps/mqtt/mqtt.c ****       r = &r_objs[n];
 594              		.loc 1 294 18 view .LVU138
 595 001a 7359     		ldr	r3, [r6, r5]
 294:Middlewares/Third_Party/LwIP/src/apps/mqtt/mqtt.c ****       r = &r_objs[n];
 596              		.loc 1 294 8 view .LVU139
 597 001c 9842     		cmp	r0, r3
 598 001e 0AD0     		beq	.L44
 292:Middlewares/Third_Party/LwIP/src/apps/mqtt/mqtt.c ****     /* Item point to itself if not in use */
 599              		.loc 1 292 31 is_stmt 1 discriminator 2 view .LVU140
 292:Middlewares/Third_Party/LwIP/src/apps/mqtt/mqtt.c ****     /* Item point to itself if not in use */
 600              		.loc 1 292 32 is_stmt 0 discriminator 2 view .LVU141
 601 0020 0134     		adds	r4, r4, #1
 602              	.LVL50:
 292:Middlewares/Third_Party/LwIP/src/apps/mqtt/mqtt.c ****     /* Item point to itself if not in use */
 603              		.loc 1 292 32 discriminator 2 view .LVU142
 604 0022 E4B2     		uxtb	r4, r4
 605              	.LVL51:
 292:Middlewares/Third_Party/LwIP/src/apps/mqtt/mqtt.c ****     /* Item point to itself if not in use */
 606              		.loc 1 292 32 discriminator 2 view .LVU143
 607 0024 F4E7     		b	.L37
 608              	.LVL52:
 609              	.L42:
 291:Middlewares/Third_Party/LwIP/src/apps/mqtt/mqtt.c ****   for (n = 0; n < r_objs_len; n++) {
 610              		.loc 1 291 3 is_stmt 1 discriminator 1 view .LVU144
 291:Middlewares/Third_Party/LwIP/src/apps/mqtt/mqtt.c ****   for (n = 0; n < r_objs_len; n++) {
 611              		.loc 1 291 3 discriminator 1 view .LVU145
 612 0026 0A4B     		ldr	r3, .L45
 613              	.LVL53:
 291:Middlewares/Third_Party/LwIP/src/apps/mqtt/mqtt.c ****   for (n = 0; n < r_objs_len; n++) {
 614              		.loc 1 291 3 is_stmt 0 discriminator 1 view .LVU146
 615 0028 40F22312 		movw	r2, #291
 616              	.LVL54:
 291:Middlewares/Third_Party/LwIP/src/apps/mqtt/mqtt.c ****   for (n = 0; n < r_objs_len; n++) {
 617              		.loc 1 291 3 discriminator 1 view .LVU147
 618 002c 0949     		ldr	r1, .L45+4
 619              	.LVL55:
 291:Middlewares/Third_Party/LwIP/src/apps/mqtt/mqtt.c ****   for (n = 0; n < r_objs_len; n++) {
 620              		.loc 1 291 3 discriminator 1 view .LVU148
 621 002e 0A48     		ldr	r0, .L45+8
 622              	.LVL56:
ARM GAS  D:\Dev\msys64\tmp\ccB7TkM7.s 			page 24


 291:Middlewares/Third_Party/LwIP/src/apps/mqtt/mqtt.c ****   for (n = 0; n < r_objs_len; n++) {
 623              		.loc 1 291 3 discriminator 1 view .LVU149
 624 0030 FFF7FEFF 		bl	printf
 625              	.LVL57:
 626 0034 EBE7     		b	.L36
 627              	.LVL58:
 628              	.L44:
 295:Middlewares/Third_Party/LwIP/src/apps/mqtt/mqtt.c ****       r->next = NULL;
 629              		.loc 1 295 7 is_stmt 1 view .LVU150
 296:Middlewares/Third_Party/LwIP/src/apps/mqtt/mqtt.c ****       r->cb = cb;
 630              		.loc 1 296 7 view .LVU151
 296:Middlewares/Third_Party/LwIP/src/apps/mqtt/mqtt.c ****       r->cb = cb;
 631              		.loc 1 296 15 is_stmt 0 view .LVU152
 632 0036 0023     		movs	r3, #0
 633 0038 0360     		str	r3, [r0]
 297:Middlewares/Third_Party/LwIP/src/apps/mqtt/mqtt.c ****       r->arg = arg;
 634              		.loc 1 297 7 is_stmt 1 view .LVU153
 297:Middlewares/Third_Party/LwIP/src/apps/mqtt/mqtt.c ****       r->arg = arg;
 635              		.loc 1 297 13 is_stmt 0 view .LVU154
 636 003a C0F80490 		str	r9, [r0, #4]
 298:Middlewares/Third_Party/LwIP/src/apps/mqtt/mqtt.c ****       r->pkt_id = pkt_id;
 637              		.loc 1 298 7 is_stmt 1 view .LVU155
 298:Middlewares/Third_Party/LwIP/src/apps/mqtt/mqtt.c ****       r->pkt_id = pkt_id;
 638              		.loc 1 298 14 is_stmt 0 view .LVU156
 639 003e 089B     		ldr	r3, [sp, #32]
 640 0040 8360     		str	r3, [r0, #8]
 299:Middlewares/Third_Party/LwIP/src/apps/mqtt/mqtt.c ****       break;
 641              		.loc 1 299 7 is_stmt 1 view .LVU157
 299:Middlewares/Third_Party/LwIP/src/apps/mqtt/mqtt.c ****       break;
 642              		.loc 1 299 17 is_stmt 0 view .LVU158
 643 0042 A0F80C80 		strh	r8, [r0, #12]	@ movhi
 300:Middlewares/Third_Party/LwIP/src/apps/mqtt/mqtt.c ****     }
 644              		.loc 1 300 7 is_stmt 1 view .LVU159
 645 0046 00E0     		b	.L35
 646              	.LVL59:
 647              	.L43:
 289:Middlewares/Third_Party/LwIP/src/apps/mqtt/mqtt.c ****   u8_t n;
 648              		.loc 1 289 26 is_stmt 0 view .LVU160
 649 0048 0020     		movs	r0, #0
 303:Middlewares/Third_Party/LwIP/src/apps/mqtt/mqtt.c **** }
 650              		.loc 1 303 3 is_stmt 1 view .LVU161
 651              	.LVL60:
 652              	.L35:
 304:Middlewares/Third_Party/LwIP/src/apps/mqtt/mqtt.c **** 
 653              		.loc 1 304 1 is_stmt 0 view .LVU162
 654 004a BDE8F883 		pop	{r3, r4, r5, r6, r7, r8, r9, pc}
 655              	.LVL61:
 656              	.L46:
 304:Middlewares/Third_Party/LwIP/src/apps/mqtt/mqtt.c **** 
 657              		.loc 1 304 1 view .LVU163
 658 004e 00BF     		.align	2
 659              	.L45:
 660 0050 00000000 		.word	.LC0
 661 0054 34000000 		.word	.LC1
 662 0058 58000000 		.word	.LC2
 663              		.cfi_endproc
 664              	.LFE36:
ARM GAS  D:\Dev\msys64\tmp\ccB7TkM7.s 			page 25


 666              		.section	.rodata.mqtt_output_check_space.str1.4,"aMS",%progbits,1
 667              		.align	2
 668              	.LC3:
 669 0000 6D717474 		.ascii	"mqtt_output_check_space: rb != NULL\000"
 669      5F6F7574 
 669      7075745F 
 669      63686563 
 669      6B5F7370 
 670              		.section	.text.mqtt_output_check_space,"ax",%progbits
 671              		.align	1
 672              		.syntax unified
 673              		.thumb
 674              		.thumb_func
 675              		.fpu fpv5-sp-d16
 677              	mqtt_output_check_space:
 678              	.LVL62:
 679              	.LFB48:
 515:Middlewares/Third_Party/LwIP/src/apps/mqtt/mqtt.c ****   /* Start with length of type byte + remaining length */
 680              		.loc 1 515 1 is_stmt 1 view -0
 681              		.cfi_startproc
 682              		@ args = 0, pretend = 0, frame = 0
 683              		@ frame_needed = 0, uses_anonymous_args = 0
 515:Middlewares/Third_Party/LwIP/src/apps/mqtt/mqtt.c ****   /* Start with length of type byte + remaining length */
 684              		.loc 1 515 1 is_stmt 0 view .LVU165
 685 0000 70B5     		push	{r4, r5, r6, lr}
 686              	.LCFI7:
 687              		.cfi_def_cfa_offset 16
 688              		.cfi_offset 4, -16
 689              		.cfi_offset 5, -12
 690              		.cfi_offset 6, -8
 691              		.cfi_offset 14, -4
 692 0002 0D46     		mov	r5, r1
 517:Middlewares/Third_Party/LwIP/src/apps/mqtt/mqtt.c **** 
 693              		.loc 1 517 3 is_stmt 1 view .LVU166
 517:Middlewares/Third_Party/LwIP/src/apps/mqtt/mqtt.c **** 
 694              		.loc 1 517 9 is_stmt 0 view .LVU167
 695 0004 4C1C     		adds	r4, r1, #1
 696 0006 A4B2     		uxth	r4, r4
 697              	.LVL63:
 519:Middlewares/Third_Party/LwIP/src/apps/mqtt/mqtt.c **** 
 698              		.loc 1 519 3 is_stmt 1 view .LVU168
 519:Middlewares/Third_Party/LwIP/src/apps/mqtt/mqtt.c **** 
 699              		.loc 1 519 3 view .LVU169
 700 0008 0646     		mov	r6, r0
 701 000a 68B1     		cbz	r0, .L51
 702              	.LVL64:
 703              	.L49:
 519:Middlewares/Third_Party/LwIP/src/apps/mqtt/mqtt.c **** 
 704              		.loc 1 519 3 discriminator 1 view .LVU170
 519:Middlewares/Third_Party/LwIP/src/apps/mqtt/mqtt.c **** 
 705              		.loc 1 519 3 discriminator 1 view .LVU171
 522:Middlewares/Third_Party/LwIP/src/apps/mqtt/mqtt.c ****     total_len++;
 706              		.loc 1 522 3 discriminator 1 view .LVU172
 523:Middlewares/Third_Party/LwIP/src/apps/mqtt/mqtt.c ****     r_length >>= 7;
 707              		.loc 1 523 5 discriminator 1 view .LVU173
 523:Middlewares/Third_Party/LwIP/src/apps/mqtt/mqtt.c ****     r_length >>= 7;
 708              		.loc 1 523 14 is_stmt 0 discriminator 1 view .LVU174
ARM GAS  D:\Dev\msys64\tmp\ccB7TkM7.s 			page 26


 709 000c 0134     		adds	r4, r4, #1
 710              	.LVL65:
 523:Middlewares/Third_Party/LwIP/src/apps/mqtt/mqtt.c ****     r_length >>= 7;
 711              		.loc 1 523 14 discriminator 1 view .LVU175
 712 000e A4B2     		uxth	r4, r4
 713              	.LVL66:
 524:Middlewares/Third_Party/LwIP/src/apps/mqtt/mqtt.c ****   } while (r_length > 0);
 714              		.loc 1 524 5 is_stmt 1 discriminator 1 view .LVU176
 525:Middlewares/Third_Party/LwIP/src/apps/mqtt/mqtt.c **** 
 715              		.loc 1 525 11 discriminator 1 view .LVU177
 525:Middlewares/Third_Party/LwIP/src/apps/mqtt/mqtt.c **** 
 716              		.loc 1 525 3 is_stmt 0 discriminator 1 view .LVU178
 717 0010 ED09     		lsrs	r5, r5, #7
 718              	.LVL67:
 525:Middlewares/Third_Party/LwIP/src/apps/mqtt/mqtt.c **** 
 719              		.loc 1 525 3 discriminator 1 view .LVU179
 720 0012 FBD1     		bne	.L49
 527:Middlewares/Third_Party/LwIP/src/apps/mqtt/mqtt.c **** }
 721              		.loc 1 527 3 is_stmt 1 view .LVU180
 527:Middlewares/Third_Party/LwIP/src/apps/mqtt/mqtt.c **** }
 722              		.loc 1 527 24 is_stmt 0 view .LVU181
 723 0014 3046     		mov	r0, r6
 724 0016 FFF7FEFF 		bl	mqtt_ringbuf_len
 725              	.LVL68:
 726 001a C0F58070 		rsb	r0, r0, #256
 528:Middlewares/Third_Party/LwIP/src/apps/mqtt/mqtt.c **** 
 727              		.loc 1 528 1 view .LVU182
 728 001e 8442     		cmp	r4, r0
 729 0020 CCBF     		ite	gt
 730 0022 0020     		movgt	r0, #0
 731 0024 0120     		movle	r0, #1
 732 0026 70BD     		pop	{r4, r5, r6, pc}
 733              	.LVL69:
 734              	.L51:
 519:Middlewares/Third_Party/LwIP/src/apps/mqtt/mqtt.c **** 
 735              		.loc 1 519 3 is_stmt 1 discriminator 1 view .LVU183
 519:Middlewares/Third_Party/LwIP/src/apps/mqtt/mqtt.c **** 
 736              		.loc 1 519 3 discriminator 1 view .LVU184
 737 0028 034B     		ldr	r3, .L52
 738 002a 40F20722 		movw	r2, #519
 739 002e 0349     		ldr	r1, .L52+4
 740              	.LVL70:
 519:Middlewares/Third_Party/LwIP/src/apps/mqtt/mqtt.c **** 
 741              		.loc 1 519 3 is_stmt 0 discriminator 1 view .LVU185
 742 0030 0348     		ldr	r0, .L52+8
 743              	.LVL71:
 519:Middlewares/Third_Party/LwIP/src/apps/mqtt/mqtt.c **** 
 744              		.loc 1 519 3 discriminator 1 view .LVU186
 745 0032 FFF7FEFF 		bl	printf
 746              	.LVL72:
 747 0036 E9E7     		b	.L49
 748              	.L53:
 749              		.align	2
 750              	.L52:
 751 0038 00000000 		.word	.LC0
 752 003c 00000000 		.word	.LC3
 753 0040 58000000 		.word	.LC2
ARM GAS  D:\Dev\msys64\tmp\ccB7TkM7.s 			page 27


 754              		.cfi_endproc
 755              	.LFE48:
 757              		.section	.rodata.mqtt_append_request.str1.4,"aMS",%progbits,1
 758              		.align	2
 759              	.LC4:
 760 0000 6D717474 		.ascii	"mqtt_append_request: tail != NULL\000"
 760      5F617070 
 760      656E645F 
 760      72657175 
 760      6573743A 
 761 0022 0000     		.align	2
 762              	.LC5:
 763 0024 6D717474 		.ascii	"mqtt_append_request: time_before <= MQTT_REQ_TIMEOU"
 763      5F617070 
 763      656E645F 
 763      72657175 
 763      6573743A 
 764 0057 5400     		.ascii	"T\000"
 765              		.section	.text.mqtt_append_request,"ax",%progbits
 766              		.align	1
 767              		.syntax unified
 768              		.thumb
 769              		.thumb_func
 770              		.fpu fpv5-sp-d16
 772              	mqtt_append_request:
 773              	.LVL73:
 774              	.LFB37:
 314:Middlewares/Third_Party/LwIP/src/apps/mqtt/mqtt.c ****   struct mqtt_request_t *head = NULL;
 775              		.loc 1 314 1 is_stmt 1 view -0
 776              		.cfi_startproc
 777              		@ args = 0, pretend = 0, frame = 0
 778              		@ frame_needed = 0, uses_anonymous_args = 0
 314:Middlewares/Third_Party/LwIP/src/apps/mqtt/mqtt.c ****   struct mqtt_request_t *head = NULL;
 779              		.loc 1 314 1 is_stmt 0 view .LVU188
 780 0000 F8B5     		push	{r3, r4, r5, r6, r7, lr}
 781              	.LCFI8:
 782              		.cfi_def_cfa_offset 24
 783              		.cfi_offset 3, -24
 784              		.cfi_offset 4, -20
 785              		.cfi_offset 5, -16
 786              		.cfi_offset 6, -12
 787              		.cfi_offset 7, -8
 788              		.cfi_offset 14, -4
 789 0002 0E46     		mov	r6, r1
 315:Middlewares/Third_Party/LwIP/src/apps/mqtt/mqtt.c ****   s16_t time_before = 0;
 790              		.loc 1 315 3 is_stmt 1 view .LVU189
 791              	.LVL74:
 316:Middlewares/Third_Party/LwIP/src/apps/mqtt/mqtt.c ****   struct mqtt_request_t *iter;
 792              		.loc 1 316 3 view .LVU190
 317:Middlewares/Third_Party/LwIP/src/apps/mqtt/mqtt.c **** 
 793              		.loc 1 317 3 view .LVU191
 319:Middlewares/Third_Party/LwIP/src/apps/mqtt/mqtt.c **** 
 794              		.loc 1 319 3 view .LVU192
 319:Middlewares/Third_Party/LwIP/src/apps/mqtt/mqtt.c **** 
 795              		.loc 1 319 3 view .LVU193
 796 0004 0746     		mov	r7, r0
 797 0006 48B1     		cbz	r0, .L62
ARM GAS  D:\Dev\msys64\tmp\ccB7TkM7.s 			page 28


 798              	.LVL75:
 799              	.L55:
 319:Middlewares/Third_Party/LwIP/src/apps/mqtt/mqtt.c **** 
 800              		.loc 1 319 3 discriminator 3 view .LVU194
 319:Middlewares/Third_Party/LwIP/src/apps/mqtt/mqtt.c **** 
 801              		.loc 1 319 3 discriminator 3 view .LVU195
 322:Middlewares/Third_Party/LwIP/src/apps/mqtt/mqtt.c ****     time_before += iter->timeout_diff;
 802              		.loc 1 322 3 discriminator 3 view .LVU196
 322:Middlewares/Third_Party/LwIP/src/apps/mqtt/mqtt.c ****     time_before += iter->timeout_diff;
 803              		.loc 1 322 13 is_stmt 0 discriminator 3 view .LVU197
 804 0008 3B68     		ldr	r3, [r7]
 805              	.LVL76:
 316:Middlewares/Third_Party/LwIP/src/apps/mqtt/mqtt.c ****   struct mqtt_request_t *iter;
 806              		.loc 1 316 9 discriminator 3 view .LVU198
 807 000a 0024     		movs	r4, #0
 315:Middlewares/Third_Party/LwIP/src/apps/mqtt/mqtt.c ****   s16_t time_before = 0;
 808              		.loc 1 315 26 discriminator 3 view .LVU199
 809 000c 2546     		mov	r5, r4
 810              	.LVL77:
 811              	.L56:
 322:Middlewares/Third_Party/LwIP/src/apps/mqtt/mqtt.c ****     time_before += iter->timeout_diff;
 812              		.loc 1 322 22 is_stmt 1 discriminator 1 view .LVU200
 322:Middlewares/Third_Party/LwIP/src/apps/mqtt/mqtt.c ****     time_before += iter->timeout_diff;
 813              		.loc 1 322 3 is_stmt 0 discriminator 1 view .LVU201
 814 000e 6BB1     		cbz	r3, .L63
 323:Middlewares/Third_Party/LwIP/src/apps/mqtt/mqtt.c ****     head = iter;
 815              		.loc 1 323 5 is_stmt 1 discriminator 3 view .LVU202
 323:Middlewares/Third_Party/LwIP/src/apps/mqtt/mqtt.c ****     head = iter;
 816              		.loc 1 323 24 is_stmt 0 discriminator 3 view .LVU203
 817 0010 DA89     		ldrh	r2, [r3, #14]
 323:Middlewares/Third_Party/LwIP/src/apps/mqtt/mqtt.c ****     head = iter;
 818              		.loc 1 323 17 discriminator 3 view .LVU204
 819 0012 1444     		add	r4, r4, r2
 820              	.LVL78:
 323:Middlewares/Third_Party/LwIP/src/apps/mqtt/mqtt.c ****     head = iter;
 821              		.loc 1 323 17 discriminator 3 view .LVU205
 822 0014 24B2     		sxth	r4, r4
 823              	.LVL79:
 324:Middlewares/Third_Party/LwIP/src/apps/mqtt/mqtt.c ****   }
 824              		.loc 1 324 5 is_stmt 1 discriminator 3 view .LVU206
 322:Middlewares/Third_Party/LwIP/src/apps/mqtt/mqtt.c ****     time_before += iter->timeout_diff;
 825              		.loc 1 322 36 discriminator 3 view .LVU207
 324:Middlewares/Third_Party/LwIP/src/apps/mqtt/mqtt.c ****   }
 826              		.loc 1 324 10 is_stmt 0 discriminator 3 view .LVU208
 827 0016 1D46     		mov	r5, r3
 322:Middlewares/Third_Party/LwIP/src/apps/mqtt/mqtt.c ****     time_before += iter->timeout_diff;
 828              		.loc 1 322 41 discriminator 3 view .LVU209
 829 0018 1B68     		ldr	r3, [r3]
 830              	.LVL80:
 322:Middlewares/Third_Party/LwIP/src/apps/mqtt/mqtt.c ****     time_before += iter->timeout_diff;
 831              		.loc 1 322 41 discriminator 3 view .LVU210
 832 001a F8E7     		b	.L56
 833              	.LVL81:
 834              	.L62:
 319:Middlewares/Third_Party/LwIP/src/apps/mqtt/mqtt.c **** 
 835              		.loc 1 319 3 is_stmt 1 discriminator 1 view .LVU211
 319:Middlewares/Third_Party/LwIP/src/apps/mqtt/mqtt.c **** 
ARM GAS  D:\Dev\msys64\tmp\ccB7TkM7.s 			page 29


 836              		.loc 1 319 3 discriminator 1 view .LVU212
 837 001c 0C4B     		ldr	r3, .L66
 838 001e 40F23F12 		movw	r2, #319
 839 0022 0C49     		ldr	r1, .L66+4
 840              	.LVL82:
 319:Middlewares/Third_Party/LwIP/src/apps/mqtt/mqtt.c **** 
 841              		.loc 1 319 3 is_stmt 0 discriminator 1 view .LVU213
 842 0024 0C48     		ldr	r0, .L66+8
 843              	.LVL83:
 319:Middlewares/Third_Party/LwIP/src/apps/mqtt/mqtt.c **** 
 844              		.loc 1 319 3 discriminator 1 view .LVU214
 845 0026 FFF7FEFF 		bl	printf
 846              	.LVL84:
 847 002a EDE7     		b	.L55
 848              	.LVL85:
 849              	.L63:
 327:Middlewares/Third_Party/LwIP/src/apps/mqtt/mqtt.c ****   r->timeout_diff = MQTT_REQ_TIMEOUT - time_before;
 850              		.loc 1 327 3 is_stmt 1 view .LVU215
 327:Middlewares/Third_Party/LwIP/src/apps/mqtt/mqtt.c ****   r->timeout_diff = MQTT_REQ_TIMEOUT - time_before;
 851              		.loc 1 327 3 view .LVU216
 852 002c 1E2C     		cmp	r4, #30
 853 002e 05DC     		bgt	.L64
 854              	.LVL86:
 855              	.L58:
 327:Middlewares/Third_Party/LwIP/src/apps/mqtt/mqtt.c ****   r->timeout_diff = MQTT_REQ_TIMEOUT - time_before;
 856              		.loc 1 327 3 discriminator 3 view .LVU217
 327:Middlewares/Third_Party/LwIP/src/apps/mqtt/mqtt.c ****   r->timeout_diff = MQTT_REQ_TIMEOUT - time_before;
 857              		.loc 1 327 3 discriminator 3 view .LVU218
 328:Middlewares/Third_Party/LwIP/src/apps/mqtt/mqtt.c ****   if (head == NULL) {
 858              		.loc 1 328 3 discriminator 3 view .LVU219
 328:Middlewares/Third_Party/LwIP/src/apps/mqtt/mqtt.c ****   if (head == NULL) {
 859              		.loc 1 328 38 is_stmt 0 discriminator 3 view .LVU220
 860 0030 C4F11E04 		rsb	r4, r4, #30
 861              	.LVL87:
 328:Middlewares/Third_Party/LwIP/src/apps/mqtt/mqtt.c ****   if (head == NULL) {
 862              		.loc 1 328 19 discriminator 3 view .LVU221
 863 0034 F481     		strh	r4, [r6, #14]	@ movhi
 329:Middlewares/Third_Party/LwIP/src/apps/mqtt/mqtt.c ****     *tail = r;
 864              		.loc 1 329 3 is_stmt 1 discriminator 3 view .LVU222
 329:Middlewares/Third_Party/LwIP/src/apps/mqtt/mqtt.c ****     *tail = r;
 865              		.loc 1 329 6 is_stmt 0 discriminator 3 view .LVU223
 866 0036 4DB1     		cbz	r5, .L65
 332:Middlewares/Third_Party/LwIP/src/apps/mqtt/mqtt.c ****   }
 867              		.loc 1 332 5 is_stmt 1 view .LVU224
 332:Middlewares/Third_Party/LwIP/src/apps/mqtt/mqtt.c ****   }
 868              		.loc 1 332 16 is_stmt 0 view .LVU225
 869 0038 2E60     		str	r6, [r5]
 870              	.L54:
 334:Middlewares/Third_Party/LwIP/src/apps/mqtt/mqtt.c **** 
 871              		.loc 1 334 1 view .LVU226
 872 003a F8BD     		pop	{r3, r4, r5, r6, r7, pc}
 873              	.LVL88:
 874              	.L64:
 327:Middlewares/Third_Party/LwIP/src/apps/mqtt/mqtt.c ****   r->timeout_diff = MQTT_REQ_TIMEOUT - time_before;
 875              		.loc 1 327 3 is_stmt 1 discriminator 1 view .LVU227
 327:Middlewares/Third_Party/LwIP/src/apps/mqtt/mqtt.c ****   r->timeout_diff = MQTT_REQ_TIMEOUT - time_before;
 876              		.loc 1 327 3 discriminator 1 view .LVU228
ARM GAS  D:\Dev\msys64\tmp\ccB7TkM7.s 			page 30


 877 003c 044B     		ldr	r3, .L66
 878              	.LVL89:
 327:Middlewares/Third_Party/LwIP/src/apps/mqtt/mqtt.c ****   r->timeout_diff = MQTT_REQ_TIMEOUT - time_before;
 879              		.loc 1 327 3 is_stmt 0 discriminator 1 view .LVU229
 880 003e 40F24712 		movw	r2, #327
 881 0042 0649     		ldr	r1, .L66+12
 882 0044 0448     		ldr	r0, .L66+8
 883 0046 FFF7FEFF 		bl	printf
 884              	.LVL90:
 885 004a F1E7     		b	.L58
 886              	.LVL91:
 887              	.L65:
 330:Middlewares/Third_Party/LwIP/src/apps/mqtt/mqtt.c ****   } else {
 888              		.loc 1 330 5 is_stmt 1 view .LVU230
 330:Middlewares/Third_Party/LwIP/src/apps/mqtt/mqtt.c ****   } else {
 889              		.loc 1 330 11 is_stmt 0 view .LVU231
 890 004c 3E60     		str	r6, [r7]
 891 004e F4E7     		b	.L54
 892              	.L67:
 893              		.align	2
 894              	.L66:
 895 0050 00000000 		.word	.LC0
 896 0054 00000000 		.word	.LC4
 897 0058 58000000 		.word	.LC2
 898 005c 24000000 		.word	.LC5
 899              		.cfi_endproc
 900              	.LFE37:
 902              		.section	.rodata.mqtt_ringbuf_advance_get_idx.str1.4,"aMS",%progbits,1
 903              		.align	2
 904              	.LC6:
 905 0000 6D717474 		.ascii	"mqtt_ringbuf_advance_get_idx: len < MQTT_OUTPUT_RIN"
 905      5F72696E 
 905      67627566 
 905      5F616476 
 905      616E6365 
 906 0033 47425546 		.ascii	"GBUF_SIZE\000"
 906      5F53495A 
 906      4500
 907              		.section	.text.mqtt_ringbuf_advance_get_idx,"ax",%progbits
 908              		.align	1
 909              		.syntax unified
 910              		.thumb
 911              		.thumb_func
 912              		.fpu fpv5-sp-d16
 914              	mqtt_ringbuf_advance_get_idx:
 915              	.LVL92:
 916              	.LFB33:
 202:Middlewares/Third_Party/LwIP/src/apps/mqtt/mqtt.c ****   LWIP_ASSERT("mqtt_ringbuf_advance_get_idx: len < MQTT_OUTPUT_RINGBUF_SIZE", len < MQTT_OUTPUT_RIN
 917              		.loc 1 202 1 is_stmt 1 view -0
 918              		.cfi_startproc
 919              		@ args = 0, pretend = 0, frame = 0
 920              		@ frame_needed = 0, uses_anonymous_args = 0
 202:Middlewares/Third_Party/LwIP/src/apps/mqtt/mqtt.c ****   LWIP_ASSERT("mqtt_ringbuf_advance_get_idx: len < MQTT_OUTPUT_RINGBUF_SIZE", len < MQTT_OUTPUT_RIN
 921              		.loc 1 202 1 is_stmt 0 view .LVU233
 922 0000 38B5     		push	{r3, r4, r5, lr}
 923              	.LCFI9:
 924              		.cfi_def_cfa_offset 16
ARM GAS  D:\Dev\msys64\tmp\ccB7TkM7.s 			page 31


 925              		.cfi_offset 3, -16
 926              		.cfi_offset 4, -12
 927              		.cfi_offset 5, -8
 928              		.cfi_offset 14, -4
 929 0002 0546     		mov	r5, r0
 930 0004 0C46     		mov	r4, r1
 203:Middlewares/Third_Party/LwIP/src/apps/mqtt/mqtt.c **** 
 931              		.loc 1 203 3 is_stmt 1 view .LVU234
 203:Middlewares/Third_Party/LwIP/src/apps/mqtt/mqtt.c **** 
 932              		.loc 1 203 3 view .LVU235
 933 0006 FF29     		cmp	r1, #255
 934 0008 09D8     		bhi	.L72
 935              	.LVL93:
 936              	.L69:
 203:Middlewares/Third_Party/LwIP/src/apps/mqtt/mqtt.c **** 
 937              		.loc 1 203 3 discriminator 3 view .LVU236
 203:Middlewares/Third_Party/LwIP/src/apps/mqtt/mqtt.c **** 
 938              		.loc 1 203 3 discriminator 3 view .LVU237
 205:Middlewares/Third_Party/LwIP/src/apps/mqtt/mqtt.c ****   if (rb->get >= MQTT_OUTPUT_RINGBUF_SIZE) {
 939              		.loc 1 205 3 discriminator 3 view .LVU238
 205:Middlewares/Third_Party/LwIP/src/apps/mqtt/mqtt.c ****   if (rb->get >= MQTT_OUTPUT_RINGBUF_SIZE) {
 940              		.loc 1 205 11 is_stmt 0 discriminator 3 view .LVU239
 941 000a 6988     		ldrh	r1, [r5, #2]
 942 000c 2144     		add	r1, r1, r4
 943 000e 89B2     		uxth	r1, r1
 944 0010 6980     		strh	r1, [r5, #2]	@ movhi
 206:Middlewares/Third_Party/LwIP/src/apps/mqtt/mqtt.c ****     rb->get = rb->get - MQTT_OUTPUT_RINGBUF_SIZE;
 945              		.loc 1 206 3 is_stmt 1 discriminator 3 view .LVU240
 206:Middlewares/Third_Party/LwIP/src/apps/mqtt/mqtt.c ****     rb->get = rb->get - MQTT_OUTPUT_RINGBUF_SIZE;
 946              		.loc 1 206 6 is_stmt 0 discriminator 3 view .LVU241
 947 0012 FF29     		cmp	r1, #255
 948 0014 02D9     		bls	.L68
 207:Middlewares/Third_Party/LwIP/src/apps/mqtt/mqtt.c ****   }
 949              		.loc 1 207 5 is_stmt 1 view .LVU242
 207:Middlewares/Third_Party/LwIP/src/apps/mqtt/mqtt.c ****   }
 950              		.loc 1 207 23 is_stmt 0 view .LVU243
 951 0016 A1F58071 		sub	r1, r1, #256
 207:Middlewares/Third_Party/LwIP/src/apps/mqtt/mqtt.c ****   }
 952              		.loc 1 207 13 view .LVU244
 953 001a 6980     		strh	r1, [r5, #2]	@ movhi
 954              	.L68:
 209:Middlewares/Third_Party/LwIP/src/apps/mqtt/mqtt.c **** 
 955              		.loc 1 209 1 view .LVU245
 956 001c 38BD     		pop	{r3, r4, r5, pc}
 957              	.LVL94:
 958              	.L72:
 203:Middlewares/Third_Party/LwIP/src/apps/mqtt/mqtt.c **** 
 959              		.loc 1 203 3 is_stmt 1 discriminator 1 view .LVU246
 203:Middlewares/Third_Party/LwIP/src/apps/mqtt/mqtt.c **** 
 960              		.loc 1 203 3 discriminator 1 view .LVU247
 961 001e 034B     		ldr	r3, .L73
 962 0020 CB22     		movs	r2, #203
 963 0022 0349     		ldr	r1, .L73+4
 964              	.LVL95:
 203:Middlewares/Third_Party/LwIP/src/apps/mqtt/mqtt.c **** 
 965              		.loc 1 203 3 is_stmt 0 discriminator 1 view .LVU248
 966 0024 0348     		ldr	r0, .L73+8
ARM GAS  D:\Dev\msys64\tmp\ccB7TkM7.s 			page 32


 967              	.LVL96:
 203:Middlewares/Third_Party/LwIP/src/apps/mqtt/mqtt.c **** 
 968              		.loc 1 203 3 discriminator 1 view .LVU249
 969 0026 FFF7FEFF 		bl	printf
 970              	.LVL97:
 971 002a EEE7     		b	.L69
 972              	.L74:
 973              		.align	2
 974              	.L73:
 975 002c 00000000 		.word	.LC0
 976 0030 00000000 		.word	.LC6
 977 0034 58000000 		.word	.LC2
 978              		.cfi_endproc
 979              	.LFE33:
 981              		.section	.rodata.mqtt_request_time_elapsed.str1.4,"aMS",%progbits,1
 982              		.align	2
 983              	.LC7:
 984 0000 6D717474 		.ascii	"mqtt_request_time_elapsed: tail != NULL\000"
 984      5F726571 
 984      75657374 
 984      5F74696D 
 984      655F656C 
 985              		.section	.text.mqtt_request_time_elapsed,"ax",%progbits
 986              		.align	1
 987              		.syntax unified
 988              		.thumb
 989              		.thumb_func
 990              		.fpu fpv5-sp-d16
 992              	mqtt_request_time_elapsed:
 993              	.LVL98:
 994              	.LFB40:
 392:Middlewares/Third_Party/LwIP/src/apps/mqtt/mqtt.c ****   struct mqtt_request_t *r;
 995              		.loc 1 392 1 is_stmt 1 view -0
 996              		.cfi_startproc
 997              		@ args = 0, pretend = 0, frame = 0
 998              		@ frame_needed = 0, uses_anonymous_args = 0
 392:Middlewares/Third_Party/LwIP/src/apps/mqtt/mqtt.c ****   struct mqtt_request_t *r;
 999              		.loc 1 392 1 is_stmt 0 view .LVU251
 1000 0000 70B5     		push	{r4, r5, r6, lr}
 1001              	.LCFI10:
 1002              		.cfi_def_cfa_offset 16
 1003              		.cfi_offset 4, -16
 1004              		.cfi_offset 5, -12
 1005              		.cfi_offset 6, -8
 1006              		.cfi_offset 14, -4
 1007 0002 0E46     		mov	r6, r1
 393:Middlewares/Third_Party/LwIP/src/apps/mqtt/mqtt.c ****   LWIP_ASSERT("mqtt_request_time_elapsed: tail != NULL", tail != NULL);
 1008              		.loc 1 393 3 is_stmt 1 view .LVU252
 394:Middlewares/Third_Party/LwIP/src/apps/mqtt/mqtt.c ****   r = *tail;
 1009              		.loc 1 394 3 view .LVU253
 394:Middlewares/Third_Party/LwIP/src/apps/mqtt/mqtt.c ****   r = *tail;
 1010              		.loc 1 394 3 view .LVU254
 1011 0004 0546     		mov	r5, r0
 1012 0006 08B1     		cbz	r0, .L83
 1013              	.LVL99:
 1014              	.L76:
 394:Middlewares/Third_Party/LwIP/src/apps/mqtt/mqtt.c ****   r = *tail;
ARM GAS  D:\Dev\msys64\tmp\ccB7TkM7.s 			page 33


 1015              		.loc 1 394 3 discriminator 3 view .LVU255
 394:Middlewares/Third_Party/LwIP/src/apps/mqtt/mqtt.c ****   r = *tail;
 1016              		.loc 1 394 3 discriminator 3 view .LVU256
 395:Middlewares/Third_Party/LwIP/src/apps/mqtt/mqtt.c ****   while (t > 0 && r != NULL) {
 1017              		.loc 1 395 3 discriminator 3 view .LVU257
 395:Middlewares/Third_Party/LwIP/src/apps/mqtt/mqtt.c ****   while (t > 0 && r != NULL) {
 1018              		.loc 1 395 5 is_stmt 0 discriminator 3 view .LVU258
 1019 0008 2C68     		ldr	r4, [r5]
 1020              	.LVL100:
 396:Middlewares/Third_Party/LwIP/src/apps/mqtt/mqtt.c ****     if (t >= r->timeout_diff) {
 1021              		.loc 1 396 3 is_stmt 1 discriminator 3 view .LVU259
 396:Middlewares/Third_Party/LwIP/src/apps/mqtt/mqtt.c ****     if (t >= r->timeout_diff) {
 1022              		.loc 1 396 9 is_stmt 0 discriminator 3 view .LVU260
 1023 000a 0BE0     		b	.L77
 1024              	.LVL101:
 1025              	.L83:
 394:Middlewares/Third_Party/LwIP/src/apps/mqtt/mqtt.c ****   r = *tail;
 1026              		.loc 1 394 3 is_stmt 1 discriminator 1 view .LVU261
 394:Middlewares/Third_Party/LwIP/src/apps/mqtt/mqtt.c ****   r = *tail;
 1027              		.loc 1 394 3 discriminator 1 view .LVU262
 1028 000c 144B     		ldr	r3, .L85
 1029 000e 4FF4C572 		mov	r2, #394
 1030 0012 1449     		ldr	r1, .L85+4
 1031              	.LVL102:
 394:Middlewares/Third_Party/LwIP/src/apps/mqtt/mqtt.c ****   r = *tail;
 1032              		.loc 1 394 3 is_stmt 0 discriminator 1 view .LVU263
 1033 0014 1448     		ldr	r0, .L85+8
 1034              	.LVL103:
 394:Middlewares/Third_Party/LwIP/src/apps/mqtt/mqtt.c ****   r = *tail;
 1035              		.loc 1 394 3 discriminator 1 view .LVU264
 1036 0016 FFF7FEFF 		bl	printf
 1037              	.LVL104:
 1038 001a F5E7     		b	.L76
 1039              	.LVL105:
 1040              	.L79:
 405:Middlewares/Third_Party/LwIP/src/apps/mqtt/mqtt.c ****       /* Tail might be be modified in callback, so re-read it in every iteration */
 1041              		.loc 1 405 7 is_stmt 1 view .LVU265
 1042 001c 2046     		mov	r0, r4
 1043 001e FFF7FEFF 		bl	mqtt_delete_request
 1044              	.LVL106:
 407:Middlewares/Third_Party/LwIP/src/apps/mqtt/mqtt.c ****     } else {
 1045              		.loc 1 407 7 view .LVU266
 407:Middlewares/Third_Party/LwIP/src/apps/mqtt/mqtt.c ****     } else {
 1046              		.loc 1 407 9 is_stmt 0 view .LVU267
 1047 0022 2C68     		ldr	r4, [r5]
 1048              	.LVL107:
 1049              	.L77:
 396:Middlewares/Third_Party/LwIP/src/apps/mqtt/mqtt.c ****     if (t >= r->timeout_diff) {
 1050              		.loc 1 396 9 is_stmt 1 view .LVU268
 396:Middlewares/Third_Party/LwIP/src/apps/mqtt/mqtt.c ****     if (t >= r->timeout_diff) {
 1051              		.loc 1 396 21 is_stmt 0 view .LVU269
 1052 0024 221E     		subs	r2, r4, #0
 1053 0026 18BF     		it	ne
 1054 0028 0122     		movne	r2, #1
 396:Middlewares/Third_Party/LwIP/src/apps/mqtt/mqtt.c ****     if (t >= r->timeout_diff) {
 1055              		.loc 1 396 16 view .LVU270
 1056 002a 002E     		cmp	r6, #0
ARM GAS  D:\Dev\msys64\tmp\ccB7TkM7.s 			page 34


 1057 002c 08BF     		it	eq
 1058 002e 0022     		moveq	r2, #0
 396:Middlewares/Third_Party/LwIP/src/apps/mqtt/mqtt.c ****     if (t >= r->timeout_diff) {
 1059              		.loc 1 396 9 view .LVU271
 1060 0030 A2B1     		cbz	r2, .L84
 397:Middlewares/Third_Party/LwIP/src/apps/mqtt/mqtt.c ****       t -= (u8_t)r->timeout_diff;
 1061              		.loc 1 397 5 is_stmt 1 view .LVU272
 397:Middlewares/Third_Party/LwIP/src/apps/mqtt/mqtt.c ****       t -= (u8_t)r->timeout_diff;
 1062              		.loc 1 397 11 is_stmt 0 view .LVU273
 1063 0032 B2B2     		uxth	r2, r6
 397:Middlewares/Third_Party/LwIP/src/apps/mqtt/mqtt.c ****       t -= (u8_t)r->timeout_diff;
 1064              		.loc 1 397 15 view .LVU274
 1065 0034 E389     		ldrh	r3, [r4, #14]
 397:Middlewares/Third_Party/LwIP/src/apps/mqtt/mqtt.c ****       t -= (u8_t)r->timeout_diff;
 1066              		.loc 1 397 8 view .LVU275
 1067 0036 9A42     		cmp	r2, r3
 1068 0038 0CD3     		bcc	.L78
 398:Middlewares/Third_Party/LwIP/src/apps/mqtt/mqtt.c ****       /* Unchain */
 1069              		.loc 1 398 7 is_stmt 1 view .LVU276
 398:Middlewares/Third_Party/LwIP/src/apps/mqtt/mqtt.c ****       /* Unchain */
 1070              		.loc 1 398 12 is_stmt 0 view .LVU277
 1071 003a DBB2     		uxtb	r3, r3
 398:Middlewares/Third_Party/LwIP/src/apps/mqtt/mqtt.c ****       /* Unchain */
 1072              		.loc 1 398 9 view .LVU278
 1073 003c F31A     		subs	r3, r6, r3
 1074 003e DEB2     		uxtb	r6, r3
 1075              	.LVL108:
 400:Middlewares/Third_Party/LwIP/src/apps/mqtt/mqtt.c ****       /* Notify upper layer about timeout */
 1076              		.loc 1 400 7 is_stmt 1 view .LVU279
 400:Middlewares/Third_Party/LwIP/src/apps/mqtt/mqtt.c ****       /* Notify upper layer about timeout */
 1077              		.loc 1 400 16 is_stmt 0 view .LVU280
 1078 0040 2368     		ldr	r3, [r4]
 400:Middlewares/Third_Party/LwIP/src/apps/mqtt/mqtt.c ****       /* Notify upper layer about timeout */
 1079              		.loc 1 400 13 view .LVU281
 1080 0042 2B60     		str	r3, [r5]
 402:Middlewares/Third_Party/LwIP/src/apps/mqtt/mqtt.c ****         r->cb(r->arg, ERR_TIMEOUT);
 1081              		.loc 1 402 7 is_stmt 1 view .LVU282
 402:Middlewares/Third_Party/LwIP/src/apps/mqtt/mqtt.c ****         r->cb(r->arg, ERR_TIMEOUT);
 1082              		.loc 1 402 12 is_stmt 0 view .LVU283
 1083 0044 6368     		ldr	r3, [r4, #4]
 402:Middlewares/Third_Party/LwIP/src/apps/mqtt/mqtt.c ****         r->cb(r->arg, ERR_TIMEOUT);
 1084              		.loc 1 402 10 view .LVU284
 1085 0046 002B     		cmp	r3, #0
 1086 0048 E8D0     		beq	.L79
 403:Middlewares/Third_Party/LwIP/src/apps/mqtt/mqtt.c ****       }
 1087              		.loc 1 403 9 is_stmt 1 view .LVU285
 1088 004a 6FF00201 		mvn	r1, #2
 1089 004e A068     		ldr	r0, [r4, #8]
 1090 0050 9847     		blx	r3
 1091              	.LVL109:
 1092 0052 E3E7     		b	.L79
 1093              	.L78:
 409:Middlewares/Third_Party/LwIP/src/apps/mqtt/mqtt.c ****       t = 0;
 1094              		.loc 1 409 7 view .LVU286
 409:Middlewares/Third_Party/LwIP/src/apps/mqtt/mqtt.c ****       t = 0;
 1095              		.loc 1 409 23 is_stmt 0 view .LVU287
 1096 0054 9B1A     		subs	r3, r3, r2
ARM GAS  D:\Dev\msys64\tmp\ccB7TkM7.s 			page 35


 1097 0056 E381     		strh	r3, [r4, #14]	@ movhi
 410:Middlewares/Third_Party/LwIP/src/apps/mqtt/mqtt.c ****     }
 1098              		.loc 1 410 7 is_stmt 1 view .LVU288
 1099              	.LVL110:
 410:Middlewares/Third_Party/LwIP/src/apps/mqtt/mqtt.c ****     }
 1100              		.loc 1 410 9 is_stmt 0 view .LVU289
 1101 0058 0026     		movs	r6, #0
 1102 005a E3E7     		b	.L77
 1103              	.LVL111:
 1104              	.L84:
 413:Middlewares/Third_Party/LwIP/src/apps/mqtt/mqtt.c **** 
 1105              		.loc 1 413 1 view .LVU290
 1106 005c 70BD     		pop	{r4, r5, r6, pc}
 1107              	.LVL112:
 1108              	.L86:
 413:Middlewares/Third_Party/LwIP/src/apps/mqtt/mqtt.c **** 
 1109              		.loc 1 413 1 view .LVU291
 1110 005e 00BF     		.align	2
 1111              	.L85:
 1112 0060 00000000 		.word	.LC0
 1113 0064 00000000 		.word	.LC7
 1114 0068 58000000 		.word	.LC2
 1115              		.cfi_endproc
 1116              	.LFE40:
 1118              		.section	.rodata.mqtt_clear_requests.str1.4,"aMS",%progbits,1
 1119              		.align	2
 1120              	.LC8:
 1121 0000 6D717474 		.ascii	"mqtt_clear_requests: tail != NULL\000"
 1121      5F636C65 
 1121      61725F72 
 1121      65717565 
 1121      7374733A 
 1122              		.section	.text.mqtt_clear_requests,"ax",%progbits
 1123              		.align	1
 1124              		.syntax unified
 1125              		.thumb
 1126              		.thumb_func
 1127              		.fpu fpv5-sp-d16
 1129              	mqtt_clear_requests:
 1130              	.LVL113:
 1131              	.LFB41:
 421:Middlewares/Third_Party/LwIP/src/apps/mqtt/mqtt.c ****   struct mqtt_request_t *iter, *next;
 1132              		.loc 1 421 1 is_stmt 1 view -0
 1133              		.cfi_startproc
 1134              		@ args = 0, pretend = 0, frame = 0
 1135              		@ frame_needed = 0, uses_anonymous_args = 0
 421:Middlewares/Third_Party/LwIP/src/apps/mqtt/mqtt.c ****   struct mqtt_request_t *iter, *next;
 1136              		.loc 1 421 1 is_stmt 0 view .LVU293
 1137 0000 38B5     		push	{r3, r4, r5, lr}
 1138              	.LCFI11:
 1139              		.cfi_def_cfa_offset 16
 1140              		.cfi_offset 3, -16
 1141              		.cfi_offset 4, -12
 1142              		.cfi_offset 5, -8
 1143              		.cfi_offset 14, -4
 422:Middlewares/Third_Party/LwIP/src/apps/mqtt/mqtt.c ****   LWIP_ASSERT("mqtt_clear_requests: tail != NULL", tail != NULL);
 1144              		.loc 1 422 3 is_stmt 1 view .LVU294
ARM GAS  D:\Dev\msys64\tmp\ccB7TkM7.s 			page 36


 423:Middlewares/Third_Party/LwIP/src/apps/mqtt/mqtt.c ****   for (iter = *tail; iter != NULL; iter = next) {
 1145              		.loc 1 423 3 view .LVU295
 423:Middlewares/Third_Party/LwIP/src/apps/mqtt/mqtt.c ****   for (iter = *tail; iter != NULL; iter = next) {
 1146              		.loc 1 423 3 view .LVU296
 1147 0002 0546     		mov	r5, r0
 1148 0004 30B1     		cbz	r0, .L92
 1149              	.LVL114:
 1150              	.L88:
 423:Middlewares/Third_Party/LwIP/src/apps/mqtt/mqtt.c ****   for (iter = *tail; iter != NULL; iter = next) {
 1151              		.loc 1 423 3 discriminator 3 view .LVU297
 423:Middlewares/Third_Party/LwIP/src/apps/mqtt/mqtt.c ****   for (iter = *tail; iter != NULL; iter = next) {
 1152              		.loc 1 423 3 discriminator 3 view .LVU298
 424:Middlewares/Third_Party/LwIP/src/apps/mqtt/mqtt.c ****     next = iter->next;
 1153              		.loc 1 424 3 discriminator 3 view .LVU299
 424:Middlewares/Third_Party/LwIP/src/apps/mqtt/mqtt.c ****     next = iter->next;
 1154              		.loc 1 424 13 is_stmt 0 discriminator 3 view .LVU300
 1155 0006 2868     		ldr	r0, [r5]
 1156              	.LVL115:
 1157              	.L89:
 424:Middlewares/Third_Party/LwIP/src/apps/mqtt/mqtt.c ****     next = iter->next;
 1158              		.loc 1 424 22 is_stmt 1 discriminator 1 view .LVU301
 424:Middlewares/Third_Party/LwIP/src/apps/mqtt/mqtt.c ****     next = iter->next;
 1159              		.loc 1 424 3 is_stmt 0 discriminator 1 view .LVU302
 1160 0008 60B1     		cbz	r0, .L93
 425:Middlewares/Third_Party/LwIP/src/apps/mqtt/mqtt.c ****     mqtt_delete_request(iter);
 1161              		.loc 1 425 5 is_stmt 1 discriminator 3 view .LVU303
 425:Middlewares/Third_Party/LwIP/src/apps/mqtt/mqtt.c ****     mqtt_delete_request(iter);
 1162              		.loc 1 425 10 is_stmt 0 discriminator 3 view .LVU304
 1163 000a 0468     		ldr	r4, [r0]
 1164              	.LVL116:
 426:Middlewares/Third_Party/LwIP/src/apps/mqtt/mqtt.c ****   }
 1165              		.loc 1 426 5 is_stmt 1 discriminator 3 view .LVU305
 1166 000c FFF7FEFF 		bl	mqtt_delete_request
 1167              	.LVL117:
 424:Middlewares/Third_Party/LwIP/src/apps/mqtt/mqtt.c ****     next = iter->next;
 1168              		.loc 1 424 36 discriminator 3 view .LVU306
 424:Middlewares/Third_Party/LwIP/src/apps/mqtt/mqtt.c ****     next = iter->next;
 1169              		.loc 1 424 41 is_stmt 0 discriminator 3 view .LVU307
 1170 0010 2046     		mov	r0, r4
 1171 0012 F9E7     		b	.L89
 1172              	.LVL118:
 1173              	.L92:
 423:Middlewares/Third_Party/LwIP/src/apps/mqtt/mqtt.c ****   for (iter = *tail; iter != NULL; iter = next) {
 1174              		.loc 1 423 3 is_stmt 1 discriminator 1 view .LVU308
 423:Middlewares/Third_Party/LwIP/src/apps/mqtt/mqtt.c ****   for (iter = *tail; iter != NULL; iter = next) {
 1175              		.loc 1 423 3 discriminator 1 view .LVU309
 1176 0014 054B     		ldr	r3, .L94
 1177 0016 40F2A712 		movw	r2, #423
 1178 001a 0549     		ldr	r1, .L94+4
 1179 001c 0548     		ldr	r0, .L94+8
 1180              	.LVL119:
 423:Middlewares/Third_Party/LwIP/src/apps/mqtt/mqtt.c ****   for (iter = *tail; iter != NULL; iter = next) {
 1181              		.loc 1 423 3 is_stmt 0 discriminator 1 view .LVU310
 1182 001e FFF7FEFF 		bl	printf
 1183              	.LVL120:
 1184 0022 F0E7     		b	.L88
 1185              	.LVL121:
ARM GAS  D:\Dev\msys64\tmp\ccB7TkM7.s 			page 37


 1186              	.L93:
 428:Middlewares/Third_Party/LwIP/src/apps/mqtt/mqtt.c **** }
 1187              		.loc 1 428 3 is_stmt 1 view .LVU311
 428:Middlewares/Third_Party/LwIP/src/apps/mqtt/mqtt.c **** }
 1188              		.loc 1 428 9 is_stmt 0 view .LVU312
 1189 0024 0023     		movs	r3, #0
 1190 0026 2B60     		str	r3, [r5]
 429:Middlewares/Third_Party/LwIP/src/apps/mqtt/mqtt.c **** /**
 1191              		.loc 1 429 1 view .LVU313
 1192 0028 38BD     		pop	{r3, r4, r5, pc}
 1193              	.LVL122:
 1194              	.L95:
 429:Middlewares/Third_Party/LwIP/src/apps/mqtt/mqtt.c **** /**
 1195              		.loc 1 429 1 view .LVU314
 1196 002a 00BF     		.align	2
 1197              	.L94:
 1198 002c 00000000 		.word	.LC0
 1199 0030 00000000 		.word	.LC8
 1200 0034 58000000 		.word	.LC2
 1201              		.cfi_endproc
 1202              	.LFE41:
 1204              		.section	.rodata.mqtt_take_request.str1.4,"aMS",%progbits,1
 1205              		.align	2
 1206              	.LC9:
 1207 0000 6D717474 		.ascii	"mqtt_take_request: tail != NULL\000"
 1207      5F74616B 
 1207      655F7265 
 1207      71756573 
 1207      743A2074 
 1208              		.section	.text.mqtt_take_request,"ax",%progbits
 1209              		.align	1
 1210              		.syntax unified
 1211              		.thumb
 1212              		.thumb_func
 1213              		.fpu fpv5-sp-d16
 1215              	mqtt_take_request:
 1216              	.LVL123:
 1217              	.LFB39:
 357:Middlewares/Third_Party/LwIP/src/apps/mqtt/mqtt.c ****   struct mqtt_request_t *iter = NULL, *prev = NULL;
 1218              		.loc 1 357 1 is_stmt 1 view -0
 1219              		.cfi_startproc
 1220              		@ args = 0, pretend = 0, frame = 0
 1221              		@ frame_needed = 0, uses_anonymous_args = 0
 357:Middlewares/Third_Party/LwIP/src/apps/mqtt/mqtt.c ****   struct mqtt_request_t *iter = NULL, *prev = NULL;
 1222              		.loc 1 357 1 is_stmt 0 view .LVU316
 1223 0000 38B5     		push	{r3, r4, r5, lr}
 1224              	.LCFI12:
 1225              		.cfi_def_cfa_offset 16
 1226              		.cfi_offset 3, -16
 1227              		.cfi_offset 4, -12
 1228              		.cfi_offset 5, -8
 1229              		.cfi_offset 14, -4
 1230 0002 0C46     		mov	r4, r1
 358:Middlewares/Third_Party/LwIP/src/apps/mqtt/mqtt.c ****   LWIP_ASSERT("mqtt_take_request: tail != NULL", tail != NULL);
 1231              		.loc 1 358 3 is_stmt 1 view .LVU317
 1232              	.LVL124:
 359:Middlewares/Third_Party/LwIP/src/apps/mqtt/mqtt.c ****   /* Search all request for pkt_id */
ARM GAS  D:\Dev\msys64\tmp\ccB7TkM7.s 			page 38


 1233              		.loc 1 359 3 view .LVU318
 359:Middlewares/Third_Party/LwIP/src/apps/mqtt/mqtt.c ****   /* Search all request for pkt_id */
 1234              		.loc 1 359 3 view .LVU319
 1235 0004 0546     		mov	r5, r0
 1236 0006 40B1     		cbz	r0, .L106
 1237              	.LVL125:
 1238              	.L97:
 359:Middlewares/Third_Party/LwIP/src/apps/mqtt/mqtt.c ****   /* Search all request for pkt_id */
 1239              		.loc 1 359 3 discriminator 3 view .LVU320
 359:Middlewares/Third_Party/LwIP/src/apps/mqtt/mqtt.c ****   /* Search all request for pkt_id */
 1240              		.loc 1 359 3 discriminator 3 view .LVU321
 361:Middlewares/Third_Party/LwIP/src/apps/mqtt/mqtt.c ****     if (iter->pkt_id == pkt_id) {
 1241              		.loc 1 361 3 discriminator 3 view .LVU322
 361:Middlewares/Third_Party/LwIP/src/apps/mqtt/mqtt.c ****     if (iter->pkt_id == pkt_id) {
 1242              		.loc 1 361 13 is_stmt 0 discriminator 3 view .LVU323
 1243 0008 2868     		ldr	r0, [r5]
 1244              	.LVL126:
 358:Middlewares/Third_Party/LwIP/src/apps/mqtt/mqtt.c ****   LWIP_ASSERT("mqtt_take_request: tail != NULL", tail != NULL);
 1245              		.loc 1 358 40 discriminator 3 view .LVU324
 1246 000a 0022     		movs	r2, #0
 1247              	.LVL127:
 1248              	.L98:
 361:Middlewares/Third_Party/LwIP/src/apps/mqtt/mqtt.c ****     if (iter->pkt_id == pkt_id) {
 1249              		.loc 1 361 22 is_stmt 1 discriminator 1 view .LVU325
 361:Middlewares/Third_Party/LwIP/src/apps/mqtt/mqtt.c ****     if (iter->pkt_id == pkt_id) {
 1250              		.loc 1 361 3 is_stmt 0 discriminator 1 view .LVU326
 1251 000c 68B1     		cbz	r0, .L99
 362:Middlewares/Third_Party/LwIP/src/apps/mqtt/mqtt.c ****       break;
 1252              		.loc 1 362 5 is_stmt 1 view .LVU327
 362:Middlewares/Third_Party/LwIP/src/apps/mqtt/mqtt.c ****       break;
 1253              		.loc 1 362 13 is_stmt 0 view .LVU328
 1254 000e 8389     		ldrh	r3, [r0, #12]
 362:Middlewares/Third_Party/LwIP/src/apps/mqtt/mqtt.c ****       break;
 1255              		.loc 1 362 8 view .LVU329
 1256 0010 A342     		cmp	r3, r4
 1257 0012 0AD0     		beq	.L99
 365:Middlewares/Third_Party/LwIP/src/apps/mqtt/mqtt.c ****   }
 1258              		.loc 1 365 5 is_stmt 1 discriminator 2 view .LVU330
 1259              	.LVL128:
 361:Middlewares/Third_Party/LwIP/src/apps/mqtt/mqtt.c ****     if (iter->pkt_id == pkt_id) {
 1260              		.loc 1 361 36 discriminator 2 view .LVU331
 365:Middlewares/Third_Party/LwIP/src/apps/mqtt/mqtt.c ****   }
 1261              		.loc 1 365 10 is_stmt 0 discriminator 2 view .LVU332
 1262 0014 0246     		mov	r2, r0
 361:Middlewares/Third_Party/LwIP/src/apps/mqtt/mqtt.c ****     if (iter->pkt_id == pkt_id) {
 1263              		.loc 1 361 41 discriminator 2 view .LVU333
 1264 0016 0068     		ldr	r0, [r0]
 1265              	.LVL129:
 361:Middlewares/Third_Party/LwIP/src/apps/mqtt/mqtt.c ****     if (iter->pkt_id == pkt_id) {
 1266              		.loc 1 361 41 discriminator 2 view .LVU334
 1267 0018 F8E7     		b	.L98
 1268              	.LVL130:
 1269              	.L106:
 359:Middlewares/Third_Party/LwIP/src/apps/mqtt/mqtt.c ****   /* Search all request for pkt_id */
 1270              		.loc 1 359 3 is_stmt 1 discriminator 1 view .LVU335
 359:Middlewares/Third_Party/LwIP/src/apps/mqtt/mqtt.c ****   /* Search all request for pkt_id */
 1271              		.loc 1 359 3 discriminator 1 view .LVU336
ARM GAS  D:\Dev\msys64\tmp\ccB7TkM7.s 			page 39


 1272 001a 0C4B     		ldr	r3, .L108
 1273 001c 40F26712 		movw	r2, #359
 1274 0020 0B49     		ldr	r1, .L108+4
 1275              	.LVL131:
 359:Middlewares/Third_Party/LwIP/src/apps/mqtt/mqtt.c ****   /* Search all request for pkt_id */
 1276              		.loc 1 359 3 is_stmt 0 discriminator 1 view .LVU337
 1277 0022 0C48     		ldr	r0, .L108+8
 1278              	.LVL132:
 359:Middlewares/Third_Party/LwIP/src/apps/mqtt/mqtt.c ****   /* Search all request for pkt_id */
 1279              		.loc 1 359 3 discriminator 1 view .LVU338
 1280 0024 FFF7FEFF 		bl	printf
 1281              	.LVL133:
 1282 0028 EEE7     		b	.L97
 1283              	.LVL134:
 1284              	.L99:
 369:Middlewares/Third_Party/LwIP/src/apps/mqtt/mqtt.c ****     /* unchain */
 1285              		.loc 1 369 3 is_stmt 1 view .LVU339
 369:Middlewares/Third_Party/LwIP/src/apps/mqtt/mqtt.c ****     /* unchain */
 1286              		.loc 1 369 6 is_stmt 0 view .LVU340
 1287 002a 50B1     		cbz	r0, .L96
 371:Middlewares/Third_Party/LwIP/src/apps/mqtt/mqtt.c ****       *tail = iter->next;
 1288              		.loc 1 371 5 is_stmt 1 view .LVU341
 371:Middlewares/Third_Party/LwIP/src/apps/mqtt/mqtt.c ****       *tail = iter->next;
 1289              		.loc 1 371 8 is_stmt 0 view .LVU342
 1290 002c 52B1     		cbz	r2, .L107
 374:Middlewares/Third_Party/LwIP/src/apps/mqtt/mqtt.c ****     }
 1291              		.loc 1 374 7 is_stmt 1 view .LVU343
 374:Middlewares/Third_Party/LwIP/src/apps/mqtt/mqtt.c ****     }
 1292              		.loc 1 374 24 is_stmt 0 view .LVU344
 1293 002e 0368     		ldr	r3, [r0]
 374:Middlewares/Third_Party/LwIP/src/apps/mqtt/mqtt.c ****     }
 1294              		.loc 1 374 18 view .LVU345
 1295 0030 1360     		str	r3, [r2]
 1296              	.L103:
 377:Middlewares/Third_Party/LwIP/src/apps/mqtt/mqtt.c ****       iter->next->timeout_diff += iter->timeout_diff;
 1297              		.loc 1 377 5 is_stmt 1 view .LVU346
 377:Middlewares/Third_Party/LwIP/src/apps/mqtt/mqtt.c ****       iter->next->timeout_diff += iter->timeout_diff;
 1298              		.loc 1 377 13 is_stmt 0 view .LVU347
 1299 0032 0368     		ldr	r3, [r0]
 377:Middlewares/Third_Party/LwIP/src/apps/mqtt/mqtt.c ****       iter->next->timeout_diff += iter->timeout_diff;
 1300              		.loc 1 377 8 view .LVU348
 1301 0034 1BB1     		cbz	r3, .L104
 378:Middlewares/Third_Party/LwIP/src/apps/mqtt/mqtt.c ****     }
 1302              		.loc 1 378 7 is_stmt 1 view .LVU349
 378:Middlewares/Third_Party/LwIP/src/apps/mqtt/mqtt.c ****     }
 1303              		.loc 1 378 39 is_stmt 0 view .LVU350
 1304 0036 C289     		ldrh	r2, [r0, #14]
 1305              	.LVL135:
 378:Middlewares/Third_Party/LwIP/src/apps/mqtt/mqtt.c ****     }
 1306              		.loc 1 378 32 view .LVU351
 1307 0038 D989     		ldrh	r1, [r3, #14]
 1308 003a 0A44     		add	r2, r2, r1
 1309 003c DA81     		strh	r2, [r3, #14]	@ movhi
 1310              	.L104:
 380:Middlewares/Third_Party/LwIP/src/apps/mqtt/mqtt.c ****   }
 1311              		.loc 1 380 5 is_stmt 1 view .LVU352
 380:Middlewares/Third_Party/LwIP/src/apps/mqtt/mqtt.c ****   }
ARM GAS  D:\Dev\msys64\tmp\ccB7TkM7.s 			page 40


 1312              		.loc 1 380 16 is_stmt 0 view .LVU353
 1313 003e 0023     		movs	r3, #0
 1314 0040 0360     		str	r3, [r0]
 382:Middlewares/Third_Party/LwIP/src/apps/mqtt/mqtt.c **** }
 1315              		.loc 1 382 3 is_stmt 1 view .LVU354
 1316              	.L96:
 383:Middlewares/Third_Party/LwIP/src/apps/mqtt/mqtt.c **** 
 1317              		.loc 1 383 1 is_stmt 0 view .LVU355
 1318 0042 38BD     		pop	{r3, r4, r5, pc}
 1319              	.LVL136:
 1320              	.L107:
 372:Middlewares/Third_Party/LwIP/src/apps/mqtt/mqtt.c ****     } else {
 1321              		.loc 1 372 7 is_stmt 1 view .LVU356
 372:Middlewares/Third_Party/LwIP/src/apps/mqtt/mqtt.c ****     } else {
 1322              		.loc 1 372 19 is_stmt 0 view .LVU357
 1323 0044 0368     		ldr	r3, [r0]
 372:Middlewares/Third_Party/LwIP/src/apps/mqtt/mqtt.c ****     } else {
 1324              		.loc 1 372 13 view .LVU358
 1325 0046 2B60     		str	r3, [r5]
 1326 0048 F3E7     		b	.L103
 1327              	.L109:
 1328 004a 00BF     		.align	2
 1329              	.L108:
 1330 004c 00000000 		.word	.LC0
 1331 0050 00000000 		.word	.LC9
 1332 0054 58000000 		.word	.LC2
 1333              		.cfi_endproc
 1334              	.LFE39:
 1336              		.section	.rodata.mqtt_init_requests.str1.4,"aMS",%progbits,1
 1337              		.align	2
 1338              	.LC10:
 1339 0000 6D717474 		.ascii	"mqtt_init_requests: r_objs != NULL\000"
 1339      5F696E69 
 1339      745F7265 
 1339      71756573 
 1339      74733A20 
 1340              		.section	.text.mqtt_init_requests,"ax",%progbits
 1341              		.align	1
 1342              		.syntax unified
 1343              		.thumb
 1344              		.thumb_func
 1345              		.fpu fpv5-sp-d16
 1347              	mqtt_init_requests:
 1348              	.LVL137:
 1349              	.LFB42:
 437:Middlewares/Third_Party/LwIP/src/apps/mqtt/mqtt.c ****   u8_t n;
 1350              		.loc 1 437 1 is_stmt 1 view -0
 1351              		.cfi_startproc
 1352              		@ args = 0, pretend = 0, frame = 0
 1353              		@ frame_needed = 0, uses_anonymous_args = 0
 437:Middlewares/Third_Party/LwIP/src/apps/mqtt/mqtt.c ****   u8_t n;
 1354              		.loc 1 437 1 is_stmt 0 view .LVU360
 1355 0000 38B5     		push	{r3, r4, r5, lr}
 1356              	.LCFI13:
 1357              		.cfi_def_cfa_offset 16
 1358              		.cfi_offset 3, -16
 1359              		.cfi_offset 4, -12
ARM GAS  D:\Dev\msys64\tmp\ccB7TkM7.s 			page 41


 1360              		.cfi_offset 5, -8
 1361              		.cfi_offset 14, -4
 1362 0002 0D46     		mov	r5, r1
 438:Middlewares/Third_Party/LwIP/src/apps/mqtt/mqtt.c ****   LWIP_ASSERT("mqtt_init_requests: r_objs != NULL", r_objs != NULL);
 1363              		.loc 1 438 3 is_stmt 1 view .LVU361
 439:Middlewares/Third_Party/LwIP/src/apps/mqtt/mqtt.c ****   for (n = 0; n < r_objs_len; n++) {
 1364              		.loc 1 439 3 view .LVU362
 439:Middlewares/Third_Party/LwIP/src/apps/mqtt/mqtt.c ****   for (n = 0; n < r_objs_len; n++) {
 1365              		.loc 1 439 3 view .LVU363
 1366 0004 0446     		mov	r4, r0
 1367 0006 48B1     		cbz	r0, .L115
 1368              	.LVL138:
 1369              	.L111:
 437:Middlewares/Third_Party/LwIP/src/apps/mqtt/mqtt.c ****   u8_t n;
 1370              		.loc 1 437 1 is_stmt 0 discriminator 1 view .LVU364
 1371 0008 0023     		movs	r3, #0
 1372              	.L112:
 1373              	.LVL139:
 440:Middlewares/Third_Party/LwIP/src/apps/mqtt/mqtt.c ****     /* Item pointing to itself indicates unused */
 1374              		.loc 1 440 15 is_stmt 1 discriminator 1 view .LVU365
 440:Middlewares/Third_Party/LwIP/src/apps/mqtt/mqtt.c ****     /* Item pointing to itself indicates unused */
 1375              		.loc 1 440 3 is_stmt 0 discriminator 1 view .LVU366
 1376 000a AB42     		cmp	r3, r5
 1377 000c 0ED2     		bcs	.L116
 442:Middlewares/Third_Party/LwIP/src/apps/mqtt/mqtt.c ****   }
 1378              		.loc 1 442 5 is_stmt 1 discriminator 3 view .LVU367
 442:Middlewares/Third_Party/LwIP/src/apps/mqtt/mqtt.c ****   }
 1379              		.loc 1 442 29 is_stmt 0 discriminator 3 view .LVU368
 1380 000e 1A01     		lsls	r2, r3, #4
 442:Middlewares/Third_Party/LwIP/src/apps/mqtt/mqtt.c ****   }
 1381              		.loc 1 442 11 discriminator 3 view .LVU369
 1382 0010 04EB0310 		add	r0, r4, r3, lsl #4
 442:Middlewares/Third_Party/LwIP/src/apps/mqtt/mqtt.c ****   }
 1383              		.loc 1 442 20 discriminator 3 view .LVU370
 1384 0014 A050     		str	r0, [r4, r2]
 440:Middlewares/Third_Party/LwIP/src/apps/mqtt/mqtt.c ****     /* Item pointing to itself indicates unused */
 1385              		.loc 1 440 31 is_stmt 1 discriminator 3 view .LVU371
 440:Middlewares/Third_Party/LwIP/src/apps/mqtt/mqtt.c ****     /* Item pointing to itself indicates unused */
 1386              		.loc 1 440 32 is_stmt 0 discriminator 3 view .LVU372
 1387 0016 0133     		adds	r3, r3, #1
 1388              	.LVL140:
 440:Middlewares/Third_Party/LwIP/src/apps/mqtt/mqtt.c ****     /* Item pointing to itself indicates unused */
 1389              		.loc 1 440 32 discriminator 3 view .LVU373
 1390 0018 DBB2     		uxtb	r3, r3
 1391              	.LVL141:
 440:Middlewares/Third_Party/LwIP/src/apps/mqtt/mqtt.c ****     /* Item pointing to itself indicates unused */
 1392              		.loc 1 440 32 discriminator 3 view .LVU374
 1393 001a F6E7     		b	.L112
 1394              	.LVL142:
 1395              	.L115:
 439:Middlewares/Third_Party/LwIP/src/apps/mqtt/mqtt.c ****   for (n = 0; n < r_objs_len; n++) {
 1396              		.loc 1 439 3 is_stmt 1 discriminator 1 view .LVU375
 439:Middlewares/Third_Party/LwIP/src/apps/mqtt/mqtt.c ****   for (n = 0; n < r_objs_len; n++) {
 1397              		.loc 1 439 3 discriminator 1 view .LVU376
 1398 001c 044B     		ldr	r3, .L117
 1399 001e 40F2B712 		movw	r2, #439
 1400 0022 0449     		ldr	r1, .L117+4
ARM GAS  D:\Dev\msys64\tmp\ccB7TkM7.s 			page 42


 1401              	.LVL143:
 439:Middlewares/Third_Party/LwIP/src/apps/mqtt/mqtt.c ****   for (n = 0; n < r_objs_len; n++) {
 1402              		.loc 1 439 3 is_stmt 0 discriminator 1 view .LVU377
 1403 0024 0448     		ldr	r0, .L117+8
 1404              	.LVL144:
 439:Middlewares/Third_Party/LwIP/src/apps/mqtt/mqtt.c ****   for (n = 0; n < r_objs_len; n++) {
 1405              		.loc 1 439 3 discriminator 1 view .LVU378
 1406 0026 FFF7FEFF 		bl	printf
 1407              	.LVL145:
 1408 002a EDE7     		b	.L111
 1409              	.LVL146:
 1410              	.L116:
 444:Middlewares/Third_Party/LwIP/src/apps/mqtt/mqtt.c **** 
 1411              		.loc 1 444 1 view .LVU379
 1412 002c 38BD     		pop	{r3, r4, r5, pc}
 1413              	.LVL147:
 1414              	.L118:
 444:Middlewares/Third_Party/LwIP/src/apps/mqtt/mqtt.c **** 
 1415              		.loc 1 444 1 view .LVU380
 1416 002e 00BF     		.align	2
 1417              	.L117:
 1418 0030 00000000 		.word	.LC0
 1419 0034 00000000 		.word	.LC10
 1420 0038 58000000 		.word	.LC2
 1421              		.cfi_endproc
 1422              	.LFE42:
 1424              		.section	.rodata.mqtt_output_send.str1.4,"aMS",%progbits,1
 1425              		.align	2
 1426              	.LC11:
 1427 0000 6D717474 		.ascii	"mqtt_output_send: tpcb != NULL\000"
 1427      5F6F7574 
 1427      7075745F 
 1427      73656E64 
 1427      3A207470 
 1428              		.section	.text.mqtt_output_send,"ax",%progbits
 1429              		.align	1
 1430              		.syntax unified
 1431              		.thumb
 1432              		.thumb_func
 1433              		.fpu fpv5-sp-d16
 1435              	mqtt_output_send:
 1436              	.LVL148:
 1437              	.LFB35:
 235:Middlewares/Third_Party/LwIP/src/apps/mqtt/mqtt.c ****   err_t err;
 1438              		.loc 1 235 1 is_stmt 1 view -0
 1439              		.cfi_startproc
 1440              		@ args = 0, pretend = 0, frame = 0
 1441              		@ frame_needed = 0, uses_anonymous_args = 0
 235:Middlewares/Third_Party/LwIP/src/apps/mqtt/mqtt.c ****   err_t err;
 1442              		.loc 1 235 1 is_stmt 0 view .LVU382
 1443 0000 2DE9F041 		push	{r4, r5, r6, r7, r8, lr}
 1444              	.LCFI14:
 1445              		.cfi_def_cfa_offset 24
 1446              		.cfi_offset 4, -24
 1447              		.cfi_offset 5, -20
 1448              		.cfi_offset 6, -16
 1449              		.cfi_offset 7, -12
ARM GAS  D:\Dev\msys64\tmp\ccB7TkM7.s 			page 43


 1450              		.cfi_offset 8, -8
 1451              		.cfi_offset 14, -4
 1452 0004 0646     		mov	r6, r0
 1453 0006 0D46     		mov	r5, r1
 236:Middlewares/Third_Party/LwIP/src/apps/mqtt/mqtt.c ****   u8_t wrap = 0;
 1454              		.loc 1 236 3 is_stmt 1 view .LVU383
 237:Middlewares/Third_Party/LwIP/src/apps/mqtt/mqtt.c ****   u16_t ringbuf_lin_len = mqtt_ringbuf_linear_read_length(rb);
 1455              		.loc 1 237 3 view .LVU384
 1456              	.LVL149:
 238:Middlewares/Third_Party/LwIP/src/apps/mqtt/mqtt.c ****   u16_t send_len = altcp_sndbuf(tpcb);
 1457              		.loc 1 238 3 view .LVU385
 238:Middlewares/Third_Party/LwIP/src/apps/mqtt/mqtt.c ****   u16_t send_len = altcp_sndbuf(tpcb);
 1458              		.loc 1 238 27 is_stmt 0 view .LVU386
 1459 0008 FFF7FEFF 		bl	mqtt_ringbuf_len
 1460              	.LVL150:
 238:Middlewares/Third_Party/LwIP/src/apps/mqtt/mqtt.c ****   u16_t send_len = altcp_sndbuf(tpcb);
 1461              		.loc 1 238 27 view .LVU387
 1462 000c 0446     		mov	r4, r0
 1463 000e 7088     		ldrh	r0, [r6, #2]
 1464 0010 C0F58073 		rsb	r3, r0, #256
 238:Middlewares/Third_Party/LwIP/src/apps/mqtt/mqtt.c ****   u16_t send_len = altcp_sndbuf(tpcb);
 1465              		.loc 1 238 9 view .LVU388
 1466 0014 9C42     		cmp	r4, r3
 1467 0016 00DB     		blt	.L120
 238:Middlewares/Third_Party/LwIP/src/apps/mqtt/mqtt.c ****   u16_t send_len = altcp_sndbuf(tpcb);
 1468              		.loc 1 238 9 discriminator 2 view .LVU389
 1469 0018 9CB2     		uxth	r4, r3
 1470              	.L120:
 1471              	.LVL151:
 239:Middlewares/Third_Party/LwIP/src/apps/mqtt/mqtt.c ****   LWIP_ASSERT("mqtt_output_send: tpcb != NULL", tpcb != NULL);
 1472              		.loc 1 239 3 is_stmt 1 discriminator 4 view .LVU390
 239:Middlewares/Third_Party/LwIP/src/apps/mqtt/mqtt.c ****   LWIP_ASSERT("mqtt_output_send: tpcb != NULL", tpcb != NULL);
 1473              		.loc 1 239 9 is_stmt 0 discriminator 4 view .LVU391
 1474 001a B5F86470 		ldrh	r7, [r5, #100]
 1475              	.LVL152:
 240:Middlewares/Third_Party/LwIP/src/apps/mqtt/mqtt.c **** 
 1476              		.loc 1 240 3 is_stmt 1 discriminator 4 view .LVU392
 240:Middlewares/Third_Party/LwIP/src/apps/mqtt/mqtt.c **** 
 1477              		.loc 1 240 3 discriminator 4 view .LVU393
 1478 001e 9DB1     		cbz	r5, .L133
 1479              	.L121:
 240:Middlewares/Third_Party/LwIP/src/apps/mqtt/mqtt.c **** 
 1480              		.loc 1 240 3 discriminator 3 view .LVU394
 240:Middlewares/Third_Party/LwIP/src/apps/mqtt/mqtt.c **** 
 1481              		.loc 1 240 3 discriminator 3 view .LVU395
 242:Middlewares/Third_Party/LwIP/src/apps/mqtt/mqtt.c ****     return;
 1482              		.loc 1 242 3 discriminator 3 view .LVU396
 242:Middlewares/Third_Party/LwIP/src/apps/mqtt/mqtt.c ****     return;
 1483              		.loc 1 242 40 is_stmt 0 discriminator 3 view .LVU397
 1484 0020 B4FA84F3 		clz	r3, r4
 1485 0024 5B09     		lsrs	r3, r3, #5
 242:Middlewares/Third_Party/LwIP/src/apps/mqtt/mqtt.c ****     return;
 1486              		.loc 1 242 21 discriminator 3 view .LVU398
 1487 0026 002F     		cmp	r7, #0
 1488 0028 08BF     		it	eq
 1489 002a 0123     		moveq	r3, #1
 242:Middlewares/Third_Party/LwIP/src/apps/mqtt/mqtt.c ****     return;
ARM GAS  D:\Dev\msys64\tmp\ccB7TkM7.s 			page 44


 1490              		.loc 1 242 6 discriminator 3 view .LVU399
 1491 002c 43BB     		cbnz	r3, .L119
 247:Middlewares/Third_Party/LwIP/src/apps/mqtt/mqtt.c **** 
 1492              		.loc 1 247 79 is_stmt 1 view .LVU400
 249:Middlewares/Third_Party/LwIP/src/apps/mqtt/mqtt.c ****     /* Space in TCP output buffer is larger than available in ring buffer linear portion */
 1493              		.loc 1 249 3 view .LVU401
 249:Middlewares/Third_Party/LwIP/src/apps/mqtt/mqtt.c ****     /* Space in TCP output buffer is larger than available in ring buffer linear portion */
 1494              		.loc 1 249 6 is_stmt 0 view .LVU402
 1495 002e BC42     		cmp	r4, r7
 1496 0030 11D2     		bcs	.L128
 251:Middlewares/Third_Party/LwIP/src/apps/mqtt/mqtt.c ****     /* Wrap around if more data in ring buffer after linear portion */
 1497              		.loc 1 251 5 is_stmt 1 view .LVU403
 1498              	.LVL153:
 253:Middlewares/Third_Party/LwIP/src/apps/mqtt/mqtt.c ****   }
 1499              		.loc 1 253 5 view .LVU404
 253:Middlewares/Third_Party/LwIP/src/apps/mqtt/mqtt.c ****   }
 1500              		.loc 1 253 13 is_stmt 0 view .LVU405
 1501 0032 3046     		mov	r0, r6
 1502 0034 FFF7FEFF 		bl	mqtt_ringbuf_len
 1503              	.LVL154:
 253:Middlewares/Third_Party/LwIP/src/apps/mqtt/mqtt.c ****   }
 1504              		.loc 1 253 34 view .LVU406
 1505 0038 A042     		cmp	r0, r4
 1506 003a 94BF     		ite	ls
 1507 003c 4FF00008 		movls	r8, #0
 1508 0040 4FF00108 		movhi	r8, #1
 1509              	.LVL155:
 251:Middlewares/Third_Party/LwIP/src/apps/mqtt/mqtt.c ****     /* Wrap around if more data in ring buffer after linear portion */
 1510              		.loc 1 251 14 view .LVU407
 1511 0044 2746     		mov	r7, r4
 1512 0046 08E0     		b	.L123
 1513              	.LVL156:
 1514              	.L133:
 240:Middlewares/Third_Party/LwIP/src/apps/mqtt/mqtt.c **** 
 1515              		.loc 1 240 3 is_stmt 1 discriminator 1 view .LVU408
 240:Middlewares/Third_Party/LwIP/src/apps/mqtt/mqtt.c **** 
 1516              		.loc 1 240 3 discriminator 1 view .LVU409
 1517 0048 264B     		ldr	r3, .L136
 1518 004a F022     		movs	r2, #240
 1519 004c 2649     		ldr	r1, .L136+4
 1520 004e 2748     		ldr	r0, .L136+8
 1521 0050 FFF7FEFF 		bl	printf
 1522              	.LVL157:
 1523 0054 E4E7     		b	.L121
 1524              	.L128:
 237:Middlewares/Third_Party/LwIP/src/apps/mqtt/mqtt.c ****   u16_t ringbuf_lin_len = mqtt_ringbuf_linear_read_length(rb);
 1525              		.loc 1 237 8 is_stmt 0 view .LVU410
 1526 0056 4FF00008 		mov	r8, #0
 1527              	.LVL158:
 1528              	.L123:
 255:Middlewares/Third_Party/LwIP/src/apps/mqtt/mqtt.c ****   if ((err == ERR_OK) && wrap) {
 1529              		.loc 1 255 3 is_stmt 1 view .LVU411
 255:Middlewares/Third_Party/LwIP/src/apps/mqtt/mqtt.c ****   if ((err == ERR_OK) && wrap) {
 1530              		.loc 1 255 27 is_stmt 0 view .LVU412
 1531 005a 3046     		mov	r0, r6
 1532 005c FFF7FEFF 		bl	mqtt_ringbuf_get_ptr
 1533              	.LVL159:
ARM GAS  D:\Dev\msys64\tmp\ccB7TkM7.s 			page 45


 1534 0060 0146     		mov	r1, r0
 255:Middlewares/Third_Party/LwIP/src/apps/mqtt/mqtt.c ****   if ((err == ERR_OK) && wrap) {
 1535              		.loc 1 255 9 view .LVU413
 1536 0062 B8F1000F 		cmp	r8, #0
 1537 0066 0DD0     		beq	.L129
 1538 0068 0323     		movs	r3, #3
 1539              	.L124:
 255:Middlewares/Third_Party/LwIP/src/apps/mqtt/mqtt.c ****   if ((err == ERR_OK) && wrap) {
 1540              		.loc 1 255 9 discriminator 4 view .LVU414
 1541 006a 3A46     		mov	r2, r7
 1542 006c 2846     		mov	r0, r5
 1543 006e FFF7FEFF 		bl	tcp_write
 1544              	.LVL160:
 256:Middlewares/Third_Party/LwIP/src/apps/mqtt/mqtt.c ****     mqtt_ringbuf_advance_get_idx(rb, send_len);
 1545              		.loc 1 256 3 is_stmt 1 discriminator 4 view .LVU415
 256:Middlewares/Third_Party/LwIP/src/apps/mqtt/mqtt.c ****     mqtt_ringbuf_advance_get_idx(rb, send_len);
 1546              		.loc 1 256 12 is_stmt 0 discriminator 4 view .LVU416
 1547 0072 0246     		mov	r2, r0
 256:Middlewares/Third_Party/LwIP/src/apps/mqtt/mqtt.c ****     mqtt_ringbuf_advance_get_idx(rb, send_len);
 1548              		.loc 1 256 23 discriminator 4 view .LVU417
 1549 0074 0028     		cmp	r0, #0
 1550 0076 0CBF     		ite	eq
 1551 0078 4046     		moveq	r0, r8
 1552 007a 0020     		movne	r0, #0
 1553              	.LVL161:
 256:Middlewares/Third_Party/LwIP/src/apps/mqtt/mqtt.c ****     mqtt_ringbuf_advance_get_idx(rb, send_len);
 1554              		.loc 1 256 6 discriminator 4 view .LVU418
 1555 007c 20B9     		cbnz	r0, .L134
 1556              	.LVL162:
 1557              	.L125:
 263:Middlewares/Third_Party/LwIP/src/apps/mqtt/mqtt.c ****     mqtt_ringbuf_advance_get_idx(rb, send_len);
 1558              		.loc 1 263 3 is_stmt 1 view .LVU419
 263:Middlewares/Third_Party/LwIP/src/apps/mqtt/mqtt.c ****     mqtt_ringbuf_advance_get_idx(rb, send_len);
 1559              		.loc 1 263 6 is_stmt 0 view .LVU420
 1560 007e 4AB3     		cbz	r2, .L135
 1561              	.LVL163:
 1562              	.L119:
 270:Middlewares/Third_Party/LwIP/src/apps/mqtt/mqtt.c **** 
 1563              		.loc 1 270 1 view .LVU421
 1564 0080 BDE8F081 		pop	{r4, r5, r6, r7, r8, pc}
 1565              	.LVL164:
 1566              	.L129:
 255:Middlewares/Third_Party/LwIP/src/apps/mqtt/mqtt.c ****   if ((err == ERR_OK) && wrap) {
 1567              		.loc 1 255 9 view .LVU422
 1568 0084 0123     		movs	r3, #1
 1569 0086 F0E7     		b	.L124
 1570              	.L134:
 257:Middlewares/Third_Party/LwIP/src/apps/mqtt/mqtt.c ****     /* Use the lesser one of ring buffer linear length and TCP send buffer size */
 1571              		.loc 1 257 5 is_stmt 1 view .LVU423
 1572 0088 3946     		mov	r1, r7
 1573 008a 3046     		mov	r0, r6
 1574 008c FFF7FEFF 		bl	mqtt_ringbuf_advance_get_idx
 1575              	.LVL165:
 259:Middlewares/Third_Party/LwIP/src/apps/mqtt/mqtt.c ****     err = altcp_write(tpcb, mqtt_ringbuf_get_ptr(rb), send_len, TCP_WRITE_FLAG_COPY);
 1576              		.loc 1 259 5 view .LVU424
 259:Middlewares/Third_Party/LwIP/src/apps/mqtt/mqtt.c ****     err = altcp_write(tpcb, mqtt_ringbuf_get_ptr(rb), send_len, TCP_WRITE_FLAG_COPY);
 1577              		.loc 1 259 16 is_stmt 0 view .LVU425
ARM GAS  D:\Dev\msys64\tmp\ccB7TkM7.s 			page 46


 1578 0090 B5F86470 		ldrh	r7, [r5, #100]
 1579              	.LVL166:
 259:Middlewares/Third_Party/LwIP/src/apps/mqtt/mqtt.c ****     err = altcp_write(tpcb, mqtt_ringbuf_get_ptr(rb), send_len, TCP_WRITE_FLAG_COPY);
 1580              		.loc 1 259 16 view .LVU426
 1581 0094 3C46     		mov	r4, r7
 1582              	.LVL167:
 259:Middlewares/Third_Party/LwIP/src/apps/mqtt/mqtt.c ****     err = altcp_write(tpcb, mqtt_ringbuf_get_ptr(rb), send_len, TCP_WRITE_FLAG_COPY);
 1583              		.loc 1 259 16 view .LVU427
 1584 0096 3046     		mov	r0, r6
 1585 0098 FFF7FEFF 		bl	mqtt_ringbuf_len
 1586              	.LVL168:
 1587 009c 7288     		ldrh	r2, [r6, #2]
 1588 009e C2F58073 		rsb	r3, r2, #256
 1589 00a2 9842     		cmp	r0, r3
 1590 00a4 08DA     		bge	.L130
 1591 00a6 0146     		mov	r1, r0
 1592              	.L126:
 259:Middlewares/Third_Party/LwIP/src/apps/mqtt/mqtt.c ****     err = altcp_write(tpcb, mqtt_ringbuf_get_ptr(rb), send_len, TCP_WRITE_FLAG_COPY);
 1593              		.loc 1 259 14 discriminator 4 view .LVU428
 1594 00a8 8C42     		cmp	r4, r1
 1595 00aa 08DB     		blt	.L127
 259:Middlewares/Third_Party/LwIP/src/apps/mqtt/mqtt.c ****     err = altcp_write(tpcb, mqtt_ringbuf_get_ptr(rb), send_len, TCP_WRITE_FLAG_COPY);
 1596              		.loc 1 259 14 discriminator 6 view .LVU429
 1597 00ac 9842     		cmp	r0, r3
 1598 00ae 05DB     		blt	.L131
 259:Middlewares/Third_Party/LwIP/src/apps/mqtt/mqtt.c ****     err = altcp_write(tpcb, mqtt_ringbuf_get_ptr(rb), send_len, TCP_WRITE_FLAG_COPY);
 1599              		.loc 1 259 14 discriminator 9 view .LVU430
 1600 00b0 C2F58077 		rsb	r7, r2, #256
 1601 00b4 BFB2     		uxth	r7, r7
 1602 00b6 02E0     		b	.L127
 1603              	.L130:
 259:Middlewares/Third_Party/LwIP/src/apps/mqtt/mqtt.c ****     err = altcp_write(tpcb, mqtt_ringbuf_get_ptr(rb), send_len, TCP_WRITE_FLAG_COPY);
 1604              		.loc 1 259 16 view .LVU431
 1605 00b8 1946     		mov	r1, r3
 1606 00ba F5E7     		b	.L126
 1607              	.L131:
 1608 00bc 0746     		mov	r7, r0
 1609              	.L127:
 1610              	.LVL169:
 260:Middlewares/Third_Party/LwIP/src/apps/mqtt/mqtt.c ****   }
 1611              		.loc 1 260 5 is_stmt 1 discriminator 12 view .LVU432
 260:Middlewares/Third_Party/LwIP/src/apps/mqtt/mqtt.c ****   }
 1612              		.loc 1 260 29 is_stmt 0 discriminator 12 view .LVU433
 1613 00be 3046     		mov	r0, r6
 1614 00c0 FFF7FEFF 		bl	mqtt_ringbuf_get_ptr
 1615              	.LVL170:
 1616 00c4 0146     		mov	r1, r0
 260:Middlewares/Third_Party/LwIP/src/apps/mqtt/mqtt.c ****   }
 1617              		.loc 1 260 11 discriminator 12 view .LVU434
 1618 00c6 0123     		movs	r3, #1
 1619 00c8 3A46     		mov	r2, r7
 1620 00ca 2846     		mov	r0, r5
 1621 00cc FFF7FEFF 		bl	tcp_write
 1622              	.LVL171:
 1623 00d0 0246     		mov	r2, r0
 1624              	.LVL172:
 260:Middlewares/Third_Party/LwIP/src/apps/mqtt/mqtt.c ****   }
ARM GAS  D:\Dev\msys64\tmp\ccB7TkM7.s 			page 47


 1625              		.loc 1 260 11 discriminator 12 view .LVU435
 1626 00d2 D4E7     		b	.L125
 1627              	.L135:
 264:Middlewares/Third_Party/LwIP/src/apps/mqtt/mqtt.c ****     /* Flush */
 1628              		.loc 1 264 5 is_stmt 1 view .LVU436
 1629 00d4 3946     		mov	r1, r7
 1630 00d6 3046     		mov	r0, r6
 1631 00d8 FFF7FEFF 		bl	mqtt_ringbuf_advance_get_idx
 1632              	.LVL173:
 266:Middlewares/Third_Party/LwIP/src/apps/mqtt/mqtt.c ****   } else {
 1633              		.loc 1 266 5 view .LVU437
 1634 00dc 2846     		mov	r0, r5
 1635 00de FFF7FEFF 		bl	tcp_output
 1636              	.LVL174:
 268:Middlewares/Third_Party/LwIP/src/apps/mqtt/mqtt.c ****   }
 1637              		.loc 1 268 114 view .LVU438
 1638 00e2 CDE7     		b	.L119
 1639              	.L137:
 1640              		.align	2
 1641              	.L136:
 1642 00e4 00000000 		.word	.LC0
 1643 00e8 00000000 		.word	.LC11
 1644 00ec 58000000 		.word	.LC2
 1645              		.cfi_endproc
 1646              	.LFE35:
 1648              		.section	.text.mqtt_tcp_poll_cb,"ax",%progbits
 1649              		.align	1
 1650              		.syntax unified
 1651              		.thumb
 1652              		.thumb_func
 1653              		.fpu fpv5-sp-d16
 1655              	mqtt_tcp_poll_cb:
 1656              	.LVL175:
 1657              	.LFB58:
 662:Middlewares/Third_Party/LwIP/src/apps/mqtt/mqtt.c **** 
 663:Middlewares/Third_Party/LwIP/src/apps/mqtt/mqtt.c **** 
 664:Middlewares/Third_Party/LwIP/src/apps/mqtt/mqtt.c **** /**
 665:Middlewares/Third_Party/LwIP/src/apps/mqtt/mqtt.c ****  * Complete MQTT message received or buffer full
 666:Middlewares/Third_Party/LwIP/src/apps/mqtt/mqtt.c ****  * @param client MQTT client
 667:Middlewares/Third_Party/LwIP/src/apps/mqtt/mqtt.c ****  * @param fixed_hdr_idx header index
 668:Middlewares/Third_Party/LwIP/src/apps/mqtt/mqtt.c ****  * @param length length received part
 669:Middlewares/Third_Party/LwIP/src/apps/mqtt/mqtt.c ****  * @param remaining_length Remaining length of complete message
 670:Middlewares/Third_Party/LwIP/src/apps/mqtt/mqtt.c ****  */
 671:Middlewares/Third_Party/LwIP/src/apps/mqtt/mqtt.c **** static mqtt_connection_status_t
 672:Middlewares/Third_Party/LwIP/src/apps/mqtt/mqtt.c **** mqtt_message_received(mqtt_client_t *client, u8_t fixed_hdr_idx, u16_t length, u32_t remaining_leng
 673:Middlewares/Third_Party/LwIP/src/apps/mqtt/mqtt.c **** {
 674:Middlewares/Third_Party/LwIP/src/apps/mqtt/mqtt.c ****   mqtt_connection_status_t res = MQTT_CONNECT_ACCEPTED;
 675:Middlewares/Third_Party/LwIP/src/apps/mqtt/mqtt.c **** 
 676:Middlewares/Third_Party/LwIP/src/apps/mqtt/mqtt.c ****   u8_t *var_hdr_payload = client->rx_buffer + fixed_hdr_idx;
 677:Middlewares/Third_Party/LwIP/src/apps/mqtt/mqtt.c ****   size_t var_hdr_payload_bufsize = sizeof(client->rx_buffer) - fixed_hdr_idx;
 678:Middlewares/Third_Party/LwIP/src/apps/mqtt/mqtt.c **** 
 679:Middlewares/Third_Party/LwIP/src/apps/mqtt/mqtt.c ****   /* Control packet type */
 680:Middlewares/Third_Party/LwIP/src/apps/mqtt/mqtt.c ****   u8_t pkt_type = MQTT_CTL_PACKET_TYPE(client->rx_buffer[0]);
 681:Middlewares/Third_Party/LwIP/src/apps/mqtt/mqtt.c ****   u16_t pkt_id = 0;
 682:Middlewares/Third_Party/LwIP/src/apps/mqtt/mqtt.c **** 
 683:Middlewares/Third_Party/LwIP/src/apps/mqtt/mqtt.c ****   LWIP_ASSERT("client->msg_idx < MQTT_VAR_HEADER_BUFFER_LEN", client->msg_idx < MQTT_VAR_HEADER_BUF
 684:Middlewares/Third_Party/LwIP/src/apps/mqtt/mqtt.c ****   LWIP_ASSERT("fixed_hdr_idx <= client->msg_idx", fixed_hdr_idx <= client->msg_idx);
ARM GAS  D:\Dev\msys64\tmp\ccB7TkM7.s 			page 48


 685:Middlewares/Third_Party/LwIP/src/apps/mqtt/mqtt.c ****   LWIP_ERROR("buffer length mismatch", fixed_hdr_idx + length <= MQTT_VAR_HEADER_BUFFER_LEN,
 686:Middlewares/Third_Party/LwIP/src/apps/mqtt/mqtt.c ****              return MQTT_CONNECT_DISCONNECTED);
 687:Middlewares/Third_Party/LwIP/src/apps/mqtt/mqtt.c **** 
 688:Middlewares/Third_Party/LwIP/src/apps/mqtt/mqtt.c ****   if (pkt_type == MQTT_MSG_TYPE_CONNACK) {
 689:Middlewares/Third_Party/LwIP/src/apps/mqtt/mqtt.c ****     if (client->conn_state == MQTT_CONNECTING) {
 690:Middlewares/Third_Party/LwIP/src/apps/mqtt/mqtt.c ****       if (length < 2) {
 691:Middlewares/Third_Party/LwIP/src/apps/mqtt/mqtt.c ****         LWIP_DEBUGF(MQTT_DEBUG_WARN,( "mqtt_message_received: Received short CONNACK message\n"));
 692:Middlewares/Third_Party/LwIP/src/apps/mqtt/mqtt.c ****         goto out_disconnect;
 693:Middlewares/Third_Party/LwIP/src/apps/mqtt/mqtt.c ****       }
 694:Middlewares/Third_Party/LwIP/src/apps/mqtt/mqtt.c ****       /* Get result code from CONNACK */
 695:Middlewares/Third_Party/LwIP/src/apps/mqtt/mqtt.c ****       res = (mqtt_connection_status_t)var_hdr_payload[1];
 696:Middlewares/Third_Party/LwIP/src/apps/mqtt/mqtt.c ****       LWIP_DEBUGF(MQTT_DEBUG_TRACE, ("mqtt_message_received: Connect response code %d\n", res));
 697:Middlewares/Third_Party/LwIP/src/apps/mqtt/mqtt.c ****       if (res == MQTT_CONNECT_ACCEPTED) {
 698:Middlewares/Third_Party/LwIP/src/apps/mqtt/mqtt.c ****         /* Reset cyclic_tick when changing to connected state */
 699:Middlewares/Third_Party/LwIP/src/apps/mqtt/mqtt.c ****         client->cyclic_tick = 0;
 700:Middlewares/Third_Party/LwIP/src/apps/mqtt/mqtt.c ****         client->conn_state = MQTT_CONNECTED;
 701:Middlewares/Third_Party/LwIP/src/apps/mqtt/mqtt.c ****         /* Notify upper layer */
 702:Middlewares/Third_Party/LwIP/src/apps/mqtt/mqtt.c ****         if (client->connect_cb != 0) {
 703:Middlewares/Third_Party/LwIP/src/apps/mqtt/mqtt.c ****           client->connect_cb(client, client->connect_arg, res);
 704:Middlewares/Third_Party/LwIP/src/apps/mqtt/mqtt.c ****         }
 705:Middlewares/Third_Party/LwIP/src/apps/mqtt/mqtt.c ****       }
 706:Middlewares/Third_Party/LwIP/src/apps/mqtt/mqtt.c ****     } else {
 707:Middlewares/Third_Party/LwIP/src/apps/mqtt/mqtt.c ****       LWIP_DEBUGF(MQTT_DEBUG_WARN, ("mqtt_message_received: Received CONNACK in connected state\n")
 708:Middlewares/Third_Party/LwIP/src/apps/mqtt/mqtt.c ****     }
 709:Middlewares/Third_Party/LwIP/src/apps/mqtt/mqtt.c ****   } else if (pkt_type == MQTT_MSG_TYPE_PINGRESP) {
 710:Middlewares/Third_Party/LwIP/src/apps/mqtt/mqtt.c ****     LWIP_DEBUGF(MQTT_DEBUG_TRACE, ( "mqtt_message_received: Received PINGRESP from server\n"));
 711:Middlewares/Third_Party/LwIP/src/apps/mqtt/mqtt.c **** 
 712:Middlewares/Third_Party/LwIP/src/apps/mqtt/mqtt.c ****   } else if (pkt_type == MQTT_MSG_TYPE_PUBLISH) {
 713:Middlewares/Third_Party/LwIP/src/apps/mqtt/mqtt.c ****     u16_t payload_offset = 0;
 714:Middlewares/Third_Party/LwIP/src/apps/mqtt/mqtt.c ****     u16_t payload_length = length;
 715:Middlewares/Third_Party/LwIP/src/apps/mqtt/mqtt.c ****     u8_t qos = MQTT_CTL_PACKET_QOS(client->rx_buffer[0]);
 716:Middlewares/Third_Party/LwIP/src/apps/mqtt/mqtt.c **** 
 717:Middlewares/Third_Party/LwIP/src/apps/mqtt/mqtt.c ****     if (client->msg_idx <= MQTT_VAR_HEADER_BUFFER_LEN) {
 718:Middlewares/Third_Party/LwIP/src/apps/mqtt/mqtt.c ****       /* Should have topic and pkt id*/
 719:Middlewares/Third_Party/LwIP/src/apps/mqtt/mqtt.c ****       u8_t *topic;
 720:Middlewares/Third_Party/LwIP/src/apps/mqtt/mqtt.c ****       u16_t after_topic;
 721:Middlewares/Third_Party/LwIP/src/apps/mqtt/mqtt.c ****       u8_t bkp;
 722:Middlewares/Third_Party/LwIP/src/apps/mqtt/mqtt.c ****       u16_t topic_len;
 723:Middlewares/Third_Party/LwIP/src/apps/mqtt/mqtt.c ****       u16_t qos_len = (qos ? 2U : 0U);
 724:Middlewares/Third_Party/LwIP/src/apps/mqtt/mqtt.c ****       if (length < 2 + qos_len) {
 725:Middlewares/Third_Party/LwIP/src/apps/mqtt/mqtt.c ****         LWIP_DEBUGF(MQTT_DEBUG_WARN,( "mqtt_message_received: Received short PUBLISH packet\n"));
 726:Middlewares/Third_Party/LwIP/src/apps/mqtt/mqtt.c ****         goto out_disconnect;
 727:Middlewares/Third_Party/LwIP/src/apps/mqtt/mqtt.c ****       }
 728:Middlewares/Third_Party/LwIP/src/apps/mqtt/mqtt.c ****       topic_len = var_hdr_payload[0];
 729:Middlewares/Third_Party/LwIP/src/apps/mqtt/mqtt.c ****       topic_len = (topic_len << 8) + (u16_t)(var_hdr_payload[1]);
 730:Middlewares/Third_Party/LwIP/src/apps/mqtt/mqtt.c ****       if ((topic_len > length - (2 + qos_len)) ||
 731:Middlewares/Third_Party/LwIP/src/apps/mqtt/mqtt.c ****           (topic_len > var_hdr_payload_bufsize - (2 + qos_len))) {
 732:Middlewares/Third_Party/LwIP/src/apps/mqtt/mqtt.c ****         LWIP_DEBUGF(MQTT_DEBUG_WARN,( "mqtt_message_received: Received short PUBLISH packet (topic)
 733:Middlewares/Third_Party/LwIP/src/apps/mqtt/mqtt.c ****         goto out_disconnect;
 734:Middlewares/Third_Party/LwIP/src/apps/mqtt/mqtt.c ****       }
 735:Middlewares/Third_Party/LwIP/src/apps/mqtt/mqtt.c **** 
 736:Middlewares/Third_Party/LwIP/src/apps/mqtt/mqtt.c ****       topic = var_hdr_payload + 2;
 737:Middlewares/Third_Party/LwIP/src/apps/mqtt/mqtt.c ****       after_topic = 2 + topic_len;
 738:Middlewares/Third_Party/LwIP/src/apps/mqtt/mqtt.c ****       /* Check buffer length, add one byte even for QoS 0 so that zero termination will fit */
 739:Middlewares/Third_Party/LwIP/src/apps/mqtt/mqtt.c ****       if ((after_topic + (qos ? 2U : 1U)) > var_hdr_payload_bufsize) {
 740:Middlewares/Third_Party/LwIP/src/apps/mqtt/mqtt.c ****         LWIP_DEBUGF(MQTT_DEBUG_WARN, ("mqtt_message_received: Receive buffer can not fit topic + pk
 741:Middlewares/Third_Party/LwIP/src/apps/mqtt/mqtt.c ****         goto out_disconnect;
ARM GAS  D:\Dev\msys64\tmp\ccB7TkM7.s 			page 49


 742:Middlewares/Third_Party/LwIP/src/apps/mqtt/mqtt.c ****       }
 743:Middlewares/Third_Party/LwIP/src/apps/mqtt/mqtt.c **** 
 744:Middlewares/Third_Party/LwIP/src/apps/mqtt/mqtt.c ****       /* id for QoS 1 and 2 */
 745:Middlewares/Third_Party/LwIP/src/apps/mqtt/mqtt.c ****       if (qos > 0) {
 746:Middlewares/Third_Party/LwIP/src/apps/mqtt/mqtt.c ****         if (length < after_topic + 2U) {
 747:Middlewares/Third_Party/LwIP/src/apps/mqtt/mqtt.c ****           LWIP_DEBUGF(MQTT_DEBUG_WARN,( "mqtt_message_received: Received short PUBLISH packet (afte
 748:Middlewares/Third_Party/LwIP/src/apps/mqtt/mqtt.c ****           goto out_disconnect;
 749:Middlewares/Third_Party/LwIP/src/apps/mqtt/mqtt.c ****         }
 750:Middlewares/Third_Party/LwIP/src/apps/mqtt/mqtt.c ****         client->inpub_pkt_id = ((u16_t)var_hdr_payload[after_topic] << 8) + (u16_t)var_hdr_payload[
 751:Middlewares/Third_Party/LwIP/src/apps/mqtt/mqtt.c ****         after_topic += 2;
 752:Middlewares/Third_Party/LwIP/src/apps/mqtt/mqtt.c ****       } else {
 753:Middlewares/Third_Party/LwIP/src/apps/mqtt/mqtt.c ****         client->inpub_pkt_id = 0;
 754:Middlewares/Third_Party/LwIP/src/apps/mqtt/mqtt.c ****       }
 755:Middlewares/Third_Party/LwIP/src/apps/mqtt/mqtt.c ****       /* Take backup of byte after topic */
 756:Middlewares/Third_Party/LwIP/src/apps/mqtt/mqtt.c ****       bkp = topic[topic_len];
 757:Middlewares/Third_Party/LwIP/src/apps/mqtt/mqtt.c ****       /* Zero terminate string */
 758:Middlewares/Third_Party/LwIP/src/apps/mqtt/mqtt.c ****       topic[topic_len] = 0;
 759:Middlewares/Third_Party/LwIP/src/apps/mqtt/mqtt.c ****       /* Payload data remaining in receive buffer */
 760:Middlewares/Third_Party/LwIP/src/apps/mqtt/mqtt.c ****       payload_length = length - after_topic;
 761:Middlewares/Third_Party/LwIP/src/apps/mqtt/mqtt.c ****       payload_offset = after_topic;
 762:Middlewares/Third_Party/LwIP/src/apps/mqtt/mqtt.c **** 
 763:Middlewares/Third_Party/LwIP/src/apps/mqtt/mqtt.c ****       LWIP_DEBUGF(MQTT_DEBUG_TRACE, ("mqtt_incomming_publish: Received message with QoS %d at topic
 764:Middlewares/Third_Party/LwIP/src/apps/mqtt/mqtt.c ****                                      qos, topic, remaining_length + payload_length));
 765:Middlewares/Third_Party/LwIP/src/apps/mqtt/mqtt.c ****       if (client->pub_cb != NULL) {
 766:Middlewares/Third_Party/LwIP/src/apps/mqtt/mqtt.c ****         client->pub_cb(client->inpub_arg, (const char *)topic, remaining_length + payload_length);
 767:Middlewares/Third_Party/LwIP/src/apps/mqtt/mqtt.c ****       }
 768:Middlewares/Third_Party/LwIP/src/apps/mqtt/mqtt.c ****       /* Restore byte after topic */
 769:Middlewares/Third_Party/LwIP/src/apps/mqtt/mqtt.c ****       topic[topic_len] = bkp;
 770:Middlewares/Third_Party/LwIP/src/apps/mqtt/mqtt.c ****     }
 771:Middlewares/Third_Party/LwIP/src/apps/mqtt/mqtt.c ****     if (payload_length > 0 || remaining_length == 0) {
 772:Middlewares/Third_Party/LwIP/src/apps/mqtt/mqtt.c ****       if (length < (size_t)(payload_offset + payload_length)) {
 773:Middlewares/Third_Party/LwIP/src/apps/mqtt/mqtt.c ****         LWIP_DEBUGF(MQTT_DEBUG_WARN,( "mqtt_message_received: Received short packet (payload)\n"));
 774:Middlewares/Third_Party/LwIP/src/apps/mqtt/mqtt.c ****         goto out_disconnect;
 775:Middlewares/Third_Party/LwIP/src/apps/mqtt/mqtt.c ****       }
 776:Middlewares/Third_Party/LwIP/src/apps/mqtt/mqtt.c ****       client->data_cb(client->inpub_arg, var_hdr_payload + payload_offset, payload_length, remainin
 777:Middlewares/Third_Party/LwIP/src/apps/mqtt/mqtt.c ****       /* Reply if QoS > 0 */
 778:Middlewares/Third_Party/LwIP/src/apps/mqtt/mqtt.c ****       if (remaining_length == 0 && qos > 0) {
 779:Middlewares/Third_Party/LwIP/src/apps/mqtt/mqtt.c ****         /* Send PUBACK for QoS 1 or PUBREC for QoS 2 */
 780:Middlewares/Third_Party/LwIP/src/apps/mqtt/mqtt.c ****         u8_t resp_msg = (qos == 1) ? MQTT_MSG_TYPE_PUBACK : MQTT_MSG_TYPE_PUBREC;
 781:Middlewares/Third_Party/LwIP/src/apps/mqtt/mqtt.c ****         LWIP_DEBUGF(MQTT_DEBUG_TRACE, ("mqtt_incomming_publish: Sending publish response: %s with p
 782:Middlewares/Third_Party/LwIP/src/apps/mqtt/mqtt.c ****                                        mqtt_msg_type_to_str(resp_msg), client->inpub_pkt_id));
 783:Middlewares/Third_Party/LwIP/src/apps/mqtt/mqtt.c ****         pub_ack_rec_rel_response(client, resp_msg, client->inpub_pkt_id, 0);
 784:Middlewares/Third_Party/LwIP/src/apps/mqtt/mqtt.c ****       }
 785:Middlewares/Third_Party/LwIP/src/apps/mqtt/mqtt.c ****     }
 786:Middlewares/Third_Party/LwIP/src/apps/mqtt/mqtt.c ****   } else {
 787:Middlewares/Third_Party/LwIP/src/apps/mqtt/mqtt.c ****     /* Get packet identifier */
 788:Middlewares/Third_Party/LwIP/src/apps/mqtt/mqtt.c ****     pkt_id = (u16_t)var_hdr_payload[0] << 8;
 789:Middlewares/Third_Party/LwIP/src/apps/mqtt/mqtt.c ****     pkt_id |= (u16_t)var_hdr_payload[1];
 790:Middlewares/Third_Party/LwIP/src/apps/mqtt/mqtt.c ****     if (pkt_id == 0) {
 791:Middlewares/Third_Party/LwIP/src/apps/mqtt/mqtt.c ****       LWIP_DEBUGF(MQTT_DEBUG_WARN, ("mqtt_message_received: Got message with illegal packet identif
 792:Middlewares/Third_Party/LwIP/src/apps/mqtt/mqtt.c ****       goto out_disconnect;
 793:Middlewares/Third_Party/LwIP/src/apps/mqtt/mqtt.c ****     }
 794:Middlewares/Third_Party/LwIP/src/apps/mqtt/mqtt.c ****     if (pkt_type == MQTT_MSG_TYPE_PUBREC) {
 795:Middlewares/Third_Party/LwIP/src/apps/mqtt/mqtt.c ****       LWIP_DEBUGF(MQTT_DEBUG_TRACE, ("mqtt_message_received: PUBREC, sending PUBREL with pkt_id: %d
 796:Middlewares/Third_Party/LwIP/src/apps/mqtt/mqtt.c ****       pub_ack_rec_rel_response(client, MQTT_MSG_TYPE_PUBREL, pkt_id, 1);
 797:Middlewares/Third_Party/LwIP/src/apps/mqtt/mqtt.c **** 
 798:Middlewares/Third_Party/LwIP/src/apps/mqtt/mqtt.c ****     } else if (pkt_type == MQTT_MSG_TYPE_PUBREL) {
ARM GAS  D:\Dev\msys64\tmp\ccB7TkM7.s 			page 50


 799:Middlewares/Third_Party/LwIP/src/apps/mqtt/mqtt.c ****       LWIP_DEBUGF(MQTT_DEBUG_TRACE, ("mqtt_message_received: PUBREL, sending PUBCOMP response with 
 800:Middlewares/Third_Party/LwIP/src/apps/mqtt/mqtt.c ****       pub_ack_rec_rel_response(client, MQTT_MSG_TYPE_PUBCOMP, pkt_id, 0);
 801:Middlewares/Third_Party/LwIP/src/apps/mqtt/mqtt.c **** 
 802:Middlewares/Third_Party/LwIP/src/apps/mqtt/mqtt.c ****     } else if (pkt_type == MQTT_MSG_TYPE_SUBACK || pkt_type == MQTT_MSG_TYPE_UNSUBACK ||
 803:Middlewares/Third_Party/LwIP/src/apps/mqtt/mqtt.c ****                pkt_type == MQTT_MSG_TYPE_PUBCOMP || pkt_type == MQTT_MSG_TYPE_PUBACK) {
 804:Middlewares/Third_Party/LwIP/src/apps/mqtt/mqtt.c ****       struct mqtt_request_t *r = mqtt_take_request(&client->pend_req_queue, pkt_id);
 805:Middlewares/Third_Party/LwIP/src/apps/mqtt/mqtt.c ****       if (r != NULL) {
 806:Middlewares/Third_Party/LwIP/src/apps/mqtt/mqtt.c ****         LWIP_DEBUGF(MQTT_DEBUG_TRACE, ("mqtt_message_received: %s response with id %d\n", mqtt_msg_
 807:Middlewares/Third_Party/LwIP/src/apps/mqtt/mqtt.c ****         if (pkt_type == MQTT_MSG_TYPE_SUBACK) {
 808:Middlewares/Third_Party/LwIP/src/apps/mqtt/mqtt.c ****           if (length < 3) {
 809:Middlewares/Third_Party/LwIP/src/apps/mqtt/mqtt.c ****             LWIP_DEBUGF(MQTT_DEBUG_WARN, ("mqtt_message_received: To small SUBACK packet\n"));
 810:Middlewares/Third_Party/LwIP/src/apps/mqtt/mqtt.c ****             goto out_disconnect;
 811:Middlewares/Third_Party/LwIP/src/apps/mqtt/mqtt.c ****           } else {
 812:Middlewares/Third_Party/LwIP/src/apps/mqtt/mqtt.c ****             mqtt_incomming_suback(r, var_hdr_payload[2]);
 813:Middlewares/Third_Party/LwIP/src/apps/mqtt/mqtt.c ****           }
 814:Middlewares/Third_Party/LwIP/src/apps/mqtt/mqtt.c ****         } else if (r->cb != NULL) {
 815:Middlewares/Third_Party/LwIP/src/apps/mqtt/mqtt.c ****           r->cb(r->arg, ERR_OK);
 816:Middlewares/Third_Party/LwIP/src/apps/mqtt/mqtt.c ****         }
 817:Middlewares/Third_Party/LwIP/src/apps/mqtt/mqtt.c ****         mqtt_delete_request(r);
 818:Middlewares/Third_Party/LwIP/src/apps/mqtt/mqtt.c ****       } else {
 819:Middlewares/Third_Party/LwIP/src/apps/mqtt/mqtt.c ****         LWIP_DEBUGF(MQTT_DEBUG_WARN, ( "mqtt_message_received: Received %s reply, with wrong pkt_id
 820:Middlewares/Third_Party/LwIP/src/apps/mqtt/mqtt.c ****       }
 821:Middlewares/Third_Party/LwIP/src/apps/mqtt/mqtt.c ****     } else {
 822:Middlewares/Third_Party/LwIP/src/apps/mqtt/mqtt.c ****       LWIP_DEBUGF(MQTT_DEBUG_WARN, ( "mqtt_message_received: Received unknown message type: %d\n", 
 823:Middlewares/Third_Party/LwIP/src/apps/mqtt/mqtt.c ****       goto out_disconnect;
 824:Middlewares/Third_Party/LwIP/src/apps/mqtt/mqtt.c ****     }
 825:Middlewares/Third_Party/LwIP/src/apps/mqtt/mqtt.c ****   }
 826:Middlewares/Third_Party/LwIP/src/apps/mqtt/mqtt.c ****   return res;
 827:Middlewares/Third_Party/LwIP/src/apps/mqtt/mqtt.c **** out_disconnect:
 828:Middlewares/Third_Party/LwIP/src/apps/mqtt/mqtt.c ****   return MQTT_CONNECT_DISCONNECTED;
 829:Middlewares/Third_Party/LwIP/src/apps/mqtt/mqtt.c **** }
 830:Middlewares/Third_Party/LwIP/src/apps/mqtt/mqtt.c **** 
 831:Middlewares/Third_Party/LwIP/src/apps/mqtt/mqtt.c **** 
 832:Middlewares/Third_Party/LwIP/src/apps/mqtt/mqtt.c **** /**
 833:Middlewares/Third_Party/LwIP/src/apps/mqtt/mqtt.c ****  * MQTT incoming message parser
 834:Middlewares/Third_Party/LwIP/src/apps/mqtt/mqtt.c ****  * @param client MQTT client
 835:Middlewares/Third_Party/LwIP/src/apps/mqtt/mqtt.c ****  * @param p PBUF chain of received data
 836:Middlewares/Third_Party/LwIP/src/apps/mqtt/mqtt.c ****  * @return Connection status
 837:Middlewares/Third_Party/LwIP/src/apps/mqtt/mqtt.c ****  */
 838:Middlewares/Third_Party/LwIP/src/apps/mqtt/mqtt.c **** static mqtt_connection_status_t
 839:Middlewares/Third_Party/LwIP/src/apps/mqtt/mqtt.c **** mqtt_parse_incoming(mqtt_client_t *client, struct pbuf *p)
 840:Middlewares/Third_Party/LwIP/src/apps/mqtt/mqtt.c **** {
 841:Middlewares/Third_Party/LwIP/src/apps/mqtt/mqtt.c ****   u16_t in_offset = 0;
 842:Middlewares/Third_Party/LwIP/src/apps/mqtt/mqtt.c ****   u32_t msg_rem_len = 0;
 843:Middlewares/Third_Party/LwIP/src/apps/mqtt/mqtt.c ****   u8_t fixed_hdr_idx = 0;
 844:Middlewares/Third_Party/LwIP/src/apps/mqtt/mqtt.c ****   u8_t b = 0;
 845:Middlewares/Third_Party/LwIP/src/apps/mqtt/mqtt.c **** 
 846:Middlewares/Third_Party/LwIP/src/apps/mqtt/mqtt.c ****   while (p->tot_len > in_offset) {
 847:Middlewares/Third_Party/LwIP/src/apps/mqtt/mqtt.c ****     /* We ALWAYS parse the header here first. Even if the header was not
 848:Middlewares/Third_Party/LwIP/src/apps/mqtt/mqtt.c ****        included in this segment, we re-parse it here by buffering it in
 849:Middlewares/Third_Party/LwIP/src/apps/mqtt/mqtt.c ****        client->rx_buffer. client->msg_idx keeps track of this. */
 850:Middlewares/Third_Party/LwIP/src/apps/mqtt/mqtt.c ****     if ((fixed_hdr_idx < 2) || ((b & 0x80) != 0)) {
 851:Middlewares/Third_Party/LwIP/src/apps/mqtt/mqtt.c **** 
 852:Middlewares/Third_Party/LwIP/src/apps/mqtt/mqtt.c ****       if (fixed_hdr_idx < client->msg_idx) {
 853:Middlewares/Third_Party/LwIP/src/apps/mqtt/mqtt.c ****         /* parse header from old pbuf (buffered in client->rx_buffer) */
 854:Middlewares/Third_Party/LwIP/src/apps/mqtt/mqtt.c ****         b = client->rx_buffer[fixed_hdr_idx];
 855:Middlewares/Third_Party/LwIP/src/apps/mqtt/mqtt.c ****       } else {
ARM GAS  D:\Dev\msys64\tmp\ccB7TkM7.s 			page 51


 856:Middlewares/Third_Party/LwIP/src/apps/mqtt/mqtt.c ****         /* parse header from this pbuf and save it in client->rx_buffer in case
 857:Middlewares/Third_Party/LwIP/src/apps/mqtt/mqtt.c ****            it comes in segmented */
 858:Middlewares/Third_Party/LwIP/src/apps/mqtt/mqtt.c ****         b = pbuf_get_at(p, in_offset++);
 859:Middlewares/Third_Party/LwIP/src/apps/mqtt/mqtt.c ****         client->rx_buffer[client->msg_idx++] = b;
 860:Middlewares/Third_Party/LwIP/src/apps/mqtt/mqtt.c ****       }
 861:Middlewares/Third_Party/LwIP/src/apps/mqtt/mqtt.c ****       fixed_hdr_idx++;
 862:Middlewares/Third_Party/LwIP/src/apps/mqtt/mqtt.c **** 
 863:Middlewares/Third_Party/LwIP/src/apps/mqtt/mqtt.c ****       if (fixed_hdr_idx >= 2) {
 864:Middlewares/Third_Party/LwIP/src/apps/mqtt/mqtt.c ****         /* fixed header contains at least 2 bytes but can contain more, depending on
 865:Middlewares/Third_Party/LwIP/src/apps/mqtt/mqtt.c ****            'remaining length'. All bytes but the last of this have 0x80 set to
 866:Middlewares/Third_Party/LwIP/src/apps/mqtt/mqtt.c ****            indicate more bytes are coming. */
 867:Middlewares/Third_Party/LwIP/src/apps/mqtt/mqtt.c ****         msg_rem_len |= (u32_t)(b & 0x7f) << ((fixed_hdr_idx - 2) * 7);
 868:Middlewares/Third_Party/LwIP/src/apps/mqtt/mqtt.c ****         if ((b & 0x80) == 0) {
 869:Middlewares/Third_Party/LwIP/src/apps/mqtt/mqtt.c ****           /* fixed header is done */
 870:Middlewares/Third_Party/LwIP/src/apps/mqtt/mqtt.c ****           LWIP_DEBUGF(MQTT_DEBUG_TRACE, ("mqtt_parse_incoming: Remaining length after fixed header:
 871:Middlewares/Third_Party/LwIP/src/apps/mqtt/mqtt.c ****           if (msg_rem_len == 0) {
 872:Middlewares/Third_Party/LwIP/src/apps/mqtt/mqtt.c ****             /* Complete message with no extra headers of payload received */
 873:Middlewares/Third_Party/LwIP/src/apps/mqtt/mqtt.c ****             mqtt_message_received(client, fixed_hdr_idx, 0, 0);
 874:Middlewares/Third_Party/LwIP/src/apps/mqtt/mqtt.c ****             client->msg_idx = 0;
 875:Middlewares/Third_Party/LwIP/src/apps/mqtt/mqtt.c ****             fixed_hdr_idx = 0;
 876:Middlewares/Third_Party/LwIP/src/apps/mqtt/mqtt.c ****           } else {
 877:Middlewares/Third_Party/LwIP/src/apps/mqtt/mqtt.c ****             /* Bytes remaining in message (changes remaining length if this is
 878:Middlewares/Third_Party/LwIP/src/apps/mqtt/mqtt.c ****                not the first segment of this message) */
 879:Middlewares/Third_Party/LwIP/src/apps/mqtt/mqtt.c ****             msg_rem_len = (msg_rem_len + fixed_hdr_idx) - client->msg_idx;
 880:Middlewares/Third_Party/LwIP/src/apps/mqtt/mqtt.c ****           }
 881:Middlewares/Third_Party/LwIP/src/apps/mqtt/mqtt.c ****         }
 882:Middlewares/Third_Party/LwIP/src/apps/mqtt/mqtt.c ****       }
 883:Middlewares/Third_Party/LwIP/src/apps/mqtt/mqtt.c ****     } else {
 884:Middlewares/Third_Party/LwIP/src/apps/mqtt/mqtt.c ****       /* Fixed header has been parsed, parse variable header */
 885:Middlewares/Third_Party/LwIP/src/apps/mqtt/mqtt.c ****       u16_t cpy_len, cpy_start, buffer_space;
 886:Middlewares/Third_Party/LwIP/src/apps/mqtt/mqtt.c **** 
 887:Middlewares/Third_Party/LwIP/src/apps/mqtt/mqtt.c ****       cpy_start = (client->msg_idx - fixed_hdr_idx) % (MQTT_VAR_HEADER_BUFFER_LEN - fixed_hdr_idx) 
 888:Middlewares/Third_Party/LwIP/src/apps/mqtt/mqtt.c **** 
 889:Middlewares/Third_Party/LwIP/src/apps/mqtt/mqtt.c ****       /* Allow to copy the lesser one of available length in input data or bytes remaining in messa
 890:Middlewares/Third_Party/LwIP/src/apps/mqtt/mqtt.c ****       cpy_len = (u16_t)LWIP_MIN((u16_t)(p->tot_len - in_offset), msg_rem_len);
 891:Middlewares/Third_Party/LwIP/src/apps/mqtt/mqtt.c **** 
 892:Middlewares/Third_Party/LwIP/src/apps/mqtt/mqtt.c ****       /* Limit to available space in buffer */
 893:Middlewares/Third_Party/LwIP/src/apps/mqtt/mqtt.c ****       buffer_space = MQTT_VAR_HEADER_BUFFER_LEN - cpy_start;
 894:Middlewares/Third_Party/LwIP/src/apps/mqtt/mqtt.c ****       if (cpy_len > buffer_space) {
 895:Middlewares/Third_Party/LwIP/src/apps/mqtt/mqtt.c ****         cpy_len = buffer_space;
 896:Middlewares/Third_Party/LwIP/src/apps/mqtt/mqtt.c ****       }
 897:Middlewares/Third_Party/LwIP/src/apps/mqtt/mqtt.c ****       pbuf_copy_partial(p, client->rx_buffer + cpy_start, cpy_len, in_offset);
 898:Middlewares/Third_Party/LwIP/src/apps/mqtt/mqtt.c **** 
 899:Middlewares/Third_Party/LwIP/src/apps/mqtt/mqtt.c ****       /* Advance get and put indexes  */
 900:Middlewares/Third_Party/LwIP/src/apps/mqtt/mqtt.c ****       client->msg_idx += cpy_len;
 901:Middlewares/Third_Party/LwIP/src/apps/mqtt/mqtt.c ****       in_offset += cpy_len;
 902:Middlewares/Third_Party/LwIP/src/apps/mqtt/mqtt.c ****       msg_rem_len -= cpy_len;
 903:Middlewares/Third_Party/LwIP/src/apps/mqtt/mqtt.c **** 
 904:Middlewares/Third_Party/LwIP/src/apps/mqtt/mqtt.c ****       LWIP_DEBUGF(MQTT_DEBUG_TRACE, ("mqtt_parse_incoming: msg_idx: %"U32_F", cpy_len: %"U16_F", re
 905:Middlewares/Third_Party/LwIP/src/apps/mqtt/mqtt.c ****       if ((msg_rem_len == 0) || (cpy_len == buffer_space)) {
 906:Middlewares/Third_Party/LwIP/src/apps/mqtt/mqtt.c ****         /* Whole message received or buffer is full */
 907:Middlewares/Third_Party/LwIP/src/apps/mqtt/mqtt.c ****         mqtt_connection_status_t res = mqtt_message_received(client, fixed_hdr_idx, (cpy_start + cp
 908:Middlewares/Third_Party/LwIP/src/apps/mqtt/mqtt.c ****         if (res != MQTT_CONNECT_ACCEPTED) {
 909:Middlewares/Third_Party/LwIP/src/apps/mqtt/mqtt.c ****           return res;
 910:Middlewares/Third_Party/LwIP/src/apps/mqtt/mqtt.c ****         }
 911:Middlewares/Third_Party/LwIP/src/apps/mqtt/mqtt.c ****         if (msg_rem_len == 0) {
 912:Middlewares/Third_Party/LwIP/src/apps/mqtt/mqtt.c ****           /* Reset parser state */
ARM GAS  D:\Dev\msys64\tmp\ccB7TkM7.s 			page 52


 913:Middlewares/Third_Party/LwIP/src/apps/mqtt/mqtt.c ****           client->msg_idx = 0;
 914:Middlewares/Third_Party/LwIP/src/apps/mqtt/mqtt.c ****           /* msg_tot_len = 0; */
 915:Middlewares/Third_Party/LwIP/src/apps/mqtt/mqtt.c ****           fixed_hdr_idx = 0;
 916:Middlewares/Third_Party/LwIP/src/apps/mqtt/mqtt.c ****         }
 917:Middlewares/Third_Party/LwIP/src/apps/mqtt/mqtt.c ****       }
 918:Middlewares/Third_Party/LwIP/src/apps/mqtt/mqtt.c ****     }
 919:Middlewares/Third_Party/LwIP/src/apps/mqtt/mqtt.c ****   }
 920:Middlewares/Third_Party/LwIP/src/apps/mqtt/mqtt.c ****   return MQTT_CONNECT_ACCEPTED;
 921:Middlewares/Third_Party/LwIP/src/apps/mqtt/mqtt.c **** }
 922:Middlewares/Third_Party/LwIP/src/apps/mqtt/mqtt.c **** 
 923:Middlewares/Third_Party/LwIP/src/apps/mqtt/mqtt.c **** 
 924:Middlewares/Third_Party/LwIP/src/apps/mqtt/mqtt.c **** /**
 925:Middlewares/Third_Party/LwIP/src/apps/mqtt/mqtt.c ****  * TCP received callback function. @see tcp_recv_fn
 926:Middlewares/Third_Party/LwIP/src/apps/mqtt/mqtt.c ****  * @param arg MQTT client
 927:Middlewares/Third_Party/LwIP/src/apps/mqtt/mqtt.c ****  * @param p PBUF chain of received data
 928:Middlewares/Third_Party/LwIP/src/apps/mqtt/mqtt.c ****  * @param err Passed as return value if not ERR_OK
 929:Middlewares/Third_Party/LwIP/src/apps/mqtt/mqtt.c ****  * @return ERR_OK or err passed into callback
 930:Middlewares/Third_Party/LwIP/src/apps/mqtt/mqtt.c ****  */
 931:Middlewares/Third_Party/LwIP/src/apps/mqtt/mqtt.c **** static err_t
 932:Middlewares/Third_Party/LwIP/src/apps/mqtt/mqtt.c **** mqtt_tcp_recv_cb(void *arg, struct altcp_pcb *pcb, struct pbuf *p, err_t err)
 933:Middlewares/Third_Party/LwIP/src/apps/mqtt/mqtt.c **** {
 934:Middlewares/Third_Party/LwIP/src/apps/mqtt/mqtt.c ****   mqtt_client_t *client = (mqtt_client_t *)arg;
 935:Middlewares/Third_Party/LwIP/src/apps/mqtt/mqtt.c ****   LWIP_ASSERT("mqtt_tcp_recv_cb: client != NULL", client != NULL);
 936:Middlewares/Third_Party/LwIP/src/apps/mqtt/mqtt.c ****   LWIP_ASSERT("mqtt_tcp_recv_cb: client->conn == pcb", client->conn == pcb);
 937:Middlewares/Third_Party/LwIP/src/apps/mqtt/mqtt.c **** 
 938:Middlewares/Third_Party/LwIP/src/apps/mqtt/mqtt.c ****   if (p == NULL) {
 939:Middlewares/Third_Party/LwIP/src/apps/mqtt/mqtt.c ****     LWIP_DEBUGF(MQTT_DEBUG_TRACE, ("mqtt_tcp_recv_cb: Recv pbuf=NULL, remote has closed connection\
 940:Middlewares/Third_Party/LwIP/src/apps/mqtt/mqtt.c ****     mqtt_close(client, MQTT_CONNECT_DISCONNECTED);
 941:Middlewares/Third_Party/LwIP/src/apps/mqtt/mqtt.c ****   } else {
 942:Middlewares/Third_Party/LwIP/src/apps/mqtt/mqtt.c ****     mqtt_connection_status_t res;
 943:Middlewares/Third_Party/LwIP/src/apps/mqtt/mqtt.c ****     if (err != ERR_OK) {
 944:Middlewares/Third_Party/LwIP/src/apps/mqtt/mqtt.c ****       LWIP_DEBUGF(MQTT_DEBUG_WARN, ("mqtt_tcp_recv_cb: Recv err=%d\n", err));
 945:Middlewares/Third_Party/LwIP/src/apps/mqtt/mqtt.c ****       pbuf_free(p);
 946:Middlewares/Third_Party/LwIP/src/apps/mqtt/mqtt.c ****       return err;
 947:Middlewares/Third_Party/LwIP/src/apps/mqtt/mqtt.c ****     }
 948:Middlewares/Third_Party/LwIP/src/apps/mqtt/mqtt.c **** 
 949:Middlewares/Third_Party/LwIP/src/apps/mqtt/mqtt.c ****     /* Tell remote that data has been received */
 950:Middlewares/Third_Party/LwIP/src/apps/mqtt/mqtt.c ****     altcp_recved(pcb, p->tot_len);
 951:Middlewares/Third_Party/LwIP/src/apps/mqtt/mqtt.c ****     res = mqtt_parse_incoming(client, p);
 952:Middlewares/Third_Party/LwIP/src/apps/mqtt/mqtt.c ****     pbuf_free(p);
 953:Middlewares/Third_Party/LwIP/src/apps/mqtt/mqtt.c **** 
 954:Middlewares/Third_Party/LwIP/src/apps/mqtt/mqtt.c ****     if (res != MQTT_CONNECT_ACCEPTED) {
 955:Middlewares/Third_Party/LwIP/src/apps/mqtt/mqtt.c ****       mqtt_close(client, res);
 956:Middlewares/Third_Party/LwIP/src/apps/mqtt/mqtt.c ****     }
 957:Middlewares/Third_Party/LwIP/src/apps/mqtt/mqtt.c ****     /* If keep alive functionality is used */
 958:Middlewares/Third_Party/LwIP/src/apps/mqtt/mqtt.c ****     if (client->keep_alive != 0) {
 959:Middlewares/Third_Party/LwIP/src/apps/mqtt/mqtt.c ****       /* Reset server alive watchdog */
 960:Middlewares/Third_Party/LwIP/src/apps/mqtt/mqtt.c ****       client->server_watchdog = 0;
 961:Middlewares/Third_Party/LwIP/src/apps/mqtt/mqtt.c ****     }
 962:Middlewares/Third_Party/LwIP/src/apps/mqtt/mqtt.c **** 
 963:Middlewares/Third_Party/LwIP/src/apps/mqtt/mqtt.c ****   }
 964:Middlewares/Third_Party/LwIP/src/apps/mqtt/mqtt.c ****   return ERR_OK;
 965:Middlewares/Third_Party/LwIP/src/apps/mqtt/mqtt.c **** }
 966:Middlewares/Third_Party/LwIP/src/apps/mqtt/mqtt.c **** 
 967:Middlewares/Third_Party/LwIP/src/apps/mqtt/mqtt.c **** 
 968:Middlewares/Third_Party/LwIP/src/apps/mqtt/mqtt.c **** /**
 969:Middlewares/Third_Party/LwIP/src/apps/mqtt/mqtt.c ****  * TCP data sent callback function. @see tcp_sent_fn
ARM GAS  D:\Dev\msys64\tmp\ccB7TkM7.s 			page 53


 970:Middlewares/Third_Party/LwIP/src/apps/mqtt/mqtt.c ****  * @param arg MQTT client
 971:Middlewares/Third_Party/LwIP/src/apps/mqtt/mqtt.c ****  * @param tpcb TCP connection handle
 972:Middlewares/Third_Party/LwIP/src/apps/mqtt/mqtt.c ****  * @param len Number of bytes sent
 973:Middlewares/Third_Party/LwIP/src/apps/mqtt/mqtt.c ****  * @return ERR_OK
 974:Middlewares/Third_Party/LwIP/src/apps/mqtt/mqtt.c ****  */
 975:Middlewares/Third_Party/LwIP/src/apps/mqtt/mqtt.c **** static err_t
 976:Middlewares/Third_Party/LwIP/src/apps/mqtt/mqtt.c **** mqtt_tcp_sent_cb(void *arg, struct altcp_pcb *tpcb, u16_t len)
 977:Middlewares/Third_Party/LwIP/src/apps/mqtt/mqtt.c **** {
 978:Middlewares/Third_Party/LwIP/src/apps/mqtt/mqtt.c ****   mqtt_client_t *client = (mqtt_client_t *)arg;
 979:Middlewares/Third_Party/LwIP/src/apps/mqtt/mqtt.c **** 
 980:Middlewares/Third_Party/LwIP/src/apps/mqtt/mqtt.c ****   LWIP_UNUSED_ARG(tpcb);
 981:Middlewares/Third_Party/LwIP/src/apps/mqtt/mqtt.c ****   LWIP_UNUSED_ARG(len);
 982:Middlewares/Third_Party/LwIP/src/apps/mqtt/mqtt.c **** 
 983:Middlewares/Third_Party/LwIP/src/apps/mqtt/mqtt.c ****   if (client->conn_state == MQTT_CONNECTED) {
 984:Middlewares/Third_Party/LwIP/src/apps/mqtt/mqtt.c ****     struct mqtt_request_t *r;
 985:Middlewares/Third_Party/LwIP/src/apps/mqtt/mqtt.c **** 
 986:Middlewares/Third_Party/LwIP/src/apps/mqtt/mqtt.c ****     /* Reset keep-alive send timer and server watchdog */
 987:Middlewares/Third_Party/LwIP/src/apps/mqtt/mqtt.c ****     client->cyclic_tick = 0;
 988:Middlewares/Third_Party/LwIP/src/apps/mqtt/mqtt.c ****     client->server_watchdog = 0;
 989:Middlewares/Third_Party/LwIP/src/apps/mqtt/mqtt.c ****     /* QoS 0 publish has no response from server, so call its callbacks here */
 990:Middlewares/Third_Party/LwIP/src/apps/mqtt/mqtt.c ****     while ((r = mqtt_take_request(&client->pend_req_queue, 0)) != NULL) {
 991:Middlewares/Third_Party/LwIP/src/apps/mqtt/mqtt.c ****       LWIP_DEBUGF(MQTT_DEBUG_TRACE, ("mqtt_tcp_sent_cb: Calling QoS 0 publish complete callback\n")
 992:Middlewares/Third_Party/LwIP/src/apps/mqtt/mqtt.c ****       if (r->cb != NULL) {
 993:Middlewares/Third_Party/LwIP/src/apps/mqtt/mqtt.c ****         r->cb(r->arg, ERR_OK);
 994:Middlewares/Third_Party/LwIP/src/apps/mqtt/mqtt.c ****       }
 995:Middlewares/Third_Party/LwIP/src/apps/mqtt/mqtt.c ****       mqtt_delete_request(r);
 996:Middlewares/Third_Party/LwIP/src/apps/mqtt/mqtt.c ****     }
 997:Middlewares/Third_Party/LwIP/src/apps/mqtt/mqtt.c ****     /* Try send any remaining buffers from output queue */
 998:Middlewares/Third_Party/LwIP/src/apps/mqtt/mqtt.c ****     mqtt_output_send(&client->output, client->conn);
 999:Middlewares/Third_Party/LwIP/src/apps/mqtt/mqtt.c ****   }
1000:Middlewares/Third_Party/LwIP/src/apps/mqtt/mqtt.c ****   return ERR_OK;
1001:Middlewares/Third_Party/LwIP/src/apps/mqtt/mqtt.c **** }
1002:Middlewares/Third_Party/LwIP/src/apps/mqtt/mqtt.c **** 
1003:Middlewares/Third_Party/LwIP/src/apps/mqtt/mqtt.c **** /**
1004:Middlewares/Third_Party/LwIP/src/apps/mqtt/mqtt.c ****  * TCP error callback function. @see tcp_err_fn
1005:Middlewares/Third_Party/LwIP/src/apps/mqtt/mqtt.c ****  * @param arg MQTT client
1006:Middlewares/Third_Party/LwIP/src/apps/mqtt/mqtt.c ****  * @param err Error encountered
1007:Middlewares/Third_Party/LwIP/src/apps/mqtt/mqtt.c ****  */
1008:Middlewares/Third_Party/LwIP/src/apps/mqtt/mqtt.c **** static void
1009:Middlewares/Third_Party/LwIP/src/apps/mqtt/mqtt.c **** mqtt_tcp_err_cb(void *arg, err_t err)
1010:Middlewares/Third_Party/LwIP/src/apps/mqtt/mqtt.c **** {
1011:Middlewares/Third_Party/LwIP/src/apps/mqtt/mqtt.c ****   mqtt_client_t *client = (mqtt_client_t *)arg;
1012:Middlewares/Third_Party/LwIP/src/apps/mqtt/mqtt.c ****   LWIP_UNUSED_ARG(err); /* only used for debug output */
1013:Middlewares/Third_Party/LwIP/src/apps/mqtt/mqtt.c ****   LWIP_DEBUGF(MQTT_DEBUG_TRACE, ("mqtt_tcp_err_cb: TCP error callback: error %d, arg: %p\n", err, a
1014:Middlewares/Third_Party/LwIP/src/apps/mqtt/mqtt.c ****   LWIP_ASSERT("mqtt_tcp_err_cb: client != NULL", client != NULL);
1015:Middlewares/Third_Party/LwIP/src/apps/mqtt/mqtt.c ****   /* Set conn to null before calling close as pcb is already deallocated*/
1016:Middlewares/Third_Party/LwIP/src/apps/mqtt/mqtt.c ****   client->conn = 0;
1017:Middlewares/Third_Party/LwIP/src/apps/mqtt/mqtt.c ****   mqtt_close(client, MQTT_CONNECT_DISCONNECTED);
1018:Middlewares/Third_Party/LwIP/src/apps/mqtt/mqtt.c **** }
1019:Middlewares/Third_Party/LwIP/src/apps/mqtt/mqtt.c **** 
1020:Middlewares/Third_Party/LwIP/src/apps/mqtt/mqtt.c **** /**
1021:Middlewares/Third_Party/LwIP/src/apps/mqtt/mqtt.c ****  * TCP poll callback function. @see tcp_poll_fn
1022:Middlewares/Third_Party/LwIP/src/apps/mqtt/mqtt.c ****  * @param arg MQTT client
1023:Middlewares/Third_Party/LwIP/src/apps/mqtt/mqtt.c ****  * @param tpcb TCP connection handle
1024:Middlewares/Third_Party/LwIP/src/apps/mqtt/mqtt.c ****  * @return err ERR_OK
1025:Middlewares/Third_Party/LwIP/src/apps/mqtt/mqtt.c ****  */
1026:Middlewares/Third_Party/LwIP/src/apps/mqtt/mqtt.c **** static err_t
ARM GAS  D:\Dev\msys64\tmp\ccB7TkM7.s 			page 54


1027:Middlewares/Third_Party/LwIP/src/apps/mqtt/mqtt.c **** mqtt_tcp_poll_cb(void *arg, struct altcp_pcb *tpcb)
1028:Middlewares/Third_Party/LwIP/src/apps/mqtt/mqtt.c **** {
 1658              		.loc 1 1028 1 view -0
 1659              		.cfi_startproc
 1660              		@ args = 0, pretend = 0, frame = 0
 1661              		@ frame_needed = 0, uses_anonymous_args = 0
 1662              		.loc 1 1028 1 is_stmt 0 view .LVU440
 1663 0000 08B5     		push	{r3, lr}
 1664              	.LCFI15:
 1665              		.cfi_def_cfa_offset 8
 1666              		.cfi_offset 3, -8
 1667              		.cfi_offset 14, -4
1029:Middlewares/Third_Party/LwIP/src/apps/mqtt/mqtt.c ****   mqtt_client_t *client = (mqtt_client_t *)arg;
 1668              		.loc 1 1029 3 is_stmt 1 view .LVU441
 1669              	.LVL176:
1030:Middlewares/Third_Party/LwIP/src/apps/mqtt/mqtt.c ****   if (client->conn_state == MQTT_CONNECTED) {
 1670              		.loc 1 1030 3 view .LVU442
 1671              		.loc 1 1030 13 is_stmt 0 view .LVU443
 1672 0002 837A     		ldrb	r3, [r0, #10]	@ zero_extendqisi2
 1673              		.loc 1 1030 6 view .LVU444
 1674 0004 032B     		cmp	r3, #3
 1675 0006 01D0     		beq	.L141
 1676              	.LVL177:
 1677              	.L139:
1031:Middlewares/Third_Party/LwIP/src/apps/mqtt/mqtt.c ****     /* Try send any remaining buffers from output queue */
1032:Middlewares/Third_Party/LwIP/src/apps/mqtt/mqtt.c ****     mqtt_output_send(&client->output, tpcb);
1033:Middlewares/Third_Party/LwIP/src/apps/mqtt/mqtt.c ****   }
1034:Middlewares/Third_Party/LwIP/src/apps/mqtt/mqtt.c ****   return ERR_OK;
 1678              		.loc 1 1034 3 is_stmt 1 view .LVU445
1035:Middlewares/Third_Party/LwIP/src/apps/mqtt/mqtt.c **** }
 1679              		.loc 1 1035 1 is_stmt 0 view .LVU446
 1680 0008 0020     		movs	r0, #0
 1681 000a 08BD     		pop	{r3, pc}
 1682              	.LVL178:
 1683              	.L141:
1032:Middlewares/Third_Party/LwIP/src/apps/mqtt/mqtt.c ****   }
 1684              		.loc 1 1032 5 is_stmt 1 view .LVU447
 1685 000c EC30     		adds	r0, r0, #236
 1686              	.LVL179:
1032:Middlewares/Third_Party/LwIP/src/apps/mqtt/mqtt.c ****   }
 1687              		.loc 1 1032 5 is_stmt 0 view .LVU448
 1688 000e FFF7FEFF 		bl	mqtt_output_send
 1689              	.LVL180:
1032:Middlewares/Third_Party/LwIP/src/apps/mqtt/mqtt.c ****   }
 1690              		.loc 1 1032 5 view .LVU449
 1691 0012 F9E7     		b	.L139
 1692              		.cfi_endproc
 1693              	.LFE58:
 1695              		.section	.text.mqtt_tcp_sent_cb,"ax",%progbits
 1696              		.align	1
 1697              		.syntax unified
 1698              		.thumb
 1699              		.thumb_func
 1700              		.fpu fpv5-sp-d16
 1702              	mqtt_tcp_sent_cb:
 1703              	.LVL181:
 1704              	.LFB56:
ARM GAS  D:\Dev\msys64\tmp\ccB7TkM7.s 			page 55


 977:Middlewares/Third_Party/LwIP/src/apps/mqtt/mqtt.c ****   mqtt_client_t *client = (mqtt_client_t *)arg;
 1705              		.loc 1 977 1 is_stmt 1 view -0
 1706              		.cfi_startproc
 1707              		@ args = 0, pretend = 0, frame = 0
 1708              		@ frame_needed = 0, uses_anonymous_args = 0
 977:Middlewares/Third_Party/LwIP/src/apps/mqtt/mqtt.c ****   mqtt_client_t *client = (mqtt_client_t *)arg;
 1709              		.loc 1 977 1 is_stmt 0 view .LVU451
 1710 0000 38B5     		push	{r3, r4, r5, lr}
 1711              	.LCFI16:
 1712              		.cfi_def_cfa_offset 16
 1713              		.cfi_offset 3, -16
 1714              		.cfi_offset 4, -12
 1715              		.cfi_offset 5, -8
 1716              		.cfi_offset 14, -4
 978:Middlewares/Third_Party/LwIP/src/apps/mqtt/mqtt.c **** 
 1717              		.loc 1 978 3 is_stmt 1 view .LVU452
 1718              	.LVL182:
 980:Middlewares/Third_Party/LwIP/src/apps/mqtt/mqtt.c ****   LWIP_UNUSED_ARG(len);
 1719              		.loc 1 980 3 view .LVU453
 981:Middlewares/Third_Party/LwIP/src/apps/mqtt/mqtt.c **** 
 1720              		.loc 1 981 3 view .LVU454
 983:Middlewares/Third_Party/LwIP/src/apps/mqtt/mqtt.c ****     struct mqtt_request_t *r;
 1721              		.loc 1 983 3 view .LVU455
 983:Middlewares/Third_Party/LwIP/src/apps/mqtt/mqtt.c ****     struct mqtt_request_t *r;
 1722              		.loc 1 983 13 is_stmt 0 view .LVU456
 1723 0002 837A     		ldrb	r3, [r0, #10]	@ zero_extendqisi2
 983:Middlewares/Third_Party/LwIP/src/apps/mqtt/mqtt.c ****     struct mqtt_request_t *r;
 1724              		.loc 1 983 6 view .LVU457
 1725 0004 032B     		cmp	r3, #3
 1726 0006 01D0     		beq	.L148
 1727              	.LVL183:
 1728              	.L143:
1000:Middlewares/Third_Party/LwIP/src/apps/mqtt/mqtt.c **** }
 1729              		.loc 1 1000 3 is_stmt 1 view .LVU458
1001:Middlewares/Third_Party/LwIP/src/apps/mqtt/mqtt.c **** 
 1730              		.loc 1 1001 1 is_stmt 0 view .LVU459
 1731 0008 0020     		movs	r0, #0
 1732 000a 38BD     		pop	{r3, r4, r5, pc}
 1733              	.LVL184:
 1734              	.L148:
1001:Middlewares/Third_Party/LwIP/src/apps/mqtt/mqtt.c **** 
 1735              		.loc 1 1001 1 view .LVU460
 1736 000c 0546     		mov	r5, r0
 1737              	.LBB2:
 984:Middlewares/Third_Party/LwIP/src/apps/mqtt/mqtt.c **** 
 1738              		.loc 1 984 5 is_stmt 1 view .LVU461
 987:Middlewares/Third_Party/LwIP/src/apps/mqtt/mqtt.c ****     client->server_watchdog = 0;
 1739              		.loc 1 987 5 view .LVU462
 987:Middlewares/Third_Party/LwIP/src/apps/mqtt/mqtt.c ****     client->server_watchdog = 0;
 1740              		.loc 1 987 25 is_stmt 0 view .LVU463
 1741 000e 0023     		movs	r3, #0
 1742 0010 0380     		strh	r3, [r0]	@ movhi
 988:Middlewares/Third_Party/LwIP/src/apps/mqtt/mqtt.c ****     /* QoS 0 publish has no response from server, so call its callbacks here */
 1743              		.loc 1 988 5 is_stmt 1 view .LVU464
 988:Middlewares/Third_Party/LwIP/src/apps/mqtt/mqtt.c ****     /* QoS 0 publish has no response from server, so call its callbacks here */
 1744              		.loc 1 988 29 is_stmt 0 view .LVU465
 1745 0012 8380     		strh	r3, [r0, #4]	@ movhi
ARM GAS  D:\Dev\msys64\tmp\ccB7TkM7.s 			page 56


 990:Middlewares/Third_Party/LwIP/src/apps/mqtt/mqtt.c ****       LWIP_DEBUGF(MQTT_DEBUG_TRACE, ("mqtt_tcp_sent_cb: Calling QoS 0 publish complete callback\n")
 1746              		.loc 1 990 5 is_stmt 1 view .LVU466
 990:Middlewares/Third_Party/LwIP/src/apps/mqtt/mqtt.c ****       LWIP_DEBUGF(MQTT_DEBUG_TRACE, ("mqtt_tcp_sent_cb: Calling QoS 0 publish complete callback\n")
 1747              		.loc 1 990 11 is_stmt 0 view .LVU467
 1748 0014 02E0     		b	.L144
 1749              	.LVL185:
 1750              	.L145:
 995:Middlewares/Third_Party/LwIP/src/apps/mqtt/mqtt.c ****     }
 1751              		.loc 1 995 7 is_stmt 1 view .LVU468
 1752 0016 2046     		mov	r0, r4
 1753 0018 FFF7FEFF 		bl	mqtt_delete_request
 1754              	.LVL186:
 1755              	.L144:
 990:Middlewares/Third_Party/LwIP/src/apps/mqtt/mqtt.c ****       LWIP_DEBUGF(MQTT_DEBUG_TRACE, ("mqtt_tcp_sent_cb: Calling QoS 0 publish complete callback\n")
 1756              		.loc 1 990 11 view .LVU469
 990:Middlewares/Third_Party/LwIP/src/apps/mqtt/mqtt.c ****       LWIP_DEBUGF(MQTT_DEBUG_TRACE, ("mqtt_tcp_sent_cb: Calling QoS 0 publish complete callback\n")
 1757              		.loc 1 990 17 is_stmt 0 view .LVU470
 1758 001c 0021     		movs	r1, #0
 1759 001e 05F11800 		add	r0, r5, #24
 1760 0022 FFF7FEFF 		bl	mqtt_take_request
 1761              	.LVL187:
 990:Middlewares/Third_Party/LwIP/src/apps/mqtt/mqtt.c ****       LWIP_DEBUGF(MQTT_DEBUG_TRACE, ("mqtt_tcp_sent_cb: Calling QoS 0 publish complete callback\n")
 1762              		.loc 1 990 11 view .LVU471
 1763 0026 0446     		mov	r4, r0
 1764 0028 30B1     		cbz	r0, .L149
 991:Middlewares/Third_Party/LwIP/src/apps/mqtt/mqtt.c ****       if (r->cb != NULL) {
 1765              		.loc 1 991 101 is_stmt 1 view .LVU472
 992:Middlewares/Third_Party/LwIP/src/apps/mqtt/mqtt.c ****         r->cb(r->arg, ERR_OK);
 1766              		.loc 1 992 7 view .LVU473
 992:Middlewares/Third_Party/LwIP/src/apps/mqtt/mqtt.c ****         r->cb(r->arg, ERR_OK);
 1767              		.loc 1 992 12 is_stmt 0 view .LVU474
 1768 002a 6368     		ldr	r3, [r4, #4]
 992:Middlewares/Third_Party/LwIP/src/apps/mqtt/mqtt.c ****         r->cb(r->arg, ERR_OK);
 1769              		.loc 1 992 10 view .LVU475
 1770 002c 002B     		cmp	r3, #0
 1771 002e F2D0     		beq	.L145
 993:Middlewares/Third_Party/LwIP/src/apps/mqtt/mqtt.c ****       }
 1772              		.loc 1 993 9 is_stmt 1 view .LVU476
 1773 0030 0021     		movs	r1, #0
 1774 0032 A068     		ldr	r0, [r4, #8]
 1775              	.LVL188:
 993:Middlewares/Third_Party/LwIP/src/apps/mqtt/mqtt.c ****       }
 1776              		.loc 1 993 9 is_stmt 0 view .LVU477
 1777 0034 9847     		blx	r3
 1778              	.LVL189:
 1779 0036 EEE7     		b	.L145
 1780              	.LVL190:
 1781              	.L149:
 998:Middlewares/Third_Party/LwIP/src/apps/mqtt/mqtt.c ****   }
 1782              		.loc 1 998 5 is_stmt 1 view .LVU478
 1783 0038 E968     		ldr	r1, [r5, #12]
 1784 003a 05F1EC00 		add	r0, r5, #236
 1785              	.LVL191:
 998:Middlewares/Third_Party/LwIP/src/apps/mqtt/mqtt.c ****   }
 1786              		.loc 1 998 5 is_stmt 0 view .LVU479
 1787 003e FFF7FEFF 		bl	mqtt_output_send
 1788              	.LVL192:
ARM GAS  D:\Dev\msys64\tmp\ccB7TkM7.s 			page 57


 1789 0042 E1E7     		b	.L143
 1790              	.LBE2:
 1791              		.cfi_endproc
 1792              	.LFE56:
 1794              		.section	.text.pub_ack_rec_rel_response,"ax",%progbits
 1795              		.align	1
 1796              		.syntax unified
 1797              		.thumb
 1798              		.thumb_func
 1799              		.fpu fpv5-sp-d16
 1801              	pub_ack_rec_rel_response:
 1802              	.LVL193:
 1803              	.LFB51:
 636:Middlewares/Third_Party/LwIP/src/apps/mqtt/mqtt.c ****   err_t err = ERR_OK;
 1804              		.loc 1 636 1 is_stmt 1 view -0
 1805              		.cfi_startproc
 1806              		@ args = 0, pretend = 0, frame = 0
 1807              		@ frame_needed = 0, uses_anonymous_args = 0
 636:Middlewares/Third_Party/LwIP/src/apps/mqtt/mqtt.c ****   err_t err = ERR_OK;
 1808              		.loc 1 636 1 is_stmt 0 view .LVU481
 1809 0000 2DE9F043 		push	{r4, r5, r6, r7, r8, r9, lr}
 1810              	.LCFI17:
 1811              		.cfi_def_cfa_offset 28
 1812              		.cfi_offset 4, -28
 1813              		.cfi_offset 5, -24
 1814              		.cfi_offset 6, -20
 1815              		.cfi_offset 7, -16
 1816              		.cfi_offset 8, -12
 1817              		.cfi_offset 9, -8
 1818              		.cfi_offset 14, -4
 1819 0004 83B0     		sub	sp, sp, #12
 1820              	.LCFI18:
 1821              		.cfi_def_cfa_offset 40
 1822 0006 0546     		mov	r5, r0
 1823 0008 8846     		mov	r8, r1
 1824 000a 9146     		mov	r9, r2
 1825 000c 1F46     		mov	r7, r3
 637:Middlewares/Third_Party/LwIP/src/apps/mqtt/mqtt.c ****   if (mqtt_output_check_space(&client->output, 2)) {
 1826              		.loc 1 637 3 is_stmt 1 view .LVU482
 1827              	.LVL194:
 638:Middlewares/Third_Party/LwIP/src/apps/mqtt/mqtt.c ****     mqtt_output_append_fixed_header(&client->output, msg, 0, qos, 0, 2);
 1828              		.loc 1 638 3 view .LVU483
 638:Middlewares/Third_Party/LwIP/src/apps/mqtt/mqtt.c ****     mqtt_output_append_fixed_header(&client->output, msg, 0, qos, 0, 2);
 1829              		.loc 1 638 7 is_stmt 0 view .LVU484
 1830 000e 00F1EC06 		add	r6, r0, #236
 1831 0012 0221     		movs	r1, #2
 1832              	.LVL195:
 638:Middlewares/Third_Party/LwIP/src/apps/mqtt/mqtt.c ****     mqtt_output_append_fixed_header(&client->output, msg, 0, qos, 0, 2);
 1833              		.loc 1 638 7 view .LVU485
 1834 0014 3046     		mov	r0, r6
 1835              	.LVL196:
 638:Middlewares/Third_Party/LwIP/src/apps/mqtt/mqtt.c ****     mqtt_output_append_fixed_header(&client->output, msg, 0, qos, 0, 2);
 1836              		.loc 1 638 7 view .LVU486
 1837 0016 FFF7FEFF 		bl	mqtt_output_check_space
 1838              	.LVL197:
 638:Middlewares/Third_Party/LwIP/src/apps/mqtt/mqtt.c ****     mqtt_output_append_fixed_header(&client->output, msg, 0, qos, 0, 2);
 1839              		.loc 1 638 6 view .LVU487
ARM GAS  D:\Dev\msys64\tmp\ccB7TkM7.s 			page 58


 1840 001a A8B1     		cbz	r0, .L152
 639:Middlewares/Third_Party/LwIP/src/apps/mqtt/mqtt.c ****     mqtt_output_append_u16(&client->output, pkt_id);
 1841              		.loc 1 639 5 is_stmt 1 view .LVU488
 1842 001c 0223     		movs	r3, #2
 1843 001e 0193     		str	r3, [sp, #4]
 1844 0020 0024     		movs	r4, #0
 1845 0022 0094     		str	r4, [sp]
 1846 0024 3B46     		mov	r3, r7
 1847 0026 2246     		mov	r2, r4
 1848 0028 4146     		mov	r1, r8
 1849 002a 3046     		mov	r0, r6
 1850 002c FFF7FEFF 		bl	mqtt_output_append_fixed_header
 1851              	.LVL198:
 640:Middlewares/Third_Party/LwIP/src/apps/mqtt/mqtt.c ****     mqtt_output_send(&client->output, client->conn);
 1852              		.loc 1 640 5 view .LVU489
 1853 0030 4946     		mov	r1, r9
 1854 0032 3046     		mov	r0, r6
 1855 0034 FFF7FEFF 		bl	mqtt_output_append_u16
 1856              	.LVL199:
 641:Middlewares/Third_Party/LwIP/src/apps/mqtt/mqtt.c ****   } else {
 1857              		.loc 1 641 5 view .LVU490
 1858 0038 E968     		ldr	r1, [r5, #12]
 1859 003a 3046     		mov	r0, r6
 1860 003c FFF7FEFF 		bl	mqtt_output_send
 1861              	.LVL200:
 637:Middlewares/Third_Party/LwIP/src/apps/mqtt/mqtt.c ****   if (mqtt_output_check_space(&client->output, 2)) {
 1862              		.loc 1 637 9 is_stmt 0 view .LVU491
 1863 0040 2046     		mov	r0, r4
 1864              	.L151:
 1865              	.LVL201:
 647:Middlewares/Third_Party/LwIP/src/apps/mqtt/mqtt.c **** }
 1866              		.loc 1 647 3 is_stmt 1 view .LVU492
 648:Middlewares/Third_Party/LwIP/src/apps/mqtt/mqtt.c **** 
 1867              		.loc 1 648 1 is_stmt 0 view .LVU493
 1868 0042 03B0     		add	sp, sp, #12
 1869              	.LCFI19:
 1870              		.cfi_remember_state
 1871              		.cfi_def_cfa_offset 28
 1872              		@ sp needed
 1873 0044 BDE8F083 		pop	{r4, r5, r6, r7, r8, r9, pc}
 1874              	.LVL202:
 1875              	.L152:
 1876              	.LCFI20:
 1877              		.cfi_restore_state
 645:Middlewares/Third_Party/LwIP/src/apps/mqtt/mqtt.c ****   }
 1878              		.loc 1 645 9 view .LVU494
 1879 0048 4FF0FF30 		mov	r0, #-1
 1880 004c F9E7     		b	.L151
 1881              		.cfi_endproc
 1882              	.LFE51:
 1884              		.section	.rodata.mqtt_message_received.str1.4,"aMS",%progbits,1
 1885              		.align	2
 1886              	.LC12:
 1887 0000 636C6965 		.ascii	"client->msg_idx < MQTT_VAR_HEADER_BUFFER_LEN\000"
 1887      6E742D3E 
 1887      6D73675F 
 1887      69647820 
ARM GAS  D:\Dev\msys64\tmp\ccB7TkM7.s 			page 59


 1887      3C204D51 
 1888 002d 000000   		.align	2
 1889              	.LC13:
 1890 0030 66697865 		.ascii	"fixed_hdr_idx <= client->msg_idx\000"
 1890      645F6864 
 1890      725F6964 
 1890      78203C3D 
 1890      20636C69 
 1891 0051 000000   		.align	2
 1892              	.LC14:
 1893 0054 62756666 		.ascii	"buffer length mismatch\000"
 1893      6572206C 
 1893      656E6774 
 1893      68206D69 
 1893      736D6174 
 1894              		.section	.text.mqtt_message_received,"ax",%progbits
 1895              		.align	1
 1896              		.syntax unified
 1897              		.thumb
 1898              		.thumb_func
 1899              		.fpu fpv5-sp-d16
 1901              	mqtt_message_received:
 1902              	.LVL203:
 1903              	.LFB53:
 673:Middlewares/Third_Party/LwIP/src/apps/mqtt/mqtt.c ****   mqtt_connection_status_t res = MQTT_CONNECT_ACCEPTED;
 1904              		.loc 1 673 1 is_stmt 1 view -0
 1905              		.cfi_startproc
 1906              		@ args = 0, pretend = 0, frame = 8
 1907              		@ frame_needed = 0, uses_anonymous_args = 0
 673:Middlewares/Third_Party/LwIP/src/apps/mqtt/mqtt.c ****   mqtt_connection_status_t res = MQTT_CONNECT_ACCEPTED;
 1908              		.loc 1 673 1 is_stmt 0 view .LVU496
 1909 0000 2DE9F04F 		push	{r4, r5, r6, r7, r8, r9, r10, fp, lr}
 1910              	.LCFI21:
 1911              		.cfi_def_cfa_offset 36
 1912              		.cfi_offset 4, -36
 1913              		.cfi_offset 5, -32
 1914              		.cfi_offset 6, -28
 1915              		.cfi_offset 7, -24
 1916              		.cfi_offset 8, -20
 1917              		.cfi_offset 9, -16
 1918              		.cfi_offset 10, -12
 1919              		.cfi_offset 11, -8
 1920              		.cfi_offset 14, -4
 1921 0004 83B0     		sub	sp, sp, #12
 1922              	.LCFI22:
 1923              		.cfi_def_cfa_offset 48
 1924 0006 0446     		mov	r4, r0
 1925 0008 8946     		mov	r9, r1
 1926 000a 1546     		mov	r5, r2
 1927 000c 1E46     		mov	r6, r3
 674:Middlewares/Third_Party/LwIP/src/apps/mqtt/mqtt.c **** 
 1928              		.loc 1 674 3 is_stmt 1 view .LVU497
 1929              	.LVL204:
 676:Middlewares/Third_Party/LwIP/src/apps/mqtt/mqtt.c ****   size_t var_hdr_payload_bufsize = sizeof(client->rx_buffer) - fixed_hdr_idx;
 1930              		.loc 1 676 3 view .LVU498
 676:Middlewares/Third_Party/LwIP/src/apps/mqtt/mqtt.c ****   size_t var_hdr_payload_bufsize = sizeof(client->rx_buffer) - fixed_hdr_idx;
 1931              		.loc 1 676 27 is_stmt 0 view .LVU499
ARM GAS  D:\Dev\msys64\tmp\ccB7TkM7.s 			page 60


 1932 000e 00F16C0B 		add	fp, r0, #108
 676:Middlewares/Third_Party/LwIP/src/apps/mqtt/mqtt.c ****   size_t var_hdr_payload_bufsize = sizeof(client->rx_buffer) - fixed_hdr_idx;
 1933              		.loc 1 676 9 view .LVU500
 1934 0012 0BEB0107 		add	r7, fp, r1
 1935              	.LVL205:
 677:Middlewares/Third_Party/LwIP/src/apps/mqtt/mqtt.c **** 
 1936              		.loc 1 677 3 is_stmt 1 view .LVU501
 677:Middlewares/Third_Party/LwIP/src/apps/mqtt/mqtt.c **** 
 1937              		.loc 1 677 10 is_stmt 0 view .LVU502
 1938 0016 C1F1800A 		rsb	r10, r1, #128
 1939              	.LVL206:
 680:Middlewares/Third_Party/LwIP/src/apps/mqtt/mqtt.c ****   u16_t pkt_id = 0;
 1940              		.loc 1 680 3 is_stmt 1 view .LVU503
 680:Middlewares/Third_Party/LwIP/src/apps/mqtt/mqtt.c ****   u16_t pkt_id = 0;
 1941              		.loc 1 680 19 is_stmt 0 view .LVU504
 1942 001a 90F86C80 		ldrb	r8, [r0, #108]	@ zero_extendqisi2
 680:Middlewares/Third_Party/LwIP/src/apps/mqtt/mqtt.c ****   u16_t pkt_id = 0;
 1943              		.loc 1 680 8 view .LVU505
 1944 001e 4FEA1818 		lsr	r8, r8, #4
 1945              	.LVL207:
 681:Middlewares/Third_Party/LwIP/src/apps/mqtt/mqtt.c **** 
 1946              		.loc 1 681 3 is_stmt 1 view .LVU506
 683:Middlewares/Third_Party/LwIP/src/apps/mqtt/mqtt.c ****   LWIP_ASSERT("fixed_hdr_idx <= client->msg_idx", fixed_hdr_idx <= client->msg_idx);
 1947              		.loc 1 683 3 view .LVU507
 683:Middlewares/Third_Party/LwIP/src/apps/mqtt/mqtt.c ****   LWIP_ASSERT("fixed_hdr_idx <= client->msg_idx", fixed_hdr_idx <= client->msg_idx);
 1948              		.loc 1 683 3 view .LVU508
 1949 0022 836E     		ldr	r3, [r0, #104]
 1950              	.LVL208:
 683:Middlewares/Third_Party/LwIP/src/apps/mqtt/mqtt.c ****   LWIP_ASSERT("fixed_hdr_idx <= client->msg_idx", fixed_hdr_idx <= client->msg_idx);
 1951              		.loc 1 683 3 is_stmt 0 view .LVU509
 1952 0024 7F2B     		cmp	r3, #127
 1953 0026 46D8     		bhi	.L194
 1954              	.LVL209:
 1955              	.L155:
 683:Middlewares/Third_Party/LwIP/src/apps/mqtt/mqtt.c ****   LWIP_ASSERT("fixed_hdr_idx <= client->msg_idx", fixed_hdr_idx <= client->msg_idx);
 1956              		.loc 1 683 3 is_stmt 1 discriminator 3 view .LVU510
 683:Middlewares/Third_Party/LwIP/src/apps/mqtt/mqtt.c ****   LWIP_ASSERT("fixed_hdr_idx <= client->msg_idx", fixed_hdr_idx <= client->msg_idx);
 1957              		.loc 1 683 3 discriminator 3 view .LVU511
 684:Middlewares/Third_Party/LwIP/src/apps/mqtt/mqtt.c ****   LWIP_ERROR("buffer length mismatch", fixed_hdr_idx + length <= MQTT_VAR_HEADER_BUFFER_LEN,
 1958              		.loc 1 684 3 discriminator 3 view .LVU512
 684:Middlewares/Third_Party/LwIP/src/apps/mqtt/mqtt.c ****   LWIP_ERROR("buffer length mismatch", fixed_hdr_idx + length <= MQTT_VAR_HEADER_BUFFER_LEN,
 1959              		.loc 1 684 3 discriminator 3 view .LVU513
 1960 0028 A36E     		ldr	r3, [r4, #104]
 1961 002a 9945     		cmp	r9, r3
 1962 002c 4BD8     		bhi	.L195
 1963              	.L156:
 684:Middlewares/Third_Party/LwIP/src/apps/mqtt/mqtt.c ****   LWIP_ERROR("buffer length mismatch", fixed_hdr_idx + length <= MQTT_VAR_HEADER_BUFFER_LEN,
 1964              		.loc 1 684 3 discriminator 3 view .LVU514
 684:Middlewares/Third_Party/LwIP/src/apps/mqtt/mqtt.c ****   LWIP_ERROR("buffer length mismatch", fixed_hdr_idx + length <= MQTT_VAR_HEADER_BUFFER_LEN,
 1965              		.loc 1 684 3 discriminator 3 view .LVU515
 685:Middlewares/Third_Party/LwIP/src/apps/mqtt/mqtt.c ****              return MQTT_CONNECT_DISCONNECTED);
 1966              		.loc 1 685 3 discriminator 3 view .LVU516
 685:Middlewares/Third_Party/LwIP/src/apps/mqtt/mqtt.c ****              return MQTT_CONNECT_DISCONNECTED);
 1967              		.loc 1 685 3 discriminator 3 view .LVU517
 1968 002e 09EB0503 		add	r3, r9, r5
 1969 0032 802B     		cmp	r3, #128
 1970 0034 4FDC     		bgt	.L196
ARM GAS  D:\Dev\msys64\tmp\ccB7TkM7.s 			page 61


 685:Middlewares/Third_Party/LwIP/src/apps/mqtt/mqtt.c ****              return MQTT_CONNECT_DISCONNECTED);
 1971              		.loc 1 685 3 discriminator 2 view .LVU518
 688:Middlewares/Third_Party/LwIP/src/apps/mqtt/mqtt.c ****     if (client->conn_state == MQTT_CONNECTING) {
 1972              		.loc 1 688 3 discriminator 2 view .LVU519
 688:Middlewares/Third_Party/LwIP/src/apps/mqtt/mqtt.c ****     if (client->conn_state == MQTT_CONNECTING) {
 1973              		.loc 1 688 6 is_stmt 0 discriminator 2 view .LVU520
 1974 0036 B8F1020F 		cmp	r8, #2
 1975 003a 56D0     		beq	.L197
 709:Middlewares/Third_Party/LwIP/src/apps/mqtt/mqtt.c ****     LWIP_DEBUGF(MQTT_DEBUG_TRACE, ( "mqtt_message_received: Received PINGRESP from server\n"));
 1976              		.loc 1 709 10 is_stmt 1 view .LVU521
 709:Middlewares/Third_Party/LwIP/src/apps/mqtt/mqtt.c ****     LWIP_DEBUGF(MQTT_DEBUG_TRACE, ( "mqtt_message_received: Received PINGRESP from server\n"));
 1977              		.loc 1 709 13 is_stmt 0 view .LVU522
 1978 003c B8F10D0F 		cmp	r8, #13
 1979 0040 00F00E81 		beq	.L176
 712:Middlewares/Third_Party/LwIP/src/apps/mqtt/mqtt.c ****     u16_t payload_offset = 0;
 1980              		.loc 1 712 10 is_stmt 1 view .LVU523
 712:Middlewares/Third_Party/LwIP/src/apps/mqtt/mqtt.c ****     u16_t payload_offset = 0;
 1981              		.loc 1 712 13 is_stmt 0 view .LVU524
 1982 0044 B8F1030F 		cmp	r8, #3
 1983 0048 68D0     		beq	.L198
 788:Middlewares/Third_Party/LwIP/src/apps/mqtt/mqtt.c ****     pkt_id |= (u16_t)var_hdr_payload[1];
 1984              		.loc 1 788 5 is_stmt 1 view .LVU525
 788:Middlewares/Third_Party/LwIP/src/apps/mqtt/mqtt.c ****     pkt_id |= (u16_t)var_hdr_payload[1];
 1985              		.loc 1 788 36 is_stmt 0 view .LVU526
 1986 004a 1BF80910 		ldrb	r1, [fp, r9]	@ zero_extendqisi2
 1987              	.LVL210:
 789:Middlewares/Third_Party/LwIP/src/apps/mqtt/mqtt.c ****     if (pkt_id == 0) {
 1988              		.loc 1 789 5 is_stmt 1 view .LVU527
 789:Middlewares/Third_Party/LwIP/src/apps/mqtt/mqtt.c ****     if (pkt_id == 0) {
 1989              		.loc 1 789 37 is_stmt 0 view .LVU528
 1990 004e 7A78     		ldrb	r2, [r7, #1]	@ zero_extendqisi2
 1991              	.LVL211:
 790:Middlewares/Third_Party/LwIP/src/apps/mqtt/mqtt.c ****       LWIP_DEBUGF(MQTT_DEBUG_WARN, ("mqtt_message_received: Got message with illegal packet identif
 1992              		.loc 1 790 5 is_stmt 1 view .LVU529
 790:Middlewares/Third_Party/LwIP/src/apps/mqtt/mqtt.c ****       LWIP_DEBUGF(MQTT_DEBUG_WARN, ("mqtt_message_received: Got message with illegal packet identif
 1993              		.loc 1 790 8 is_stmt 0 view .LVU530
 1994 0050 52EA0121 		orrs	r1, r2, r1, lsl #8
 1995              	.LVL212:
 790:Middlewares/Third_Party/LwIP/src/apps/mqtt/mqtt.c ****       LWIP_DEBUGF(MQTT_DEBUG_WARN, ("mqtt_message_received: Got message with illegal packet identif
 1996              		.loc 1 790 8 view .LVU531
 1997 0054 00F01F81 		beq	.L189
 794:Middlewares/Third_Party/LwIP/src/apps/mqtt/mqtt.c ****       LWIP_DEBUGF(MQTT_DEBUG_TRACE, ("mqtt_message_received: PUBREC, sending PUBREL with pkt_id: %d
 1998              		.loc 1 794 5 is_stmt 1 view .LVU532
 794:Middlewares/Third_Party/LwIP/src/apps/mqtt/mqtt.c ****       LWIP_DEBUGF(MQTT_DEBUG_TRACE, ("mqtt_message_received: PUBREC, sending PUBREL with pkt_id: %d
 1999              		.loc 1 794 8 is_stmt 0 view .LVU533
 2000 0058 B8F1050F 		cmp	r8, #5
 2001 005c 00F0E780 		beq	.L199
 798:Middlewares/Third_Party/LwIP/src/apps/mqtt/mqtt.c ****       LWIP_DEBUGF(MQTT_DEBUG_TRACE, ("mqtt_message_received: PUBREL, sending PUBCOMP response with 
 2002              		.loc 1 798 12 is_stmt 1 view .LVU534
 798:Middlewares/Third_Party/LwIP/src/apps/mqtt/mqtt.c ****       LWIP_DEBUGF(MQTT_DEBUG_TRACE, ("mqtt_message_received: PUBREL, sending PUBCOMP response with 
 2003              		.loc 1 798 15 is_stmt 0 view .LVU535
 2004 0060 B8F1060F 		cmp	r8, #6
 2005 0064 00F0EB80 		beq	.L200
 802:Middlewares/Third_Party/LwIP/src/apps/mqtt/mqtt.c ****                pkt_type == MQTT_MSG_TYPE_PUBCOMP || pkt_type == MQTT_MSG_TYPE_PUBACK) {
 2006              		.loc 1 802 12 is_stmt 1 view .LVU536
 802:Middlewares/Third_Party/LwIP/src/apps/mqtt/mqtt.c ****                pkt_type == MQTT_MSG_TYPE_PUBCOMP || pkt_type == MQTT_MSG_TYPE_PUBACK) {
 2007              		.loc 1 802 15 is_stmt 0 view .LVU537
ARM GAS  D:\Dev\msys64\tmp\ccB7TkM7.s 			page 62


 2008 0068 B8F10B0F 		cmp	r8, #11
 2009 006c 18BF     		it	ne
 2010 006e B8F1090F 		cmpne	r8, #9
 2011 0072 0AD0     		beq	.L170
 803:Middlewares/Third_Party/LwIP/src/apps/mqtt/mqtt.c ****       struct mqtt_request_t *r = mqtt_take_request(&client->pend_req_queue, pkt_id);
 2012              		.loc 1 803 62 view .LVU538
 2013 0074 B8F1040F 		cmp	r8, #4
 2014 0078 14BF     		ite	ne
 2015 007a 0023     		movne	r3, #0
 2016 007c 0123     		moveq	r3, #1
 803:Middlewares/Third_Party/LwIP/src/apps/mqtt/mqtt.c ****       struct mqtt_request_t *r = mqtt_take_request(&client->pend_req_queue, pkt_id);
 2017              		.loc 1 803 50 view .LVU539
 2018 007e B8F1070F 		cmp	r8, #7
 2019 0082 02D0     		beq	.L170
 2020 0084 002B     		cmp	r3, #0
 2021 0086 00F00981 		beq	.L190
 2022              	.L170:
 2023              	.LBB3:
 804:Middlewares/Third_Party/LwIP/src/apps/mqtt/mqtt.c ****       if (r != NULL) {
 2024              		.loc 1 804 7 is_stmt 1 view .LVU540
 804:Middlewares/Third_Party/LwIP/src/apps/mqtt/mqtt.c ****       if (r != NULL) {
 2025              		.loc 1 804 34 is_stmt 0 view .LVU541
 2026 008a 04F11800 		add	r0, r4, #24
 2027 008e FFF7FEFF 		bl	mqtt_take_request
 2028              	.LVL213:
 805:Middlewares/Third_Party/LwIP/src/apps/mqtt/mqtt.c ****         LWIP_DEBUGF(MQTT_DEBUG_TRACE, ("mqtt_message_received: %s response with id %d\n", mqtt_msg_
 2029              		.loc 1 805 7 is_stmt 1 view .LVU542
 805:Middlewares/Third_Party/LwIP/src/apps/mqtt/mqtt.c ****         LWIP_DEBUGF(MQTT_DEBUG_TRACE, ("mqtt_message_received: %s response with id %d\n", mqtt_msg_
 2030              		.loc 1 805 10 is_stmt 0 view .LVU543
 2031 0092 0446     		mov	r4, r0
 2032              	.LVL214:
 805:Middlewares/Third_Party/LwIP/src/apps/mqtt/mqtt.c ****         LWIP_DEBUGF(MQTT_DEBUG_TRACE, ("mqtt_message_received: %s response with id %d\n", mqtt_msg_
 2033              		.loc 1 805 10 view .LVU544
 2034 0094 0028     		cmp	r0, #0
 2035 0096 00F00481 		beq	.L191
 806:Middlewares/Third_Party/LwIP/src/apps/mqtt/mqtt.c ****         if (pkt_type == MQTT_MSG_TYPE_SUBACK) {
 2036              		.loc 1 806 131 is_stmt 1 view .LVU545
 807:Middlewares/Third_Party/LwIP/src/apps/mqtt/mqtt.c ****           if (length < 3) {
 2037              		.loc 1 807 9 view .LVU546
 807:Middlewares/Third_Party/LwIP/src/apps/mqtt/mqtt.c ****           if (length < 3) {
 2038              		.loc 1 807 12 is_stmt 0 view .LVU547
 2039 009a B8F1090F 		cmp	r8, #9
 2040 009e 00F0D680 		beq	.L201
 814:Middlewares/Third_Party/LwIP/src/apps/mqtt/mqtt.c ****           r->cb(r->arg, ERR_OK);
 2041              		.loc 1 814 16 is_stmt 1 view .LVU548
 814:Middlewares/Third_Party/LwIP/src/apps/mqtt/mqtt.c ****           r->cb(r->arg, ERR_OK);
 2042              		.loc 1 814 21 is_stmt 0 view .LVU549
 2043 00a2 4368     		ldr	r3, [r0, #4]
 814:Middlewares/Third_Party/LwIP/src/apps/mqtt/mqtt.c ****           r->cb(r->arg, ERR_OK);
 2044              		.loc 1 814 19 view .LVU550
 2045 00a4 13B1     		cbz	r3, .L173
 815:Middlewares/Third_Party/LwIP/src/apps/mqtt/mqtt.c ****         }
 2046              		.loc 1 815 11 is_stmt 1 view .LVU551
 2047 00a6 0021     		movs	r1, #0
 2048 00a8 8068     		ldr	r0, [r0, #8]
 2049              	.LVL215:
 815:Middlewares/Third_Party/LwIP/src/apps/mqtt/mqtt.c ****         }
ARM GAS  D:\Dev\msys64\tmp\ccB7TkM7.s 			page 63


 2050              		.loc 1 815 11 is_stmt 0 view .LVU552
 2051 00aa 9847     		blx	r3
 2052              	.LVL216:
 2053              	.L173:
 817:Middlewares/Third_Party/LwIP/src/apps/mqtt/mqtt.c ****       } else {
 2054              		.loc 1 817 9 is_stmt 1 view .LVU553
 2055 00ac 2046     		mov	r0, r4
 2056 00ae FFF7FEFF 		bl	mqtt_delete_request
 2057              	.LVL217:
 2058              	.LBE3:
 674:Middlewares/Third_Party/LwIP/src/apps/mqtt/mqtt.c **** 
 2059              		.loc 1 674 28 is_stmt 0 view .LVU554
 2060 00b2 0025     		movs	r5, #0
 2061              	.LBB4:
 2062 00b4 D5E0     		b	.L158
 2063              	.LVL218:
 2064              	.L194:
 674:Middlewares/Third_Party/LwIP/src/apps/mqtt/mqtt.c **** 
 2065              		.loc 1 674 28 view .LVU555
 2066              	.LBE4:
 683:Middlewares/Third_Party/LwIP/src/apps/mqtt/mqtt.c ****   LWIP_ASSERT("fixed_hdr_idx <= client->msg_idx", fixed_hdr_idx <= client->msg_idx);
 2067              		.loc 1 683 3 is_stmt 1 discriminator 1 view .LVU556
 683:Middlewares/Third_Party/LwIP/src/apps/mqtt/mqtt.c ****   LWIP_ASSERT("fixed_hdr_idx <= client->msg_idx", fixed_hdr_idx <= client->msg_idx);
 2068              		.loc 1 683 3 discriminator 1 view .LVU557
 2069 00b6 7D4B     		ldr	r3, .L204
 2070 00b8 40F2AB22 		movw	r2, #683
 2071              	.LVL219:
 683:Middlewares/Third_Party/LwIP/src/apps/mqtt/mqtt.c ****   LWIP_ASSERT("fixed_hdr_idx <= client->msg_idx", fixed_hdr_idx <= client->msg_idx);
 2072              		.loc 1 683 3 is_stmt 0 discriminator 1 view .LVU558
 2073 00bc 7C49     		ldr	r1, .L204+4
 2074              	.LVL220:
 683:Middlewares/Third_Party/LwIP/src/apps/mqtt/mqtt.c ****   LWIP_ASSERT("fixed_hdr_idx <= client->msg_idx", fixed_hdr_idx <= client->msg_idx);
 2075              		.loc 1 683 3 discriminator 1 view .LVU559
 2076 00be 7D48     		ldr	r0, .L204+8
 2077              	.LVL221:
 683:Middlewares/Third_Party/LwIP/src/apps/mqtt/mqtt.c ****   LWIP_ASSERT("fixed_hdr_idx <= client->msg_idx", fixed_hdr_idx <= client->msg_idx);
 2078              		.loc 1 683 3 discriminator 1 view .LVU560
 2079 00c0 FFF7FEFF 		bl	printf
 2080              	.LVL222:
 2081 00c4 B0E7     		b	.L155
 2082              	.L195:
 684:Middlewares/Third_Party/LwIP/src/apps/mqtt/mqtt.c ****   LWIP_ERROR("buffer length mismatch", fixed_hdr_idx + length <= MQTT_VAR_HEADER_BUFFER_LEN,
 2083              		.loc 1 684 3 is_stmt 1 discriminator 1 view .LVU561
 684:Middlewares/Third_Party/LwIP/src/apps/mqtt/mqtt.c ****   LWIP_ERROR("buffer length mismatch", fixed_hdr_idx + length <= MQTT_VAR_HEADER_BUFFER_LEN,
 2084              		.loc 1 684 3 discriminator 1 view .LVU562
 2085 00c6 794B     		ldr	r3, .L204
 2086 00c8 4FF42B72 		mov	r2, #684
 2087 00cc 7A49     		ldr	r1, .L204+12
 2088 00ce 7948     		ldr	r0, .L204+8
 2089 00d0 FFF7FEFF 		bl	printf
 2090              	.LVL223:
 2091 00d4 ABE7     		b	.L156
 2092              	.L196:
 685:Middlewares/Third_Party/LwIP/src/apps/mqtt/mqtt.c ****              return MQTT_CONNECT_DISCONNECTED);
 2093              		.loc 1 685 3 discriminator 1 view .LVU563
 685:Middlewares/Third_Party/LwIP/src/apps/mqtt/mqtt.c ****              return MQTT_CONNECT_DISCONNECTED);
 2094              		.loc 1 685 3 discriminator 1 view .LVU564
ARM GAS  D:\Dev\msys64\tmp\ccB7TkM7.s 			page 64


 2095 00d6 754B     		ldr	r3, .L204
 2096 00d8 40F2AD22 		movw	r2, #685
 2097 00dc 7749     		ldr	r1, .L204+16
 2098 00de 7548     		ldr	r0, .L204+8
 2099 00e0 FFF7FEFF 		bl	printf
 2100              	.LVL224:
 685:Middlewares/Third_Party/LwIP/src/apps/mqtt/mqtt.c ****              return MQTT_CONNECT_DISCONNECTED);
 2101              		.loc 1 685 3 discriminator 1 view .LVU565
 685:Middlewares/Third_Party/LwIP/src/apps/mqtt/mqtt.c ****              return MQTT_CONNECT_DISCONNECTED);
 2102              		.loc 1 685 3 discriminator 1 view .LVU566
 2103 00e4 4FF48075 		mov	r5, #256
 2104 00e8 BBE0     		b	.L158
 2105              	.L197:
 689:Middlewares/Third_Party/LwIP/src/apps/mqtt/mqtt.c ****       if (length < 2) {
 2106              		.loc 1 689 5 view .LVU567
 689:Middlewares/Third_Party/LwIP/src/apps/mqtt/mqtt.c ****       if (length < 2) {
 2107              		.loc 1 689 15 is_stmt 0 view .LVU568
 2108 00ea A37A     		ldrb	r3, [r4, #10]	@ zero_extendqisi2
 689:Middlewares/Third_Party/LwIP/src/apps/mqtt/mqtt.c ****       if (length < 2) {
 2109              		.loc 1 689 8 view .LVU569
 2110 00ec 022B     		cmp	r3, #2
 2111 00ee 01D0     		beq	.L202
 674:Middlewares/Third_Party/LwIP/src/apps/mqtt/mqtt.c **** 
 2112              		.loc 1 674 28 view .LVU570
 2113 00f0 0025     		movs	r5, #0
 2114 00f2 B6E0     		b	.L158
 2115              	.L202:
 690:Middlewares/Third_Party/LwIP/src/apps/mqtt/mqtt.c ****         LWIP_DEBUGF(MQTT_DEBUG_WARN,( "mqtt_message_received: Received short CONNACK message\n"));
 2116              		.loc 1 690 7 is_stmt 1 view .LVU571
 690:Middlewares/Third_Party/LwIP/src/apps/mqtt/mqtt.c ****         LWIP_DEBUGF(MQTT_DEBUG_WARN,( "mqtt_message_received: Received short CONNACK message\n"));
 2117              		.loc 1 690 10 is_stmt 0 view .LVU572
 2118 00f4 012D     		cmp	r5, #1
 2119 00f6 40F2B080 		bls	.L175
 695:Middlewares/Third_Party/LwIP/src/apps/mqtt/mqtt.c ****       LWIP_DEBUGF(MQTT_DEBUG_TRACE, ("mqtt_message_received: Connect response code %d\n", res));
 2120              		.loc 1 695 7 is_stmt 1 view .LVU573
 695:Middlewares/Third_Party/LwIP/src/apps/mqtt/mqtt.c ****       LWIP_DEBUGF(MQTT_DEBUG_TRACE, ("mqtt_message_received: Connect response code %d\n", res));
 2121              		.loc 1 695 11 is_stmt 0 view .LVU574
 2122 00fa 7D78     		ldrb	r5, [r7, #1]	@ zero_extendqisi2
 2123              	.LVL225:
 696:Middlewares/Third_Party/LwIP/src/apps/mqtt/mqtt.c ****       if (res == MQTT_CONNECT_ACCEPTED) {
 2124              		.loc 1 696 96 is_stmt 1 view .LVU575
 697:Middlewares/Third_Party/LwIP/src/apps/mqtt/mqtt.c ****         /* Reset cyclic_tick when changing to connected state */
 2125              		.loc 1 697 7 view .LVU576
 697:Middlewares/Third_Party/LwIP/src/apps/mqtt/mqtt.c ****         /* Reset cyclic_tick when changing to connected state */
 2126              		.loc 1 697 10 is_stmt 0 view .LVU577
 2127 00fc 002D     		cmp	r5, #0
 2128 00fe 40F0B080 		bne	.L158
 699:Middlewares/Third_Party/LwIP/src/apps/mqtt/mqtt.c ****         client->conn_state = MQTT_CONNECTED;
 2129              		.loc 1 699 9 is_stmt 1 view .LVU578
 699:Middlewares/Third_Party/LwIP/src/apps/mqtt/mqtt.c ****         client->conn_state = MQTT_CONNECTED;
 2130              		.loc 1 699 29 is_stmt 0 view .LVU579
 2131 0102 0023     		movs	r3, #0
 2132 0104 2380     		strh	r3, [r4]	@ movhi
 700:Middlewares/Third_Party/LwIP/src/apps/mqtt/mqtt.c ****         /* Notify upper layer */
 2133              		.loc 1 700 9 is_stmt 1 view .LVU580
 700:Middlewares/Third_Party/LwIP/src/apps/mqtt/mqtt.c ****         /* Notify upper layer */
 2134              		.loc 1 700 28 is_stmt 0 view .LVU581
ARM GAS  D:\Dev\msys64\tmp\ccB7TkM7.s 			page 65


 2135 0106 0323     		movs	r3, #3
 2136 0108 A372     		strb	r3, [r4, #10]
 702:Middlewares/Third_Party/LwIP/src/apps/mqtt/mqtt.c ****           client->connect_cb(client, client->connect_arg, res);
 2137              		.loc 1 702 9 is_stmt 1 view .LVU582
 702:Middlewares/Third_Party/LwIP/src/apps/mqtt/mqtt.c ****           client->connect_cb(client, client->connect_arg, res);
 2138              		.loc 1 702 19 is_stmt 0 view .LVU583
 2139 010a 6369     		ldr	r3, [r4, #20]
 702:Middlewares/Third_Party/LwIP/src/apps/mqtt/mqtt.c ****           client->connect_cb(client, client->connect_arg, res);
 2140              		.loc 1 702 12 view .LVU584
 2141 010c 002B     		cmp	r3, #0
 2142 010e 00F0A880 		beq	.L158
 703:Middlewares/Third_Party/LwIP/src/apps/mqtt/mqtt.c ****         }
 2143              		.loc 1 703 11 is_stmt 1 view .LVU585
 2144 0112 2A46     		mov	r2, r5
 2145 0114 2169     		ldr	r1, [r4, #16]
 2146 0116 2046     		mov	r0, r4
 2147 0118 9847     		blx	r3
 2148              	.LVL226:
 2149 011a A2E0     		b	.L158
 2150              	.LVL227:
 2151              	.L198:
 2152              	.LBB5:
 713:Middlewares/Third_Party/LwIP/src/apps/mqtt/mqtt.c ****     u16_t payload_length = length;
 2153              		.loc 1 713 5 view .LVU586
 714:Middlewares/Third_Party/LwIP/src/apps/mqtt/mqtt.c ****     u8_t qos = MQTT_CTL_PACKET_QOS(client->rx_buffer[0]);
 2154              		.loc 1 714 5 view .LVU587
 715:Middlewares/Third_Party/LwIP/src/apps/mqtt/mqtt.c **** 
 2155              		.loc 1 715 5 view .LVU588
 715:Middlewares/Third_Party/LwIP/src/apps/mqtt/mqtt.c **** 
 2156              		.loc 1 715 16 is_stmt 0 view .LVU589
 2157 011c 94F86C80 		ldrb	r8, [r4, #108]	@ zero_extendqisi2
 2158              	.LVL228:
 715:Middlewares/Third_Party/LwIP/src/apps/mqtt/mqtt.c **** 
 2159              		.loc 1 715 10 view .LVU590
 2160 0120 C8F34108 		ubfx	r8, r8, #1, #2
 2161              	.LVL229:
 717:Middlewares/Third_Party/LwIP/src/apps/mqtt/mqtt.c ****       /* Should have topic and pkt id*/
 2162              		.loc 1 717 5 is_stmt 1 view .LVU591
 717:Middlewares/Third_Party/LwIP/src/apps/mqtt/mqtt.c ****       /* Should have topic and pkt id*/
 2163              		.loc 1 717 15 is_stmt 0 view .LVU592
 2164 0124 A36E     		ldr	r3, [r4, #104]
 717:Middlewares/Third_Party/LwIP/src/apps/mqtt/mqtt.c ****       /* Should have topic and pkt id*/
 2165              		.loc 1 717 8 view .LVU593
 2166 0126 802B     		cmp	r3, #128
 2167 0128 56D8     		bhi	.L177
 2168              	.LBB6:
 719:Middlewares/Third_Party/LwIP/src/apps/mqtt/mqtt.c ****       u16_t after_topic;
 2169              		.loc 1 719 7 is_stmt 1 view .LVU594
 720:Middlewares/Third_Party/LwIP/src/apps/mqtt/mqtt.c ****       u8_t bkp;
 2170              		.loc 1 720 7 view .LVU595
 721:Middlewares/Third_Party/LwIP/src/apps/mqtt/mqtt.c ****       u16_t topic_len;
 2171              		.loc 1 721 7 view .LVU596
 722:Middlewares/Third_Party/LwIP/src/apps/mqtt/mqtt.c ****       u16_t qos_len = (qos ? 2U : 0U);
 2172              		.loc 1 722 7 view .LVU597
 723:Middlewares/Third_Party/LwIP/src/apps/mqtt/mqtt.c ****       if (length < 2 + qos_len) {
 2173              		.loc 1 723 7 view .LVU598
 723:Middlewares/Third_Party/LwIP/src/apps/mqtt/mqtt.c ****       if (length < 2 + qos_len) {
ARM GAS  D:\Dev\msys64\tmp\ccB7TkM7.s 			page 66


 2174              		.loc 1 723 13 is_stmt 0 view .LVU599
 2175 012a B8F1000F 		cmp	r8, #0
 2176 012e 36D0     		beq	.L178
 2177 0130 0223     		movs	r3, #2
 2178              	.L162:
 2179              	.LVL230:
 724:Middlewares/Third_Party/LwIP/src/apps/mqtt/mqtt.c ****         LWIP_DEBUGF(MQTT_DEBUG_WARN,( "mqtt_message_received: Received short PUBLISH packet\n"));
 2180              		.loc 1 724 7 is_stmt 1 discriminator 4 view .LVU600
 724:Middlewares/Third_Party/LwIP/src/apps/mqtt/mqtt.c ****         LWIP_DEBUGF(MQTT_DEBUG_WARN,( "mqtt_message_received: Received short PUBLISH packet\n"));
 2181              		.loc 1 724 18 is_stmt 0 discriminator 4 view .LVU601
 2182 0132 5A1C     		adds	r2, r3, #1
 724:Middlewares/Third_Party/LwIP/src/apps/mqtt/mqtt.c ****         LWIP_DEBUGF(MQTT_DEBUG_WARN,( "mqtt_message_received: Received short PUBLISH packet\n"));
 2183              		.loc 1 724 10 discriminator 4 view .LVU602
 2184 0134 9542     		cmp	r5, r2
 2185 0136 40F39880 		ble	.L179
 728:Middlewares/Third_Party/LwIP/src/apps/mqtt/mqtt.c ****       topic_len = (topic_len << 8) + (u16_t)(var_hdr_payload[1]);
 2186              		.loc 1 728 7 is_stmt 1 view .LVU603
 728:Middlewares/Third_Party/LwIP/src/apps/mqtt/mqtt.c ****       topic_len = (topic_len << 8) + (u16_t)(var_hdr_payload[1]);
 2187              		.loc 1 728 17 is_stmt 0 view .LVU604
 2188 013a 1BF80920 		ldrb	r2, [fp, r9]	@ zero_extendqisi2
 2189              	.LVL231:
 729:Middlewares/Third_Party/LwIP/src/apps/mqtt/mqtt.c ****       if ((topic_len > length - (2 + qos_len)) ||
 2190              		.loc 1 729 7 is_stmt 1 view .LVU605
 729:Middlewares/Third_Party/LwIP/src/apps/mqtt/mqtt.c ****       if ((topic_len > length - (2 + qos_len)) ||
 2191              		.loc 1 729 61 is_stmt 0 view .LVU606
 2192 013e 97F801B0 		ldrb	fp, [r7, #1]	@ zero_extendqisi2
 729:Middlewares/Third_Party/LwIP/src/apps/mqtt/mqtt.c ****       if ((topic_len > length - (2 + qos_len)) ||
 2193              		.loc 1 729 17 view .LVU607
 2194 0142 0BEB022B 		add	fp, fp, r2, lsl #8
 2195 0146 1FFA8BFB 		uxth	fp, fp
 2196              	.LVL232:
 730:Middlewares/Third_Party/LwIP/src/apps/mqtt/mqtt.c ****           (topic_len > var_hdr_payload_bufsize - (2 + qos_len))) {
 2197              		.loc 1 730 7 is_stmt 1 view .LVU608
 730:Middlewares/Third_Party/LwIP/src/apps/mqtt/mqtt.c ****           (topic_len > var_hdr_payload_bufsize - (2 + qos_len))) {
 2198              		.loc 1 730 36 is_stmt 0 view .LVU609
 2199 014a 9A1C     		adds	r2, r3, #2
 730:Middlewares/Third_Party/LwIP/src/apps/mqtt/mqtt.c ****           (topic_len > var_hdr_payload_bufsize - (2 + qos_len))) {
 2200              		.loc 1 730 31 view .LVU610
 2201 014c AA1A     		subs	r2, r5, r2
 730:Middlewares/Third_Party/LwIP/src/apps/mqtt/mqtt.c ****           (topic_len > var_hdr_payload_bufsize - (2 + qos_len))) {
 2202              		.loc 1 730 10 view .LVU611
 2203 014e 9345     		cmp	fp, r2
 2204 0150 00F38E80 		bgt	.L180
 731:Middlewares/Third_Party/LwIP/src/apps/mqtt/mqtt.c ****         LWIP_DEBUGF(MQTT_DEBUG_WARN,( "mqtt_message_received: Received short PUBLISH packet (topic)
 2205              		.loc 1 731 48 discriminator 1 view .LVU612
 2206 0154 AAEB0303 		sub	r3, r10, r3
 2207              	.LVL233:
 731:Middlewares/Third_Party/LwIP/src/apps/mqtt/mqtt.c ****         LWIP_DEBUGF(MQTT_DEBUG_WARN,( "mqtt_message_received: Received short PUBLISH packet (topic)
 2208              		.loc 1 731 48 discriminator 1 view .LVU613
 2209 0158 023B     		subs	r3, r3, #2
 730:Middlewares/Third_Party/LwIP/src/apps/mqtt/mqtt.c ****           (topic_len > var_hdr_payload_bufsize - (2 + qos_len))) {
 2210              		.loc 1 730 48 discriminator 1 view .LVU614
 2211 015a 9B45     		cmp	fp, r3
 2212 015c 00F28B80 		bhi	.L181
 736:Middlewares/Third_Party/LwIP/src/apps/mqtt/mqtt.c ****       after_topic = 2 + topic_len;
 2213              		.loc 1 736 7 is_stmt 1 view .LVU615
 736:Middlewares/Third_Party/LwIP/src/apps/mqtt/mqtt.c ****       after_topic = 2 + topic_len;
ARM GAS  D:\Dev\msys64\tmp\ccB7TkM7.s 			page 67


 2214              		.loc 1 736 13 is_stmt 0 view .LVU616
 2215 0160 BB1C     		adds	r3, r7, #2
 2216 0162 0093     		str	r3, [sp]
 2217              	.LVL234:
 737:Middlewares/Third_Party/LwIP/src/apps/mqtt/mqtt.c ****       /* Check buffer length, add one byte even for QoS 0 so that zero termination will fit */
 2218              		.loc 1 737 7 is_stmt 1 view .LVU617
 737:Middlewares/Third_Party/LwIP/src/apps/mqtt/mqtt.c ****       /* Check buffer length, add one byte even for QoS 0 so that zero termination will fit */
 2219              		.loc 1 737 19 is_stmt 0 view .LVU618
 2220 0164 0BF10209 		add	r9, fp, #2
 2221 0168 1FFA89F9 		uxth	r9, r9
 2222              	.LVL235:
 739:Middlewares/Third_Party/LwIP/src/apps/mqtt/mqtt.c ****         LWIP_DEBUGF(MQTT_DEBUG_WARN, ("mqtt_message_received: Receive buffer can not fit topic + pk
 2223              		.loc 1 739 7 is_stmt 1 view .LVU619
 739:Middlewares/Third_Party/LwIP/src/apps/mqtt/mqtt.c ****         LWIP_DEBUGF(MQTT_DEBUG_WARN, ("mqtt_message_received: Receive buffer can not fit topic + pk
 2224              		.loc 1 739 24 is_stmt 0 view .LVU620
 2225 016c 4A46     		mov	r2, r9
 739:Middlewares/Third_Party/LwIP/src/apps/mqtt/mqtt.c ****         LWIP_DEBUGF(MQTT_DEBUG_WARN, ("mqtt_message_received: Receive buffer can not fit topic + pk
 2226              		.loc 1 739 36 view .LVU621
 2227 016e B8F1000F 		cmp	r8, #0
 2228 0172 16D0     		beq	.L182
 2229 0174 0223     		movs	r3, #2
 2230              	.LVL236:
 2231              	.L163:
 739:Middlewares/Third_Party/LwIP/src/apps/mqtt/mqtt.c ****         LWIP_DEBUGF(MQTT_DEBUG_WARN, ("mqtt_message_received: Receive buffer can not fit topic + pk
 2232              		.loc 1 739 24 discriminator 4 view .LVU622
 2233 0176 1344     		add	r3, r3, r2
 739:Middlewares/Third_Party/LwIP/src/apps/mqtt/mqtt.c ****         LWIP_DEBUGF(MQTT_DEBUG_WARN, ("mqtt_message_received: Receive buffer can not fit topic + pk
 2234              		.loc 1 739 10 discriminator 4 view .LVU623
 2235 0178 5345     		cmp	r3, r10
 2236 017a 7FD8     		bhi	.L183
 745:Middlewares/Third_Party/LwIP/src/apps/mqtt/mqtt.c ****         if (length < after_topic + 2U) {
 2237              		.loc 1 745 7 is_stmt 1 view .LVU624
 745:Middlewares/Third_Party/LwIP/src/apps/mqtt/mqtt.c ****         if (length < after_topic + 2U) {
 2238              		.loc 1 745 10 is_stmt 0 view .LVU625
 2239 017c B8F1000F 		cmp	r8, #0
 2240 0180 11D0     		beq	.L164
 746:Middlewares/Third_Party/LwIP/src/apps/mqtt/mqtt.c ****           LWIP_DEBUGF(MQTT_DEBUG_WARN,( "mqtt_message_received: Received short PUBLISH packet (afte
 2241              		.loc 1 746 9 is_stmt 1 view .LVU626
 746:Middlewares/Third_Party/LwIP/src/apps/mqtt/mqtt.c ****           LWIP_DEBUGF(MQTT_DEBUG_WARN,( "mqtt_message_received: Received short PUBLISH packet (afte
 2242              		.loc 1 746 34 is_stmt 0 view .LVU627
 2243 0182 931C     		adds	r3, r2, #2
 746:Middlewares/Third_Party/LwIP/src/apps/mqtt/mqtt.c ****           LWIP_DEBUGF(MQTT_DEBUG_WARN,( "mqtt_message_received: Received short PUBLISH packet (afte
 2244              		.loc 1 746 12 view .LVU628
 2245 0184 9D42     		cmp	r5, r3
 2246 0186 7CD3     		bcc	.L184
 750:Middlewares/Third_Party/LwIP/src/apps/mqtt/mqtt.c ****         after_topic += 2;
 2247              		.loc 1 750 9 is_stmt 1 view .LVU629
 750:Middlewares/Third_Party/LwIP/src/apps/mqtt/mqtt.c ****         after_topic += 2;
 2248              		.loc 1 750 55 is_stmt 0 view .LVU630
 2249 0188 B95C     		ldrb	r1, [r7, r2]	@ zero_extendqisi2
 750:Middlewares/Third_Party/LwIP/src/apps/mqtt/mqtt.c ****         after_topic += 2;
 2250              		.loc 1 750 99 view .LVU631
 2251 018a 3A44     		add	r2, r2, r7
 2252 018c 5378     		ldrb	r3, [r2, #1]	@ zero_extendqisi2
 750:Middlewares/Third_Party/LwIP/src/apps/mqtt/mqtt.c ****         after_topic += 2;
 2253              		.loc 1 750 75 view .LVU632
 2254 018e 03EB0123 		add	r3, r3, r1, lsl #8
ARM GAS  D:\Dev\msys64\tmp\ccB7TkM7.s 			page 68


 750:Middlewares/Third_Party/LwIP/src/apps/mqtt/mqtt.c ****         after_topic += 2;
 2255              		.loc 1 750 30 view .LVU633
 2256 0192 2381     		strh	r3, [r4, #8]	@ movhi
 751:Middlewares/Third_Party/LwIP/src/apps/mqtt/mqtt.c ****       } else {
 2257              		.loc 1 751 9 is_stmt 1 view .LVU634
 751:Middlewares/Third_Party/LwIP/src/apps/mqtt/mqtt.c ****       } else {
 2258              		.loc 1 751 21 is_stmt 0 view .LVU635
 2259 0194 0BF10409 		add	r9, fp, #4
 2260              	.LVL237:
 751:Middlewares/Third_Party/LwIP/src/apps/mqtt/mqtt.c ****       } else {
 2261              		.loc 1 751 21 view .LVU636
 2262 0198 1FFA89F9 		uxth	r9, r9
 2263              	.LVL238:
 751:Middlewares/Third_Party/LwIP/src/apps/mqtt/mqtt.c ****       } else {
 2264              		.loc 1 751 21 view .LVU637
 2265 019c 05E0     		b	.L165
 2266              	.LVL239:
 2267              	.L178:
 723:Middlewares/Third_Party/LwIP/src/apps/mqtt/mqtt.c ****       if (length < 2 + qos_len) {
 2268              		.loc 1 723 13 view .LVU638
 2269 019e 0023     		movs	r3, #0
 2270 01a0 C7E7     		b	.L162
 2271              	.LVL240:
 2272              	.L182:
 739:Middlewares/Third_Party/LwIP/src/apps/mqtt/mqtt.c ****         LWIP_DEBUGF(MQTT_DEBUG_WARN, ("mqtt_message_received: Receive buffer can not fit topic + pk
 2273              		.loc 1 739 36 view .LVU639
 2274 01a2 0123     		movs	r3, #1
 2275              	.LVL241:
 739:Middlewares/Third_Party/LwIP/src/apps/mqtt/mqtt.c ****         LWIP_DEBUGF(MQTT_DEBUG_WARN, ("mqtt_message_received: Receive buffer can not fit topic + pk
 2276              		.loc 1 739 36 view .LVU640
 2277 01a4 E7E7     		b	.L163
 2278              	.L164:
 753:Middlewares/Third_Party/LwIP/src/apps/mqtt/mqtt.c ****       }
 2279              		.loc 1 753 9 is_stmt 1 view .LVU641
 753:Middlewares/Third_Party/LwIP/src/apps/mqtt/mqtt.c ****       }
 2280              		.loc 1 753 30 is_stmt 0 view .LVU642
 2281 01a6 0023     		movs	r3, #0
 2282 01a8 2381     		strh	r3, [r4, #8]	@ movhi
 2283              	.L165:
 756:Middlewares/Third_Party/LwIP/src/apps/mqtt/mqtt.c ****       /* Zero terminate string */
 2284              		.loc 1 756 7 is_stmt 1 view .LVU643
 756:Middlewares/Third_Party/LwIP/src/apps/mqtt/mqtt.c ****       /* Zero terminate string */
 2285              		.loc 1 756 11 is_stmt 0 view .LVU644
 2286 01aa 0099     		ldr	r1, [sp]
 2287 01ac 11F80B30 		ldrb	r3, [r1, fp]	@ zero_extendqisi2
 2288 01b0 0193     		str	r3, [sp, #4]
 2289              	.LVL242:
 758:Middlewares/Third_Party/LwIP/src/apps/mqtt/mqtt.c ****       /* Payload data remaining in receive buffer */
 2290              		.loc 1 758 7 is_stmt 1 view .LVU645
 758:Middlewares/Third_Party/LwIP/src/apps/mqtt/mqtt.c ****       /* Payload data remaining in receive buffer */
 2291              		.loc 1 758 24 is_stmt 0 view .LVU646
 2292 01b2 0023     		movs	r3, #0
 2293 01b4 01F80B30 		strb	r3, [r1, fp]
 760:Middlewares/Third_Party/LwIP/src/apps/mqtt/mqtt.c ****       payload_offset = after_topic;
 2294              		.loc 1 760 7 is_stmt 1 view .LVU647
 760:Middlewares/Third_Party/LwIP/src/apps/mqtt/mqtt.c ****       payload_offset = after_topic;
 2295              		.loc 1 760 22 is_stmt 0 view .LVU648
ARM GAS  D:\Dev\msys64\tmp\ccB7TkM7.s 			page 69


 2296 01b8 A5EB090A 		sub	r10, r5, r9
 2297              	.LVL243:
 760:Middlewares/Third_Party/LwIP/src/apps/mqtt/mqtt.c ****       payload_offset = after_topic;
 2298              		.loc 1 760 22 view .LVU649
 2299 01bc 1FFA8AFA 		uxth	r10, r10
 2300              	.LVL244:
 761:Middlewares/Third_Party/LwIP/src/apps/mqtt/mqtt.c **** 
 2301              		.loc 1 761 7 is_stmt 1 view .LVU650
 764:Middlewares/Third_Party/LwIP/src/apps/mqtt/mqtt.c ****       if (client->pub_cb != NULL) {
 2302              		.loc 1 764 85 view .LVU651
