ARM GAS  D:\Dev\msys64\tmp\cc0CI1qy.s 			page 1


   1              		.cpu cortex-m7
   2              		.eabi_attribute 27, 1
   3              		.eabi_attribute 28, 1
   4              		.eabi_attribute 20, 1
   5              		.eabi_attribute 21, 1
   6              		.eabi_attribute 23, 3
   7              		.eabi_attribute 24, 1
   8              		.eabi_attribute 25, 1
   9              		.eabi_attribute 26, 1
  10              		.eabi_attribute 30, 1
  11              		.eabi_attribute 34, 1
  12              		.eabi_attribute 18, 4
  13              		.file	"netbuf.c"
  14              		.text
  15              	.Ltext0:
  16              		.cfi_sections	.debug_frame
  17              		.section	.text.netbuf_new,"ax",%progbits
  18              		.align	1
  19              		.global	netbuf_new
  20              		.arch armv7e-m
  21              		.syntax unified
  22              		.thumb
  23              		.thumb_func
  24              		.fpu fpv5-sp-d16
  26              	netbuf_new:
  27              	.LFB25:
  28              		.file 1 "Middlewares/Third_Party/LwIP/src/api/netbuf.c"
   1:Middlewares/Third_Party/LwIP/src/api/netbuf.c **** /**
   2:Middlewares/Third_Party/LwIP/src/api/netbuf.c ****  * @file
   3:Middlewares/Third_Party/LwIP/src/api/netbuf.c ****  * Network buffer management
   4:Middlewares/Third_Party/LwIP/src/api/netbuf.c ****  *
   5:Middlewares/Third_Party/LwIP/src/api/netbuf.c ****  * @defgroup netbuf Network buffers
   6:Middlewares/Third_Party/LwIP/src/api/netbuf.c ****  * @ingroup netconn
   7:Middlewares/Third_Party/LwIP/src/api/netbuf.c ****  * Network buffer descriptor for @ref netconn. Based on @ref pbuf internally
   8:Middlewares/Third_Party/LwIP/src/api/netbuf.c ****  * to avoid copying data around.\n
   9:Middlewares/Third_Party/LwIP/src/api/netbuf.c ****  * Buffers must not be shared accross multiple threads, all functions except
  10:Middlewares/Third_Party/LwIP/src/api/netbuf.c ****  * netbuf_new() and netbuf_delete() are not thread-safe.
  11:Middlewares/Third_Party/LwIP/src/api/netbuf.c ****  */
  12:Middlewares/Third_Party/LwIP/src/api/netbuf.c **** 
  13:Middlewares/Third_Party/LwIP/src/api/netbuf.c **** /*
  14:Middlewares/Third_Party/LwIP/src/api/netbuf.c ****  * Copyright (c) 2001-2004 Swedish Institute of Computer Science.
  15:Middlewares/Third_Party/LwIP/src/api/netbuf.c ****  * All rights reserved.
  16:Middlewares/Third_Party/LwIP/src/api/netbuf.c ****  *
  17:Middlewares/Third_Party/LwIP/src/api/netbuf.c ****  * Redistribution and use in source and binary forms, with or without modification,
  18:Middlewares/Third_Party/LwIP/src/api/netbuf.c ****  * are permitted provided that the following conditions are met:
  19:Middlewares/Third_Party/LwIP/src/api/netbuf.c ****  *
  20:Middlewares/Third_Party/LwIP/src/api/netbuf.c ****  * 1. Redistributions of source code must retain the above copyright notice,
  21:Middlewares/Third_Party/LwIP/src/api/netbuf.c ****  *    this list of conditions and the following disclaimer.
  22:Middlewares/Third_Party/LwIP/src/api/netbuf.c ****  * 2. Redistributions in binary form must reproduce the above copyright notice,
  23:Middlewares/Third_Party/LwIP/src/api/netbuf.c ****  *    this list of conditions and the following disclaimer in the documentation
  24:Middlewares/Third_Party/LwIP/src/api/netbuf.c ****  *    and/or other materials provided with the distribution.
  25:Middlewares/Third_Party/LwIP/src/api/netbuf.c ****  * 3. The name of the author may not be used to endorse or promote products
  26:Middlewares/Third_Party/LwIP/src/api/netbuf.c ****  *    derived from this software without specific prior written permission.
  27:Middlewares/Third_Party/LwIP/src/api/netbuf.c ****  *
  28:Middlewares/Third_Party/LwIP/src/api/netbuf.c ****  * THIS SOFTWARE IS PROVIDED BY THE AUTHOR ``AS IS'' AND ANY EXPRESS OR IMPLIED
  29:Middlewares/Third_Party/LwIP/src/api/netbuf.c ****  * WARRANTIES, INCLUDING, BUT NOT LIMITED TO, THE IMPLIED WARRANTIES OF
  30:Middlewares/Third_Party/LwIP/src/api/netbuf.c ****  * MERCHANTABILITY AND FITNESS FOR A PARTICULAR PURPOSE ARE DISCLAIMED. IN NO EVENT
ARM GAS  D:\Dev\msys64\tmp\cc0CI1qy.s 			page 2


  31:Middlewares/Third_Party/LwIP/src/api/netbuf.c ****  * SHALL THE AUTHOR BE LIABLE FOR ANY DIRECT, INDIRECT, INCIDENTAL, SPECIAL,
  32:Middlewares/Third_Party/LwIP/src/api/netbuf.c ****  * EXEMPLARY, OR CONSEQUENTIAL DAMAGES (INCLUDING, BUT NOT LIMITED TO, PROCUREMENT
  33:Middlewares/Third_Party/LwIP/src/api/netbuf.c ****  * OF SUBSTITUTE GOODS OR SERVICES; LOSS OF USE, DATA, OR PROFITS; OR BUSINESS
  34:Middlewares/Third_Party/LwIP/src/api/netbuf.c ****  * INTERRUPTION) HOWEVER CAUSED AND ON ANY THEORY OF LIABILITY, WHETHER IN
  35:Middlewares/Third_Party/LwIP/src/api/netbuf.c ****  * CONTRACT, STRICT LIABILITY, OR TORT (INCLUDING NEGLIGENCE OR OTHERWISE) ARISING
  36:Middlewares/Third_Party/LwIP/src/api/netbuf.c ****  * IN ANY WAY OUT OF THE USE OF THIS SOFTWARE, EVEN IF ADVISED OF THE POSSIBILITY
  37:Middlewares/Third_Party/LwIP/src/api/netbuf.c ****  * OF SUCH DAMAGE.
  38:Middlewares/Third_Party/LwIP/src/api/netbuf.c ****  *
  39:Middlewares/Third_Party/LwIP/src/api/netbuf.c ****  * This file is part of the lwIP TCP/IP stack.
  40:Middlewares/Third_Party/LwIP/src/api/netbuf.c ****  *
  41:Middlewares/Third_Party/LwIP/src/api/netbuf.c ****  * Author: Adam Dunkels <adam@sics.se>
  42:Middlewares/Third_Party/LwIP/src/api/netbuf.c ****  *
  43:Middlewares/Third_Party/LwIP/src/api/netbuf.c ****  */
  44:Middlewares/Third_Party/LwIP/src/api/netbuf.c **** 
  45:Middlewares/Third_Party/LwIP/src/api/netbuf.c **** #include "lwip/opt.h"
  46:Middlewares/Third_Party/LwIP/src/api/netbuf.c **** 
  47:Middlewares/Third_Party/LwIP/src/api/netbuf.c **** #if LWIP_NETCONN /* don't build if not configured for use in lwipopts.h */
  48:Middlewares/Third_Party/LwIP/src/api/netbuf.c **** 
  49:Middlewares/Third_Party/LwIP/src/api/netbuf.c **** #include "lwip/netbuf.h"
  50:Middlewares/Third_Party/LwIP/src/api/netbuf.c **** #include "lwip/memp.h"
  51:Middlewares/Third_Party/LwIP/src/api/netbuf.c **** 
  52:Middlewares/Third_Party/LwIP/src/api/netbuf.c **** #include <string.h>
  53:Middlewares/Third_Party/LwIP/src/api/netbuf.c **** 
  54:Middlewares/Third_Party/LwIP/src/api/netbuf.c **** /**
  55:Middlewares/Third_Party/LwIP/src/api/netbuf.c ****  * @ingroup netbuf
  56:Middlewares/Third_Party/LwIP/src/api/netbuf.c ****  * Create (allocate) and initialize a new netbuf.
  57:Middlewares/Third_Party/LwIP/src/api/netbuf.c ****  * The netbuf doesn't yet contain a packet buffer!
  58:Middlewares/Third_Party/LwIP/src/api/netbuf.c ****  *
  59:Middlewares/Third_Party/LwIP/src/api/netbuf.c ****  * @return a pointer to a new netbuf
  60:Middlewares/Third_Party/LwIP/src/api/netbuf.c ****  *         NULL on lack of memory
  61:Middlewares/Third_Party/LwIP/src/api/netbuf.c ****  */
  62:Middlewares/Third_Party/LwIP/src/api/netbuf.c **** struct
  63:Middlewares/Third_Party/LwIP/src/api/netbuf.c **** netbuf *netbuf_new(void)
  64:Middlewares/Third_Party/LwIP/src/api/netbuf.c **** {
  29              		.loc 1 64 1 view -0
  30              		.cfi_startproc
  31              		@ args = 0, pretend = 0, frame = 0
  32              		@ frame_needed = 0, uses_anonymous_args = 0
  33 0000 08B5     		push	{r3, lr}
  34              	.LCFI0:
  35              		.cfi_def_cfa_offset 8
  36              		.cfi_offset 3, -8
  37              		.cfi_offset 14, -4
  65:Middlewares/Third_Party/LwIP/src/api/netbuf.c ****   struct netbuf *buf;
  38              		.loc 1 65 3 view .LVU1
  66:Middlewares/Third_Party/LwIP/src/api/netbuf.c **** 
  67:Middlewares/Third_Party/LwIP/src/api/netbuf.c ****   buf = (struct netbuf *)memp_malloc(MEMP_NETBUF);
  39              		.loc 1 67 3 view .LVU2
  40              		.loc 1 67 26 is_stmt 0 view .LVU3
  41 0002 0620     		movs	r0, #6
  42 0004 FFF7FEFF 		bl	memp_malloc
  43              	.LVL0:
  68:Middlewares/Third_Party/LwIP/src/api/netbuf.c ****   if (buf != NULL) {
  44              		.loc 1 68 3 is_stmt 1 view .LVU4
  45              		.loc 1 68 6 is_stmt 0 view .LVU5
  46 0008 0346     		mov	r3, r0
  47 000a 20B1     		cbz	r0, .L1
ARM GAS  D:\Dev\msys64\tmp\cc0CI1qy.s 			page 3


  69:Middlewares/Third_Party/LwIP/src/api/netbuf.c ****     memset(buf, 0, sizeof(struct netbuf));
  48              		.loc 1 69 5 is_stmt 1 view .LVU6
  49 000c 0022     		movs	r2, #0
  50 000e 0260     		str	r2, [r0]	@ unaligned
  51 0010 4260     		str	r2, [r0, #4]	@ unaligned
  52 0012 8260     		str	r2, [r0, #8]	@ unaligned
  53 0014 C260     		str	r2, [r0, #12]	@ unaligned
  70:Middlewares/Third_Party/LwIP/src/api/netbuf.c ****   }
  71:Middlewares/Third_Party/LwIP/src/api/netbuf.c ****   return buf;
  54              		.loc 1 71 3 view .LVU7
  55              	.L1:
  72:Middlewares/Third_Party/LwIP/src/api/netbuf.c **** }
  56              		.loc 1 72 1 is_stmt 0 view .LVU8
  57 0016 1846     		mov	r0, r3
  58              	.LVL1:
  59              		.loc 1 72 1 view .LVU9
  60 0018 08BD     		pop	{r3, pc}
  61              		.loc 1 72 1 view .LVU10
  62              		.cfi_endproc
  63              	.LFE25:
  65              		.section	.text.netbuf_delete,"ax",%progbits
  66              		.align	1
  67              		.global	netbuf_delete
  68              		.syntax unified
  69              		.thumb
  70              		.thumb_func
  71              		.fpu fpv5-sp-d16
  73              	netbuf_delete:
  74              	.LVL2:
  75              	.LFB26:
  73:Middlewares/Third_Party/LwIP/src/api/netbuf.c **** 
  74:Middlewares/Third_Party/LwIP/src/api/netbuf.c **** /**
  75:Middlewares/Third_Party/LwIP/src/api/netbuf.c ****  * @ingroup netbuf
  76:Middlewares/Third_Party/LwIP/src/api/netbuf.c ****  * Deallocate a netbuf allocated by netbuf_new().
  77:Middlewares/Third_Party/LwIP/src/api/netbuf.c ****  *
  78:Middlewares/Third_Party/LwIP/src/api/netbuf.c ****  * @param buf pointer to a netbuf allocated by netbuf_new()
  79:Middlewares/Third_Party/LwIP/src/api/netbuf.c ****  */
  80:Middlewares/Third_Party/LwIP/src/api/netbuf.c **** void
  81:Middlewares/Third_Party/LwIP/src/api/netbuf.c **** netbuf_delete(struct netbuf *buf)
  82:Middlewares/Third_Party/LwIP/src/api/netbuf.c **** {
  76              		.loc 1 82 1 is_stmt 1 view -0
  77              		.cfi_startproc
  78              		@ args = 0, pretend = 0, frame = 0
  79              		@ frame_needed = 0, uses_anonymous_args = 0
  83:Middlewares/Third_Party/LwIP/src/api/netbuf.c ****   if (buf != NULL) {
  80              		.loc 1 83 3 view .LVU12
  81              		.loc 1 83 6 is_stmt 0 view .LVU13
  82 0000 68B1     		cbz	r0, .L8
  82:Middlewares/Third_Party/LwIP/src/api/netbuf.c ****   if (buf != NULL) {
  83              		.loc 1 82 1 view .LVU14
  84 0002 10B5     		push	{r4, lr}
  85              	.LCFI1:
  86              		.cfi_def_cfa_offset 8
  87              		.cfi_offset 4, -8
  88              		.cfi_offset 14, -4
  89 0004 0446     		mov	r4, r0
  84:Middlewares/Third_Party/LwIP/src/api/netbuf.c ****     if (buf->p != NULL) {
ARM GAS  D:\Dev\msys64\tmp\cc0CI1qy.s 			page 4


  90              		.loc 1 84 5 is_stmt 1 view .LVU15
  91              		.loc 1 84 12 is_stmt 0 view .LVU16
  92 0006 0068     		ldr	r0, [r0]
  93              	.LVL3:
  94              		.loc 1 84 8 view .LVU17
  95 0008 20B1     		cbz	r0, .L6
  85:Middlewares/Third_Party/LwIP/src/api/netbuf.c ****       pbuf_free(buf->p);
  96              		.loc 1 85 7 is_stmt 1 view .LVU18
  97 000a FFF7FEFF 		bl	pbuf_free
  98              	.LVL4:
  86:Middlewares/Third_Party/LwIP/src/api/netbuf.c ****       buf->p = buf->ptr = NULL;
  99              		.loc 1 86 7 view .LVU19
 100              		.loc 1 86 25 is_stmt 0 view .LVU20
 101 000e 0023     		movs	r3, #0
 102 0010 6360     		str	r3, [r4, #4]
 103              		.loc 1 86 14 view .LVU21
 104 0012 2360     		str	r3, [r4]
 105              	.L6:
  87:Middlewares/Third_Party/LwIP/src/api/netbuf.c ****     }
  88:Middlewares/Third_Party/LwIP/src/api/netbuf.c ****     memp_free(MEMP_NETBUF, buf);
 106              		.loc 1 88 5 is_stmt 1 view .LVU22
 107 0014 2146     		mov	r1, r4
 108 0016 0620     		movs	r0, #6
 109 0018 FFF7FEFF 		bl	memp_free
 110              	.LVL5:
  89:Middlewares/Third_Party/LwIP/src/api/netbuf.c ****   }
  90:Middlewares/Third_Party/LwIP/src/api/netbuf.c **** }
 111              		.loc 1 90 1 is_stmt 0 view .LVU23
 112 001c 10BD     		pop	{r4, pc}
 113              	.LVL6:
 114              	.L8:
 115              	.LCFI2:
 116              		.cfi_def_cfa_offset 0
 117              		.cfi_restore 4
 118              		.cfi_restore 14
 119              		.loc 1 90 1 view .LVU24
 120 001e 7047     		bx	lr
 121              		.cfi_endproc
 122              	.LFE26:
 124              		.section	.rodata.netbuf_alloc.str1.4,"aMS",%progbits,1
 125              		.align	2
 126              	.LC0:
 127 0000 4D696464 		.ascii	"Middlewares/Third_Party/LwIP/src/api/netbuf.c\000"
 127      6C657761 
 127      7265732F 
 127      54686972 
 127      645F5061 
 128 002e 0000     		.align	2
 129              	.LC1:
 130 0030 6E657462 		.ascii	"netbuf_alloc: invalid buf\000"
 130      75665F61 
 130      6C6C6F63 
 130      3A20696E 
 130      76616C69 
 131 004a 0000     		.align	2
 132              	.LC2:
 133 004c 41737365 		.ascii	"Assertion \"%s\" failed at line %d in %s\012\000"
ARM GAS  D:\Dev\msys64\tmp\cc0CI1qy.s 			page 5


 133      7274696F 
 133      6E202225 
 133      73222066 
 133      61696C65 
 134              		.align	2
 135              	.LC3:
 136 0074 63686563 		.ascii	"check that first pbuf can hold size\000"
 136      6B207468 
 136      61742066 
 136      69727374 
 136      20706275 
 137              		.section	.text.netbuf_alloc,"ax",%progbits
 138              		.align	1
 139              		.global	netbuf_alloc
 140              		.syntax unified
 141              		.thumb
 142              		.thumb_func
 143              		.fpu fpv5-sp-d16
 145              	netbuf_alloc:
 146              	.LVL7:
 147              	.LFB27:
  91:Middlewares/Third_Party/LwIP/src/api/netbuf.c **** 
  92:Middlewares/Third_Party/LwIP/src/api/netbuf.c **** /**
  93:Middlewares/Third_Party/LwIP/src/api/netbuf.c ****  * @ingroup netbuf
  94:Middlewares/Third_Party/LwIP/src/api/netbuf.c ****  * Allocate memory for a packet buffer for a given netbuf.
  95:Middlewares/Third_Party/LwIP/src/api/netbuf.c ****  *
  96:Middlewares/Third_Party/LwIP/src/api/netbuf.c ****  * @param buf the netbuf for which to allocate a packet buffer
  97:Middlewares/Third_Party/LwIP/src/api/netbuf.c ****  * @param size the size of the packet buffer to allocate
  98:Middlewares/Third_Party/LwIP/src/api/netbuf.c ****  * @return pointer to the allocated memory
  99:Middlewares/Third_Party/LwIP/src/api/netbuf.c ****  *         NULL if no memory could be allocated
 100:Middlewares/Third_Party/LwIP/src/api/netbuf.c ****  */
 101:Middlewares/Third_Party/LwIP/src/api/netbuf.c **** void *
 102:Middlewares/Third_Party/LwIP/src/api/netbuf.c **** netbuf_alloc(struct netbuf *buf, u16_t size)
 103:Middlewares/Third_Party/LwIP/src/api/netbuf.c **** {
 148              		.loc 1 103 1 is_stmt 1 view -0
 149              		.cfi_startproc
 150              		@ args = 0, pretend = 0, frame = 0
 151              		@ frame_needed = 0, uses_anonymous_args = 0
 152              		.loc 1 103 1 is_stmt 0 view .LVU26
 153 0000 38B5     		push	{r3, r4, r5, lr}
 154              	.LCFI3:
 155              		.cfi_def_cfa_offset 16
 156              		.cfi_offset 3, -16
 157              		.cfi_offset 4, -12
 158              		.cfi_offset 5, -8
 159              		.cfi_offset 14, -4
 104:Middlewares/Third_Party/LwIP/src/api/netbuf.c ****   LWIP_ERROR("netbuf_alloc: invalid buf", (buf != NULL), return NULL;);
 160              		.loc 1 104 3 is_stmt 1 view .LVU27
 161              		.loc 1 104 3 view .LVU28
 162 0002 0546     		mov	r5, r0
 163 0004 98B1     		cbz	r0, .L17
 164 0006 0C46     		mov	r4, r1
 165              		.loc 1 104 3 discriminator 2 view .LVU29
 166              		.loc 1 104 3 discriminator 2 view .LVU30
 105:Middlewares/Third_Party/LwIP/src/api/netbuf.c **** 
 106:Middlewares/Third_Party/LwIP/src/api/netbuf.c ****   /* Deallocate any previously allocated memory. */
 107:Middlewares/Third_Party/LwIP/src/api/netbuf.c ****   if (buf->p != NULL) {
ARM GAS  D:\Dev\msys64\tmp\cc0CI1qy.s 			page 6


 167              		.loc 1 107 3 discriminator 2 view .LVU31
 168              		.loc 1 107 10 is_stmt 0 discriminator 2 view .LVU32
 169 0008 0068     		ldr	r0, [r0]
 170              	.LVL8:
 171              		.loc 1 107 6 discriminator 2 view .LVU33
 172 000a 08B1     		cbz	r0, .L14
 108:Middlewares/Third_Party/LwIP/src/api/netbuf.c ****     pbuf_free(buf->p);
 173              		.loc 1 108 5 is_stmt 1 view .LVU34
 174 000c FFF7FEFF 		bl	pbuf_free
 175              	.LVL9:
 176              	.L14:
 109:Middlewares/Third_Party/LwIP/src/api/netbuf.c ****   }
 110:Middlewares/Third_Party/LwIP/src/api/netbuf.c ****   buf->p = pbuf_alloc(PBUF_TRANSPORT, size, PBUF_RAM);
 177              		.loc 1 110 3 view .LVU35
 178              		.loc 1 110 12 is_stmt 0 view .LVU36
 179 0010 4FF42072 		mov	r2, #640
 180 0014 2146     		mov	r1, r4
 181 0016 3620     		movs	r0, #54
 182 0018 FFF7FEFF 		bl	pbuf_alloc
 183              	.LVL10:
 184              		.loc 1 110 10 view .LVU37
 185 001c 2860     		str	r0, [r5]
 111:Middlewares/Third_Party/LwIP/src/api/netbuf.c ****   if (buf->p == NULL) {
 186              		.loc 1 111 3 is_stmt 1 view .LVU38
 187              		.loc 1 111 6 is_stmt 0 view .LVU39
 188 001e 28B1     		cbz	r0, .L11
 112:Middlewares/Third_Party/LwIP/src/api/netbuf.c ****     return NULL;
 113:Middlewares/Third_Party/LwIP/src/api/netbuf.c ****   }
 114:Middlewares/Third_Party/LwIP/src/api/netbuf.c ****   LWIP_ASSERT("check that first pbuf can hold size",
 189              		.loc 1 114 3 is_stmt 1 view .LVU40
 190              		.loc 1 114 3 view .LVU41
 191 0020 4389     		ldrh	r3, [r0, #10]
 192 0022 A342     		cmp	r3, r4
 193 0024 0BD3     		bcc	.L18
 194              	.L15:
 195              		.loc 1 114 3 discriminator 3 view .LVU42
 196              		.loc 1 114 3 discriminator 3 view .LVU43
 115:Middlewares/Third_Party/LwIP/src/api/netbuf.c ****               (buf->p->len >= size));
 116:Middlewares/Third_Party/LwIP/src/api/netbuf.c ****   buf->ptr = buf->p;
 197              		.loc 1 116 3 discriminator 3 view .LVU44
 198              		.loc 1 116 17 is_stmt 0 discriminator 3 view .LVU45
 199 0026 2B68     		ldr	r3, [r5]
 200              		.loc 1 116 12 discriminator 3 view .LVU46
 201 0028 6B60     		str	r3, [r5, #4]
 117:Middlewares/Third_Party/LwIP/src/api/netbuf.c ****   return buf->p->payload;
 202              		.loc 1 117 3 is_stmt 1 discriminator 3 view .LVU47
 203              		.loc 1 117 16 is_stmt 0 discriminator 3 view .LVU48
 204 002a 5868     		ldr	r0, [r3, #4]
 205              	.L11:
 118:Middlewares/Third_Party/LwIP/src/api/netbuf.c **** }
 206              		.loc 1 118 1 view .LVU49
 207 002c 38BD     		pop	{r3, r4, r5, pc}
 208              	.LVL11:
 209              	.L17:
 104:Middlewares/Third_Party/LwIP/src/api/netbuf.c **** 
 210              		.loc 1 104 3 is_stmt 1 discriminator 1 view .LVU50
 104:Middlewares/Third_Party/LwIP/src/api/netbuf.c **** 
ARM GAS  D:\Dev\msys64\tmp\cc0CI1qy.s 			page 7


 211              		.loc 1 104 3 discriminator 1 view .LVU51
 212 002e 074B     		ldr	r3, .L19
 213 0030 6822     		movs	r2, #104
 214 0032 0749     		ldr	r1, .L19+4
 215              	.LVL12:
 104:Middlewares/Third_Party/LwIP/src/api/netbuf.c **** 
 216              		.loc 1 104 3 is_stmt 0 discriminator 1 view .LVU52
 217 0034 0748     		ldr	r0, .L19+8
 218              	.LVL13:
 104:Middlewares/Third_Party/LwIP/src/api/netbuf.c **** 
 219              		.loc 1 104 3 discriminator 1 view .LVU53
 220 0036 FFF7FEFF 		bl	printf
 221              	.LVL14:
 104:Middlewares/Third_Party/LwIP/src/api/netbuf.c **** 
 222              		.loc 1 104 3 is_stmt 1 discriminator 1 view .LVU54
 104:Middlewares/Third_Party/LwIP/src/api/netbuf.c **** 
 223              		.loc 1 104 3 discriminator 1 view .LVU55
 224 003a 2846     		mov	r0, r5
 225 003c F6E7     		b	.L11
 226              	.L18:
 114:Middlewares/Third_Party/LwIP/src/api/netbuf.c ****               (buf->p->len >= size));
 227              		.loc 1 114 3 discriminator 1 view .LVU56
 114:Middlewares/Third_Party/LwIP/src/api/netbuf.c ****               (buf->p->len >= size));
 228              		.loc 1 114 3 discriminator 1 view .LVU57
 229 003e 034B     		ldr	r3, .L19
 230 0040 7222     		movs	r2, #114
 231 0042 0549     		ldr	r1, .L19+12
 232 0044 0348     		ldr	r0, .L19+8
 233 0046 FFF7FEFF 		bl	printf
 234              	.LVL15:
 235 004a ECE7     		b	.L15
 236              	.L20:
 237              		.align	2
 238              	.L19:
 239 004c 00000000 		.word	.LC0
 240 0050 30000000 		.word	.LC1
 241 0054 4C000000 		.word	.LC2
 242 0058 74000000 		.word	.LC3
 243              		.cfi_endproc
 244              	.LFE27:
 246              		.section	.rodata.netbuf_free.str1.4,"aMS",%progbits,1
 247              		.align	2
 248              	.LC4:
 249 0000 6E657462 		.ascii	"netbuf_free: invalid buf\000"
 249      75665F66 
 249      7265653A 
 249      20696E76 
 249      616C6964 
 250              		.section	.text.netbuf_free,"ax",%progbits
 251              		.align	1
 252              		.global	netbuf_free
 253              		.syntax unified
 254              		.thumb
 255              		.thumb_func
 256              		.fpu fpv5-sp-d16
 258              	netbuf_free:
 259              	.LVL16:
ARM GAS  D:\Dev\msys64\tmp\cc0CI1qy.s 			page 8


 260              	.LFB28:
 119:Middlewares/Third_Party/LwIP/src/api/netbuf.c **** 
 120:Middlewares/Third_Party/LwIP/src/api/netbuf.c **** /**
 121:Middlewares/Third_Party/LwIP/src/api/netbuf.c ****  * @ingroup netbuf
 122:Middlewares/Third_Party/LwIP/src/api/netbuf.c ****  * Free the packet buffer included in a netbuf
 123:Middlewares/Third_Party/LwIP/src/api/netbuf.c ****  *
 124:Middlewares/Third_Party/LwIP/src/api/netbuf.c ****  * @param buf pointer to the netbuf which contains the packet buffer to free
 125:Middlewares/Third_Party/LwIP/src/api/netbuf.c ****  */
 126:Middlewares/Third_Party/LwIP/src/api/netbuf.c **** void
 127:Middlewares/Third_Party/LwIP/src/api/netbuf.c **** netbuf_free(struct netbuf *buf)
 128:Middlewares/Third_Party/LwIP/src/api/netbuf.c **** {
 261              		.loc 1 128 1 view -0
 262              		.cfi_startproc
 263              		@ args = 0, pretend = 0, frame = 0
 264              		@ frame_needed = 0, uses_anonymous_args = 0
 265              		.loc 1 128 1 is_stmt 0 view .LVU59
 266 0000 10B5     		push	{r4, lr}
 267              	.LCFI4:
 268              		.cfi_def_cfa_offset 8
 269              		.cfi_offset 4, -8
 270              		.cfi_offset 14, -4
 129:Middlewares/Third_Party/LwIP/src/api/netbuf.c ****   LWIP_ERROR("netbuf_free: invalid buf", (buf != NULL), return;);
 271              		.loc 1 129 3 is_stmt 1 view .LVU60
 272              		.loc 1 129 3 view .LVU61
 273 0002 40B1     		cbz	r0, .L26
 274 0004 0446     		mov	r4, r0
 275              		.loc 1 129 3 discriminator 2 view .LVU62
 276              		.loc 1 129 3 discriminator 2 view .LVU63
 130:Middlewares/Third_Party/LwIP/src/api/netbuf.c ****   if (buf->p != NULL) {
 277              		.loc 1 130 3 discriminator 2 view .LVU64
 278              		.loc 1 130 10 is_stmt 0 discriminator 2 view .LVU65
 279 0006 0068     		ldr	r0, [r0]
 280              	.LVL17:
 281              		.loc 1 130 6 discriminator 2 view .LVU66
 282 0008 08B1     		cbz	r0, .L24
 131:Middlewares/Third_Party/LwIP/src/api/netbuf.c ****     pbuf_free(buf->p);
 283              		.loc 1 131 5 is_stmt 1 view .LVU67
 284 000a FFF7FEFF 		bl	pbuf_free
 285              	.LVL18:
 286              	.L24:
 132:Middlewares/Third_Party/LwIP/src/api/netbuf.c ****   }
 133:Middlewares/Third_Party/LwIP/src/api/netbuf.c ****   buf->p = buf->ptr = NULL;
 287              		.loc 1 133 3 view .LVU68
 288              		.loc 1 133 21 is_stmt 0 view .LVU69
 289 000e 0023     		movs	r3, #0
 290 0010 6360     		str	r3, [r4, #4]
 291              		.loc 1 133 10 view .LVU70
 292 0012 2360     		str	r3, [r4]
 293              	.LVL19:
 294              	.L21:
 134:Middlewares/Third_Party/LwIP/src/api/netbuf.c **** #if LWIP_CHECKSUM_ON_COPY
 135:Middlewares/Third_Party/LwIP/src/api/netbuf.c ****   buf->flags = 0;
 136:Middlewares/Third_Party/LwIP/src/api/netbuf.c ****   buf->toport_chksum = 0;
 137:Middlewares/Third_Party/LwIP/src/api/netbuf.c **** #endif /* LWIP_CHECKSUM_ON_COPY */
 138:Middlewares/Third_Party/LwIP/src/api/netbuf.c **** }
 295              		.loc 1 138 1 view .LVU71
 296 0014 10BD     		pop	{r4, pc}
ARM GAS  D:\Dev\msys64\tmp\cc0CI1qy.s 			page 9


 297              	.LVL20:
 298              	.L26:
 129:Middlewares/Third_Party/LwIP/src/api/netbuf.c ****   if (buf->p != NULL) {
 299              		.loc 1 129 3 is_stmt 1 discriminator 1 view .LVU72
 129:Middlewares/Third_Party/LwIP/src/api/netbuf.c ****   if (buf->p != NULL) {
 300              		.loc 1 129 3 discriminator 1 view .LVU73
 301 0016 034B     		ldr	r3, .L27
 302 0018 8122     		movs	r2, #129
 303 001a 0349     		ldr	r1, .L27+4
 304 001c 0348     		ldr	r0, .L27+8
 305              	.LVL21:
 129:Middlewares/Third_Party/LwIP/src/api/netbuf.c ****   if (buf->p != NULL) {
 306              		.loc 1 129 3 is_stmt 0 discriminator 1 view .LVU74
 307 001e FFF7FEFF 		bl	printf
 308              	.LVL22:
 129:Middlewares/Third_Party/LwIP/src/api/netbuf.c ****   if (buf->p != NULL) {
 309              		.loc 1 129 3 is_stmt 1 discriminator 1 view .LVU75
 129:Middlewares/Third_Party/LwIP/src/api/netbuf.c ****   if (buf->p != NULL) {
 310              		.loc 1 129 3 discriminator 1 view .LVU76
 311 0022 F7E7     		b	.L21
 312              	.L28:
 313              		.align	2
 314              	.L27:
 315 0024 00000000 		.word	.LC0
 316 0028 00000000 		.word	.LC4
 317 002c 4C000000 		.word	.LC2
 318              		.cfi_endproc
 319              	.LFE28:
 321              		.section	.rodata.netbuf_ref.str1.4,"aMS",%progbits,1
 322              		.align	2
 323              	.LC5:
 324 0000 6E657462 		.ascii	"netbuf_ref: invalid buf\000"
 324      75665F72 
 324      65663A20 
 324      696E7661 
 324      6C696420 
 325              		.section	.text.netbuf_ref,"ax",%progbits
 326              		.align	1
 327              		.global	netbuf_ref
 328              		.syntax unified
 329              		.thumb
 330              		.thumb_func
 331              		.fpu fpv5-sp-d16
 333              	netbuf_ref:
 334              	.LVL23:
 335              	.LFB29:
 139:Middlewares/Third_Party/LwIP/src/api/netbuf.c **** 
 140:Middlewares/Third_Party/LwIP/src/api/netbuf.c **** /**
 141:Middlewares/Third_Party/LwIP/src/api/netbuf.c ****  * @ingroup netbuf
 142:Middlewares/Third_Party/LwIP/src/api/netbuf.c ****  * Let a netbuf reference existing (non-volatile) data.
 143:Middlewares/Third_Party/LwIP/src/api/netbuf.c ****  *
 144:Middlewares/Third_Party/LwIP/src/api/netbuf.c ****  * @param buf netbuf which should reference the data
 145:Middlewares/Third_Party/LwIP/src/api/netbuf.c ****  * @param dataptr pointer to the data to reference
 146:Middlewares/Third_Party/LwIP/src/api/netbuf.c ****  * @param size size of the data
 147:Middlewares/Third_Party/LwIP/src/api/netbuf.c ****  * @return ERR_OK if data is referenced
 148:Middlewares/Third_Party/LwIP/src/api/netbuf.c ****  *         ERR_MEM if data couldn't be referenced due to lack of memory
 149:Middlewares/Third_Party/LwIP/src/api/netbuf.c ****  */
ARM GAS  D:\Dev\msys64\tmp\cc0CI1qy.s 			page 10


 150:Middlewares/Third_Party/LwIP/src/api/netbuf.c **** err_t
 151:Middlewares/Third_Party/LwIP/src/api/netbuf.c **** netbuf_ref(struct netbuf *buf, const void *dataptr, u16_t size)
 152:Middlewares/Third_Party/LwIP/src/api/netbuf.c **** {
 336              		.loc 1 152 1 view -0
 337              		.cfi_startproc
 338              		@ args = 0, pretend = 0, frame = 0
 339              		@ frame_needed = 0, uses_anonymous_args = 0
 340              		.loc 1 152 1 is_stmt 0 view .LVU78
 341 0000 70B5     		push	{r4, r5, r6, lr}
 342              	.LCFI5:
 343              		.cfi_def_cfa_offset 16
 344              		.cfi_offset 4, -16
 345              		.cfi_offset 5, -12
 346              		.cfi_offset 6, -8
 347              		.cfi_offset 14, -4
 153:Middlewares/Third_Party/LwIP/src/api/netbuf.c ****   LWIP_ERROR("netbuf_ref: invalid buf", (buf != NULL), return ERR_ARG;);
 348              		.loc 1 153 3 is_stmt 1 view .LVU79
 349              		.loc 1 153 3 view .LVU80
 350 0002 B0B1     		cbz	r0, .L35
 351 0004 0E46     		mov	r6, r1
 352 0006 1546     		mov	r5, r2
 353 0008 0446     		mov	r4, r0
 354              		.loc 1 153 3 discriminator 2 view .LVU81
 355              		.loc 1 153 3 discriminator 2 view .LVU82
 154:Middlewares/Third_Party/LwIP/src/api/netbuf.c ****   if (buf->p != NULL) {
 356              		.loc 1 154 3 discriminator 2 view .LVU83
 357              		.loc 1 154 10 is_stmt 0 discriminator 2 view .LVU84
 358 000a 0068     		ldr	r0, [r0]
 359              	.LVL24:
 360              		.loc 1 154 6 discriminator 2 view .LVU85
 361 000c 08B1     		cbz	r0, .L32
 155:Middlewares/Third_Party/LwIP/src/api/netbuf.c ****     pbuf_free(buf->p);
 362              		.loc 1 155 5 is_stmt 1 view .LVU86
 363 000e FFF7FEFF 		bl	pbuf_free
 364              	.LVL25:
 365              	.L32:
 156:Middlewares/Third_Party/LwIP/src/api/netbuf.c ****   }
 157:Middlewares/Third_Party/LwIP/src/api/netbuf.c ****   buf->p = pbuf_alloc(PBUF_TRANSPORT, 0, PBUF_REF);
 366              		.loc 1 157 3 view .LVU87
 367              		.loc 1 157 12 is_stmt 0 view .LVU88
 368 0012 4122     		movs	r2, #65
 369 0014 0021     		movs	r1, #0
 370 0016 3620     		movs	r0, #54
 371 0018 FFF7FEFF 		bl	pbuf_alloc
 372              	.LVL26:
 373              		.loc 1 157 10 view .LVU89
 374 001c 2060     		str	r0, [r4]
 158:Middlewares/Third_Party/LwIP/src/api/netbuf.c ****   if (buf->p == NULL) {
 375              		.loc 1 158 3 is_stmt 1 view .LVU90
 376              		.loc 1 158 6 is_stmt 0 view .LVU91
 377 001e 88B1     		cbz	r0, .L36
 159:Middlewares/Third_Party/LwIP/src/api/netbuf.c ****     buf->ptr = NULL;
 160:Middlewares/Third_Party/LwIP/src/api/netbuf.c ****     return ERR_MEM;
 161:Middlewares/Third_Party/LwIP/src/api/netbuf.c ****   }
 162:Middlewares/Third_Party/LwIP/src/api/netbuf.c ****   ((struct pbuf_rom *)buf->p)->payload = dataptr;
 378              		.loc 1 162 3 is_stmt 1 view .LVU92
 379              		.loc 1 162 40 is_stmt 0 view .LVU93
ARM GAS  D:\Dev\msys64\tmp\cc0CI1qy.s 			page 11


 380 0020 4660     		str	r6, [r0, #4]
 163:Middlewares/Third_Party/LwIP/src/api/netbuf.c ****   buf->p->len = buf->p->tot_len = size;
 381              		.loc 1 163 3 is_stmt 1 view .LVU94
 382              		.loc 1 163 20 is_stmt 0 view .LVU95
 383 0022 2368     		ldr	r3, [r4]
 384              		.loc 1 163 33 view .LVU96
 385 0024 1D81     		strh	r5, [r3, #8]	@ movhi
 386              		.loc 1 163 6 view .LVU97
 387 0026 2368     		ldr	r3, [r4]
 388              		.loc 1 163 15 view .LVU98
 389 0028 5D81     		strh	r5, [r3, #10]	@ movhi
 164:Middlewares/Third_Party/LwIP/src/api/netbuf.c ****   buf->ptr = buf->p;
 390              		.loc 1 164 3 is_stmt 1 view .LVU99
 391              		.loc 1 164 17 is_stmt 0 view .LVU100
 392 002a 2368     		ldr	r3, [r4]
 393              		.loc 1 164 12 view .LVU101
 394 002c 6360     		str	r3, [r4, #4]
 165:Middlewares/Third_Party/LwIP/src/api/netbuf.c ****   return ERR_OK;
 395              		.loc 1 165 3 is_stmt 1 view .LVU102
 396              		.loc 1 165 10 is_stmt 0 view .LVU103
 397 002e 0020     		movs	r0, #0
 398              	.LVL27:
 399              	.L31:
 166:Middlewares/Third_Party/LwIP/src/api/netbuf.c **** }
 400              		.loc 1 166 1 view .LVU104
 401 0030 70BD     		pop	{r4, r5, r6, pc}
 402              	.LVL28:
 403              	.L35:
 153:Middlewares/Third_Party/LwIP/src/api/netbuf.c ****   if (buf->p != NULL) {
 404              		.loc 1 153 3 is_stmt 1 discriminator 1 view .LVU105
 153:Middlewares/Third_Party/LwIP/src/api/netbuf.c ****   if (buf->p != NULL) {
 405              		.loc 1 153 3 discriminator 1 view .LVU106
 406 0032 074B     		ldr	r3, .L37
 407 0034 9922     		movs	r2, #153
 408              	.LVL29:
 153:Middlewares/Third_Party/LwIP/src/api/netbuf.c ****   if (buf->p != NULL) {
 409              		.loc 1 153 3 is_stmt 0 discriminator 1 view .LVU107
 410 0036 0749     		ldr	r1, .L37+4
 411              	.LVL30:
 153:Middlewares/Third_Party/LwIP/src/api/netbuf.c ****   if (buf->p != NULL) {
 412              		.loc 1 153 3 discriminator 1 view .LVU108
 413 0038 0748     		ldr	r0, .L37+8
 414              	.LVL31:
 153:Middlewares/Third_Party/LwIP/src/api/netbuf.c ****   if (buf->p != NULL) {
 415              		.loc 1 153 3 discriminator 1 view .LVU109
 416 003a FFF7FEFF 		bl	printf
 417              	.LVL32:
 153:Middlewares/Third_Party/LwIP/src/api/netbuf.c ****   if (buf->p != NULL) {
 418              		.loc 1 153 3 is_stmt 1 discriminator 1 view .LVU110
 153:Middlewares/Third_Party/LwIP/src/api/netbuf.c ****   if (buf->p != NULL) {
 419              		.loc 1 153 3 discriminator 1 view .LVU111
 420 003e 6FF00F00 		mvn	r0, #15
 421 0042 F5E7     		b	.L31
 422              	.LVL33:
 423              	.L36:
 159:Middlewares/Third_Party/LwIP/src/api/netbuf.c ****     return ERR_MEM;
 424              		.loc 1 159 5 view .LVU112
ARM GAS  D:\Dev\msys64\tmp\cc0CI1qy.s 			page 12


 159:Middlewares/Third_Party/LwIP/src/api/netbuf.c ****     return ERR_MEM;
 425              		.loc 1 159 14 is_stmt 0 view .LVU113
 426 0044 0023     		movs	r3, #0
 427 0046 6360     		str	r3, [r4, #4]
 160:Middlewares/Third_Party/LwIP/src/api/netbuf.c ****   }
 428              		.loc 1 160 5 is_stmt 1 view .LVU114
 160:Middlewares/Third_Party/LwIP/src/api/netbuf.c ****   }
 429              		.loc 1 160 12 is_stmt 0 view .LVU115
 430 0048 4FF0FF30 		mov	r0, #-1
 431 004c F0E7     		b	.L31
 432              	.L38:
 433 004e 00BF     		.align	2
 434              	.L37:
 435 0050 00000000 		.word	.LC0
 436 0054 00000000 		.word	.LC5
 437 0058 4C000000 		.word	.LC2
 438              		.cfi_endproc
 439              	.LFE29:
 441              		.section	.rodata.netbuf_chain.str1.4,"aMS",%progbits,1
 442              		.align	2
 443              	.LC6:
 444 0000 6E657462 		.ascii	"netbuf_chain: invalid head\000"
 444      75665F63 
 444      6861696E 
 444      3A20696E 
 444      76616C69 
 445 001b 00       		.align	2
 446              	.LC7:
 447 001c 6E657462 		.ascii	"netbuf_chain: invalid tail\000"
 447      75665F63 
 447      6861696E 
 447      3A20696E 
 447      76616C69 
 448              		.section	.text.netbuf_chain,"ax",%progbits
 449              		.align	1
 450              		.global	netbuf_chain
 451              		.syntax unified
 452              		.thumb
 453              		.thumb_func
 454              		.fpu fpv5-sp-d16
 456              	netbuf_chain:
 457              	.LVL34:
 458              	.LFB30:
 167:Middlewares/Third_Party/LwIP/src/api/netbuf.c **** 
 168:Middlewares/Third_Party/LwIP/src/api/netbuf.c **** /**
 169:Middlewares/Third_Party/LwIP/src/api/netbuf.c ****  * @ingroup netbuf
 170:Middlewares/Third_Party/LwIP/src/api/netbuf.c ****  * Chain one netbuf to another (@see pbuf_chain)
 171:Middlewares/Third_Party/LwIP/src/api/netbuf.c ****  *
 172:Middlewares/Third_Party/LwIP/src/api/netbuf.c ****  * @param head the first netbuf
 173:Middlewares/Third_Party/LwIP/src/api/netbuf.c ****  * @param tail netbuf to chain after head, freed by this function, may not be reference after retur
 174:Middlewares/Third_Party/LwIP/src/api/netbuf.c ****  */
 175:Middlewares/Third_Party/LwIP/src/api/netbuf.c **** void
 176:Middlewares/Third_Party/LwIP/src/api/netbuf.c **** netbuf_chain(struct netbuf *head, struct netbuf *tail)
 177:Middlewares/Third_Party/LwIP/src/api/netbuf.c **** {
 459              		.loc 1 177 1 is_stmt 1 view -0
 460              		.cfi_startproc
 461              		@ args = 0, pretend = 0, frame = 0
ARM GAS  D:\Dev\msys64\tmp\cc0CI1qy.s 			page 13


 462              		@ frame_needed = 0, uses_anonymous_args = 0
 463              		.loc 1 177 1 is_stmt 0 view .LVU117
 464 0000 38B5     		push	{r3, r4, r5, lr}
 465              	.LCFI6:
 466              		.cfi_def_cfa_offset 16
 467              		.cfi_offset 3, -16
 468              		.cfi_offset 4, -12
 469              		.cfi_offset 5, -8
 470              		.cfi_offset 14, -4
 178:Middlewares/Third_Party/LwIP/src/api/netbuf.c ****   LWIP_ERROR("netbuf_chain: invalid head", (head != NULL), return;);
 471              		.loc 1 178 3 is_stmt 1 view .LVU118
 472              		.loc 1 178 3 view .LVU119
 473 0002 68B1     		cbz	r0, .L44
 474 0004 0C46     		mov	r4, r1
 475 0006 0546     		mov	r5, r0
 476              		.loc 1 178 3 discriminator 2 view .LVU120
 477              		.loc 1 178 3 discriminator 2 view .LVU121
 179:Middlewares/Third_Party/LwIP/src/api/netbuf.c ****   LWIP_ERROR("netbuf_chain: invalid tail", (tail != NULL), return;);
 478              		.loc 1 179 3 discriminator 2 view .LVU122
 479              		.loc 1 179 3 discriminator 2 view .LVU123
 480 0008 89B1     		cbz	r1, .L45
 481              		.loc 1 179 3 discriminator 2 view .LVU124
 482              		.loc 1 179 3 discriminator 2 view .LVU125
 180:Middlewares/Third_Party/LwIP/src/api/netbuf.c ****   pbuf_cat(head->p, tail->p);
 483              		.loc 1 180 3 discriminator 2 view .LVU126
 484 000a 0968     		ldr	r1, [r1]
 485              	.LVL35:
 486              		.loc 1 180 3 is_stmt 0 discriminator 2 view .LVU127
 487 000c 0068     		ldr	r0, [r0]
 488              	.LVL36:
 489              		.loc 1 180 3 discriminator 2 view .LVU128
 490 000e FFF7FEFF 		bl	pbuf_cat
 491              	.LVL37:
 181:Middlewares/Third_Party/LwIP/src/api/netbuf.c ****   head->ptr = head->p;
 492              		.loc 1 181 3 is_stmt 1 discriminator 2 view .LVU129
 493              		.loc 1 181 19 is_stmt 0 discriminator 2 view .LVU130
 494 0012 2B68     		ldr	r3, [r5]
 495              		.loc 1 181 13 discriminator 2 view .LVU131
 496 0014 6B60     		str	r3, [r5, #4]
 182:Middlewares/Third_Party/LwIP/src/api/netbuf.c ****   memp_free(MEMP_NETBUF, tail);
 497              		.loc 1 182 3 is_stmt 1 discriminator 2 view .LVU132
 498 0016 2146     		mov	r1, r4
 499 0018 0620     		movs	r0, #6
 500 001a FFF7FEFF 		bl	memp_free
 501              	.LVL38:
 502              	.L39:
 183:Middlewares/Third_Party/LwIP/src/api/netbuf.c **** }
 503              		.loc 1 183 1 is_stmt 0 view .LVU133
 504 001e 38BD     		pop	{r3, r4, r5, pc}
 505              	.LVL39:
 506              	.L44:
 178:Middlewares/Third_Party/LwIP/src/api/netbuf.c ****   LWIP_ERROR("netbuf_chain: invalid tail", (tail != NULL), return;);
 507              		.loc 1 178 3 is_stmt 1 discriminator 1 view .LVU134
 178:Middlewares/Third_Party/LwIP/src/api/netbuf.c ****   LWIP_ERROR("netbuf_chain: invalid tail", (tail != NULL), return;);
 508              		.loc 1 178 3 discriminator 1 view .LVU135
 509 0020 064B     		ldr	r3, .L46
 510 0022 B222     		movs	r2, #178
ARM GAS  D:\Dev\msys64\tmp\cc0CI1qy.s 			page 14


 511 0024 0649     		ldr	r1, .L46+4
 512              	.LVL40:
 178:Middlewares/Third_Party/LwIP/src/api/netbuf.c ****   LWIP_ERROR("netbuf_chain: invalid tail", (tail != NULL), return;);
 513              		.loc 1 178 3 is_stmt 0 discriminator 1 view .LVU136
 514 0026 0748     		ldr	r0, .L46+8
 515              	.LVL41:
 178:Middlewares/Third_Party/LwIP/src/api/netbuf.c ****   LWIP_ERROR("netbuf_chain: invalid tail", (tail != NULL), return;);
 516              		.loc 1 178 3 discriminator 1 view .LVU137
 517 0028 FFF7FEFF 		bl	printf
 518              	.LVL42:
 178:Middlewares/Third_Party/LwIP/src/api/netbuf.c ****   LWIP_ERROR("netbuf_chain: invalid tail", (tail != NULL), return;);
 519              		.loc 1 178 3 is_stmt 1 discriminator 1 view .LVU138
 178:Middlewares/Third_Party/LwIP/src/api/netbuf.c ****   LWIP_ERROR("netbuf_chain: invalid tail", (tail != NULL), return;);
 520              		.loc 1 178 3 discriminator 1 view .LVU139
 521 002c F7E7     		b	.L39
 522              	.LVL43:
 523              	.L45:
 179:Middlewares/Third_Party/LwIP/src/api/netbuf.c ****   pbuf_cat(head->p, tail->p);
 524              		.loc 1 179 3 discriminator 1 view .LVU140
 179:Middlewares/Third_Party/LwIP/src/api/netbuf.c ****   pbuf_cat(head->p, tail->p);
 525              		.loc 1 179 3 discriminator 1 view .LVU141
 526 002e 034B     		ldr	r3, .L46
 527 0030 B322     		movs	r2, #179
 528 0032 0549     		ldr	r1, .L46+12
 529              	.LVL44:
 179:Middlewares/Third_Party/LwIP/src/api/netbuf.c ****   pbuf_cat(head->p, tail->p);
 530              		.loc 1 179 3 is_stmt 0 discriminator 1 view .LVU142
 531 0034 0348     		ldr	r0, .L46+8
 532              	.LVL45:
 179:Middlewares/Third_Party/LwIP/src/api/netbuf.c ****   pbuf_cat(head->p, tail->p);
 533              		.loc 1 179 3 discriminator 1 view .LVU143
 534 0036 FFF7FEFF 		bl	printf
 535              	.LVL46:
 179:Middlewares/Third_Party/LwIP/src/api/netbuf.c ****   pbuf_cat(head->p, tail->p);
 536              		.loc 1 179 3 is_stmt 1 discriminator 1 view .LVU144
 179:Middlewares/Third_Party/LwIP/src/api/netbuf.c ****   pbuf_cat(head->p, tail->p);
 537              		.loc 1 179 3 discriminator 1 view .LVU145
 538 003a F0E7     		b	.L39
 539              	.L47:
 540              		.align	2
 541              	.L46:
 542 003c 00000000 		.word	.LC0
 543 0040 00000000 		.word	.LC6
 544 0044 4C000000 		.word	.LC2
 545 0048 1C000000 		.word	.LC7
 546              		.cfi_endproc
 547              	.LFE30:
 549              		.section	.rodata.netbuf_data.str1.4,"aMS",%progbits,1
 550              		.align	2
 551              	.LC8:
 552 0000 6E657462 		.ascii	"netbuf_data: invalid buf\000"
 552      75665F64 
 552      6174613A 
 552      20696E76 
 552      616C6964 
 553 0019 000000   		.align	2
 554              	.LC9:
ARM GAS  D:\Dev\msys64\tmp\cc0CI1qy.s 			page 15


 555 001c 6E657462 		.ascii	"netbuf_data: invalid dataptr\000"
 555      75665F64 
 555      6174613A 
 555      20696E76 
 555      616C6964 
 556 0039 000000   		.align	2
 557              	.LC10:
 558 003c 6E657462 		.ascii	"netbuf_data: invalid len\000"
 558      75665F64 
 558      6174613A 
 558      20696E76 
 558      616C6964 
 559              		.section	.text.netbuf_data,"ax",%progbits
 560              		.align	1
 561              		.global	netbuf_data
 562              		.syntax unified
 563              		.thumb
 564              		.thumb_func
 565              		.fpu fpv5-sp-d16
 567              	netbuf_data:
 568              	.LVL47:
 569              	.LFB31:
 184:Middlewares/Third_Party/LwIP/src/api/netbuf.c **** 
 185:Middlewares/Third_Party/LwIP/src/api/netbuf.c **** /**
 186:Middlewares/Third_Party/LwIP/src/api/netbuf.c ****  * @ingroup netbuf
 187:Middlewares/Third_Party/LwIP/src/api/netbuf.c ****  * Get the data pointer and length of the data inside a netbuf.
 188:Middlewares/Third_Party/LwIP/src/api/netbuf.c ****  *
 189:Middlewares/Third_Party/LwIP/src/api/netbuf.c ****  * @param buf netbuf to get the data from
 190:Middlewares/Third_Party/LwIP/src/api/netbuf.c ****  * @param dataptr pointer to a void pointer where to store the data pointer
 191:Middlewares/Third_Party/LwIP/src/api/netbuf.c ****  * @param len pointer to an u16_t where the length of the data is stored
 192:Middlewares/Third_Party/LwIP/src/api/netbuf.c ****  * @return ERR_OK if the information was retrieved,
 193:Middlewares/Third_Party/LwIP/src/api/netbuf.c ****  *         ERR_BUF on error.
 194:Middlewares/Third_Party/LwIP/src/api/netbuf.c ****  */
 195:Middlewares/Third_Party/LwIP/src/api/netbuf.c **** err_t
 196:Middlewares/Third_Party/LwIP/src/api/netbuf.c **** netbuf_data(struct netbuf *buf, void **dataptr, u16_t *len)
 197:Middlewares/Third_Party/LwIP/src/api/netbuf.c **** {
 570              		.loc 1 197 1 view -0
 571              		.cfi_startproc
 572              		@ args = 0, pretend = 0, frame = 0
 573              		@ frame_needed = 0, uses_anonymous_args = 0
 574              		.loc 1 197 1 is_stmt 0 view .LVU147
 575 0000 08B5     		push	{r3, lr}
 576              	.LCFI7:
 577              		.cfi_def_cfa_offset 8
 578              		.cfi_offset 3, -8
 579              		.cfi_offset 14, -4
 198:Middlewares/Third_Party/LwIP/src/api/netbuf.c ****   LWIP_ERROR("netbuf_data: invalid buf", (buf != NULL), return ERR_ARG;);
 580              		.loc 1 198 3 is_stmt 1 view .LVU148
 581              		.loc 1 198 3 view .LVU149
 582 0002 58B1     		cbz	r0, .L55
 583 0004 0346     		mov	r3, r0
 584              		.loc 1 198 3 discriminator 2 view .LVU150
 585              		.loc 1 198 3 discriminator 2 view .LVU151
 199:Middlewares/Third_Party/LwIP/src/api/netbuf.c ****   LWIP_ERROR("netbuf_data: invalid dataptr", (dataptr != NULL), return ERR_ARG;);
 586              		.loc 1 199 3 discriminator 2 view .LVU152
 587              		.loc 1 199 3 discriminator 2 view .LVU153
 588 0006 91B1     		cbz	r1, .L56
ARM GAS  D:\Dev\msys64\tmp\cc0CI1qy.s 			page 16


 589              		.loc 1 199 3 discriminator 2 view .LVU154
 590              		.loc 1 199 3 discriminator 2 view .LVU155
 200:Middlewares/Third_Party/LwIP/src/api/netbuf.c ****   LWIP_ERROR("netbuf_data: invalid len", (len != NULL), return ERR_ARG;);
 591              		.loc 1 200 3 discriminator 2 view .LVU156
 592              		.loc 1 200 3 discriminator 2 view .LVU157
 593 0008 D2B1     		cbz	r2, .L57
 594              		.loc 1 200 3 discriminator 2 view .LVU158
 595              		.loc 1 200 3 discriminator 2 view .LVU159
 201:Middlewares/Third_Party/LwIP/src/api/netbuf.c **** 
 202:Middlewares/Third_Party/LwIP/src/api/netbuf.c ****   if (buf->ptr == NULL) {
 596              		.loc 1 202 3 discriminator 2 view .LVU160
 597              		.loc 1 202 10 is_stmt 0 discriminator 2 view .LVU161
 598 000a 4068     		ldr	r0, [r0, #4]
 599              	.LVL48:
 600              		.loc 1 202 6 discriminator 2 view .LVU162
 601 000c 08B3     		cbz	r0, .L53
 203:Middlewares/Third_Party/LwIP/src/api/netbuf.c ****     return ERR_BUF;
 204:Middlewares/Third_Party/LwIP/src/api/netbuf.c ****   }
 205:Middlewares/Third_Party/LwIP/src/api/netbuf.c ****   *dataptr = buf->ptr->payload;
 602              		.loc 1 205 3 is_stmt 1 view .LVU163
 603              		.loc 1 205 22 is_stmt 0 view .LVU164
 604 000e 4068     		ldr	r0, [r0, #4]
 605              		.loc 1 205 12 view .LVU165
 606 0010 0860     		str	r0, [r1]
 206:Middlewares/Third_Party/LwIP/src/api/netbuf.c ****   *len = buf->ptr->len;
 607              		.loc 1 206 3 is_stmt 1 view .LVU166
 608              		.loc 1 206 13 is_stmt 0 view .LVU167
 609 0012 5B68     		ldr	r3, [r3, #4]
 610              	.LVL49:
 611              		.loc 1 206 18 view .LVU168
 612 0014 5B89     		ldrh	r3, [r3, #10]
 613              		.loc 1 206 8 view .LVU169
 614 0016 1380     		strh	r3, [r2]	@ movhi
 207:Middlewares/Third_Party/LwIP/src/api/netbuf.c ****   return ERR_OK;
 615              		.loc 1 207 3 is_stmt 1 view .LVU170
 616              		.loc 1 207 10 is_stmt 0 view .LVU171
 617 0018 0020     		movs	r0, #0
 618              	.LVL50:
 619              	.L50:
 208:Middlewares/Third_Party/LwIP/src/api/netbuf.c **** }
 620              		.loc 1 208 1 view .LVU172
 621 001a 08BD     		pop	{r3, pc}
 622              	.LVL51:
 623              	.L55:
 198:Middlewares/Third_Party/LwIP/src/api/netbuf.c ****   LWIP_ERROR("netbuf_data: invalid dataptr", (dataptr != NULL), return ERR_ARG;);
 624              		.loc 1 198 3 is_stmt 1 discriminator 1 view .LVU173
 198:Middlewares/Third_Party/LwIP/src/api/netbuf.c ****   LWIP_ERROR("netbuf_data: invalid dataptr", (dataptr != NULL), return ERR_ARG;);
 625              		.loc 1 198 3 discriminator 1 view .LVU174
 626 001c 0E4B     		ldr	r3, .L58
 627 001e C622     		movs	r2, #198
 628              	.LVL52:
 198:Middlewares/Third_Party/LwIP/src/api/netbuf.c ****   LWIP_ERROR("netbuf_data: invalid dataptr", (dataptr != NULL), return ERR_ARG;);
 629              		.loc 1 198 3 is_stmt 0 discriminator 1 view .LVU175
 630 0020 0E49     		ldr	r1, .L58+4
 631              	.LVL53:
 198:Middlewares/Third_Party/LwIP/src/api/netbuf.c ****   LWIP_ERROR("netbuf_data: invalid dataptr", (dataptr != NULL), return ERR_ARG;);
 632              		.loc 1 198 3 discriminator 1 view .LVU176
ARM GAS  D:\Dev\msys64\tmp\cc0CI1qy.s 			page 17


 633 0022 0F48     		ldr	r0, .L58+8
 634              	.LVL54:
 198:Middlewares/Third_Party/LwIP/src/api/netbuf.c ****   LWIP_ERROR("netbuf_data: invalid dataptr", (dataptr != NULL), return ERR_ARG;);
 635              		.loc 1 198 3 discriminator 1 view .LVU177
 636 0024 FFF7FEFF 		bl	printf
 637              	.LVL55:
 198:Middlewares/Third_Party/LwIP/src/api/netbuf.c ****   LWIP_ERROR("netbuf_data: invalid dataptr", (dataptr != NULL), return ERR_ARG;);
 638              		.loc 1 198 3 is_stmt 1 discriminator 1 view .LVU178
 198:Middlewares/Third_Party/LwIP/src/api/netbuf.c ****   LWIP_ERROR("netbuf_data: invalid dataptr", (dataptr != NULL), return ERR_ARG;);
 639              		.loc 1 198 3 discriminator 1 view .LVU179
 640 0028 6FF00F00 		mvn	r0, #15
 641 002c F5E7     		b	.L50
 642              	.LVL56:
 643              	.L56:
 199:Middlewares/Third_Party/LwIP/src/api/netbuf.c ****   LWIP_ERROR("netbuf_data: invalid len", (len != NULL), return ERR_ARG;);
 644              		.loc 1 199 3 discriminator 1 view .LVU180
 199:Middlewares/Third_Party/LwIP/src/api/netbuf.c ****   LWIP_ERROR("netbuf_data: invalid len", (len != NULL), return ERR_ARG;);
 645              		.loc 1 199 3 discriminator 1 view .LVU181
 646 002e 0A4B     		ldr	r3, .L58
 647 0030 C722     		movs	r2, #199
 648              	.LVL57:
 199:Middlewares/Third_Party/LwIP/src/api/netbuf.c ****   LWIP_ERROR("netbuf_data: invalid len", (len != NULL), return ERR_ARG;);
 649              		.loc 1 199 3 is_stmt 0 discriminator 1 view .LVU182
 650 0032 0C49     		ldr	r1, .L58+12
 651              	.LVL58:
 199:Middlewares/Third_Party/LwIP/src/api/netbuf.c ****   LWIP_ERROR("netbuf_data: invalid len", (len != NULL), return ERR_ARG;);
 652              		.loc 1 199 3 discriminator 1 view .LVU183
 653 0034 0A48     		ldr	r0, .L58+8
 654              	.LVL59:
 199:Middlewares/Third_Party/LwIP/src/api/netbuf.c ****   LWIP_ERROR("netbuf_data: invalid len", (len != NULL), return ERR_ARG;);
 655              		.loc 1 199 3 discriminator 1 view .LVU184
 656 0036 FFF7FEFF 		bl	printf
 657              	.LVL60:
 199:Middlewares/Third_Party/LwIP/src/api/netbuf.c ****   LWIP_ERROR("netbuf_data: invalid len", (len != NULL), return ERR_ARG;);
 658              		.loc 1 199 3 is_stmt 1 discriminator 1 view .LVU185
 199:Middlewares/Third_Party/LwIP/src/api/netbuf.c ****   LWIP_ERROR("netbuf_data: invalid len", (len != NULL), return ERR_ARG;);
 659              		.loc 1 199 3 discriminator 1 view .LVU186
 660 003a 6FF00F00 		mvn	r0, #15
 661 003e ECE7     		b	.L50
 662              	.LVL61:
 663              	.L57:
 200:Middlewares/Third_Party/LwIP/src/api/netbuf.c **** 
 664              		.loc 1 200 3 discriminator 1 view .LVU187
 200:Middlewares/Third_Party/LwIP/src/api/netbuf.c **** 
 665              		.loc 1 200 3 discriminator 1 view .LVU188
 666 0040 054B     		ldr	r3, .L58
 667 0042 C822     		movs	r2, #200
 668              	.LVL62:
 200:Middlewares/Third_Party/LwIP/src/api/netbuf.c **** 
 669              		.loc 1 200 3 is_stmt 0 discriminator 1 view .LVU189
 670 0044 0849     		ldr	r1, .L58+16
 671              	.LVL63:
 200:Middlewares/Third_Party/LwIP/src/api/netbuf.c **** 
 672              		.loc 1 200 3 discriminator 1 view .LVU190
 673 0046 0648     		ldr	r0, .L58+8
 674              	.LVL64:
 200:Middlewares/Third_Party/LwIP/src/api/netbuf.c **** 
ARM GAS  D:\Dev\msys64\tmp\cc0CI1qy.s 			page 18


 675              		.loc 1 200 3 discriminator 1 view .LVU191
 676 0048 FFF7FEFF 		bl	printf
 677              	.LVL65:
 200:Middlewares/Third_Party/LwIP/src/api/netbuf.c **** 
 678              		.loc 1 200 3 is_stmt 1 discriminator 1 view .LVU192
 200:Middlewares/Third_Party/LwIP/src/api/netbuf.c **** 
 679              		.loc 1 200 3 discriminator 1 view .LVU193
 680 004c 6FF00F00 		mvn	r0, #15
 681 0050 E3E7     		b	.L50
 682              	.LVL66:
 683              	.L53:
 203:Middlewares/Third_Party/LwIP/src/api/netbuf.c ****   }
 684              		.loc 1 203 12 is_stmt 0 view .LVU194
 685 0052 6FF00100 		mvn	r0, #1
 686 0056 E0E7     		b	.L50
 687              	.L59:
 688              		.align	2
 689              	.L58:
 690 0058 00000000 		.word	.LC0
 691 005c 00000000 		.word	.LC8
 692 0060 4C000000 		.word	.LC2
 693 0064 1C000000 		.word	.LC9
 694 0068 3C000000 		.word	.LC10
 695              		.cfi_endproc
 696              	.LFE31:
 698              		.section	.rodata.netbuf_next.str1.4,"aMS",%progbits,1
 699              		.align	2
 700              	.LC11:
 701 0000 6E657462 		.ascii	"netbuf_next: invalid buf\000"
 701      75665F6E 
 701      6578743A 
 701      20696E76 
 701      616C6964 
 702              		.section	.text.netbuf_next,"ax",%progbits
 703              		.align	1
 704              		.global	netbuf_next
 705              		.syntax unified
 706              		.thumb
 707              		.thumb_func
 708              		.fpu fpv5-sp-d16
 710              	netbuf_next:
 711              	.LVL67:
 712              	.LFB32:
 209:Middlewares/Third_Party/LwIP/src/api/netbuf.c **** 
 210:Middlewares/Third_Party/LwIP/src/api/netbuf.c **** /**
 211:Middlewares/Third_Party/LwIP/src/api/netbuf.c ****  * @ingroup netbuf
 212:Middlewares/Third_Party/LwIP/src/api/netbuf.c ****  * Move the current data pointer of a packet buffer contained in a netbuf
 213:Middlewares/Third_Party/LwIP/src/api/netbuf.c ****  * to the next part.
 214:Middlewares/Third_Party/LwIP/src/api/netbuf.c ****  * The packet buffer itself is not modified.
 215:Middlewares/Third_Party/LwIP/src/api/netbuf.c ****  *
 216:Middlewares/Third_Party/LwIP/src/api/netbuf.c ****  * @param buf the netbuf to modify
 217:Middlewares/Third_Party/LwIP/src/api/netbuf.c ****  * @return -1 if there is no next part
 218:Middlewares/Third_Party/LwIP/src/api/netbuf.c ****  *         1  if moved to the next part but now there is no next part
 219:Middlewares/Third_Party/LwIP/src/api/netbuf.c ****  *         0  if moved to the next part and there are still more parts
 220:Middlewares/Third_Party/LwIP/src/api/netbuf.c ****  */
 221:Middlewares/Third_Party/LwIP/src/api/netbuf.c **** s8_t
 222:Middlewares/Third_Party/LwIP/src/api/netbuf.c **** netbuf_next(struct netbuf *buf)
ARM GAS  D:\Dev\msys64\tmp\cc0CI1qy.s 			page 19


 223:Middlewares/Third_Party/LwIP/src/api/netbuf.c **** {
 713              		.loc 1 223 1 is_stmt 1 view -0
 714              		.cfi_startproc
 715              		@ args = 0, pretend = 0, frame = 0
 716              		@ frame_needed = 0, uses_anonymous_args = 0
 717              		.loc 1 223 1 is_stmt 0 view .LVU196
 718 0000 08B5     		push	{r3, lr}
 719              	.LCFI8:
 720              		.cfi_def_cfa_offset 8
 721              		.cfi_offset 3, -8
 722              		.cfi_offset 14, -4
 224:Middlewares/Third_Party/LwIP/src/api/netbuf.c ****   LWIP_ERROR("netbuf_next: invalid buf", (buf != NULL), return -1;);
 723              		.loc 1 224 3 is_stmt 1 view .LVU197
 724              		.loc 1 224 3 view .LVU198
 725 0002 38B1     		cbz	r0, .L66
 726              		.loc 1 224 3 discriminator 2 view .LVU199
 727              		.loc 1 224 3 discriminator 2 view .LVU200
 225:Middlewares/Third_Party/LwIP/src/api/netbuf.c ****   if (buf->ptr->next == NULL) {
 728              		.loc 1 225 3 discriminator 2 view .LVU201
 729              		.loc 1 225 10 is_stmt 0 discriminator 2 view .LVU202
 730 0004 4368     		ldr	r3, [r0, #4]
 731              		.loc 1 225 15 discriminator 2 view .LVU203
 732 0006 1B68     		ldr	r3, [r3]
 733              		.loc 1 225 6 discriminator 2 view .LVU204
 734 0008 6BB1     		cbz	r3, .L63
 226:Middlewares/Third_Party/LwIP/src/api/netbuf.c ****     return -1;
 227:Middlewares/Third_Party/LwIP/src/api/netbuf.c ****   }
 228:Middlewares/Third_Party/LwIP/src/api/netbuf.c ****   buf->ptr = buf->ptr->next;
 735              		.loc 1 228 3 is_stmt 1 view .LVU205
 736              		.loc 1 228 12 is_stmt 0 view .LVU206
 737 000a 4360     		str	r3, [r0, #4]
 229:Middlewares/Third_Party/LwIP/src/api/netbuf.c ****   if (buf->ptr->next == NULL) {
 738              		.loc 1 229 3 is_stmt 1 view .LVU207
 739              		.loc 1 229 15 is_stmt 0 view .LVU208
 740 000c 1B68     		ldr	r3, [r3]
 741              		.loc 1 229 6 view .LVU209
 742 000e 6BB1     		cbz	r3, .L64
 230:Middlewares/Third_Party/LwIP/src/api/netbuf.c ****     return 1;
 231:Middlewares/Third_Party/LwIP/src/api/netbuf.c ****   }
 232:Middlewares/Third_Party/LwIP/src/api/netbuf.c ****   return 0;
 743              		.loc 1 232 10 view .LVU210
 744 0010 0020     		movs	r0, #0
 745              	.LVL68:
 746              	.L62:
 233:Middlewares/Third_Party/LwIP/src/api/netbuf.c **** }
 747              		.loc 1 233 1 view .LVU211
 748 0012 08BD     		pop	{r3, pc}
 749              	.LVL69:
 750              	.L66:
 224:Middlewares/Third_Party/LwIP/src/api/netbuf.c ****   if (buf->ptr->next == NULL) {
 751              		.loc 1 224 3 is_stmt 1 discriminator 1 view .LVU212
 224:Middlewares/Third_Party/LwIP/src/api/netbuf.c ****   if (buf->ptr->next == NULL) {
 752              		.loc 1 224 3 discriminator 1 view .LVU213
 753 0014 064B     		ldr	r3, .L67
 754 0016 E022     		movs	r2, #224
 755 0018 0649     		ldr	r1, .L67+4
 756 001a 0748     		ldr	r0, .L67+8
ARM GAS  D:\Dev\msys64\tmp\cc0CI1qy.s 			page 20


 757              	.LVL70:
 224:Middlewares/Third_Party/LwIP/src/api/netbuf.c ****   if (buf->ptr->next == NULL) {
 758              		.loc 1 224 3 is_stmt 0 discriminator 1 view .LVU214
 759 001c FFF7FEFF 		bl	printf
 760              	.LVL71:
 224:Middlewares/Third_Party/LwIP/src/api/netbuf.c ****   if (buf->ptr->next == NULL) {
 761              		.loc 1 224 3 is_stmt 1 discriminator 1 view .LVU215
 224:Middlewares/Third_Party/LwIP/src/api/netbuf.c ****   if (buf->ptr->next == NULL) {
 762              		.loc 1 224 3 discriminator 1 view .LVU216
 763 0020 4FF0FF30 		mov	r0, #-1
 764 0024 F5E7     		b	.L62
 765              	.LVL72:
 766              	.L63:
 226:Middlewares/Third_Party/LwIP/src/api/netbuf.c ****   }
 767              		.loc 1 226 12 is_stmt 0 view .LVU217
 768 0026 4FF0FF30 		mov	r0, #-1
 769              	.LVL73:
 226:Middlewares/Third_Party/LwIP/src/api/netbuf.c ****   }
 770              		.loc 1 226 12 view .LVU218
 771 002a F2E7     		b	.L62
 772              	.LVL74:
 773              	.L64:
 230:Middlewares/Third_Party/LwIP/src/api/netbuf.c ****   }
 774              		.loc 1 230 12 view .LVU219
 775 002c 0120     		movs	r0, #1
 776              	.LVL75:
 230:Middlewares/Third_Party/LwIP/src/api/netbuf.c ****   }
 777              		.loc 1 230 12 view .LVU220
 778 002e F0E7     		b	.L62
 779              	.L68:
 780              		.align	2
 781              	.L67:
 782 0030 00000000 		.word	.LC0
 783 0034 00000000 		.word	.LC11
 784 0038 4C000000 		.word	.LC2
 785              		.cfi_endproc
 786              	.LFE32:
 788              		.section	.rodata.netbuf_first.str1.4,"aMS",%progbits,1
 789              		.align	2
 790              	.LC12:
 791 0000 6E657462 		.ascii	"netbuf_first: invalid buf\000"
 791      75665F66 
 791      69727374 
 791      3A20696E 
 791      76616C69 
 792              		.section	.text.netbuf_first,"ax",%progbits
 793              		.align	1
 794              		.global	netbuf_first
 795              		.syntax unified
 796              		.thumb
 797              		.thumb_func
 798              		.fpu fpv5-sp-d16
 800              	netbuf_first:
 801              	.LVL76:
 802              	.LFB33:
 234:Middlewares/Third_Party/LwIP/src/api/netbuf.c **** 
 235:Middlewares/Third_Party/LwIP/src/api/netbuf.c **** /**
ARM GAS  D:\Dev\msys64\tmp\cc0CI1qy.s 			page 21


 236:Middlewares/Third_Party/LwIP/src/api/netbuf.c ****  * @ingroup netbuf
 237:Middlewares/Third_Party/LwIP/src/api/netbuf.c ****  * Move the current data pointer of a packet buffer contained in a netbuf
 238:Middlewares/Third_Party/LwIP/src/api/netbuf.c ****  * to the beginning of the packet.
 239:Middlewares/Third_Party/LwIP/src/api/netbuf.c ****  * The packet buffer itself is not modified.
 240:Middlewares/Third_Party/LwIP/src/api/netbuf.c ****  *
 241:Middlewares/Third_Party/LwIP/src/api/netbuf.c ****  * @param buf the netbuf to modify
 242:Middlewares/Third_Party/LwIP/src/api/netbuf.c ****  */
 243:Middlewares/Third_Party/LwIP/src/api/netbuf.c **** void
 244:Middlewares/Third_Party/LwIP/src/api/netbuf.c **** netbuf_first(struct netbuf *buf)
 245:Middlewares/Third_Party/LwIP/src/api/netbuf.c **** {
 803              		.loc 1 245 1 is_stmt 1 view -0
 804              		.cfi_startproc
 805              		@ args = 0, pretend = 0, frame = 0
 806              		@ frame_needed = 0, uses_anonymous_args = 0
 807              		.loc 1 245 1 is_stmt 0 view .LVU222
 808 0000 08B5     		push	{r3, lr}
 809              	.LCFI9:
 810              		.cfi_def_cfa_offset 8
 811              		.cfi_offset 3, -8
 812              		.cfi_offset 14, -4
 246:Middlewares/Third_Party/LwIP/src/api/netbuf.c ****   LWIP_ERROR("netbuf_first: invalid buf", (buf != NULL), return;);
 813              		.loc 1 246 3 is_stmt 1 view .LVU223
 814              		.loc 1 246 3 view .LVU224
 815 0002 10B1     		cbz	r0, .L73
 816              		.loc 1 246 3 discriminator 2 view .LVU225
 817              		.loc 1 246 3 discriminator 2 view .LVU226
 247:Middlewares/Third_Party/LwIP/src/api/netbuf.c ****   buf->ptr = buf->p;
 818              		.loc 1 247 3 discriminator 2 view .LVU227
 819              		.loc 1 247 17 is_stmt 0 discriminator 2 view .LVU228
 820 0004 0268     		ldr	r2, [r0]
 821              		.loc 1 247 12 discriminator 2 view .LVU229
 822 0006 4260     		str	r2, [r0, #4]
 823              	.LVL77:
 824              	.L69:
 248:Middlewares/Third_Party/LwIP/src/api/netbuf.c **** }
 825              		.loc 1 248 1 view .LVU230
 826 0008 08BD     		pop	{r3, pc}
 827              	.LVL78:
 828              	.L73:
 246:Middlewares/Third_Party/LwIP/src/api/netbuf.c ****   LWIP_ERROR("netbuf_first: invalid buf", (buf != NULL), return;);
 829              		.loc 1 246 3 is_stmt 1 discriminator 1 view .LVU231
 246:Middlewares/Third_Party/LwIP/src/api/netbuf.c ****   LWIP_ERROR("netbuf_first: invalid buf", (buf != NULL), return;);
 830              		.loc 1 246 3 discriminator 1 view .LVU232
 831 000a 034B     		ldr	r3, .L74
 832 000c F622     		movs	r2, #246
 833 000e 0349     		ldr	r1, .L74+4
 834 0010 0348     		ldr	r0, .L74+8
 835              	.LVL79:
 246:Middlewares/Third_Party/LwIP/src/api/netbuf.c ****   LWIP_ERROR("netbuf_first: invalid buf", (buf != NULL), return;);
 836              		.loc 1 246 3 is_stmt 0 discriminator 1 view .LVU233
 837 0012 FFF7FEFF 		bl	printf
 838              	.LVL80:
 246:Middlewares/Third_Party/LwIP/src/api/netbuf.c ****   LWIP_ERROR("netbuf_first: invalid buf", (buf != NULL), return;);
 839              		.loc 1 246 3 is_stmt 1 discriminator 1 view .LVU234
 246:Middlewares/Third_Party/LwIP/src/api/netbuf.c ****   LWIP_ERROR("netbuf_first: invalid buf", (buf != NULL), return;);
 840              		.loc 1 246 3 discriminator 1 view .LVU235
 841 0016 F7E7     		b	.L69
ARM GAS  D:\Dev\msys64\tmp\cc0CI1qy.s 			page 22


 842              	.L75:
 843              		.align	2
 844              	.L74:
 845 0018 00000000 		.word	.LC0
 846 001c 00000000 		.word	.LC12
 847 0020 4C000000 		.word	.LC2
 848              		.cfi_endproc
 849              	.LFE33:
 851              		.text
 852              	.Letext0:
 853              		.file 2 "d:\\dev\\gcc-arm-none-eabi\\9_2019_q4-major\\arm-none-eabi\\include\\machine\\_default_ty
 854              		.file 3 "d:\\dev\\gcc-arm-none-eabi\\9_2019_q4-major\\arm-none-eabi\\include\\sys\\lock.h"
 855              		.file 4 "d:\\dev\\gcc-arm-none-eabi\\9_2019_q4-major\\arm-none-eabi\\include\\sys\\_types.h"
 856              		.file 5 "d:\\dev\\gcc-arm-none-eabi\\9_2019_q4-major\\lib\\gcc\\arm-none-eabi\\9.2.1\\include\\std
 857              		.file 6 "d:\\dev\\gcc-arm-none-eabi\\9_2019_q4-major\\arm-none-eabi\\include\\sys\\reent.h"
 858              		.file 7 "d:\\dev\\gcc-arm-none-eabi\\9_2019_q4-major\\arm-none-eabi\\include\\stdlib.h"
 859              		.file 8 "d:\\dev\\gcc-arm-none-eabi\\9_2019_q4-major\\arm-none-eabi\\include\\sys\\_stdint.h"
 860              		.file 9 "d:\\dev\\gcc-arm-none-eabi\\9_2019_q4-major\\arm-none-eabi\\include\\time.h"
 861              		.file 10 "Middlewares/Third_Party/LwIP/src/include/lwip/arch.h"
 862              		.file 11 "d:\\dev\\gcc-arm-none-eabi\\9_2019_q4-major\\arm-none-eabi\\include\\ctype.h"
 863              		.file 12 "Middlewares/Third_Party/LwIP/src/include/lwip/err.h"
 864              		.file 13 "Middlewares/Third_Party/LwIP/src/include/lwip/pbuf.h"
 865              		.file 14 "Middlewares/Third_Party/LwIP/src/include/lwip/ip4_addr.h"
 866              		.file 15 "Middlewares/Third_Party/LwIP/src/include/lwip/ip_addr.h"
 867              		.file 16 "Middlewares/Third_Party/LwIP/src/include/lwip/netbuf.h"
 868              		.file 17 "Middlewares/Third_Party/LwIP/src/include/lwip/memp.h"
 869              		.file 18 "Middlewares/Third_Party/LwIP/src/include/lwip/priv/memp_priv.h"
 870              		.file 19 "d:\\dev\\gcc-arm-none-eabi\\9_2019_q4-major\\arm-none-eabi\\include\\stdio.h"
ARM GAS  D:\Dev\msys64\tmp\cc0CI1qy.s 			page 23

