ARM GAS  D:\Dev\msys64\tmp\ccqpdwec.s 			page 1


   1              		.cpu cortex-m7
   2              		.eabi_attribute 27, 1
   3              		.eabi_attribute 28, 1
   4              		.eabi_attribute 20, 1
   5              		.eabi_attribute 21, 1
   6              		.eabi_attribute 23, 3
   7              		.eabi_attribute 24, 1
   8              		.eabi_attribute 25, 1
   9              		.eabi_attribute 26, 1
  10              		.eabi_attribute 30, 1
  11              		.eabi_attribute 34, 1
  12              		.eabi_attribute 18, 4
  13              		.file	"slipif.c"
  14              		.text
  15              	.Ltext0:
  16              		.cfi_sections	.debug_frame
  17              		.section	.rodata.slipif_rxbyte.str1.4,"aMS",%progbits,1
  18              		.align	2
  19              	.LC0:
  20 0000 4D696464 		.ascii	"Middlewares/Third_Party/LwIP/src/netif/slipif.c\000"
  20      6C657761 
  20      7265732F 
  20      54686972 
  20      645F5061 
  21              		.align	2
  22              	.LC1:
  23 0030 6E657469 		.ascii	"netif != NULL\000"
  23      6620213D 
  23      204E554C 
  23      4C00
  24 003e 0000     		.align	2
  25              	.LC2:
  26 0040 41737365 		.ascii	"Assertion \"%s\" failed at line %d in %s\012\000"
  26      7274696F 
  26      6E202225 
  26      73222066 
  26      61696C65 
  27              		.align	2
  28              	.LC3:
  29 0068 6E657469 		.ascii	"netif->state != NULL\000"
  29      662D3E73 
  29      74617465 
  29      20213D20 
  29      4E554C4C 
  30              		.section	.text.slipif_rxbyte,"ax",%progbits
  31              		.align	1
  32              		.arch armv7e-m
  33              		.syntax unified
  34              		.thumb
  35              		.thumb_func
  36              		.fpu fpv5-sp-d16
  38              	slipif_rxbyte:
  39              	.LVL0:
  40              	.LFB32:
  41              		.file 1 "Middlewares/Third_Party/LwIP/src/netif/slipif.c"
   1:Middlewares/Third_Party/LwIP/src/netif/slipif.c **** /**
   2:Middlewares/Third_Party/LwIP/src/netif/slipif.c ****  * @file
ARM GAS  D:\Dev\msys64\tmp\ccqpdwec.s 			page 2


   3:Middlewares/Third_Party/LwIP/src/netif/slipif.c ****  * SLIP Interface
   4:Middlewares/Third_Party/LwIP/src/netif/slipif.c ****  *
   5:Middlewares/Third_Party/LwIP/src/netif/slipif.c ****  */
   6:Middlewares/Third_Party/LwIP/src/netif/slipif.c **** 
   7:Middlewares/Third_Party/LwIP/src/netif/slipif.c **** /*
   8:Middlewares/Third_Party/LwIP/src/netif/slipif.c ****  * Copyright (c) 2001-2004 Swedish Institute of Computer Science.
   9:Middlewares/Third_Party/LwIP/src/netif/slipif.c ****  * All rights reserved.
  10:Middlewares/Third_Party/LwIP/src/netif/slipif.c ****  *
  11:Middlewares/Third_Party/LwIP/src/netif/slipif.c ****  * Redistribution and use in source and binary forms, with or without
  12:Middlewares/Third_Party/LwIP/src/netif/slipif.c ****  * modification, are permitted provided that the following conditions
  13:Middlewares/Third_Party/LwIP/src/netif/slipif.c ****  * are met:
  14:Middlewares/Third_Party/LwIP/src/netif/slipif.c ****  * 1. Redistributions of source code must retain the above copyright
  15:Middlewares/Third_Party/LwIP/src/netif/slipif.c ****  *    notice, this list of conditions and the following disclaimer.
  16:Middlewares/Third_Party/LwIP/src/netif/slipif.c ****  * 2. Redistributions in binary form must reproduce the above copyright
  17:Middlewares/Third_Party/LwIP/src/netif/slipif.c ****  *    notice, this list of conditions and the following disclaimer in the
  18:Middlewares/Third_Party/LwIP/src/netif/slipif.c ****  *    documentation and/or other materials provided with the distribution.
  19:Middlewares/Third_Party/LwIP/src/netif/slipif.c ****  * 3. Neither the name of the Institute nor the names of its contributors
  20:Middlewares/Third_Party/LwIP/src/netif/slipif.c ****  *    may be used to endorse or promote products derived from this software
  21:Middlewares/Third_Party/LwIP/src/netif/slipif.c ****  *    without specific prior written permission.
  22:Middlewares/Third_Party/LwIP/src/netif/slipif.c ****  *
  23:Middlewares/Third_Party/LwIP/src/netif/slipif.c ****  * THIS SOFTWARE IS PROVIDED BY THE INSTITUTE AND CONTRIBUTORS ``AS IS'' AND
  24:Middlewares/Third_Party/LwIP/src/netif/slipif.c ****  * ANY EXPRESS OR IMPLIED WARRANTIES, INCLUDING, BUT NOT LIMITED TO, THE
  25:Middlewares/Third_Party/LwIP/src/netif/slipif.c ****  * IMPLIED WARRANTIES OF MERCHANTABILITY AND FITNESS FOR A PARTICULAR PURPOSE
  26:Middlewares/Third_Party/LwIP/src/netif/slipif.c ****  * ARE DISCLAIMED.  IN NO EVENT SHALL THE INSTITUTE OR CONTRIBUTORS BE LIABLE
  27:Middlewares/Third_Party/LwIP/src/netif/slipif.c ****  * FOR ANY DIRECT, INDIRECT, INCIDENTAL, SPECIAL, EXEMPLARY, OR CONSEQUENTIAL
  28:Middlewares/Third_Party/LwIP/src/netif/slipif.c ****  * DAMAGES (INCLUDING, BUT NOT LIMITED TO, PROCUREMENT OF SUBSTITUTE GOODS
  29:Middlewares/Third_Party/LwIP/src/netif/slipif.c ****  * OR SERVICES; LOSS OF USE, DATA, OR PROFITS; OR BUSINESS INTERRUPTION)
  30:Middlewares/Third_Party/LwIP/src/netif/slipif.c ****  * HOWEVER CAUSED AND ON ANY THEORY OF LIABILITY, WHETHER IN CONTRACT, STRICT
  31:Middlewares/Third_Party/LwIP/src/netif/slipif.c ****  * LIABILITY, OR TORT (INCLUDING NEGLIGENCE OR OTHERWISE) ARISING IN ANY WAY
  32:Middlewares/Third_Party/LwIP/src/netif/slipif.c ****  * OUT OF THE USE OF THIS SOFTWARE, EVEN IF ADVISED OF THE POSSIBILITY OF
  33:Middlewares/Third_Party/LwIP/src/netif/slipif.c ****  * SUCH DAMAGE.
  34:Middlewares/Third_Party/LwIP/src/netif/slipif.c ****  *
  35:Middlewares/Third_Party/LwIP/src/netif/slipif.c ****  * This file is built upon the file: src/arch/rtxc/netif/sioslip.c
  36:Middlewares/Third_Party/LwIP/src/netif/slipif.c ****  *
  37:Middlewares/Third_Party/LwIP/src/netif/slipif.c ****  * Author: Magnus Ivarsson <magnus.ivarsson(at)volvo.com>
  38:Middlewares/Third_Party/LwIP/src/netif/slipif.c ****  *         Simon Goldschmidt
  39:Middlewares/Third_Party/LwIP/src/netif/slipif.c ****  */
  40:Middlewares/Third_Party/LwIP/src/netif/slipif.c **** 
  41:Middlewares/Third_Party/LwIP/src/netif/slipif.c **** 
  42:Middlewares/Third_Party/LwIP/src/netif/slipif.c **** /**
  43:Middlewares/Third_Party/LwIP/src/netif/slipif.c ****  * @defgroup slipif SLIP
  44:Middlewares/Third_Party/LwIP/src/netif/slipif.c ****  * @ingroup netifs
  45:Middlewares/Third_Party/LwIP/src/netif/slipif.c ****  *
  46:Middlewares/Third_Party/LwIP/src/netif/slipif.c ****  * This is an arch independent SLIP netif. The specific serial hooks must be
  47:Middlewares/Third_Party/LwIP/src/netif/slipif.c ****  * provided by another file. They are sio_open, sio_read/sio_tryread and sio_send
  48:Middlewares/Third_Party/LwIP/src/netif/slipif.c ****  *
  49:Middlewares/Third_Party/LwIP/src/netif/slipif.c ****  * Usage: This netif can be used in three ways:\n
  50:Middlewares/Third_Party/LwIP/src/netif/slipif.c ****  *        1) For NO_SYS==0, an RX thread can be used which blocks on sio_read()
  51:Middlewares/Third_Party/LwIP/src/netif/slipif.c ****  *           until data is received.\n
  52:Middlewares/Third_Party/LwIP/src/netif/slipif.c ****  *        2) In your main loop, call slipif_poll() to check for new RX bytes,
  53:Middlewares/Third_Party/LwIP/src/netif/slipif.c ****  *           completed packets are fed into netif->input().\n
  54:Middlewares/Third_Party/LwIP/src/netif/slipif.c ****  *        3) Call slipif_received_byte[s]() from your serial RX ISR and
  55:Middlewares/Third_Party/LwIP/src/netif/slipif.c ****  *           slipif_process_rxqueue() from your main loop. ISR level decodes
  56:Middlewares/Third_Party/LwIP/src/netif/slipif.c ****  *           packets and puts completed packets on a queue which is fed into
  57:Middlewares/Third_Party/LwIP/src/netif/slipif.c ****  *           the stack from the main loop (needs SYS_LIGHTWEIGHT_PROT for
  58:Middlewares/Third_Party/LwIP/src/netif/slipif.c ****  *           pbuf_alloc to work on ISR level!).
  59:Middlewares/Third_Party/LwIP/src/netif/slipif.c ****  *
ARM GAS  D:\Dev\msys64\tmp\ccqpdwec.s 			page 3


  60:Middlewares/Third_Party/LwIP/src/netif/slipif.c ****  */
  61:Middlewares/Third_Party/LwIP/src/netif/slipif.c **** 
  62:Middlewares/Third_Party/LwIP/src/netif/slipif.c **** #include "netif/slipif.h"
  63:Middlewares/Third_Party/LwIP/src/netif/slipif.c **** #include "lwip/opt.h"
  64:Middlewares/Third_Party/LwIP/src/netif/slipif.c **** 
  65:Middlewares/Third_Party/LwIP/src/netif/slipif.c **** #include "lwip/def.h"
  66:Middlewares/Third_Party/LwIP/src/netif/slipif.c **** #include "lwip/pbuf.h"
  67:Middlewares/Third_Party/LwIP/src/netif/slipif.c **** #include "lwip/stats.h"
  68:Middlewares/Third_Party/LwIP/src/netif/slipif.c **** #include "lwip/snmp.h"
  69:Middlewares/Third_Party/LwIP/src/netif/slipif.c **** #include "lwip/sys.h"
  70:Middlewares/Third_Party/LwIP/src/netif/slipif.c **** #include "lwip/sio.h"
  71:Middlewares/Third_Party/LwIP/src/netif/slipif.c **** 
  72:Middlewares/Third_Party/LwIP/src/netif/slipif.c **** #define SLIP_END     0xC0 /* 0300: start and end of every packet */
  73:Middlewares/Third_Party/LwIP/src/netif/slipif.c **** #define SLIP_ESC     0xDB /* 0333: escape start (one byte escaped data follows) */
  74:Middlewares/Third_Party/LwIP/src/netif/slipif.c **** #define SLIP_ESC_END 0xDC /* 0334: following escape: original byte is 0xC0 (END) */
  75:Middlewares/Third_Party/LwIP/src/netif/slipif.c **** #define SLIP_ESC_ESC 0xDD /* 0335: following escape: original byte is 0xDB (ESC) */
  76:Middlewares/Third_Party/LwIP/src/netif/slipif.c **** 
  77:Middlewares/Third_Party/LwIP/src/netif/slipif.c **** /** Maximum packet size that is received by this netif */
  78:Middlewares/Third_Party/LwIP/src/netif/slipif.c **** #ifndef SLIP_MAX_SIZE
  79:Middlewares/Third_Party/LwIP/src/netif/slipif.c **** #define SLIP_MAX_SIZE 1500
  80:Middlewares/Third_Party/LwIP/src/netif/slipif.c **** #endif
  81:Middlewares/Third_Party/LwIP/src/netif/slipif.c **** 
  82:Middlewares/Third_Party/LwIP/src/netif/slipif.c **** /** Define this to the interface speed for SNMP
  83:Middlewares/Third_Party/LwIP/src/netif/slipif.c ****  * (sio_fd is the sio_fd_t returned by sio_open).
  84:Middlewares/Third_Party/LwIP/src/netif/slipif.c ****  * The default value of zero means 'unknown'.
  85:Middlewares/Third_Party/LwIP/src/netif/slipif.c ****  */
  86:Middlewares/Third_Party/LwIP/src/netif/slipif.c **** #ifndef SLIP_SIO_SPEED
  87:Middlewares/Third_Party/LwIP/src/netif/slipif.c **** #define SLIP_SIO_SPEED(sio_fd) 0
  88:Middlewares/Third_Party/LwIP/src/netif/slipif.c **** #endif
  89:Middlewares/Third_Party/LwIP/src/netif/slipif.c **** 
  90:Middlewares/Third_Party/LwIP/src/netif/slipif.c **** enum slipif_recv_state {
  91:Middlewares/Third_Party/LwIP/src/netif/slipif.c ****   SLIP_RECV_NORMAL,
  92:Middlewares/Third_Party/LwIP/src/netif/slipif.c ****   SLIP_RECV_ESCAPE
  93:Middlewares/Third_Party/LwIP/src/netif/slipif.c **** };
  94:Middlewares/Third_Party/LwIP/src/netif/slipif.c **** 
  95:Middlewares/Third_Party/LwIP/src/netif/slipif.c **** struct slipif_priv {
  96:Middlewares/Third_Party/LwIP/src/netif/slipif.c ****   sio_fd_t sd;
  97:Middlewares/Third_Party/LwIP/src/netif/slipif.c ****   /* q is the whole pbuf chain for a packet, p is the current pbuf in the chain */
  98:Middlewares/Third_Party/LwIP/src/netif/slipif.c ****   struct pbuf *p, *q;
  99:Middlewares/Third_Party/LwIP/src/netif/slipif.c ****   u8_t state;
 100:Middlewares/Third_Party/LwIP/src/netif/slipif.c ****   u16_t i, recved;
 101:Middlewares/Third_Party/LwIP/src/netif/slipif.c **** #if SLIP_RX_FROM_ISR
 102:Middlewares/Third_Party/LwIP/src/netif/slipif.c ****   struct pbuf *rxpackets;
 103:Middlewares/Third_Party/LwIP/src/netif/slipif.c **** #endif
 104:Middlewares/Third_Party/LwIP/src/netif/slipif.c **** };
 105:Middlewares/Third_Party/LwIP/src/netif/slipif.c **** 
 106:Middlewares/Third_Party/LwIP/src/netif/slipif.c **** /**
 107:Middlewares/Third_Party/LwIP/src/netif/slipif.c ****  * Send a pbuf doing the necessary SLIP encapsulation
 108:Middlewares/Third_Party/LwIP/src/netif/slipif.c ****  *
 109:Middlewares/Third_Party/LwIP/src/netif/slipif.c ****  * Uses the serial layer's sio_send()
 110:Middlewares/Third_Party/LwIP/src/netif/slipif.c ****  *
 111:Middlewares/Third_Party/LwIP/src/netif/slipif.c ****  * @param netif the lwip network interface structure for this slipif
 112:Middlewares/Third_Party/LwIP/src/netif/slipif.c ****  * @param p the pbuf chain packet to send
 113:Middlewares/Third_Party/LwIP/src/netif/slipif.c ****  * @return always returns ERR_OK since the serial layer does not provide return values
 114:Middlewares/Third_Party/LwIP/src/netif/slipif.c ****  */
 115:Middlewares/Third_Party/LwIP/src/netif/slipif.c **** static err_t
 116:Middlewares/Third_Party/LwIP/src/netif/slipif.c **** slipif_output(struct netif *netif, struct pbuf *p)
ARM GAS  D:\Dev\msys64\tmp\ccqpdwec.s 			page 4


 117:Middlewares/Third_Party/LwIP/src/netif/slipif.c **** {
 118:Middlewares/Third_Party/LwIP/src/netif/slipif.c ****   struct slipif_priv *priv;
 119:Middlewares/Third_Party/LwIP/src/netif/slipif.c ****   struct pbuf *q;
 120:Middlewares/Third_Party/LwIP/src/netif/slipif.c ****   u16_t i;
 121:Middlewares/Third_Party/LwIP/src/netif/slipif.c ****   u8_t c;
 122:Middlewares/Third_Party/LwIP/src/netif/slipif.c **** 
 123:Middlewares/Third_Party/LwIP/src/netif/slipif.c ****   LWIP_ASSERT("netif != NULL", (netif != NULL));
 124:Middlewares/Third_Party/LwIP/src/netif/slipif.c ****   LWIP_ASSERT("netif->state != NULL", (netif->state != NULL));
 125:Middlewares/Third_Party/LwIP/src/netif/slipif.c ****   LWIP_ASSERT("p != NULL", (p != NULL));
 126:Middlewares/Third_Party/LwIP/src/netif/slipif.c **** 
 127:Middlewares/Third_Party/LwIP/src/netif/slipif.c ****   LWIP_DEBUGF(SLIP_DEBUG, ("slipif_output: sending %"U16_F" bytes\n", p->tot_len));
 128:Middlewares/Third_Party/LwIP/src/netif/slipif.c ****   priv = (struct slipif_priv *)netif->state;
 129:Middlewares/Third_Party/LwIP/src/netif/slipif.c **** 
 130:Middlewares/Third_Party/LwIP/src/netif/slipif.c ****   /* Send pbuf out on the serial I/O device. */
 131:Middlewares/Third_Party/LwIP/src/netif/slipif.c ****   /* Start with packet delimiter. */
 132:Middlewares/Third_Party/LwIP/src/netif/slipif.c ****   sio_send(SLIP_END, priv->sd);
 133:Middlewares/Third_Party/LwIP/src/netif/slipif.c **** 
 134:Middlewares/Third_Party/LwIP/src/netif/slipif.c ****   for (q = p; q != NULL; q = q->next) {
 135:Middlewares/Third_Party/LwIP/src/netif/slipif.c ****     for (i = 0; i < q->len; i++) {
 136:Middlewares/Third_Party/LwIP/src/netif/slipif.c ****       c = ((u8_t *)q->payload)[i];
 137:Middlewares/Third_Party/LwIP/src/netif/slipif.c ****       switch (c) {
 138:Middlewares/Third_Party/LwIP/src/netif/slipif.c ****         case SLIP_END:
 139:Middlewares/Third_Party/LwIP/src/netif/slipif.c ****           /* need to escape this byte (0xC0 -> 0xDB, 0xDC) */
 140:Middlewares/Third_Party/LwIP/src/netif/slipif.c ****           sio_send(SLIP_ESC, priv->sd);
 141:Middlewares/Third_Party/LwIP/src/netif/slipif.c ****           sio_send(SLIP_ESC_END, priv->sd);
 142:Middlewares/Third_Party/LwIP/src/netif/slipif.c ****           break;
 143:Middlewares/Third_Party/LwIP/src/netif/slipif.c ****         case SLIP_ESC:
 144:Middlewares/Third_Party/LwIP/src/netif/slipif.c ****           /* need to escape this byte (0xDB -> 0xDB, 0xDD) */
 145:Middlewares/Third_Party/LwIP/src/netif/slipif.c ****           sio_send(SLIP_ESC, priv->sd);
 146:Middlewares/Third_Party/LwIP/src/netif/slipif.c ****           sio_send(SLIP_ESC_ESC, priv->sd);
 147:Middlewares/Third_Party/LwIP/src/netif/slipif.c ****           break;
 148:Middlewares/Third_Party/LwIP/src/netif/slipif.c ****         default:
 149:Middlewares/Third_Party/LwIP/src/netif/slipif.c ****           /* normal byte - no need for escaping */
 150:Middlewares/Third_Party/LwIP/src/netif/slipif.c ****           sio_send(c, priv->sd);
 151:Middlewares/Third_Party/LwIP/src/netif/slipif.c ****           break;
 152:Middlewares/Third_Party/LwIP/src/netif/slipif.c ****       }
 153:Middlewares/Third_Party/LwIP/src/netif/slipif.c ****     }
 154:Middlewares/Third_Party/LwIP/src/netif/slipif.c ****   }
 155:Middlewares/Third_Party/LwIP/src/netif/slipif.c ****   /* End with packet delimiter. */
 156:Middlewares/Third_Party/LwIP/src/netif/slipif.c ****   sio_send(SLIP_END, priv->sd);
 157:Middlewares/Third_Party/LwIP/src/netif/slipif.c ****   return ERR_OK;
 158:Middlewares/Third_Party/LwIP/src/netif/slipif.c **** }
 159:Middlewares/Third_Party/LwIP/src/netif/slipif.c **** 
 160:Middlewares/Third_Party/LwIP/src/netif/slipif.c **** #if LWIP_IPV4
 161:Middlewares/Third_Party/LwIP/src/netif/slipif.c **** /**
 162:Middlewares/Third_Party/LwIP/src/netif/slipif.c ****  * Send a pbuf doing the necessary SLIP encapsulation
 163:Middlewares/Third_Party/LwIP/src/netif/slipif.c ****  *
 164:Middlewares/Third_Party/LwIP/src/netif/slipif.c ****  * Uses the serial layer's sio_send()
 165:Middlewares/Third_Party/LwIP/src/netif/slipif.c ****  *
 166:Middlewares/Third_Party/LwIP/src/netif/slipif.c ****  * @param netif the lwip network interface structure for this slipif
 167:Middlewares/Third_Party/LwIP/src/netif/slipif.c ****  * @param p the pbuf chain packet to send
 168:Middlewares/Third_Party/LwIP/src/netif/slipif.c ****  * @param ipaddr the ip address to send the packet to (not used for slipif)
 169:Middlewares/Third_Party/LwIP/src/netif/slipif.c ****  * @return always returns ERR_OK since the serial layer does not provide return values
 170:Middlewares/Third_Party/LwIP/src/netif/slipif.c ****  */
 171:Middlewares/Third_Party/LwIP/src/netif/slipif.c **** static err_t
 172:Middlewares/Third_Party/LwIP/src/netif/slipif.c **** slipif_output_v4(struct netif *netif, struct pbuf *p, const ip4_addr_t *ipaddr)
 173:Middlewares/Third_Party/LwIP/src/netif/slipif.c **** {
ARM GAS  D:\Dev\msys64\tmp\ccqpdwec.s 			page 5


 174:Middlewares/Third_Party/LwIP/src/netif/slipif.c ****   LWIP_UNUSED_ARG(ipaddr);
 175:Middlewares/Third_Party/LwIP/src/netif/slipif.c ****   return slipif_output(netif, p);
 176:Middlewares/Third_Party/LwIP/src/netif/slipif.c **** }
 177:Middlewares/Third_Party/LwIP/src/netif/slipif.c **** #endif /* LWIP_IPV4 */
 178:Middlewares/Third_Party/LwIP/src/netif/slipif.c **** 
 179:Middlewares/Third_Party/LwIP/src/netif/slipif.c **** #if LWIP_IPV6
 180:Middlewares/Third_Party/LwIP/src/netif/slipif.c **** /**
 181:Middlewares/Third_Party/LwIP/src/netif/slipif.c ****  * Send a pbuf doing the necessary SLIP encapsulation
 182:Middlewares/Third_Party/LwIP/src/netif/slipif.c ****  *
 183:Middlewares/Third_Party/LwIP/src/netif/slipif.c ****  * Uses the serial layer's sio_send()
 184:Middlewares/Third_Party/LwIP/src/netif/slipif.c ****  *
 185:Middlewares/Third_Party/LwIP/src/netif/slipif.c ****  * @param netif the lwip network interface structure for this slipif
 186:Middlewares/Third_Party/LwIP/src/netif/slipif.c ****  * @param p the pbuf chain packet to send
 187:Middlewares/Third_Party/LwIP/src/netif/slipif.c ****  * @param ipaddr the ip address to send the packet to (not used for slipif)
 188:Middlewares/Third_Party/LwIP/src/netif/slipif.c ****  * @return always returns ERR_OK since the serial layer does not provide return values
 189:Middlewares/Third_Party/LwIP/src/netif/slipif.c ****  */
 190:Middlewares/Third_Party/LwIP/src/netif/slipif.c **** static err_t
 191:Middlewares/Third_Party/LwIP/src/netif/slipif.c **** slipif_output_v6(struct netif *netif, struct pbuf *p, const ip6_addr_t *ipaddr)
 192:Middlewares/Third_Party/LwIP/src/netif/slipif.c **** {
 193:Middlewares/Third_Party/LwIP/src/netif/slipif.c ****   LWIP_UNUSED_ARG(ipaddr);
 194:Middlewares/Third_Party/LwIP/src/netif/slipif.c ****   return slipif_output(netif, p);
 195:Middlewares/Third_Party/LwIP/src/netif/slipif.c **** }
 196:Middlewares/Third_Party/LwIP/src/netif/slipif.c **** #endif /* LWIP_IPV6 */
 197:Middlewares/Third_Party/LwIP/src/netif/slipif.c **** 
 198:Middlewares/Third_Party/LwIP/src/netif/slipif.c **** /**
 199:Middlewares/Third_Party/LwIP/src/netif/slipif.c ****  * Handle the incoming SLIP stream character by character
 200:Middlewares/Third_Party/LwIP/src/netif/slipif.c ****  *
 201:Middlewares/Third_Party/LwIP/src/netif/slipif.c ****  * @param netif the lwip network interface structure for this slipif
 202:Middlewares/Third_Party/LwIP/src/netif/slipif.c ****  * @param c received character (multiple calls to this function will
 203:Middlewares/Third_Party/LwIP/src/netif/slipif.c ****  *        return a complete packet, NULL is returned before - used for polling)
 204:Middlewares/Third_Party/LwIP/src/netif/slipif.c ****  * @return The IP packet when SLIP_END is received
 205:Middlewares/Third_Party/LwIP/src/netif/slipif.c ****  */
 206:Middlewares/Third_Party/LwIP/src/netif/slipif.c **** static struct pbuf *
 207:Middlewares/Third_Party/LwIP/src/netif/slipif.c **** slipif_rxbyte(struct netif *netif, u8_t c)
 208:Middlewares/Third_Party/LwIP/src/netif/slipif.c **** {
  42              		.loc 1 208 1 view -0
  43              		.cfi_startproc
  44              		@ args = 0, pretend = 0, frame = 0
  45              		@ frame_needed = 0, uses_anonymous_args = 0
  46              		.loc 1 208 1 is_stmt 0 view .LVU1
  47 0000 38B5     		push	{r3, r4, r5, lr}
  48              	.LCFI0:
  49              		.cfi_def_cfa_offset 16
  50              		.cfi_offset 3, -16
  51              		.cfi_offset 4, -12
  52              		.cfi_offset 5, -8
  53              		.cfi_offset 14, -4
  54 0002 0D46     		mov	r5, r1
 209:Middlewares/Third_Party/LwIP/src/netif/slipif.c ****   struct slipif_priv *priv;
  55              		.loc 1 209 3 is_stmt 1 view .LVU2
 210:Middlewares/Third_Party/LwIP/src/netif/slipif.c ****   struct pbuf *t;
  56              		.loc 1 210 3 view .LVU3
 211:Middlewares/Third_Party/LwIP/src/netif/slipif.c **** 
 212:Middlewares/Third_Party/LwIP/src/netif/slipif.c ****   LWIP_ASSERT("netif != NULL", (netif != NULL));
  57              		.loc 1 212 3 view .LVU4
  58              		.loc 1 212 3 view .LVU5
  59 0004 0446     		mov	r4, r0
ARM GAS  D:\Dev\msys64\tmp\ccqpdwec.s 			page 6


  60 0006 0028     		cmp	r0, #0
  61 0008 2CD0     		beq	.L19
  62              	.LVL1:
  63              	.L2:
  64              		.loc 1 212 3 discriminator 3 view .LVU6
  65              		.loc 1 212 3 discriminator 3 view .LVU7
 213:Middlewares/Third_Party/LwIP/src/netif/slipif.c ****   LWIP_ASSERT("netif->state != NULL", (netif->state != NULL));
  66              		.loc 1 213 3 discriminator 3 view .LVU8
  67              		.loc 1 213 3 discriminator 3 view .LVU9
  68 000a 236A     		ldr	r3, [r4, #32]
  69 000c 002B     		cmp	r3, #0
  70 000e 30D0     		beq	.L20
  71              	.L3:
  72              		.loc 1 213 3 discriminator 3 view .LVU10
  73              		.loc 1 213 3 discriminator 3 view .LVU11
 214:Middlewares/Third_Party/LwIP/src/netif/slipif.c **** 
 215:Middlewares/Third_Party/LwIP/src/netif/slipif.c ****   priv = (struct slipif_priv *)netif->state;
  74              		.loc 1 215 3 discriminator 3 view .LVU12
  75              		.loc 1 215 8 is_stmt 0 discriminator 3 view .LVU13
  76 0010 246A     		ldr	r4, [r4, #32]
  77              	.LVL2:
 216:Middlewares/Third_Party/LwIP/src/netif/slipif.c **** 
 217:Middlewares/Third_Party/LwIP/src/netif/slipif.c ****   switch (priv->state) {
  78              		.loc 1 217 3 is_stmt 1 discriminator 3 view .LVU14
  79              		.loc 1 217 15 is_stmt 0 discriminator 3 view .LVU15
  80 0012 237B     		ldrb	r3, [r4, #12]	@ zero_extendqisi2
  81              		.loc 1 217 3 discriminator 3 view .LVU16
  82 0014 002B     		cmp	r3, #0
  83 0016 33D0     		beq	.L4
  84              		.loc 1 217 3 view .LVU17
  85 0018 012B     		cmp	r3, #1
  86 001a 47D0     		beq	.L5
  87              	.LVL3:
  88              	.L6:
 218:Middlewares/Third_Party/LwIP/src/netif/slipif.c ****     case SLIP_RECV_NORMAL:
 219:Middlewares/Third_Party/LwIP/src/netif/slipif.c ****       switch (c) {
 220:Middlewares/Third_Party/LwIP/src/netif/slipif.c ****         case SLIP_END:
 221:Middlewares/Third_Party/LwIP/src/netif/slipif.c ****           if (priv->recved > 0) {
 222:Middlewares/Third_Party/LwIP/src/netif/slipif.c ****             /* Received whole packet. */
 223:Middlewares/Third_Party/LwIP/src/netif/slipif.c ****             /* Trim the pbuf to the size of the received packet. */
 224:Middlewares/Third_Party/LwIP/src/netif/slipif.c ****             pbuf_realloc(priv->q, priv->recved);
 225:Middlewares/Third_Party/LwIP/src/netif/slipif.c **** 
 226:Middlewares/Third_Party/LwIP/src/netif/slipif.c ****             LINK_STATS_INC(link.recv);
 227:Middlewares/Third_Party/LwIP/src/netif/slipif.c **** 
 228:Middlewares/Third_Party/LwIP/src/netif/slipif.c ****             LWIP_DEBUGF(SLIP_DEBUG, ("slipif: Got packet (%"U16_F" bytes)\n", priv->recved));
 229:Middlewares/Third_Party/LwIP/src/netif/slipif.c ****             t = priv->q;
 230:Middlewares/Third_Party/LwIP/src/netif/slipif.c ****             priv->p = priv->q = NULL;
 231:Middlewares/Third_Party/LwIP/src/netif/slipif.c ****             priv->i = priv->recved = 0;
 232:Middlewares/Third_Party/LwIP/src/netif/slipif.c ****             return t;
 233:Middlewares/Third_Party/LwIP/src/netif/slipif.c ****           }
 234:Middlewares/Third_Party/LwIP/src/netif/slipif.c ****           return NULL;
 235:Middlewares/Third_Party/LwIP/src/netif/slipif.c ****         case SLIP_ESC:
 236:Middlewares/Third_Party/LwIP/src/netif/slipif.c ****           priv->state = SLIP_RECV_ESCAPE;
 237:Middlewares/Third_Party/LwIP/src/netif/slipif.c ****           return NULL;
 238:Middlewares/Third_Party/LwIP/src/netif/slipif.c ****         default:
 239:Middlewares/Third_Party/LwIP/src/netif/slipif.c ****           break;
 240:Middlewares/Third_Party/LwIP/src/netif/slipif.c ****       } /* end switch (c) */
ARM GAS  D:\Dev\msys64\tmp\ccqpdwec.s 			page 7


 241:Middlewares/Third_Party/LwIP/src/netif/slipif.c ****       break;
 242:Middlewares/Third_Party/LwIP/src/netif/slipif.c ****     case SLIP_RECV_ESCAPE:
 243:Middlewares/Third_Party/LwIP/src/netif/slipif.c ****       /* un-escape END or ESC bytes, leave other bytes
 244:Middlewares/Third_Party/LwIP/src/netif/slipif.c ****          (although that would be a protocol error) */
 245:Middlewares/Third_Party/LwIP/src/netif/slipif.c ****       switch (c) {
 246:Middlewares/Third_Party/LwIP/src/netif/slipif.c ****         case SLIP_ESC_END:
 247:Middlewares/Third_Party/LwIP/src/netif/slipif.c ****           c = SLIP_END;
 248:Middlewares/Third_Party/LwIP/src/netif/slipif.c ****           break;
 249:Middlewares/Third_Party/LwIP/src/netif/slipif.c ****         case SLIP_ESC_ESC:
 250:Middlewares/Third_Party/LwIP/src/netif/slipif.c ****           c = SLIP_ESC;
 251:Middlewares/Third_Party/LwIP/src/netif/slipif.c ****           break;
 252:Middlewares/Third_Party/LwIP/src/netif/slipif.c ****         default:
 253:Middlewares/Third_Party/LwIP/src/netif/slipif.c ****           break;
 254:Middlewares/Third_Party/LwIP/src/netif/slipif.c ****       }
 255:Middlewares/Third_Party/LwIP/src/netif/slipif.c ****       priv->state = SLIP_RECV_NORMAL;
 256:Middlewares/Third_Party/LwIP/src/netif/slipif.c ****       break;
 257:Middlewares/Third_Party/LwIP/src/netif/slipif.c ****     default:
 258:Middlewares/Third_Party/LwIP/src/netif/slipif.c ****       break;
 259:Middlewares/Third_Party/LwIP/src/netif/slipif.c ****   } /* end switch (priv->state) */
 260:Middlewares/Third_Party/LwIP/src/netif/slipif.c **** 
 261:Middlewares/Third_Party/LwIP/src/netif/slipif.c ****   /* byte received, packet not yet completely received */
 262:Middlewares/Third_Party/LwIP/src/netif/slipif.c ****   if (priv->p == NULL) {
  89              		.loc 1 262 3 is_stmt 1 view .LVU18
  90              		.loc 1 262 11 is_stmt 0 view .LVU19
  91 001c 6368     		ldr	r3, [r4, #4]
  92              		.loc 1 262 6 view .LVU20
  93 001e 002B     		cmp	r3, #0
  94 0020 4ED0     		beq	.L21
  95              	.L11:
 263:Middlewares/Third_Party/LwIP/src/netif/slipif.c ****     /* allocate a new pbuf */
 264:Middlewares/Third_Party/LwIP/src/netif/slipif.c ****     LWIP_DEBUGF(SLIP_DEBUG, ("slipif_input: alloc\n"));
 265:Middlewares/Third_Party/LwIP/src/netif/slipif.c ****     priv->p = pbuf_alloc(PBUF_LINK, (PBUF_POOL_BUFSIZE - PBUF_LINK_HLEN - PBUF_LINK_ENCAPSULATION_H
 266:Middlewares/Third_Party/LwIP/src/netif/slipif.c **** 
 267:Middlewares/Third_Party/LwIP/src/netif/slipif.c ****     if (priv->p == NULL) {
 268:Middlewares/Third_Party/LwIP/src/netif/slipif.c ****       LINK_STATS_INC(link.drop);
 269:Middlewares/Third_Party/LwIP/src/netif/slipif.c ****       LWIP_DEBUGF(SLIP_DEBUG, ("slipif_input: no new pbuf! (DROP)\n"));
 270:Middlewares/Third_Party/LwIP/src/netif/slipif.c ****       /* don't process any further since we got no pbuf to receive to */
 271:Middlewares/Third_Party/LwIP/src/netif/slipif.c ****       return NULL;
 272:Middlewares/Third_Party/LwIP/src/netif/slipif.c ****     }
 273:Middlewares/Third_Party/LwIP/src/netif/slipif.c **** 
 274:Middlewares/Third_Party/LwIP/src/netif/slipif.c ****     if (priv->q != NULL) {
 275:Middlewares/Third_Party/LwIP/src/netif/slipif.c ****       /* 'chain' the pbuf to the existing chain */
 276:Middlewares/Third_Party/LwIP/src/netif/slipif.c ****       pbuf_cat(priv->q, priv->p);
 277:Middlewares/Third_Party/LwIP/src/netif/slipif.c ****     } else {
 278:Middlewares/Third_Party/LwIP/src/netif/slipif.c ****       /* p is the first pbuf in the chain */
 279:Middlewares/Third_Party/LwIP/src/netif/slipif.c ****       priv->q = priv->p;
 280:Middlewares/Third_Party/LwIP/src/netif/slipif.c ****     }
 281:Middlewares/Third_Party/LwIP/src/netif/slipif.c ****   }
 282:Middlewares/Third_Party/LwIP/src/netif/slipif.c **** 
 283:Middlewares/Third_Party/LwIP/src/netif/slipif.c ****   /* this automatically drops bytes if > SLIP_MAX_SIZE */
 284:Middlewares/Third_Party/LwIP/src/netif/slipif.c ****   if ((priv->p != NULL) && (priv->recved <= SLIP_MAX_SIZE)) {
  96              		.loc 1 284 3 is_stmt 1 view .LVU21
  97              		.loc 1 284 12 is_stmt 0 view .LVU22
  98 0022 6068     		ldr	r0, [r4, #4]
  99              		.loc 1 284 6 view .LVU23
 100 0024 0028     		cmp	r0, #0
 101 0026 61D0     		beq	.L1
ARM GAS  D:\Dev\msys64\tmp\ccqpdwec.s 			page 8


 102              		.loc 1 284 33 discriminator 1 view .LVU24
 103 0028 228A     		ldrh	r2, [r4, #16]
 104              		.loc 1 284 25 discriminator 1 view .LVU25
 105 002a 40F2DC53 		movw	r3, #1500
 106 002e 9A42     		cmp	r2, r3
 107 0030 5BD8     		bhi	.L16
 285:Middlewares/Third_Party/LwIP/src/netif/slipif.c ****     ((u8_t *)priv->p->payload)[priv->i] = c;
 108              		.loc 1 285 5 is_stmt 1 view .LVU26
 109              		.loc 1 285 21 is_stmt 0 view .LVU27
 110 0032 4268     		ldr	r2, [r0, #4]
 111              		.loc 1 285 36 view .LVU28
 112 0034 E389     		ldrh	r3, [r4, #14]
 113              		.loc 1 285 41 view .LVU29
 114 0036 D554     		strb	r5, [r2, r3]
 286:Middlewares/Third_Party/LwIP/src/netif/slipif.c ****     priv->recved++;
 115              		.loc 1 286 5 is_stmt 1 view .LVU30
 116              		.loc 1 286 9 is_stmt 0 view .LVU31
 117 0038 238A     		ldrh	r3, [r4, #16]
 118              		.loc 1 286 17 view .LVU32
 119 003a 0133     		adds	r3, r3, #1
 120 003c 2382     		strh	r3, [r4, #16]	@ movhi
 287:Middlewares/Third_Party/LwIP/src/netif/slipif.c ****     priv->i++;
 121              		.loc 1 287 5 is_stmt 1 view .LVU33
 122              		.loc 1 287 9 is_stmt 0 view .LVU34
 123 003e E389     		ldrh	r3, [r4, #14]
 124              		.loc 1 287 12 view .LVU35
 125 0040 0133     		adds	r3, r3, #1
 126 0042 9BB2     		uxth	r3, r3
 127 0044 E381     		strh	r3, [r4, #14]	@ movhi
 288:Middlewares/Third_Party/LwIP/src/netif/slipif.c ****     if (priv->i >= priv->p->len) {
 128              		.loc 1 288 5 is_stmt 1 view .LVU36
 129              		.loc 1 288 24 is_stmt 0 view .LVU37
 130 0046 6268     		ldr	r2, [r4, #4]
 131              		.loc 1 288 27 view .LVU38
 132 0048 5189     		ldrh	r1, [r2, #10]
 133              		.loc 1 288 8 view .LVU39
 134 004a 8B42     		cmp	r3, r1
 135 004c 4FD3     		bcc	.L17
 289:Middlewares/Third_Party/LwIP/src/netif/slipif.c ****       /* on to the next pbuf */
 290:Middlewares/Third_Party/LwIP/src/netif/slipif.c ****       priv->i = 0;
 136              		.loc 1 290 7 is_stmt 1 view .LVU40
 137              		.loc 1 290 15 is_stmt 0 view .LVU41
 138 004e 0023     		movs	r3, #0
 139 0050 E381     		strh	r3, [r4, #14]	@ movhi
 291:Middlewares/Third_Party/LwIP/src/netif/slipif.c ****       if (priv->p->next != NULL && priv->p->next->len > 0) {
 140              		.loc 1 291 7 is_stmt 1 view .LVU42
 141              		.loc 1 291 18 is_stmt 0 view .LVU43
 142 0052 1368     		ldr	r3, [r2]
 143              		.loc 1 291 10 view .LVU44
 144 0054 002B     		cmp	r3, #0
 145 0056 45D0     		beq	.L13
 146              		.loc 1 291 49 discriminator 1 view .LVU45
 147 0058 5A89     		ldrh	r2, [r3, #10]
 148              		.loc 1 291 33 discriminator 1 view .LVU46
 149 005a 002A     		cmp	r2, #0
 150 005c 42D0     		beq	.L13
 292:Middlewares/Third_Party/LwIP/src/netif/slipif.c ****         /* p is a chain, on to the next in the chain */
ARM GAS  D:\Dev\msys64\tmp\ccqpdwec.s 			page 9


 293:Middlewares/Third_Party/LwIP/src/netif/slipif.c ****         priv->p = priv->p->next;
 151              		.loc 1 293 9 is_stmt 1 view .LVU47
 152              		.loc 1 293 17 is_stmt 0 view .LVU48
 153 005e 6360     		str	r3, [r4, #4]
 294:Middlewares/Third_Party/LwIP/src/netif/slipif.c ****       } else {
 295:Middlewares/Third_Party/LwIP/src/netif/slipif.c ****         /* p is a single pbuf, set it to NULL so next time a new
 296:Middlewares/Third_Party/LwIP/src/netif/slipif.c ****          * pbuf is allocated */
 297:Middlewares/Third_Party/LwIP/src/netif/slipif.c ****         priv->p = NULL;
 298:Middlewares/Third_Party/LwIP/src/netif/slipif.c ****       }
 299:Middlewares/Third_Party/LwIP/src/netif/slipif.c ****     }
 300:Middlewares/Third_Party/LwIP/src/netif/slipif.c ****   }
 301:Middlewares/Third_Party/LwIP/src/netif/slipif.c ****   return NULL;
 154              		.loc 1 301 10 view .LVU49
 155 0060 0020     		movs	r0, #0
 293:Middlewares/Third_Party/LwIP/src/netif/slipif.c ****       } else {
 156              		.loc 1 293 17 view .LVU50
 157 0062 43E0     		b	.L1
 158              	.LVL4:
 159              	.L19:
 212:Middlewares/Third_Party/LwIP/src/netif/slipif.c ****   LWIP_ASSERT("netif->state != NULL", (netif->state != NULL));
 160              		.loc 1 212 3 is_stmt 1 discriminator 1 view .LVU51
 212:Middlewares/Third_Party/LwIP/src/netif/slipif.c ****   LWIP_ASSERT("netif->state != NULL", (netif->state != NULL));
 161              		.loc 1 212 3 discriminator 1 view .LVU52
 162 0064 234B     		ldr	r3, .L23
 163 0066 D422     		movs	r2, #212
 164 0068 2349     		ldr	r1, .L23+4
 165              	.LVL5:
 212:Middlewares/Third_Party/LwIP/src/netif/slipif.c ****   LWIP_ASSERT("netif->state != NULL", (netif->state != NULL));
 166              		.loc 1 212 3 is_stmt 0 discriminator 1 view .LVU53
 167 006a 2448     		ldr	r0, .L23+8
 168              	.LVL6:
 212:Middlewares/Third_Party/LwIP/src/netif/slipif.c ****   LWIP_ASSERT("netif->state != NULL", (netif->state != NULL));
 169              		.loc 1 212 3 discriminator 1 view .LVU54
 170 006c FFF7FEFF 		bl	printf
 171              	.LVL7:
 172 0070 CBE7     		b	.L2
 173              	.L20:
 213:Middlewares/Third_Party/LwIP/src/netif/slipif.c **** 
 174              		.loc 1 213 3 is_stmt 1 discriminator 1 view .LVU55
 213:Middlewares/Third_Party/LwIP/src/netif/slipif.c **** 
 175              		.loc 1 213 3 discriminator 1 view .LVU56
 176 0072 204B     		ldr	r3, .L23
 177 0074 D522     		movs	r2, #213
 178 0076 2249     		ldr	r1, .L23+12
 179 0078 2048     		ldr	r0, .L23+8
 180 007a FFF7FEFF 		bl	printf
 181              	.LVL8:
 182 007e C7E7     		b	.L3
 183              	.LVL9:
 184              	.L4:
 219:Middlewares/Third_Party/LwIP/src/netif/slipif.c ****         case SLIP_END:
 185              		.loc 1 219 7 view .LVU57
 186 0080 C02D     		cmp	r5, #192
 187 0082 05D0     		beq	.L7
 188 0084 DB2D     		cmp	r5, #219
 189 0086 C9D1     		bne	.L6
 236:Middlewares/Third_Party/LwIP/src/netif/slipif.c ****           return NULL;
ARM GAS  D:\Dev\msys64\tmp\ccqpdwec.s 			page 10


 190              		.loc 1 236 11 view .LVU58
 236:Middlewares/Third_Party/LwIP/src/netif/slipif.c ****           return NULL;
 191              		.loc 1 236 23 is_stmt 0 view .LVU59
 192 0088 0123     		movs	r3, #1
 193 008a 2373     		strb	r3, [r4, #12]
 237:Middlewares/Third_Party/LwIP/src/netif/slipif.c ****         default:
 194              		.loc 1 237 11 is_stmt 1 view .LVU60
 237:Middlewares/Third_Party/LwIP/src/netif/slipif.c ****         default:
 195              		.loc 1 237 18 is_stmt 0 view .LVU61
 196 008c 0020     		movs	r0, #0
 197 008e 2DE0     		b	.L1
 198              	.L7:
 221:Middlewares/Third_Party/LwIP/src/netif/slipif.c ****             /* Received whole packet. */
 199              		.loc 1 221 11 is_stmt 1 view .LVU62
 221:Middlewares/Third_Party/LwIP/src/netif/slipif.c ****             /* Received whole packet. */
 200              		.loc 1 221 19 is_stmt 0 view .LVU63
 201 0090 218A     		ldrh	r1, [r4, #16]
 221:Middlewares/Third_Party/LwIP/src/netif/slipif.c ****             /* Received whole packet. */
 202              		.loc 1 221 14 view .LVU64
 203 0092 09B9     		cbnz	r1, .L22
 234:Middlewares/Third_Party/LwIP/src/netif/slipif.c ****         case SLIP_ESC:
 204              		.loc 1 234 18 view .LVU65
 205 0094 0020     		movs	r0, #0
 206 0096 29E0     		b	.L1
 207              	.L22:
 224:Middlewares/Third_Party/LwIP/src/netif/slipif.c **** 
 208              		.loc 1 224 13 is_stmt 1 view .LVU66
 209 0098 A068     		ldr	r0, [r4, #8]
 210 009a FFF7FEFF 		bl	pbuf_realloc
 211              	.LVL10:
 226:Middlewares/Third_Party/LwIP/src/netif/slipif.c **** 
 212              		.loc 1 226 38 view .LVU67
 228:Middlewares/Third_Party/LwIP/src/netif/slipif.c ****             t = priv->q;
 213              		.loc 1 228 93 view .LVU68
 229:Middlewares/Third_Party/LwIP/src/netif/slipif.c ****             priv->p = priv->q = NULL;
 214              		.loc 1 229 13 view .LVU69
 229:Middlewares/Third_Party/LwIP/src/netif/slipif.c ****             priv->p = priv->q = NULL;
 215              		.loc 1 229 15 is_stmt 0 view .LVU70
 216 009e A068     		ldr	r0, [r4, #8]
 217              	.LVL11:
 230:Middlewares/Third_Party/LwIP/src/netif/slipif.c ****             priv->i = priv->recved = 0;
 218              		.loc 1 230 13 is_stmt 1 view .LVU71
 230:Middlewares/Third_Party/LwIP/src/netif/slipif.c ****             priv->i = priv->recved = 0;
 219              		.loc 1 230 31 is_stmt 0 view .LVU72
 220 00a0 0023     		movs	r3, #0
 221 00a2 A360     		str	r3, [r4, #8]
 230:Middlewares/Third_Party/LwIP/src/netif/slipif.c ****             priv->i = priv->recved = 0;
 222              		.loc 1 230 21 view .LVU73
 223 00a4 6360     		str	r3, [r4, #4]
 231:Middlewares/Third_Party/LwIP/src/netif/slipif.c ****             return t;
 224              		.loc 1 231 13 is_stmt 1 view .LVU74
 231:Middlewares/Third_Party/LwIP/src/netif/slipif.c ****             return t;
 225              		.loc 1 231 36 is_stmt 0 view .LVU75
 226 00a6 2382     		strh	r3, [r4, #16]	@ movhi
 231:Middlewares/Third_Party/LwIP/src/netif/slipif.c ****             return t;
 227              		.loc 1 231 21 view .LVU76
 228 00a8 E381     		strh	r3, [r4, #14]	@ movhi
ARM GAS  D:\Dev\msys64\tmp\ccqpdwec.s 			page 11


 232:Middlewares/Third_Party/LwIP/src/netif/slipif.c ****           }
 229              		.loc 1 232 13 is_stmt 1 view .LVU77
 232:Middlewares/Third_Party/LwIP/src/netif/slipif.c ****           }
 230              		.loc 1 232 20 is_stmt 0 view .LVU78
 231 00aa 1FE0     		b	.L1
 232              	.LVL12:
 233              	.L5:
 245:Middlewares/Third_Party/LwIP/src/netif/slipif.c ****         case SLIP_ESC_END:
 234              		.loc 1 245 7 is_stmt 1 view .LVU79
 235 00ac DC2D     		cmp	r5, #220
 236 00ae 05D0     		beq	.L15
 237 00b0 DD2D     		cmp	r5, #221
 238 00b2 00D1     		bne	.L10
 250:Middlewares/Third_Party/LwIP/src/netif/slipif.c ****           break;
 239              		.loc 1 250 13 is_stmt 0 view .LVU80
 240 00b4 DB25     		movs	r5, #219
 241              	.L10:
 242              	.LVL13:
 255:Middlewares/Third_Party/LwIP/src/netif/slipif.c ****       break;
 243              		.loc 1 255 7 is_stmt 1 view .LVU81
 255:Middlewares/Third_Party/LwIP/src/netif/slipif.c ****       break;
 244              		.loc 1 255 19 is_stmt 0 view .LVU82
 245 00b6 0023     		movs	r3, #0
 246 00b8 2373     		strb	r3, [r4, #12]
 256:Middlewares/Third_Party/LwIP/src/netif/slipif.c ****     default:
 247              		.loc 1 256 7 is_stmt 1 view .LVU83
 248 00ba AFE7     		b	.L6
 249              	.LVL14:
 250              	.L15:
 247:Middlewares/Third_Party/LwIP/src/netif/slipif.c ****           break;
 251              		.loc 1 247 13 is_stmt 0 view .LVU84
 252 00bc C025     		movs	r5, #192
 253 00be FAE7     		b	.L10
 254              	.LVL15:
 255              	.L21:
 264:Middlewares/Third_Party/LwIP/src/netif/slipif.c ****     priv->p = pbuf_alloc(PBUF_LINK, (PBUF_POOL_BUFSIZE - PBUF_LINK_HLEN - PBUF_LINK_ENCAPSULATION_H
 256              		.loc 1 264 55 is_stmt 1 view .LVU85
 265:Middlewares/Third_Party/LwIP/src/netif/slipif.c **** 
 257              		.loc 1 265 5 view .LVU86
 265:Middlewares/Third_Party/LwIP/src/netif/slipif.c **** 
 258              		.loc 1 265 15 is_stmt 0 view .LVU87
 259 00c0 4FF4C172 		mov	r2, #386
 260 00c4 40F2E651 		movw	r1, #1510
 261 00c8 0E20     		movs	r0, #14
 262 00ca FFF7FEFF 		bl	pbuf_alloc
 263              	.LVL16:
 265:Middlewares/Third_Party/LwIP/src/netif/slipif.c **** 
 264              		.loc 1 265 13 view .LVU88
 265 00ce 6060     		str	r0, [r4, #4]
 267:Middlewares/Third_Party/LwIP/src/netif/slipif.c ****       LINK_STATS_INC(link.drop);
 266              		.loc 1 267 5 is_stmt 1 view .LVU89
 267:Middlewares/Third_Party/LwIP/src/netif/slipif.c ****       LINK_STATS_INC(link.drop);
 267              		.loc 1 267 8 is_stmt 0 view .LVU90
 268 00d0 60B1     		cbz	r0, .L1
 274:Middlewares/Third_Party/LwIP/src/netif/slipif.c ****       /* 'chain' the pbuf to the existing chain */
 269              		.loc 1 274 5 is_stmt 1 view .LVU91
 274:Middlewares/Third_Party/LwIP/src/netif/slipif.c ****       /* 'chain' the pbuf to the existing chain */
ARM GAS  D:\Dev\msys64\tmp\ccqpdwec.s 			page 12


 270              		.loc 1 274 13 is_stmt 0 view .LVU92
 271 00d2 A368     		ldr	r3, [r4, #8]
 274:Middlewares/Third_Party/LwIP/src/netif/slipif.c ****       /* 'chain' the pbuf to the existing chain */
 272              		.loc 1 274 8 view .LVU93
 273 00d4 23B1     		cbz	r3, .L12
 276:Middlewares/Third_Party/LwIP/src/netif/slipif.c ****     } else {
 274              		.loc 1 276 7 is_stmt 1 view .LVU94
 275 00d6 0146     		mov	r1, r0
 276 00d8 1846     		mov	r0, r3
 277 00da FFF7FEFF 		bl	pbuf_cat
 278              	.LVL17:
 279 00de A0E7     		b	.L11
 280              	.L12:
 279:Middlewares/Third_Party/LwIP/src/netif/slipif.c ****     }
 281              		.loc 1 279 7 view .LVU95
 279:Middlewares/Third_Party/LwIP/src/netif/slipif.c ****     }
 282              		.loc 1 279 15 is_stmt 0 view .LVU96
 283 00e0 A060     		str	r0, [r4, #8]
 284 00e2 9EE7     		b	.L11
 285              	.L13:
 297:Middlewares/Third_Party/LwIP/src/netif/slipif.c ****       }
 286              		.loc 1 297 9 is_stmt 1 view .LVU97
 297:Middlewares/Third_Party/LwIP/src/netif/slipif.c ****       }
 287              		.loc 1 297 17 is_stmt 0 view .LVU98
 288 00e4 0020     		movs	r0, #0
 289 00e6 6060     		str	r0, [r4, #4]
 290 00e8 00E0     		b	.L1
 291              	.L16:
 292              		.loc 1 301 10 view .LVU99
 293 00ea 0020     		movs	r0, #0
 294              	.LVL18:
 295              	.L1:
 302:Middlewares/Third_Party/LwIP/src/netif/slipif.c **** }
 296              		.loc 1 302 1 view .LVU100
 297 00ec 38BD     		pop	{r3, r4, r5, pc}
 298              	.LVL19:
 299              	.L17:
 301:Middlewares/Third_Party/LwIP/src/netif/slipif.c **** }
 300              		.loc 1 301 10 view .LVU101
 301 00ee 0020     		movs	r0, #0
 302 00f0 FCE7     		b	.L1
 303              	.L24:
 304 00f2 00BF     		.align	2
 305              	.L23:
 306 00f4 00000000 		.word	.LC0
 307 00f8 30000000 		.word	.LC1
 308 00fc 40000000 		.word	.LC2
 309 0100 68000000 		.word	.LC3
 310              		.cfi_endproc
 311              	.LFE32:
 313              		.section	.text.slipif_rxbyte_input,"ax",%progbits
 314              		.align	1
 315              		.syntax unified
 316              		.thumb
 317              		.thumb_func
 318              		.fpu fpv5-sp-d16
 320              	slipif_rxbyte_input:
ARM GAS  D:\Dev\msys64\tmp\ccqpdwec.s 			page 13


 321              	.LVL20:
 322              	.LFB33:
 303:Middlewares/Third_Party/LwIP/src/netif/slipif.c **** 
 304:Middlewares/Third_Party/LwIP/src/netif/slipif.c **** /** Like slipif_rxbyte, but passes completed packets to netif->input
 305:Middlewares/Third_Party/LwIP/src/netif/slipif.c ****  *
 306:Middlewares/Third_Party/LwIP/src/netif/slipif.c ****  * @param netif The lwip network interface structure for this slipif
 307:Middlewares/Third_Party/LwIP/src/netif/slipif.c ****  * @param c received character
 308:Middlewares/Third_Party/LwIP/src/netif/slipif.c ****  */
 309:Middlewares/Third_Party/LwIP/src/netif/slipif.c **** static void
 310:Middlewares/Third_Party/LwIP/src/netif/slipif.c **** slipif_rxbyte_input(struct netif *netif, u8_t c)
 311:Middlewares/Third_Party/LwIP/src/netif/slipif.c **** {
 323              		.loc 1 311 1 is_stmt 1 view -0
 324              		.cfi_startproc
 325              		@ args = 0, pretend = 0, frame = 0
 326              		@ frame_needed = 0, uses_anonymous_args = 0
 327              		.loc 1 311 1 is_stmt 0 view .LVU103
 328 0000 38B5     		push	{r3, r4, r5, lr}
 329              	.LCFI1:
 330              		.cfi_def_cfa_offset 16
 331              		.cfi_offset 3, -16
 332              		.cfi_offset 4, -12
 333              		.cfi_offset 5, -8
 334              		.cfi_offset 14, -4
 335 0002 0446     		mov	r4, r0
 312:Middlewares/Third_Party/LwIP/src/netif/slipif.c ****   struct pbuf *p;
 336              		.loc 1 312 3 is_stmt 1 view .LVU104
 313:Middlewares/Third_Party/LwIP/src/netif/slipif.c ****   p = slipif_rxbyte(netif, c);
 337              		.loc 1 313 3 view .LVU105
 338              		.loc 1 313 7 is_stmt 0 view .LVU106
 339 0004 FFF7FEFF 		bl	slipif_rxbyte
 340              	.LVL21:
 314:Middlewares/Third_Party/LwIP/src/netif/slipif.c ****   if (p != NULL) {
 341              		.loc 1 314 3 is_stmt 1 view .LVU107
 342              		.loc 1 314 6 is_stmt 0 view .LVU108
 343 0008 20B1     		cbz	r0, .L25
 344 000a 0546     		mov	r5, r0
 315:Middlewares/Third_Party/LwIP/src/netif/slipif.c ****     if (netif->input(p, netif) != ERR_OK) {
 345              		.loc 1 315 5 is_stmt 1 view .LVU109
 346              		.loc 1 315 14 is_stmt 0 view .LVU110
 347 000c 2369     		ldr	r3, [r4, #16]
 348              		.loc 1 315 9 view .LVU111
 349 000e 2146     		mov	r1, r4
 350 0010 9847     		blx	r3
 351              	.LVL22:
 352              		.loc 1 315 8 view .LVU112
 353 0012 00B9     		cbnz	r0, .L28
 354              	.LVL23:
 355              	.L25:
 316:Middlewares/Third_Party/LwIP/src/netif/slipif.c ****       pbuf_free(p);
 317:Middlewares/Third_Party/LwIP/src/netif/slipif.c ****     }
 318:Middlewares/Third_Party/LwIP/src/netif/slipif.c ****   }
 319:Middlewares/Third_Party/LwIP/src/netif/slipif.c **** }
 356              		.loc 1 319 1 view .LVU113
 357 0014 38BD     		pop	{r3, r4, r5, pc}
 358              	.LVL24:
 359              	.L28:
 316:Middlewares/Third_Party/LwIP/src/netif/slipif.c ****       pbuf_free(p);
ARM GAS  D:\Dev\msys64\tmp\ccqpdwec.s 			page 14


 360              		.loc 1 316 7 is_stmt 1 view .LVU114
 361 0016 2846     		mov	r0, r5
 362 0018 FFF7FEFF 		bl	pbuf_free
 363              	.LVL25:
 364              		.loc 1 319 1 is_stmt 0 view .LVU115
 365 001c FAE7     		b	.L25
 366              		.cfi_endproc
 367              	.LFE33:
 369              		.section	.text.slipif_loop_thread,"ax",%progbits
 370              		.align	1
 371              		.syntax unified
 372              		.thumb
 373              		.thumb_func
 374              		.fpu fpv5-sp-d16
 376              	slipif_loop_thread:
 377              	.LVL26:
 378              	.LFB34:
 320:Middlewares/Third_Party/LwIP/src/netif/slipif.c **** 
 321:Middlewares/Third_Party/LwIP/src/netif/slipif.c **** #if SLIP_USE_RX_THREAD
 322:Middlewares/Third_Party/LwIP/src/netif/slipif.c **** /**
 323:Middlewares/Third_Party/LwIP/src/netif/slipif.c ****  * The SLIP input thread.
 324:Middlewares/Third_Party/LwIP/src/netif/slipif.c ****  *
 325:Middlewares/Third_Party/LwIP/src/netif/slipif.c ****  * Feed the IP layer with incoming packets
 326:Middlewares/Third_Party/LwIP/src/netif/slipif.c ****  *
 327:Middlewares/Third_Party/LwIP/src/netif/slipif.c ****  * @param nf the lwip network interface structure for this slipif
 328:Middlewares/Third_Party/LwIP/src/netif/slipif.c ****  */
 329:Middlewares/Third_Party/LwIP/src/netif/slipif.c **** static void
 330:Middlewares/Third_Party/LwIP/src/netif/slipif.c **** slipif_loop_thread(void *nf)
 331:Middlewares/Third_Party/LwIP/src/netif/slipif.c **** {
 379              		.loc 1 331 1 is_stmt 1 view -0
 380              		.cfi_startproc
 381              		@ args = 0, pretend = 0, frame = 8
 382              		@ frame_needed = 0, uses_anonymous_args = 0
 383              		.loc 1 331 1 is_stmt 0 view .LVU117
 384 0000 30B5     		push	{r4, r5, lr}
 385              	.LCFI2:
 386              		.cfi_def_cfa_offset 12
 387              		.cfi_offset 4, -12
 388              		.cfi_offset 5, -8
 389              		.cfi_offset 14, -4
 390 0002 83B0     		sub	sp, sp, #12
 391              	.LCFI3:
 392              		.cfi_def_cfa_offset 24
 393 0004 0546     		mov	r5, r0
 332:Middlewares/Third_Party/LwIP/src/netif/slipif.c ****   u8_t c;
 394              		.loc 1 332 3 is_stmt 1 view .LVU118
 333:Middlewares/Third_Party/LwIP/src/netif/slipif.c ****   struct netif *netif = (struct netif *)nf;
 395              		.loc 1 333 3 view .LVU119
 396              	.LVL27:
 334:Middlewares/Third_Party/LwIP/src/netif/slipif.c ****   struct slipif_priv *priv = (struct slipif_priv *)netif->state;
 397              		.loc 1 334 3 view .LVU120
 398              		.loc 1 334 23 is_stmt 0 view .LVU121
 399 0006 046A     		ldr	r4, [r0, #32]
 400              	.LVL28:
 401              		.loc 1 334 23 view .LVU122
 402 0008 04E0     		b	.L30
 403              	.LVL29:
ARM GAS  D:\Dev\msys64\tmp\ccqpdwec.s 			page 15


 404              	.L33:
 335:Middlewares/Third_Party/LwIP/src/netif/slipif.c **** 
 336:Middlewares/Third_Party/LwIP/src/netif/slipif.c ****   while (1) {
 337:Middlewares/Third_Party/LwIP/src/netif/slipif.c ****     if (sio_read(priv->sd, &c, 1) > 0) {
 338:Middlewares/Third_Party/LwIP/src/netif/slipif.c ****       slipif_rxbyte_input(netif, c);
 405              		.loc 1 338 7 is_stmt 1 view .LVU123
 406 000a 9DF80710 		ldrb	r1, [sp, #7]	@ zero_extendqisi2
 407 000e 2846     		mov	r0, r5
 408 0010 FFF7FEFF 		bl	slipif_rxbyte_input
 409              	.LVL30:
 410              	.L30:
 336:Middlewares/Third_Party/LwIP/src/netif/slipif.c ****     if (sio_read(priv->sd, &c, 1) > 0) {
 411              		.loc 1 336 3 view .LVU124
 337:Middlewares/Third_Party/LwIP/src/netif/slipif.c ****       slipif_rxbyte_input(netif, c);
 412              		.loc 1 337 5 view .LVU125
 337:Middlewares/Third_Party/LwIP/src/netif/slipif.c ****       slipif_rxbyte_input(netif, c);
 413              		.loc 1 337 9 is_stmt 0 view .LVU126
 414 0014 0122     		movs	r2, #1
 415 0016 0DF10701 		add	r1, sp, #7
 416 001a 2068     		ldr	r0, [r4]
 417 001c FFF7FEFF 		bl	sio_read
 418              	.LVL31:
 337:Middlewares/Third_Party/LwIP/src/netif/slipif.c ****       slipif_rxbyte_input(netif, c);
 419              		.loc 1 337 8 view .LVU127
 420 0020 0028     		cmp	r0, #0
 421 0022 F7D0     		beq	.L30
 422 0024 F1E7     		b	.L33
 423              		.cfi_endproc
 424              	.LFE34:
 426              		.section	.rodata.slipif_output.str1.4,"aMS",%progbits,1
 427              		.align	2
 428              	.LC4:
 429 0000 7020213D 		.ascii	"p != NULL\000"
 429      204E554C 
 429      4C00
 430              		.section	.text.slipif_output,"ax",%progbits
 431              		.align	1
 432              		.syntax unified
 433              		.thumb
 434              		.thumb_func
 435              		.fpu fpv5-sp-d16
 437              	slipif_output:
 438              	.LVL32:
 439              	.LFB30:
 117:Middlewares/Third_Party/LwIP/src/netif/slipif.c ****   struct slipif_priv *priv;
 440              		.loc 1 117 1 is_stmt 1 view -0
 441              		.cfi_startproc
 442              		@ args = 0, pretend = 0, frame = 0
 443              		@ frame_needed = 0, uses_anonymous_args = 0
 117:Middlewares/Third_Party/LwIP/src/netif/slipif.c ****   struct slipif_priv *priv;
 444              		.loc 1 117 1 is_stmt 0 view .LVU129
 445 0000 70B5     		push	{r4, r5, r6, lr}
 446              	.LCFI4:
 447              		.cfi_def_cfa_offset 16
 448              		.cfi_offset 4, -16
 449              		.cfi_offset 5, -12
 450              		.cfi_offset 6, -8
ARM GAS  D:\Dev\msys64\tmp\ccqpdwec.s 			page 16


 451              		.cfi_offset 14, -4
 452 0002 0D46     		mov	r5, r1
 118:Middlewares/Third_Party/LwIP/src/netif/slipif.c ****   struct pbuf *q;
 453              		.loc 1 118 3 is_stmt 1 view .LVU130
 119:Middlewares/Third_Party/LwIP/src/netif/slipif.c ****   u16_t i;
 454              		.loc 1 119 3 view .LVU131
 120:Middlewares/Third_Party/LwIP/src/netif/slipif.c ****   u8_t c;
 455              		.loc 1 120 3 view .LVU132
 121:Middlewares/Third_Party/LwIP/src/netif/slipif.c **** 
 456              		.loc 1 121 3 view .LVU133
 123:Middlewares/Third_Party/LwIP/src/netif/slipif.c ****   LWIP_ASSERT("netif->state != NULL", (netif->state != NULL));
 457              		.loc 1 123 3 view .LVU134
 123:Middlewares/Third_Party/LwIP/src/netif/slipif.c ****   LWIP_ASSERT("netif->state != NULL", (netif->state != NULL));
 458              		.loc 1 123 3 view .LVU135
 459 0004 0446     		mov	r4, r0
 460 0006 40B1     		cbz	r0, .L48
 461              	.LVL33:
 462              	.L35:
 123:Middlewares/Third_Party/LwIP/src/netif/slipif.c ****   LWIP_ASSERT("netif->state != NULL", (netif->state != NULL));
 463              		.loc 1 123 3 discriminator 3 view .LVU136
 123:Middlewares/Third_Party/LwIP/src/netif/slipif.c ****   LWIP_ASSERT("netif->state != NULL", (netif->state != NULL));
 464              		.loc 1 123 3 discriminator 3 view .LVU137
 124:Middlewares/Third_Party/LwIP/src/netif/slipif.c ****   LWIP_ASSERT("p != NULL", (p != NULL));
 465              		.loc 1 124 3 discriminator 3 view .LVU138
 124:Middlewares/Third_Party/LwIP/src/netif/slipif.c ****   LWIP_ASSERT("p != NULL", (p != NULL));
 466              		.loc 1 124 3 discriminator 3 view .LVU139
 467 0008 236A     		ldr	r3, [r4, #32]
 468 000a 6BB1     		cbz	r3, .L49
 469              	.L36:
 124:Middlewares/Third_Party/LwIP/src/netif/slipif.c ****   LWIP_ASSERT("p != NULL", (p != NULL));
 470              		.loc 1 124 3 discriminator 3 view .LVU140
 124:Middlewares/Third_Party/LwIP/src/netif/slipif.c ****   LWIP_ASSERT("p != NULL", (p != NULL));
 471              		.loc 1 124 3 discriminator 3 view .LVU141
 125:Middlewares/Third_Party/LwIP/src/netif/slipif.c **** 
 472              		.loc 1 125 3 discriminator 3 view .LVU142
 125:Middlewares/Third_Party/LwIP/src/netif/slipif.c **** 
 473              		.loc 1 125 3 discriminator 3 view .LVU143
 474 000c 9DB1     		cbz	r5, .L50
 475              	.L37:
 125:Middlewares/Third_Party/LwIP/src/netif/slipif.c **** 
 476              		.loc 1 125 3 discriminator 3 view .LVU144
 125:Middlewares/Third_Party/LwIP/src/netif/slipif.c **** 
 477              		.loc 1 125 3 discriminator 3 view .LVU145
 127:Middlewares/Third_Party/LwIP/src/netif/slipif.c ****   priv = (struct slipif_priv *)netif->state;
 478              		.loc 1 127 83 discriminator 3 view .LVU146
 128:Middlewares/Third_Party/LwIP/src/netif/slipif.c **** 
 479              		.loc 1 128 3 discriminator 3 view .LVU147
 128:Middlewares/Third_Party/LwIP/src/netif/slipif.c **** 
 480              		.loc 1 128 8 is_stmt 0 discriminator 3 view .LVU148
 481 000e 266A     		ldr	r6, [r4, #32]
 482              	.LVL34:
 132:Middlewares/Third_Party/LwIP/src/netif/slipif.c **** 
 483              		.loc 1 132 3 is_stmt 1 discriminator 3 view .LVU149
 484 0010 3168     		ldr	r1, [r6]
 485 0012 C020     		movs	r0, #192
 486 0014 FFF7FEFF 		bl	sio_send
 487              	.LVL35:
ARM GAS  D:\Dev\msys64\tmp\ccqpdwec.s 			page 17


 134:Middlewares/Third_Party/LwIP/src/netif/slipif.c ****     for (i = 0; i < q->len; i++) {
 488              		.loc 1 134 3 discriminator 3 view .LVU150
 134:Middlewares/Third_Party/LwIP/src/netif/slipif.c ****     for (i = 0; i < q->len; i++) {
 489              		.loc 1 134 3 is_stmt 0 discriminator 3 view .LVU151
 490 0018 35E0     		b	.L38
 491              	.LVL36:
 492              	.L48:
 123:Middlewares/Third_Party/LwIP/src/netif/slipif.c ****   LWIP_ASSERT("netif->state != NULL", (netif->state != NULL));
 493              		.loc 1 123 3 is_stmt 1 discriminator 1 view .LVU152
 123:Middlewares/Third_Party/LwIP/src/netif/slipif.c ****   LWIP_ASSERT("netif->state != NULL", (netif->state != NULL));
 494              		.loc 1 123 3 discriminator 1 view .LVU153
 495 001a 1F4B     		ldr	r3, .L53
 496 001c 7B22     		movs	r2, #123
 497 001e 1F49     		ldr	r1, .L53+4
 498              	.LVL37:
 123:Middlewares/Third_Party/LwIP/src/netif/slipif.c ****   LWIP_ASSERT("netif->state != NULL", (netif->state != NULL));
 499              		.loc 1 123 3 is_stmt 0 discriminator 1 view .LVU154
 500 0020 1F48     		ldr	r0, .L53+8
 501              	.LVL38:
 123:Middlewares/Third_Party/LwIP/src/netif/slipif.c ****   LWIP_ASSERT("netif->state != NULL", (netif->state != NULL));
 502              		.loc 1 123 3 discriminator 1 view .LVU155
 503 0022 FFF7FEFF 		bl	printf
 504              	.LVL39:
 505 0026 EFE7     		b	.L35
 506              	.L49:
 124:Middlewares/Third_Party/LwIP/src/netif/slipif.c ****   LWIP_ASSERT("p != NULL", (p != NULL));
 507              		.loc 1 124 3 is_stmt 1 discriminator 1 view .LVU156
 124:Middlewares/Third_Party/LwIP/src/netif/slipif.c ****   LWIP_ASSERT("p != NULL", (p != NULL));
 508              		.loc 1 124 3 discriminator 1 view .LVU157
 509 0028 1B4B     		ldr	r3, .L53
 510 002a 7C22     		movs	r2, #124
 511 002c 1D49     		ldr	r1, .L53+12
 512 002e 1C48     		ldr	r0, .L53+8
 513 0030 FFF7FEFF 		bl	printf
 514              	.LVL40:
 515 0034 EAE7     		b	.L36
 516              	.L50:
 125:Middlewares/Third_Party/LwIP/src/netif/slipif.c **** 
 517              		.loc 1 125 3 discriminator 1 view .LVU158
 125:Middlewares/Third_Party/LwIP/src/netif/slipif.c **** 
 518              		.loc 1 125 3 discriminator 1 view .LVU159
 519 0036 184B     		ldr	r3, .L53
 520 0038 7D22     		movs	r2, #125
 521 003a 1B49     		ldr	r1, .L53+16
 522 003c 1848     		ldr	r0, .L53+8
 523 003e FFF7FEFF 		bl	printf
 524              	.LVL41:
 525 0042 E4E7     		b	.L37
 526              	.LVL42:
 527              	.L39:
 140:Middlewares/Third_Party/LwIP/src/netif/slipif.c ****           sio_send(SLIP_ESC_END, priv->sd);
 528              		.loc 1 140 11 view .LVU160
 529 0044 3168     		ldr	r1, [r6]
 530 0046 DB20     		movs	r0, #219
 531              	.LVL43:
 140:Middlewares/Third_Party/LwIP/src/netif/slipif.c ****           sio_send(SLIP_ESC_END, priv->sd);
 532              		.loc 1 140 11 is_stmt 0 view .LVU161
ARM GAS  D:\Dev\msys64\tmp\ccqpdwec.s 			page 18


 533 0048 FFF7FEFF 		bl	sio_send
 534              	.LVL44:
 141:Middlewares/Third_Party/LwIP/src/netif/slipif.c ****           break;
 535              		.loc 1 141 11 is_stmt 1 view .LVU162
 536 004c 3168     		ldr	r1, [r6]
 537 004e DC20     		movs	r0, #220
 538 0050 FFF7FEFF 		bl	sio_send
 539              	.LVL45:
 142:Middlewares/Third_Party/LwIP/src/netif/slipif.c ****         case SLIP_ESC:
 540              		.loc 1 142 11 view .LVU163
 541              	.L42:
 135:Middlewares/Third_Party/LwIP/src/netif/slipif.c ****       c = ((u8_t *)q->payload)[i];
 542              		.loc 1 135 29 discriminator 2 view .LVU164
 135:Middlewares/Third_Party/LwIP/src/netif/slipif.c ****       c = ((u8_t *)q->payload)[i];
 543              		.loc 1 135 30 is_stmt 0 discriminator 2 view .LVU165
 544 0054 0134     		adds	r4, r4, #1
 545              	.LVL46:
 135:Middlewares/Third_Party/LwIP/src/netif/slipif.c ****       c = ((u8_t *)q->payload)[i];
 546              		.loc 1 135 30 discriminator 2 view .LVU166
 547 0056 A4B2     		uxth	r4, r4
 548              	.LVL47:
 549              	.L44:
 135:Middlewares/Third_Party/LwIP/src/netif/slipif.c ****       c = ((u8_t *)q->payload)[i];
 550              		.loc 1 135 17 is_stmt 1 discriminator 1 view .LVU167
 135:Middlewares/Third_Party/LwIP/src/netif/slipif.c ****       c = ((u8_t *)q->payload)[i];
 551              		.loc 1 135 22 is_stmt 0 discriminator 1 view .LVU168
 552 0058 6B89     		ldrh	r3, [r5, #10]
 135:Middlewares/Third_Party/LwIP/src/netif/slipif.c ****       c = ((u8_t *)q->payload)[i];
 553              		.loc 1 135 5 discriminator 1 view .LVU169
 554 005a A342     		cmp	r3, r4
 555 005c 12D9     		bls	.L51
 136:Middlewares/Third_Party/LwIP/src/netif/slipif.c ****       switch (c) {
 556              		.loc 1 136 7 is_stmt 1 view .LVU170
 136:Middlewares/Third_Party/LwIP/src/netif/slipif.c ****       switch (c) {
 557              		.loc 1 136 21 is_stmt 0 view .LVU171
 558 005e 6B68     		ldr	r3, [r5, #4]
 136:Middlewares/Third_Party/LwIP/src/netif/slipif.c ****       switch (c) {
 559              		.loc 1 136 9 view .LVU172
 560 0060 185D     		ldrb	r0, [r3, r4]	@ zero_extendqisi2
 561              	.LVL48:
 137:Middlewares/Third_Party/LwIP/src/netif/slipif.c ****         case SLIP_END:
 562              		.loc 1 137 7 is_stmt 1 view .LVU173
 563 0062 C028     		cmp	r0, #192
 564 0064 EED0     		beq	.L39
 565 0066 DB28     		cmp	r0, #219
 566 0068 03D0     		beq	.L40
 150:Middlewares/Third_Party/LwIP/src/netif/slipif.c ****           break;
 567              		.loc 1 150 11 view .LVU174
 568 006a 3168     		ldr	r1, [r6]
 569 006c FFF7FEFF 		bl	sio_send
 570              	.LVL49:
 151:Middlewares/Third_Party/LwIP/src/netif/slipif.c ****       }
 571              		.loc 1 151 11 view .LVU175
 572 0070 F0E7     		b	.L42
 573              	.LVL50:
 574              	.L40:
 145:Middlewares/Third_Party/LwIP/src/netif/slipif.c ****           sio_send(SLIP_ESC_ESC, priv->sd);
ARM GAS  D:\Dev\msys64\tmp\ccqpdwec.s 			page 19


 575              		.loc 1 145 11 view .LVU176
 576 0072 3168     		ldr	r1, [r6]
 577 0074 DB20     		movs	r0, #219
 578              	.LVL51:
 145:Middlewares/Third_Party/LwIP/src/netif/slipif.c ****           sio_send(SLIP_ESC_ESC, priv->sd);
 579              		.loc 1 145 11 is_stmt 0 view .LVU177
 580 0076 FFF7FEFF 		bl	sio_send
 581              	.LVL52:
 146:Middlewares/Third_Party/LwIP/src/netif/slipif.c ****           break;
 582              		.loc 1 146 11 is_stmt 1 view .LVU178
 583 007a 3168     		ldr	r1, [r6]
 584 007c DD20     		movs	r0, #221
 585 007e FFF7FEFF 		bl	sio_send
 586              	.LVL53:
 147:Middlewares/Third_Party/LwIP/src/netif/slipif.c ****         default:
 587              		.loc 1 147 11 view .LVU179
 588 0082 E7E7     		b	.L42
 589              	.L51:
 134:Middlewares/Third_Party/LwIP/src/netif/slipif.c ****     for (i = 0; i < q->len; i++) {
 590              		.loc 1 134 26 discriminator 2 view .LVU180
 134:Middlewares/Third_Party/LwIP/src/netif/slipif.c ****     for (i = 0; i < q->len; i++) {
 591              		.loc 1 134 28 is_stmt 0 discriminator 2 view .LVU181
 592 0084 2D68     		ldr	r5, [r5]
 593              	.LVL54:
 594              	.L38:
 134:Middlewares/Third_Party/LwIP/src/netif/slipif.c ****     for (i = 0; i < q->len; i++) {
 595              		.loc 1 134 15 is_stmt 1 discriminator 1 view .LVU182
 134:Middlewares/Third_Party/LwIP/src/netif/slipif.c ****     for (i = 0; i < q->len; i++) {
 596              		.loc 1 134 3 is_stmt 0 discriminator 1 view .LVU183
 597 0086 0DB1     		cbz	r5, .L52
 135:Middlewares/Third_Party/LwIP/src/netif/slipif.c ****       c = ((u8_t *)q->payload)[i];
 598              		.loc 1 135 12 view .LVU184
 599 0088 0024     		movs	r4, #0
 600 008a E5E7     		b	.L44
 601              	.L52:
 156:Middlewares/Third_Party/LwIP/src/netif/slipif.c ****   return ERR_OK;
 602              		.loc 1 156 3 is_stmt 1 view .LVU185
 603 008c 3168     		ldr	r1, [r6]
 604 008e C020     		movs	r0, #192
 605 0090 FFF7FEFF 		bl	sio_send
 606              	.LVL55:
 157:Middlewares/Third_Party/LwIP/src/netif/slipif.c **** }
 607              		.loc 1 157 3 view .LVU186
 158:Middlewares/Third_Party/LwIP/src/netif/slipif.c **** 
 608              		.loc 1 158 1 is_stmt 0 view .LVU187
 609 0094 0020     		movs	r0, #0
 610 0096 70BD     		pop	{r4, r5, r6, pc}
 611              	.LVL56:
 612              	.L54:
 158:Middlewares/Third_Party/LwIP/src/netif/slipif.c **** 
 613              		.loc 1 158 1 view .LVU188
 614              		.align	2
 615              	.L53:
 616 0098 00000000 		.word	.LC0
 617 009c 30000000 		.word	.LC1
 618 00a0 40000000 		.word	.LC2
 619 00a4 68000000 		.word	.LC3
ARM GAS  D:\Dev\msys64\tmp\ccqpdwec.s 			page 20


 620 00a8 00000000 		.word	.LC4
 621              		.cfi_endproc
 622              	.LFE30:
 624              		.section	.text.slipif_output_v4,"ax",%progbits
 625              		.align	1
 626              		.syntax unified
 627              		.thumb
 628              		.thumb_func
 629              		.fpu fpv5-sp-d16
 631              	slipif_output_v4:
 632              	.LVL57:
 633              	.LFB31:
 173:Middlewares/Third_Party/LwIP/src/netif/slipif.c ****   LWIP_UNUSED_ARG(ipaddr);
 634              		.loc 1 173 1 is_stmt 1 view -0
 635              		.cfi_startproc
 636              		@ args = 0, pretend = 0, frame = 0
 637              		@ frame_needed = 0, uses_anonymous_args = 0
 173:Middlewares/Third_Party/LwIP/src/netif/slipif.c ****   LWIP_UNUSED_ARG(ipaddr);
 638              		.loc 1 173 1 is_stmt 0 view .LVU190
 639 0000 08B5     		push	{r3, lr}
 640              	.LCFI5:
 641              		.cfi_def_cfa_offset 8
 642              		.cfi_offset 3, -8
 643              		.cfi_offset 14, -4
 174:Middlewares/Third_Party/LwIP/src/netif/slipif.c ****   return slipif_output(netif, p);
 644              		.loc 1 174 3 is_stmt 1 view .LVU191
 175:Middlewares/Third_Party/LwIP/src/netif/slipif.c **** }
 645              		.loc 1 175 3 view .LVU192
 175:Middlewares/Third_Party/LwIP/src/netif/slipif.c **** }
 646              		.loc 1 175 10 is_stmt 0 view .LVU193
 647 0002 FFF7FEFF 		bl	slipif_output
 648              	.LVL58:
 176:Middlewares/Third_Party/LwIP/src/netif/slipif.c **** #endif /* LWIP_IPV4 */
 649              		.loc 1 176 1 view .LVU194
 650 0006 08BD     		pop	{r3, pc}
 651              		.cfi_endproc
 652              	.LFE31:
 654              		.section	.rodata.slipif_init.str1.4,"aMS",%progbits,1
 655              		.align	2
 656              	.LC5:
 657 0000 736C6970 		.ascii	"slipif needs an input callback\000"
 657      6966206E 
 657      65656473 
 657      20616E20 
 657      696E7075 
 658 001f 00       		.align	2
 659              	.LC6:
 660 0020 736C6970 		.ascii	"slipif_loop\000"
 660      69665F6C 
 660      6F6F7000 
 661              		.section	.text.slipif_init,"ax",%progbits
 662              		.align	1
 663              		.global	slipif_init
 664              		.syntax unified
 665              		.thumb
 666              		.thumb_func
 667              		.fpu fpv5-sp-d16
ARM GAS  D:\Dev\msys64\tmp\ccqpdwec.s 			page 21


 669              	slipif_init:
 670              	.LVL59:
 671              	.LFB35:
 339:Middlewares/Third_Party/LwIP/src/netif/slipif.c ****     }
 340:Middlewares/Third_Party/LwIP/src/netif/slipif.c ****   }
 341:Middlewares/Third_Party/LwIP/src/netif/slipif.c **** }
 342:Middlewares/Third_Party/LwIP/src/netif/slipif.c **** #endif /* SLIP_USE_RX_THREAD */
 343:Middlewares/Third_Party/LwIP/src/netif/slipif.c **** 
 344:Middlewares/Third_Party/LwIP/src/netif/slipif.c **** /**
 345:Middlewares/Third_Party/LwIP/src/netif/slipif.c ****  * @ingroup slipif
 346:Middlewares/Third_Party/LwIP/src/netif/slipif.c ****  * SLIP netif initialization
 347:Middlewares/Third_Party/LwIP/src/netif/slipif.c ****  *
 348:Middlewares/Third_Party/LwIP/src/netif/slipif.c ****  * Call the arch specific sio_open and remember
 349:Middlewares/Third_Party/LwIP/src/netif/slipif.c ****  * the opened device in the state field of the netif.
 350:Middlewares/Third_Party/LwIP/src/netif/slipif.c ****  *
 351:Middlewares/Third_Party/LwIP/src/netif/slipif.c ****  * @param netif the lwip network interface structure for this slipif
 352:Middlewares/Third_Party/LwIP/src/netif/slipif.c ****  * @return ERR_OK if serial line could be opened,
 353:Middlewares/Third_Party/LwIP/src/netif/slipif.c ****  *         ERR_MEM if no memory could be allocated,
 354:Middlewares/Third_Party/LwIP/src/netif/slipif.c ****  *         ERR_IF is serial line couldn't be opened
 355:Middlewares/Third_Party/LwIP/src/netif/slipif.c ****  *
 356:Middlewares/Third_Party/LwIP/src/netif/slipif.c ****  * @note If netif->state is interpreted as an u8_t serial port number.
 357:Middlewares/Third_Party/LwIP/src/netif/slipif.c ****  *
 358:Middlewares/Third_Party/LwIP/src/netif/slipif.c ****  */
 359:Middlewares/Third_Party/LwIP/src/netif/slipif.c **** err_t
 360:Middlewares/Third_Party/LwIP/src/netif/slipif.c **** slipif_init(struct netif *netif)
 361:Middlewares/Third_Party/LwIP/src/netif/slipif.c **** {
 672              		.loc 1 361 1 is_stmt 1 view -0
 673              		.cfi_startproc
 674              		@ args = 0, pretend = 0, frame = 0
 675              		@ frame_needed = 0, uses_anonymous_args = 0
 676              		.loc 1 361 1 is_stmt 0 view .LVU196
 677 0000 70B5     		push	{r4, r5, r6, lr}
 678              	.LCFI6:
 679              		.cfi_def_cfa_offset 16
 680              		.cfi_offset 4, -16
 681              		.cfi_offset 5, -12
 682              		.cfi_offset 6, -8
 683              		.cfi_offset 14, -4
 684 0002 82B0     		sub	sp, sp, #8
 685              	.LCFI7:
 686              		.cfi_def_cfa_offset 24
 687 0004 0446     		mov	r4, r0
 362:Middlewares/Third_Party/LwIP/src/netif/slipif.c ****   struct slipif_priv *priv;
 688              		.loc 1 362 3 is_stmt 1 view .LVU197
 363:Middlewares/Third_Party/LwIP/src/netif/slipif.c ****   u8_t sio_num;
 689              		.loc 1 363 3 view .LVU198
 364:Middlewares/Third_Party/LwIP/src/netif/slipif.c **** 
 365:Middlewares/Third_Party/LwIP/src/netif/slipif.c ****   LWIP_ASSERT("slipif needs an input callback", netif->input != NULL);
 690              		.loc 1 365 3 view .LVU199
 691              		.loc 1 365 3 view .LVU200
 692 0006 0369     		ldr	r3, [r0, #16]
 693 0008 43B3     		cbz	r3, .L63
 694              	.LVL60:
 695              	.L58:
 696              		.loc 1 365 3 discriminator 3 view .LVU201
 697              		.loc 1 365 3 discriminator 3 view .LVU202
 366:Middlewares/Third_Party/LwIP/src/netif/slipif.c **** 
ARM GAS  D:\Dev\msys64\tmp\ccqpdwec.s 			page 22


 367:Middlewares/Third_Party/LwIP/src/netif/slipif.c ****   /* netif->state contains serial port number */
 368:Middlewares/Third_Party/LwIP/src/netif/slipif.c ****   sio_num = LWIP_PTR_NUMERIC_CAST(u8_t, netif->state);
 698              		.loc 1 368 3 discriminator 3 view .LVU203
 699              		.loc 1 368 11 is_stmt 0 discriminator 3 view .LVU204
 700 000a 94F82050 		ldrb	r5, [r4, #32]	@ zero_extendqisi2
 701              	.LVL61:
 369:Middlewares/Third_Party/LwIP/src/netif/slipif.c **** 
 370:Middlewares/Third_Party/LwIP/src/netif/slipif.c ****   LWIP_DEBUGF(SLIP_DEBUG, ("slipif_init: netif->num=%"U16_F"\n", (u16_t)sio_num));
 702              		.loc 1 370 82 is_stmt 1 discriminator 3 view .LVU205
 371:Middlewares/Third_Party/LwIP/src/netif/slipif.c **** 
 372:Middlewares/Third_Party/LwIP/src/netif/slipif.c ****   /* Allocate private data */
 373:Middlewares/Third_Party/LwIP/src/netif/slipif.c ****   priv = (struct slipif_priv *)mem_malloc(sizeof(struct slipif_priv));
 703              		.loc 1 373 3 discriminator 3 view .LVU206
 704              		.loc 1 373 32 is_stmt 0 discriminator 3 view .LVU207
 705 000e 1420     		movs	r0, #20
 706 0010 FFF7FEFF 		bl	mem_malloc
 707              	.LVL62:
 374:Middlewares/Third_Party/LwIP/src/netif/slipif.c ****   if (!priv) {
 708              		.loc 1 374 3 is_stmt 1 discriminator 3 view .LVU208
 709              		.loc 1 374 6 is_stmt 0 discriminator 3 view .LVU209
 710 0014 0646     		mov	r6, r0
 711 0016 78B3     		cbz	r0, .L61
 375:Middlewares/Third_Party/LwIP/src/netif/slipif.c ****     return ERR_MEM;
 376:Middlewares/Third_Party/LwIP/src/netif/slipif.c ****   }
 377:Middlewares/Third_Party/LwIP/src/netif/slipif.c **** 
 378:Middlewares/Third_Party/LwIP/src/netif/slipif.c ****   netif->name[0] = 's';
 712              		.loc 1 378 3 is_stmt 1 view .LVU210
 713              		.loc 1 378 18 is_stmt 0 view .LVU211
 714 0018 7323     		movs	r3, #115
 715 001a 84F83230 		strb	r3, [r4, #50]
 379:Middlewares/Third_Party/LwIP/src/netif/slipif.c ****   netif->name[1] = 'l';
 716              		.loc 1 379 3 is_stmt 1 view .LVU212
 717              		.loc 1 379 18 is_stmt 0 view .LVU213
 718 001e 6C23     		movs	r3, #108
 719 0020 84F83330 		strb	r3, [r4, #51]
 380:Middlewares/Third_Party/LwIP/src/netif/slipif.c **** #if LWIP_IPV4
 381:Middlewares/Third_Party/LwIP/src/netif/slipif.c ****   netif->output = slipif_output_v4;
 720              		.loc 1 381 3 is_stmt 1 view .LVU214
 721              		.loc 1 381 17 is_stmt 0 view .LVU215
 722 0024 164B     		ldr	r3, .L65
 723 0026 6361     		str	r3, [r4, #20]
 382:Middlewares/Third_Party/LwIP/src/netif/slipif.c **** #endif /* LWIP_IPV4 */
 383:Middlewares/Third_Party/LwIP/src/netif/slipif.c **** #if LWIP_IPV6
 384:Middlewares/Third_Party/LwIP/src/netif/slipif.c ****   netif->output_ip6 = slipif_output_v6;
 385:Middlewares/Third_Party/LwIP/src/netif/slipif.c **** #endif /* LWIP_IPV6 */
 386:Middlewares/Third_Party/LwIP/src/netif/slipif.c ****   netif->mtu = SLIP_MAX_SIZE;
 724              		.loc 1 386 3 is_stmt 1 view .LVU216
 725              		.loc 1 386 14 is_stmt 0 view .LVU217
 726 0028 40F2DC53 		movw	r3, #1500
 727 002c 2385     		strh	r3, [r4, #40]	@ movhi
 387:Middlewares/Third_Party/LwIP/src/netif/slipif.c **** 
 388:Middlewares/Third_Party/LwIP/src/netif/slipif.c ****   /* Try to open the serial port. */
 389:Middlewares/Third_Party/LwIP/src/netif/slipif.c ****   priv->sd = sio_open(sio_num);
 728              		.loc 1 389 3 is_stmt 1 view .LVU218
 729              		.loc 1 389 14 is_stmt 0 view .LVU219
 730 002e 2846     		mov	r0, r5
 731              	.LVL63:
ARM GAS  D:\Dev\msys64\tmp\ccqpdwec.s 			page 23


 732              		.loc 1 389 14 view .LVU220
 733 0030 FFF7FEFF 		bl	sio_open
 734              	.LVL64:
 735              		.loc 1 389 12 view .LVU221
 736 0034 3060     		str	r0, [r6]
 390:Middlewares/Third_Party/LwIP/src/netif/slipif.c ****   if (!priv->sd) {
 737              		.loc 1 390 3 is_stmt 1 view .LVU222
 738              		.loc 1 390 6 is_stmt 0 view .LVU223
 739 0036 C8B1     		cbz	r0, .L64
 391:Middlewares/Third_Party/LwIP/src/netif/slipif.c ****     /* Opening the serial port failed. */
 392:Middlewares/Third_Party/LwIP/src/netif/slipif.c ****     mem_free(priv);
 393:Middlewares/Third_Party/LwIP/src/netif/slipif.c ****     return ERR_IF;
 394:Middlewares/Third_Party/LwIP/src/netif/slipif.c ****   }
 395:Middlewares/Third_Party/LwIP/src/netif/slipif.c **** 
 396:Middlewares/Third_Party/LwIP/src/netif/slipif.c ****   /* Initialize private data */
 397:Middlewares/Third_Party/LwIP/src/netif/slipif.c ****   priv->p = NULL;
 740              		.loc 1 397 3 is_stmt 1 view .LVU224
 741              		.loc 1 397 11 is_stmt 0 view .LVU225
 742 0038 0025     		movs	r5, #0
 743              	.LVL65:
 744              		.loc 1 397 11 view .LVU226
 745 003a 7560     		str	r5, [r6, #4]
 398:Middlewares/Third_Party/LwIP/src/netif/slipif.c ****   priv->q = NULL;
 746              		.loc 1 398 3 is_stmt 1 view .LVU227
 747              		.loc 1 398 11 is_stmt 0 view .LVU228
 748 003c B560     		str	r5, [r6, #8]
 399:Middlewares/Third_Party/LwIP/src/netif/slipif.c ****   priv->state = SLIP_RECV_NORMAL;
 749              		.loc 1 399 3 is_stmt 1 view .LVU229
 750              		.loc 1 399 15 is_stmt 0 view .LVU230
 751 003e 3573     		strb	r5, [r6, #12]
 400:Middlewares/Third_Party/LwIP/src/netif/slipif.c ****   priv->i = 0;
 752              		.loc 1 400 3 is_stmt 1 view .LVU231
 753              		.loc 1 400 11 is_stmt 0 view .LVU232
 754 0040 F581     		strh	r5, [r6, #14]	@ movhi
 401:Middlewares/Third_Party/LwIP/src/netif/slipif.c ****   priv->recved = 0;
 755              		.loc 1 401 3 is_stmt 1 view .LVU233
 756              		.loc 1 401 16 is_stmt 0 view .LVU234
 757 0042 3582     		strh	r5, [r6, #16]	@ movhi
 402:Middlewares/Third_Party/LwIP/src/netif/slipif.c **** #if SLIP_RX_FROM_ISR
 403:Middlewares/Third_Party/LwIP/src/netif/slipif.c ****   priv->rxpackets = NULL;
 404:Middlewares/Third_Party/LwIP/src/netif/slipif.c **** #endif
 405:Middlewares/Third_Party/LwIP/src/netif/slipif.c **** 
 406:Middlewares/Third_Party/LwIP/src/netif/slipif.c ****   netif->state = priv;
 758              		.loc 1 406 3 is_stmt 1 view .LVU235
 759              		.loc 1 406 16 is_stmt 0 view .LVU236
 760 0044 2662     		str	r6, [r4, #32]
 407:Middlewares/Third_Party/LwIP/src/netif/slipif.c **** 
 408:Middlewares/Third_Party/LwIP/src/netif/slipif.c ****   /* initialize the snmp variables and counters inside the struct netif */
 409:Middlewares/Third_Party/LwIP/src/netif/slipif.c ****   MIB2_INIT_NETIF(netif, snmp_ifType_slip, SLIP_SIO_SPEED(priv->sd));
 761              		.loc 1 409 69 is_stmt 1 view .LVU237
 410:Middlewares/Third_Party/LwIP/src/netif/slipif.c **** 
 411:Middlewares/Third_Party/LwIP/src/netif/slipif.c **** #if SLIP_USE_RX_THREAD
 412:Middlewares/Third_Party/LwIP/src/netif/slipif.c ****   /* Create a thread to poll the serial line. */
 413:Middlewares/Third_Party/LwIP/src/netif/slipif.c ****   sys_thread_new(SLIPIF_THREAD_NAME, slipif_loop_thread, netif,
 762              		.loc 1 413 3 view .LVU238
 763 0046 0123     		movs	r3, #1
 764 0048 0093     		str	r3, [sp]
ARM GAS  D:\Dev\msys64\tmp\ccqpdwec.s 			page 24


 765 004a 2B46     		mov	r3, r5
 766 004c 2246     		mov	r2, r4
 767 004e 0D49     		ldr	r1, .L65+4
 768 0050 0D48     		ldr	r0, .L65+8
 769 0052 FFF7FEFF 		bl	sys_thread_new
 770              	.LVL66:
 414:Middlewares/Third_Party/LwIP/src/netif/slipif.c ****                  SLIPIF_THREAD_STACKSIZE, SLIPIF_THREAD_PRIO);
 415:Middlewares/Third_Party/LwIP/src/netif/slipif.c **** #endif /* SLIP_USE_RX_THREAD */
 416:Middlewares/Third_Party/LwIP/src/netif/slipif.c ****   return ERR_OK;
 771              		.loc 1 416 3 view .LVU239
 772              		.loc 1 416 10 is_stmt 0 view .LVU240
 773 0056 2846     		mov	r0, r5
 774              	.L59:
 417:Middlewares/Third_Party/LwIP/src/netif/slipif.c **** }
 775              		.loc 1 417 1 view .LVU241
 776 0058 02B0     		add	sp, sp, #8
 777              	.LCFI8:
 778              		.cfi_remember_state
 779              		.cfi_def_cfa_offset 16
 780              		@ sp needed
 781 005a 70BD     		pop	{r4, r5, r6, pc}
 782              	.LVL67:
 783              	.L63:
 784              	.LCFI9:
 785              		.cfi_restore_state
 365:Middlewares/Third_Party/LwIP/src/netif/slipif.c **** 
 786              		.loc 1 365 3 is_stmt 1 discriminator 1 view .LVU242
 365:Middlewares/Third_Party/LwIP/src/netif/slipif.c **** 
 787              		.loc 1 365 3 discriminator 1 view .LVU243
 788 005c 0B4B     		ldr	r3, .L65+12
 789 005e 40F26D12 		movw	r2, #365
 790 0062 0B49     		ldr	r1, .L65+16
 791 0064 0B48     		ldr	r0, .L65+20
 792              	.LVL68:
 365:Middlewares/Third_Party/LwIP/src/netif/slipif.c **** 
 793              		.loc 1 365 3 is_stmt 0 discriminator 1 view .LVU244
 794 0066 FFF7FEFF 		bl	printf
 795              	.LVL69:
 796 006a CEE7     		b	.L58
 797              	.LVL70:
 798              	.L64:
 392:Middlewares/Third_Party/LwIP/src/netif/slipif.c ****     return ERR_IF;
 799              		.loc 1 392 5 is_stmt 1 view .LVU245
 800 006c 3046     		mov	r0, r6
 801 006e FFF7FEFF 		bl	mem_free
 802              	.LVL71:
 393:Middlewares/Third_Party/LwIP/src/netif/slipif.c ****   }
 803              		.loc 1 393 5 view .LVU246
 393:Middlewares/Third_Party/LwIP/src/netif/slipif.c ****   }
 804              		.loc 1 393 12 is_stmt 0 view .LVU247
 805 0072 6FF00B00 		mvn	r0, #11
 806 0076 EFE7     		b	.L59
 807              	.LVL72:
 808              	.L61:
 375:Middlewares/Third_Party/LwIP/src/netif/slipif.c ****   }
 809              		.loc 1 375 12 view .LVU248
 810 0078 4FF0FF30 		mov	r0, #-1
ARM GAS  D:\Dev\msys64\tmp\ccqpdwec.s 			page 25


 811              	.LVL73:
 375:Middlewares/Third_Party/LwIP/src/netif/slipif.c ****   }
 812              		.loc 1 375 12 view .LVU249
 813 007c ECE7     		b	.L59
 814              	.L66:
 815 007e 00BF     		.align	2
 816              	.L65:
 817 0080 00000000 		.word	slipif_output_v4
 818 0084 00000000 		.word	slipif_loop_thread
 819 0088 20000000 		.word	.LC6
 820 008c 00000000 		.word	.LC0
 821 0090 00000000 		.word	.LC5
 822 0094 40000000 		.word	.LC2
 823              		.cfi_endproc
 824              	.LFE35:
 826              		.section	.text.slipif_poll,"ax",%progbits
 827              		.align	1
 828              		.global	slipif_poll
 829              		.syntax unified
 830              		.thumb
 831              		.thumb_func
 832              		.fpu fpv5-sp-d16
 834              	slipif_poll:
 835              	.LVL74:
 836              	.LFB36:
 418:Middlewares/Third_Party/LwIP/src/netif/slipif.c **** 
 419:Middlewares/Third_Party/LwIP/src/netif/slipif.c **** /**
 420:Middlewares/Third_Party/LwIP/src/netif/slipif.c ****  * @ingroup slipif
 421:Middlewares/Third_Party/LwIP/src/netif/slipif.c ****  * Polls the serial device and feeds the IP layer with incoming packets.
 422:Middlewares/Third_Party/LwIP/src/netif/slipif.c ****  *
 423:Middlewares/Third_Party/LwIP/src/netif/slipif.c ****  * @param netif The lwip network interface structure for this slipif
 424:Middlewares/Third_Party/LwIP/src/netif/slipif.c ****  */
 425:Middlewares/Third_Party/LwIP/src/netif/slipif.c **** void
 426:Middlewares/Third_Party/LwIP/src/netif/slipif.c **** slipif_poll(struct netif *netif)
 427:Middlewares/Third_Party/LwIP/src/netif/slipif.c **** {
 837              		.loc 1 427 1 is_stmt 1 view -0
 838              		.cfi_startproc
 839              		@ args = 0, pretend = 0, frame = 8
 840              		@ frame_needed = 0, uses_anonymous_args = 0
 841              		.loc 1 427 1 is_stmt 0 view .LVU251
 842 0000 30B5     		push	{r4, r5, lr}
 843              	.LCFI10:
 844              		.cfi_def_cfa_offset 12
 845              		.cfi_offset 4, -12
 846              		.cfi_offset 5, -8
 847              		.cfi_offset 14, -4
 848 0002 83B0     		sub	sp, sp, #12
 849              	.LCFI11:
 850              		.cfi_def_cfa_offset 24
 428:Middlewares/Third_Party/LwIP/src/netif/slipif.c ****   u8_t c;
 851              		.loc 1 428 3 is_stmt 1 view .LVU252
 429:Middlewares/Third_Party/LwIP/src/netif/slipif.c ****   struct slipif_priv *priv;
 852              		.loc 1 429 3 view .LVU253
 430:Middlewares/Third_Party/LwIP/src/netif/slipif.c **** 
 431:Middlewares/Third_Party/LwIP/src/netif/slipif.c ****   LWIP_ASSERT("netif != NULL", (netif != NULL));
 853              		.loc 1 431 3 view .LVU254
 854              		.loc 1 431 3 view .LVU255
ARM GAS  D:\Dev\msys64\tmp\ccqpdwec.s 			page 26


 855 0004 0446     		mov	r4, r0
 856 0006 78B1     		cbz	r0, .L73
 857              	.LVL75:
 858              	.L68:
 859              		.loc 1 431 3 discriminator 3 view .LVU256
 860              		.loc 1 431 3 discriminator 3 view .LVU257
 432:Middlewares/Third_Party/LwIP/src/netif/slipif.c ****   LWIP_ASSERT("netif->state != NULL", (netif->state != NULL));
 861              		.loc 1 432 3 discriminator 3 view .LVU258
 862              		.loc 1 432 3 discriminator 3 view .LVU259
 863 0008 236A     		ldr	r3, [r4, #32]
 864 000a ABB1     		cbz	r3, .L74
 865              	.L69:
 866              		.loc 1 432 3 discriminator 3 view .LVU260
 867              		.loc 1 432 3 discriminator 3 view .LVU261
 433:Middlewares/Third_Party/LwIP/src/netif/slipif.c **** 
 434:Middlewares/Third_Party/LwIP/src/netif/slipif.c ****   priv = (struct slipif_priv *)netif->state;
 868              		.loc 1 434 3 discriminator 3 view .LVU262
 869              		.loc 1 434 8 is_stmt 0 discriminator 3 view .LVU263
 870 000c 256A     		ldr	r5, [r4, #32]
 871              	.LVL76:
 435:Middlewares/Third_Party/LwIP/src/netif/slipif.c **** 
 436:Middlewares/Third_Party/LwIP/src/netif/slipif.c ****   while (sio_tryread(priv->sd, &c, 1) > 0) {
 872              		.loc 1 436 3 is_stmt 1 discriminator 3 view .LVU264
 873              	.L70:
 874              		.loc 1 436 9 view .LVU265
 875              		.loc 1 436 10 is_stmt 0 view .LVU266
 876 000e 0122     		movs	r2, #1
 877 0010 0DF10701 		add	r1, sp, #7
 878 0014 2868     		ldr	r0, [r5]
 879 0016 FFF7FEFF 		bl	sio_tryread
 880              	.LVL77:
 881              		.loc 1 436 9 view .LVU267
 882 001a A8B1     		cbz	r0, .L75
 437:Middlewares/Third_Party/LwIP/src/netif/slipif.c ****     slipif_rxbyte_input(netif, c);
 883              		.loc 1 437 5 is_stmt 1 view .LVU268
 884 001c 9DF80710 		ldrb	r1, [sp, #7]	@ zero_extendqisi2
 885 0020 2046     		mov	r0, r4
 886 0022 FFF7FEFF 		bl	slipif_rxbyte_input
 887              	.LVL78:
 888 0026 F2E7     		b	.L70
 889              	.LVL79:
 890              	.L73:
 431:Middlewares/Third_Party/LwIP/src/netif/slipif.c ****   LWIP_ASSERT("netif->state != NULL", (netif->state != NULL));
 891              		.loc 1 431 3 discriminator 1 view .LVU269
 431:Middlewares/Third_Party/LwIP/src/netif/slipif.c ****   LWIP_ASSERT("netif->state != NULL", (netif->state != NULL));
 892              		.loc 1 431 3 discriminator 1 view .LVU270
 893 0028 084B     		ldr	r3, .L76
 894 002a 40F2AF12 		movw	r2, #431
 895 002e 0849     		ldr	r1, .L76+4
 896 0030 0848     		ldr	r0, .L76+8
 897              	.LVL80:
 431:Middlewares/Third_Party/LwIP/src/netif/slipif.c ****   LWIP_ASSERT("netif->state != NULL", (netif->state != NULL));
 898              		.loc 1 431 3 is_stmt 0 discriminator 1 view .LVU271
 899 0032 FFF7FEFF 		bl	printf
 900              	.LVL81:
 901 0036 E7E7     		b	.L68
 902              	.L74:
ARM GAS  D:\Dev\msys64\tmp\ccqpdwec.s 			page 27


 432:Middlewares/Third_Party/LwIP/src/netif/slipif.c **** 
 903              		.loc 1 432 3 is_stmt 1 discriminator 1 view .LVU272
 432:Middlewares/Third_Party/LwIP/src/netif/slipif.c **** 
 904              		.loc 1 432 3 discriminator 1 view .LVU273
 905 0038 044B     		ldr	r3, .L76
 906 003a 4FF4D872 		mov	r2, #432
 907 003e 0649     		ldr	r1, .L76+12
 908 0040 0448     		ldr	r0, .L76+8
 909 0042 FFF7FEFF 		bl	printf
 910              	.LVL82:
 911 0046 E1E7     		b	.L69
 912              	.LVL83:
 913              	.L75:
 438:Middlewares/Third_Party/LwIP/src/netif/slipif.c ****   }
 439:Middlewares/Third_Party/LwIP/src/netif/slipif.c **** }
 914              		.loc 1 439 1 is_stmt 0 view .LVU274
 915 0048 03B0     		add	sp, sp, #12
 916              	.LCFI12:
 917              		.cfi_def_cfa_offset 12
 918              		@ sp needed
 919 004a 30BD     		pop	{r4, r5, pc}
 920              	.LVL84:
 921              	.L77:
 922              		.loc 1 439 1 view .LVU275
 923              		.align	2
 924              	.L76:
 925 004c 00000000 		.word	.LC0
 926 0050 30000000 		.word	.LC1
 927 0054 40000000 		.word	.LC2
 928 0058 68000000 		.word	.LC3
 929              		.cfi_endproc
 930              	.LFE36:
 932              		.text
 933              	.Letext0:
 934              		.file 2 "d:\\dev\\gcc-arm-none-eabi\\9_2019_q4-major\\lib\\gcc\\arm-none-eabi\\9.2.1\\include\\std
 935              		.file 3 "d:\\dev\\gcc-arm-none-eabi\\9_2019_q4-major\\arm-none-eabi\\include\\machine\\_default_ty
 936              		.file 4 "d:\\dev\\gcc-arm-none-eabi\\9_2019_q4-major\\arm-none-eabi\\include\\sys\\lock.h"
 937              		.file 5 "d:\\dev\\gcc-arm-none-eabi\\9_2019_q4-major\\arm-none-eabi\\include\\sys\\_types.h"
 938              		.file 6 "d:\\dev\\gcc-arm-none-eabi\\9_2019_q4-major\\arm-none-eabi\\include\\sys\\reent.h"
 939              		.file 7 "d:\\dev\\gcc-arm-none-eabi\\9_2019_q4-major\\arm-none-eabi\\include\\stdlib.h"
 940              		.file 8 "d:\\dev\\gcc-arm-none-eabi\\9_2019_q4-major\\arm-none-eabi\\include\\sys\\_stdint.h"
 941              		.file 9 "d:\\dev\\gcc-arm-none-eabi\\9_2019_q4-major\\arm-none-eabi\\include\\time.h"
 942              		.file 10 "Middlewares/Third_Party/LwIP/src/include/lwip/arch.h"
 943              		.file 11 "d:\\dev\\gcc-arm-none-eabi\\9_2019_q4-major\\arm-none-eabi\\include\\ctype.h"
 944              		.file 12 "Middlewares/Third_Party/LwIP/src/include/lwip/err.h"
 945              		.file 13 "Middlewares/Third_Party/LwIP/src/include/lwip/ip4_addr.h"
 946              		.file 14 "Middlewares/Third_Party/LwIP/src/include/lwip/ip_addr.h"
 947              		.file 15 "Middlewares/Third_Party/LwIP/src/include/lwip/pbuf.h"
 948              		.file 16 "Middlewares/Third_Party/LwIP/src/include/lwip/priv/memp_priv.h"
 949              		.file 17 "Middlewares/Third_Party/LwIP/src/include/lwip/memp.h"
 950              		.file 18 "Middlewares/Third_Party/LwIP/src/include/lwip/netif.h"
 951              		.file 19 "Core/Inc/FreeRTOSConfig.h"
 952              		.file 20 "Middlewares/Third_Party/LwIP/src/include/lwip/sio.h"
 953              		.file 21 "d:\\dev\\gcc-arm-none-eabi\\9_2019_q4-major\\arm-none-eabi\\include\\stdio.h"
 954              		.file 22 "Middlewares/Third_Party/LwIP/src/include/lwip/mem.h"
 955              		.file 23 "Middlewares/Third_Party/LwIP/src/include/lwip/sys.h"
ARM GAS  D:\Dev\msys64\tmp\ccqpdwec.s 			page 28

