ARM GAS  D:\Dev\msys64\tmp\cckaQVt1.s 			page 1


   1              		.cpu cortex-m7
   2              		.eabi_attribute 27, 1
   3              		.eabi_attribute 28, 1
   4              		.eabi_attribute 20, 1
   5              		.eabi_attribute 21, 1
   6              		.eabi_attribute 23, 3
   7              		.eabi_attribute 24, 1
   8              		.eabi_attribute 25, 1
   9              		.eabi_attribute 26, 1
  10              		.eabi_attribute 30, 1
  11              		.eabi_attribute 34, 1
  12              		.eabi_attribute 18, 4
  13              		.file	"stm32f7xx_hal_rcc.c"
  14              		.text
  15              	.Ltext0:
  16              		.cfi_sections	.debug_frame
  17              		.section	.text.HAL_RCC_DeInit,"ax",%progbits
  18              		.align	1
  19              		.global	HAL_RCC_DeInit
  20              		.arch armv7e-m
  21              		.syntax unified
  22              		.thumb
  23              		.thumb_func
  24              		.fpu fpv5-sp-d16
  26              	HAL_RCC_DeInit:
  27              	.LFB141:
  28              		.file 1 "Drivers/STM32F7xx_HAL_Driver/Src/stm32f7xx_hal_rcc.c"
   1:Drivers/STM32F7xx_HAL_Driver/Src/stm32f7xx_hal_rcc.c **** /**
   2:Drivers/STM32F7xx_HAL_Driver/Src/stm32f7xx_hal_rcc.c ****   ******************************************************************************
   3:Drivers/STM32F7xx_HAL_Driver/Src/stm32f7xx_hal_rcc.c ****   * @file    stm32f7xx_hal_rcc.c
   4:Drivers/STM32F7xx_HAL_Driver/Src/stm32f7xx_hal_rcc.c ****   * @author  MCD Application Team
   5:Drivers/STM32F7xx_HAL_Driver/Src/stm32f7xx_hal_rcc.c ****   * @brief   RCC HAL module driver.
   6:Drivers/STM32F7xx_HAL_Driver/Src/stm32f7xx_hal_rcc.c ****   *          This file provides firmware functions to manage the following
   7:Drivers/STM32F7xx_HAL_Driver/Src/stm32f7xx_hal_rcc.c ****   *          functionalities of the Reset and Clock Control (RCC) peripheral:
   8:Drivers/STM32F7xx_HAL_Driver/Src/stm32f7xx_hal_rcc.c ****   *           + Initialization and de-initialization functions
   9:Drivers/STM32F7xx_HAL_Driver/Src/stm32f7xx_hal_rcc.c ****   *           + Peripheral Control functions
  10:Drivers/STM32F7xx_HAL_Driver/Src/stm32f7xx_hal_rcc.c ****   *
  11:Drivers/STM32F7xx_HAL_Driver/Src/stm32f7xx_hal_rcc.c ****   @verbatim
  12:Drivers/STM32F7xx_HAL_Driver/Src/stm32f7xx_hal_rcc.c ****   ==============================================================================
  13:Drivers/STM32F7xx_HAL_Driver/Src/stm32f7xx_hal_rcc.c ****                       ##### RCC specific features #####
  14:Drivers/STM32F7xx_HAL_Driver/Src/stm32f7xx_hal_rcc.c ****   ==============================================================================
  15:Drivers/STM32F7xx_HAL_Driver/Src/stm32f7xx_hal_rcc.c ****     [..]
  16:Drivers/STM32F7xx_HAL_Driver/Src/stm32f7xx_hal_rcc.c ****       After reset the device is running from Internal High Speed oscillator
  17:Drivers/STM32F7xx_HAL_Driver/Src/stm32f7xx_hal_rcc.c ****       (HSI 16MHz) with Flash 0 wait state, Flash prefetch buffer, D-Cache
  18:Drivers/STM32F7xx_HAL_Driver/Src/stm32f7xx_hal_rcc.c ****       and I-Cache are disabled, and all peripherals are off except internal
  19:Drivers/STM32F7xx_HAL_Driver/Src/stm32f7xx_hal_rcc.c ****       SRAM, Flash and JTAG.
  20:Drivers/STM32F7xx_HAL_Driver/Src/stm32f7xx_hal_rcc.c ****       (+) There is no prescaler on High speed (AHB) and Low speed (APB) busses;
  21:Drivers/STM32F7xx_HAL_Driver/Src/stm32f7xx_hal_rcc.c ****           all peripherals mapped on these busses are running at HSI speed.
  22:Drivers/STM32F7xx_HAL_Driver/Src/stm32f7xx_hal_rcc.c ****       (+) The clock for all peripherals is switched off, except the SRAM and FLASH.
  23:Drivers/STM32F7xx_HAL_Driver/Src/stm32f7xx_hal_rcc.c ****       (+) All GPIOs are in input floating state, except the JTAG pins which
  24:Drivers/STM32F7xx_HAL_Driver/Src/stm32f7xx_hal_rcc.c ****           are assigned to be used for debug purpose.
  25:Drivers/STM32F7xx_HAL_Driver/Src/stm32f7xx_hal_rcc.c **** 
  26:Drivers/STM32F7xx_HAL_Driver/Src/stm32f7xx_hal_rcc.c ****     [..]
  27:Drivers/STM32F7xx_HAL_Driver/Src/stm32f7xx_hal_rcc.c ****       Once the device started from reset, the user application has to:
  28:Drivers/STM32F7xx_HAL_Driver/Src/stm32f7xx_hal_rcc.c ****       (+) Configure the clock source to be used to drive the System clock
  29:Drivers/STM32F7xx_HAL_Driver/Src/stm32f7xx_hal_rcc.c ****           (if the application needs higher frequency/performance)
  30:Drivers/STM32F7xx_HAL_Driver/Src/stm32f7xx_hal_rcc.c ****       (+) Configure the System clock frequency and Flash settings
ARM GAS  D:\Dev\msys64\tmp\cckaQVt1.s 			page 2


  31:Drivers/STM32F7xx_HAL_Driver/Src/stm32f7xx_hal_rcc.c ****       (+) Configure the AHB and APB busses prescalers
  32:Drivers/STM32F7xx_HAL_Driver/Src/stm32f7xx_hal_rcc.c ****       (+) Enable the clock for the peripheral(s) to be used
  33:Drivers/STM32F7xx_HAL_Driver/Src/stm32f7xx_hal_rcc.c ****       (+) Configure the clock source(s) for peripherals which clocks are not
  34:Drivers/STM32F7xx_HAL_Driver/Src/stm32f7xx_hal_rcc.c ****           derived from the System clock (I2S, RTC, ADC, USB OTG FS/SDIO/RNG)
  35:Drivers/STM32F7xx_HAL_Driver/Src/stm32f7xx_hal_rcc.c **** 
  36:Drivers/STM32F7xx_HAL_Driver/Src/stm32f7xx_hal_rcc.c ****                       ##### RCC Limitations #####
  37:Drivers/STM32F7xx_HAL_Driver/Src/stm32f7xx_hal_rcc.c ****   ==============================================================================
  38:Drivers/STM32F7xx_HAL_Driver/Src/stm32f7xx_hal_rcc.c ****     [..]
  39:Drivers/STM32F7xx_HAL_Driver/Src/stm32f7xx_hal_rcc.c ****       A delay between an RCC peripheral clock enable and the effective peripheral
  40:Drivers/STM32F7xx_HAL_Driver/Src/stm32f7xx_hal_rcc.c ****       enabling should be taken into account in order to manage the peripheral read/write
  41:Drivers/STM32F7xx_HAL_Driver/Src/stm32f7xx_hal_rcc.c ****       from/to registers.
  42:Drivers/STM32F7xx_HAL_Driver/Src/stm32f7xx_hal_rcc.c ****       (+) This delay depends on the peripheral mapping.
  43:Drivers/STM32F7xx_HAL_Driver/Src/stm32f7xx_hal_rcc.c ****       (+) If peripheral is mapped on AHB: the delay is 2 AHB clock cycle
  44:Drivers/STM32F7xx_HAL_Driver/Src/stm32f7xx_hal_rcc.c ****           after the clock enable bit is set on the hardware register
  45:Drivers/STM32F7xx_HAL_Driver/Src/stm32f7xx_hal_rcc.c ****       (+) If peripheral is mapped on APB: the delay is 2 APB clock cycle
  46:Drivers/STM32F7xx_HAL_Driver/Src/stm32f7xx_hal_rcc.c ****           after the clock enable bit is set on the hardware register
  47:Drivers/STM32F7xx_HAL_Driver/Src/stm32f7xx_hal_rcc.c **** 
  48:Drivers/STM32F7xx_HAL_Driver/Src/stm32f7xx_hal_rcc.c ****     [..]
  49:Drivers/STM32F7xx_HAL_Driver/Src/stm32f7xx_hal_rcc.c ****       Implemented Workaround:
  50:Drivers/STM32F7xx_HAL_Driver/Src/stm32f7xx_hal_rcc.c ****       (+) For AHB & APB peripherals, a dummy read to the peripheral register has been
  51:Drivers/STM32F7xx_HAL_Driver/Src/stm32f7xx_hal_rcc.c ****           inserted in each __HAL_RCC_PPP_CLK_ENABLE() macro.
  52:Drivers/STM32F7xx_HAL_Driver/Src/stm32f7xx_hal_rcc.c **** 
  53:Drivers/STM32F7xx_HAL_Driver/Src/stm32f7xx_hal_rcc.c ****   @endverbatim
  54:Drivers/STM32F7xx_HAL_Driver/Src/stm32f7xx_hal_rcc.c ****   ******************************************************************************
  55:Drivers/STM32F7xx_HAL_Driver/Src/stm32f7xx_hal_rcc.c ****   * @attention
  56:Drivers/STM32F7xx_HAL_Driver/Src/stm32f7xx_hal_rcc.c ****   *
  57:Drivers/STM32F7xx_HAL_Driver/Src/stm32f7xx_hal_rcc.c ****   * <h2><center>&copy; Copyright (c) 2017 STMicroelectronics.
  58:Drivers/STM32F7xx_HAL_Driver/Src/stm32f7xx_hal_rcc.c ****   * All rights reserved.</center></h2>
  59:Drivers/STM32F7xx_HAL_Driver/Src/stm32f7xx_hal_rcc.c ****   *
  60:Drivers/STM32F7xx_HAL_Driver/Src/stm32f7xx_hal_rcc.c ****   * This software component is licensed by ST under BSD 3-Clause license,
  61:Drivers/STM32F7xx_HAL_Driver/Src/stm32f7xx_hal_rcc.c ****   * the "License"; You may not use this file except in compliance with the
  62:Drivers/STM32F7xx_HAL_Driver/Src/stm32f7xx_hal_rcc.c ****   * License. You may obtain a copy of the License at:
  63:Drivers/STM32F7xx_HAL_Driver/Src/stm32f7xx_hal_rcc.c ****   *                        opensource.org/licenses/BSD-3-Clause
  64:Drivers/STM32F7xx_HAL_Driver/Src/stm32f7xx_hal_rcc.c ****   *
  65:Drivers/STM32F7xx_HAL_Driver/Src/stm32f7xx_hal_rcc.c ****   ******************************************************************************
  66:Drivers/STM32F7xx_HAL_Driver/Src/stm32f7xx_hal_rcc.c ****   */
  67:Drivers/STM32F7xx_HAL_Driver/Src/stm32f7xx_hal_rcc.c **** 
  68:Drivers/STM32F7xx_HAL_Driver/Src/stm32f7xx_hal_rcc.c **** /* Includes ------------------------------------------------------------------*/
  69:Drivers/STM32F7xx_HAL_Driver/Src/stm32f7xx_hal_rcc.c **** #include "stm32f7xx_hal.h"
  70:Drivers/STM32F7xx_HAL_Driver/Src/stm32f7xx_hal_rcc.c **** 
  71:Drivers/STM32F7xx_HAL_Driver/Src/stm32f7xx_hal_rcc.c **** /** @addtogroup STM32F7xx_HAL_Driver
  72:Drivers/STM32F7xx_HAL_Driver/Src/stm32f7xx_hal_rcc.c ****   * @{
  73:Drivers/STM32F7xx_HAL_Driver/Src/stm32f7xx_hal_rcc.c ****   */
  74:Drivers/STM32F7xx_HAL_Driver/Src/stm32f7xx_hal_rcc.c **** 
  75:Drivers/STM32F7xx_HAL_Driver/Src/stm32f7xx_hal_rcc.c **** /** @defgroup RCC RCC
  76:Drivers/STM32F7xx_HAL_Driver/Src/stm32f7xx_hal_rcc.c ****   * @brief RCC HAL module driver
  77:Drivers/STM32F7xx_HAL_Driver/Src/stm32f7xx_hal_rcc.c ****   * @{
  78:Drivers/STM32F7xx_HAL_Driver/Src/stm32f7xx_hal_rcc.c ****   */
  79:Drivers/STM32F7xx_HAL_Driver/Src/stm32f7xx_hal_rcc.c **** 
  80:Drivers/STM32F7xx_HAL_Driver/Src/stm32f7xx_hal_rcc.c **** #ifdef HAL_RCC_MODULE_ENABLED
  81:Drivers/STM32F7xx_HAL_Driver/Src/stm32f7xx_hal_rcc.c **** 
  82:Drivers/STM32F7xx_HAL_Driver/Src/stm32f7xx_hal_rcc.c **** /* Private typedef -----------------------------------------------------------*/
  83:Drivers/STM32F7xx_HAL_Driver/Src/stm32f7xx_hal_rcc.c **** /* Private define ------------------------------------------------------------*/
  84:Drivers/STM32F7xx_HAL_Driver/Src/stm32f7xx_hal_rcc.c **** /* Private macro -------------------------------------------------------------*/
  85:Drivers/STM32F7xx_HAL_Driver/Src/stm32f7xx_hal_rcc.c **** /** @defgroup RCC_Private_Macros RCC Private Macros
  86:Drivers/STM32F7xx_HAL_Driver/Src/stm32f7xx_hal_rcc.c ****   * @{
  87:Drivers/STM32F7xx_HAL_Driver/Src/stm32f7xx_hal_rcc.c ****   */
ARM GAS  D:\Dev\msys64\tmp\cckaQVt1.s 			page 3


  88:Drivers/STM32F7xx_HAL_Driver/Src/stm32f7xx_hal_rcc.c **** 
  89:Drivers/STM32F7xx_HAL_Driver/Src/stm32f7xx_hal_rcc.c **** #define MCO1_CLK_ENABLE()   __HAL_RCC_GPIOA_CLK_ENABLE()
  90:Drivers/STM32F7xx_HAL_Driver/Src/stm32f7xx_hal_rcc.c **** #define MCO1_GPIO_PORT        GPIOA
  91:Drivers/STM32F7xx_HAL_Driver/Src/stm32f7xx_hal_rcc.c **** #define MCO1_PIN              GPIO_PIN_8
  92:Drivers/STM32F7xx_HAL_Driver/Src/stm32f7xx_hal_rcc.c **** 
  93:Drivers/STM32F7xx_HAL_Driver/Src/stm32f7xx_hal_rcc.c **** #define MCO2_CLK_ENABLE()   __HAL_RCC_GPIOC_CLK_ENABLE()
  94:Drivers/STM32F7xx_HAL_Driver/Src/stm32f7xx_hal_rcc.c **** #define MCO2_GPIO_PORT         GPIOC
  95:Drivers/STM32F7xx_HAL_Driver/Src/stm32f7xx_hal_rcc.c **** #define MCO2_PIN               GPIO_PIN_9
  96:Drivers/STM32F7xx_HAL_Driver/Src/stm32f7xx_hal_rcc.c **** 
  97:Drivers/STM32F7xx_HAL_Driver/Src/stm32f7xx_hal_rcc.c **** /**
  98:Drivers/STM32F7xx_HAL_Driver/Src/stm32f7xx_hal_rcc.c ****   * @}
  99:Drivers/STM32F7xx_HAL_Driver/Src/stm32f7xx_hal_rcc.c ****   */
 100:Drivers/STM32F7xx_HAL_Driver/Src/stm32f7xx_hal_rcc.c **** /* Private variables ---------------------------------------------------------*/
 101:Drivers/STM32F7xx_HAL_Driver/Src/stm32f7xx_hal_rcc.c **** /** @defgroup RCC_Private_Variables RCC Private Variables
 102:Drivers/STM32F7xx_HAL_Driver/Src/stm32f7xx_hal_rcc.c ****   * @{
 103:Drivers/STM32F7xx_HAL_Driver/Src/stm32f7xx_hal_rcc.c ****   */
 104:Drivers/STM32F7xx_HAL_Driver/Src/stm32f7xx_hal_rcc.c **** 
 105:Drivers/STM32F7xx_HAL_Driver/Src/stm32f7xx_hal_rcc.c **** /**
 106:Drivers/STM32F7xx_HAL_Driver/Src/stm32f7xx_hal_rcc.c ****   * @}
 107:Drivers/STM32F7xx_HAL_Driver/Src/stm32f7xx_hal_rcc.c ****   */
 108:Drivers/STM32F7xx_HAL_Driver/Src/stm32f7xx_hal_rcc.c **** 
 109:Drivers/STM32F7xx_HAL_Driver/Src/stm32f7xx_hal_rcc.c **** /* Private function prototypes -----------------------------------------------*/
 110:Drivers/STM32F7xx_HAL_Driver/Src/stm32f7xx_hal_rcc.c **** /* Exported functions ---------------------------------------------------------*/
 111:Drivers/STM32F7xx_HAL_Driver/Src/stm32f7xx_hal_rcc.c **** 
 112:Drivers/STM32F7xx_HAL_Driver/Src/stm32f7xx_hal_rcc.c **** /** @defgroup RCC_Exported_Functions RCC Exported Functions
 113:Drivers/STM32F7xx_HAL_Driver/Src/stm32f7xx_hal_rcc.c ****   * @{
 114:Drivers/STM32F7xx_HAL_Driver/Src/stm32f7xx_hal_rcc.c ****   */
 115:Drivers/STM32F7xx_HAL_Driver/Src/stm32f7xx_hal_rcc.c **** 
 116:Drivers/STM32F7xx_HAL_Driver/Src/stm32f7xx_hal_rcc.c **** /** @defgroup RCC_Exported_Functions_Group1 Initialization and de-initialization functions
 117:Drivers/STM32F7xx_HAL_Driver/Src/stm32f7xx_hal_rcc.c ****   *  @brief    Initialization and Configuration functions
 118:Drivers/STM32F7xx_HAL_Driver/Src/stm32f7xx_hal_rcc.c ****   *
 119:Drivers/STM32F7xx_HAL_Driver/Src/stm32f7xx_hal_rcc.c ****   @verbatim
 120:Drivers/STM32F7xx_HAL_Driver/Src/stm32f7xx_hal_rcc.c ****   ===============================================================================
 121:Drivers/STM32F7xx_HAL_Driver/Src/stm32f7xx_hal_rcc.c **** ##### Initialization and de-initialization functions #####
 122:Drivers/STM32F7xx_HAL_Driver/Src/stm32f7xx_hal_rcc.c ****   ===============================================================================
 123:Drivers/STM32F7xx_HAL_Driver/Src/stm32f7xx_hal_rcc.c ****     [..]
 124:Drivers/STM32F7xx_HAL_Driver/Src/stm32f7xx_hal_rcc.c ****       This section provides functions allowing to configure the internal/external oscillators
 125:Drivers/STM32F7xx_HAL_Driver/Src/stm32f7xx_hal_rcc.c ****       (HSE, HSI, LSE, LSI, PLL, CSS and MCO) and the System buses clocks (SYSCLK, AHB, APB1
 126:Drivers/STM32F7xx_HAL_Driver/Src/stm32f7xx_hal_rcc.c ****       and APB2).
 127:Drivers/STM32F7xx_HAL_Driver/Src/stm32f7xx_hal_rcc.c **** 
 128:Drivers/STM32F7xx_HAL_Driver/Src/stm32f7xx_hal_rcc.c ****     [..] Internal/external clock and PLL configuration
 129:Drivers/STM32F7xx_HAL_Driver/Src/stm32f7xx_hal_rcc.c ****       (#) HSI (high-speed internal), 16 MHz factory-trimmed RC used directly or through
 130:Drivers/STM32F7xx_HAL_Driver/Src/stm32f7xx_hal_rcc.c ****           the PLL as System clock source.
 131:Drivers/STM32F7xx_HAL_Driver/Src/stm32f7xx_hal_rcc.c **** 
 132:Drivers/STM32F7xx_HAL_Driver/Src/stm32f7xx_hal_rcc.c ****       (#) LSI (low-speed internal), 32 KHz low consumption RC used as IWDG and/or RTC
 133:Drivers/STM32F7xx_HAL_Driver/Src/stm32f7xx_hal_rcc.c ****           clock source.
 134:Drivers/STM32F7xx_HAL_Driver/Src/stm32f7xx_hal_rcc.c **** 
 135:Drivers/STM32F7xx_HAL_Driver/Src/stm32f7xx_hal_rcc.c ****       (#) HSE (high-speed external), 4 to 26 MHz crystal oscillator used directly or
 136:Drivers/STM32F7xx_HAL_Driver/Src/stm32f7xx_hal_rcc.c ****           through the PLL as System clock source. Can be used also as RTC clock source.
 137:Drivers/STM32F7xx_HAL_Driver/Src/stm32f7xx_hal_rcc.c **** 
 138:Drivers/STM32F7xx_HAL_Driver/Src/stm32f7xx_hal_rcc.c ****       (#) LSE (low-speed external), 32 KHz oscillator used as RTC clock source.
 139:Drivers/STM32F7xx_HAL_Driver/Src/stm32f7xx_hal_rcc.c **** 
 140:Drivers/STM32F7xx_HAL_Driver/Src/stm32f7xx_hal_rcc.c ****       (#) PLL (clocked by HSI or HSE), featuring two different output clocks:
 141:Drivers/STM32F7xx_HAL_Driver/Src/stm32f7xx_hal_rcc.c ****         (++) The first output is used to generate the high speed system clock (up to 216 MHz)
 142:Drivers/STM32F7xx_HAL_Driver/Src/stm32f7xx_hal_rcc.c ****         (++) The second output is used to generate the clock for the USB OTG FS (48 MHz),
 143:Drivers/STM32F7xx_HAL_Driver/Src/stm32f7xx_hal_rcc.c ****              the random analog generator (<=48 MHz) and the SDIO (<= 48 MHz).
 144:Drivers/STM32F7xx_HAL_Driver/Src/stm32f7xx_hal_rcc.c **** 
ARM GAS  D:\Dev\msys64\tmp\cckaQVt1.s 			page 4


 145:Drivers/STM32F7xx_HAL_Driver/Src/stm32f7xx_hal_rcc.c ****       (#) CSS (Clock security system), once enable using the function HAL_RCC_EnableCSS()
 146:Drivers/STM32F7xx_HAL_Driver/Src/stm32f7xx_hal_rcc.c ****           and if a HSE clock failure occurs(HSE used directly or through PLL as System
 147:Drivers/STM32F7xx_HAL_Driver/Src/stm32f7xx_hal_rcc.c ****           clock source), the System clock is automatically switched to HSI and an interrupt
 148:Drivers/STM32F7xx_HAL_Driver/Src/stm32f7xx_hal_rcc.c ****           is generated if enabled. The interrupt is linked to the Cortex-M7 NMI
 149:Drivers/STM32F7xx_HAL_Driver/Src/stm32f7xx_hal_rcc.c ****           (Non-Maskable Interrupt) exception vector.
 150:Drivers/STM32F7xx_HAL_Driver/Src/stm32f7xx_hal_rcc.c **** 
 151:Drivers/STM32F7xx_HAL_Driver/Src/stm32f7xx_hal_rcc.c ****       (#) MCO1 (microcontroller clock output), used to output HSI, LSE, HSE or PLL
 152:Drivers/STM32F7xx_HAL_Driver/Src/stm32f7xx_hal_rcc.c ****           clock (through a configurable prescaler) on PA8 pin.
 153:Drivers/STM32F7xx_HAL_Driver/Src/stm32f7xx_hal_rcc.c **** 
 154:Drivers/STM32F7xx_HAL_Driver/Src/stm32f7xx_hal_rcc.c ****       (#) MCO2 (microcontroller clock output), used to output HSE, PLL, SYSCLK or PLLI2S
 155:Drivers/STM32F7xx_HAL_Driver/Src/stm32f7xx_hal_rcc.c ****           clock (through a configurable prescaler) on PC9 pin.
 156:Drivers/STM32F7xx_HAL_Driver/Src/stm32f7xx_hal_rcc.c **** 
 157:Drivers/STM32F7xx_HAL_Driver/Src/stm32f7xx_hal_rcc.c ****     [..] System, AHB and APB busses clocks configuration
 158:Drivers/STM32F7xx_HAL_Driver/Src/stm32f7xx_hal_rcc.c ****       (#) Several clock sources can be used to drive the System clock (SYSCLK): HSI,
 159:Drivers/STM32F7xx_HAL_Driver/Src/stm32f7xx_hal_rcc.c ****           HSE and PLL.
 160:Drivers/STM32F7xx_HAL_Driver/Src/stm32f7xx_hal_rcc.c ****           The AHB clock (HCLK) is derived from System clock through configurable
 161:Drivers/STM32F7xx_HAL_Driver/Src/stm32f7xx_hal_rcc.c ****           prescaler and used to clock the CPU, memory and peripherals mapped
 162:Drivers/STM32F7xx_HAL_Driver/Src/stm32f7xx_hal_rcc.c ****           on AHB bus (DMA, GPIO...). APB1 (PCLK1) and APB2 (PCLK2) clocks are derived
 163:Drivers/STM32F7xx_HAL_Driver/Src/stm32f7xx_hal_rcc.c ****           from AHB clock through configurable prescalers and used to clock
 164:Drivers/STM32F7xx_HAL_Driver/Src/stm32f7xx_hal_rcc.c ****           the peripherals mapped on these busses. You can use
 165:Drivers/STM32F7xx_HAL_Driver/Src/stm32f7xx_hal_rcc.c ****           "HAL_RCC_GetSysClockFreq()" function to retrieve the frequencies of these clocks.
 166:Drivers/STM32F7xx_HAL_Driver/Src/stm32f7xx_hal_rcc.c **** 
 167:Drivers/STM32F7xx_HAL_Driver/Src/stm32f7xx_hal_rcc.c ****       -@- All the peripheral clocks are derived from the System clock (SYSCLK) except:
 168:Drivers/STM32F7xx_HAL_Driver/Src/stm32f7xx_hal_rcc.c ****           (+@) I2S: the I2S clock can be derived either from a specific PLL (PLLI2S) or
 169:Drivers/STM32F7xx_HAL_Driver/Src/stm32f7xx_hal_rcc.c ****               from an external clock mapped on the I2S_CKIN pin.
 170:Drivers/STM32F7xx_HAL_Driver/Src/stm32f7xx_hal_rcc.c ****               You have to use __HAL_RCC_PLLI2S_CONFIG() macro to configure this clock.
 171:Drivers/STM32F7xx_HAL_Driver/Src/stm32f7xx_hal_rcc.c ****           (+@)  SAI: the SAI clock can be derived either from a specific PLL (PLLI2S) or (PLLSAI) o
 172:Drivers/STM32F7xx_HAL_Driver/Src/stm32f7xx_hal_rcc.c ****               from an external clock mapped on the I2S_CKIN pin.
 173:Drivers/STM32F7xx_HAL_Driver/Src/stm32f7xx_hal_rcc.c ****                You have to use __HAL_RCC_PLLI2S_CONFIG() macro to configure this clock.
 174:Drivers/STM32F7xx_HAL_Driver/Src/stm32f7xx_hal_rcc.c ****           (+@) RTC: the RTC clock can be derived either from the LSI, LSE or HSE clock
 175:Drivers/STM32F7xx_HAL_Driver/Src/stm32f7xx_hal_rcc.c ****               divided by 2 to 31. You have to use __HAL_RCC_RTC_CONFIG() and __HAL_RCC_RTC_ENABLE()
 176:Drivers/STM32F7xx_HAL_Driver/Src/stm32f7xx_hal_rcc.c ****               macros to configure this clock.
 177:Drivers/STM32F7xx_HAL_Driver/Src/stm32f7xx_hal_rcc.c ****           (+@) USB OTG FS, SDIO and RTC: USB OTG FS require a frequency equal to 48 MHz
 178:Drivers/STM32F7xx_HAL_Driver/Src/stm32f7xx_hal_rcc.c ****               to work correctly, while the SDIO require a frequency equal or lower than
 179:Drivers/STM32F7xx_HAL_Driver/Src/stm32f7xx_hal_rcc.c ****               to 48. This clock is derived of the main PLL through PLLQ divider.
 180:Drivers/STM32F7xx_HAL_Driver/Src/stm32f7xx_hal_rcc.c ****           (+@) IWDG clock which is always the LSI clock.
 181:Drivers/STM32F7xx_HAL_Driver/Src/stm32f7xx_hal_rcc.c **** @endverbatim
 182:Drivers/STM32F7xx_HAL_Driver/Src/stm32f7xx_hal_rcc.c ****   * @{
 183:Drivers/STM32F7xx_HAL_Driver/Src/stm32f7xx_hal_rcc.c ****   */
 184:Drivers/STM32F7xx_HAL_Driver/Src/stm32f7xx_hal_rcc.c **** 
 185:Drivers/STM32F7xx_HAL_Driver/Src/stm32f7xx_hal_rcc.c **** /**
 186:Drivers/STM32F7xx_HAL_Driver/Src/stm32f7xx_hal_rcc.c ****   * @brief  Resets the RCC clock configuration to the default reset state.
 187:Drivers/STM32F7xx_HAL_Driver/Src/stm32f7xx_hal_rcc.c ****   * @note   The default reset state of the clock configuration is given below:
 188:Drivers/STM32F7xx_HAL_Driver/Src/stm32f7xx_hal_rcc.c ****   *            - HSI ON and used as system clock source
 189:Drivers/STM32F7xx_HAL_Driver/Src/stm32f7xx_hal_rcc.c ****   *            - HSE, PLL, PLLI2S and PLLSAI OFF
 190:Drivers/STM32F7xx_HAL_Driver/Src/stm32f7xx_hal_rcc.c ****   *            - AHB, APB1 and APB2 prescaler set to 1.
 191:Drivers/STM32F7xx_HAL_Driver/Src/stm32f7xx_hal_rcc.c ****   *            - CSS, MCO1 and MCO2 OFF
 192:Drivers/STM32F7xx_HAL_Driver/Src/stm32f7xx_hal_rcc.c ****   *            - All interrupts disabled
 193:Drivers/STM32F7xx_HAL_Driver/Src/stm32f7xx_hal_rcc.c ****   * @note   This function doesn't modify the configuration of the
 194:Drivers/STM32F7xx_HAL_Driver/Src/stm32f7xx_hal_rcc.c ****   *            - Peripheral clocks
 195:Drivers/STM32F7xx_HAL_Driver/Src/stm32f7xx_hal_rcc.c ****   *            - LSI, LSE and RTC clocks
 196:Drivers/STM32F7xx_HAL_Driver/Src/stm32f7xx_hal_rcc.c ****   * @retval None
 197:Drivers/STM32F7xx_HAL_Driver/Src/stm32f7xx_hal_rcc.c ****   */
 198:Drivers/STM32F7xx_HAL_Driver/Src/stm32f7xx_hal_rcc.c **** HAL_StatusTypeDef HAL_RCC_DeInit(void)
 199:Drivers/STM32F7xx_HAL_Driver/Src/stm32f7xx_hal_rcc.c **** {
  29              		.loc 1 199 1 view -0
  30              		.cfi_startproc
ARM GAS  D:\Dev\msys64\tmp\cckaQVt1.s 			page 5


  31              		@ args = 0, pretend = 0, frame = 0
  32              		@ frame_needed = 0, uses_anonymous_args = 0
  33 0000 38B5     		push	{r3, r4, r5, lr}
  34              	.LCFI0:
  35              		.cfi_def_cfa_offset 16
  36              		.cfi_offset 3, -16
  37              		.cfi_offset 4, -12
  38              		.cfi_offset 5, -8
  39              		.cfi_offset 14, -4
 200:Drivers/STM32F7xx_HAL_Driver/Src/stm32f7xx_hal_rcc.c ****   uint32_t tickstart;
  40              		.loc 1 200 3 view .LVU1
 201:Drivers/STM32F7xx_HAL_Driver/Src/stm32f7xx_hal_rcc.c **** 
 202:Drivers/STM32F7xx_HAL_Driver/Src/stm32f7xx_hal_rcc.c ****   /* Get Start Tick */
 203:Drivers/STM32F7xx_HAL_Driver/Src/stm32f7xx_hal_rcc.c ****   tickstart = HAL_GetTick();
  41              		.loc 1 203 3 view .LVU2
  42              		.loc 1 203 15 is_stmt 0 view .LVU3
  43 0002 FFF7FEFF 		bl	HAL_GetTick
  44              	.LVL0:
  45 0006 0446     		mov	r4, r0
  46              	.LVL1:
 204:Drivers/STM32F7xx_HAL_Driver/Src/stm32f7xx_hal_rcc.c **** 
 205:Drivers/STM32F7xx_HAL_Driver/Src/stm32f7xx_hal_rcc.c ****   /* Set HSION bit to the reset value */
 206:Drivers/STM32F7xx_HAL_Driver/Src/stm32f7xx_hal_rcc.c ****   SET_BIT(RCC->CR, RCC_CR_HSION);
  47              		.loc 1 206 3 is_stmt 1 view .LVU4
  48 0008 4E4A     		ldr	r2, .L28
  49 000a 1368     		ldr	r3, [r2]
  50 000c 43F00103 		orr	r3, r3, #1
  51 0010 1360     		str	r3, [r2]
 207:Drivers/STM32F7xx_HAL_Driver/Src/stm32f7xx_hal_rcc.c **** 
 208:Drivers/STM32F7xx_HAL_Driver/Src/stm32f7xx_hal_rcc.c ****   /* Wait till HSI is ready */
 209:Drivers/STM32F7xx_HAL_Driver/Src/stm32f7xx_hal_rcc.c ****   while (READ_BIT(RCC->CR, RCC_CR_HSIRDY) == RESET)
  52              		.loc 1 209 3 view .LVU5
  53              	.LVL2:
  54              	.L2:
  55              		.loc 1 209 9 view .LVU6
  56              		.loc 1 209 10 is_stmt 0 view .LVU7
  57 0012 4C4B     		ldr	r3, .L28
  58 0014 1B68     		ldr	r3, [r3]
  59              		.loc 1 209 9 view .LVU8
  60 0016 13F0020F 		tst	r3, #2
  61 001a 06D1     		bne	.L22
 210:Drivers/STM32F7xx_HAL_Driver/Src/stm32f7xx_hal_rcc.c ****   {
 211:Drivers/STM32F7xx_HAL_Driver/Src/stm32f7xx_hal_rcc.c ****     if ((HAL_GetTick() - tickstart) > HSI_TIMEOUT_VALUE)
  62              		.loc 1 211 5 is_stmt 1 view .LVU9
  63              		.loc 1 211 10 is_stmt 0 view .LVU10
  64 001c FFF7FEFF 		bl	HAL_GetTick
  65              	.LVL3:
  66              		.loc 1 211 24 view .LVU11
  67 0020 001B     		subs	r0, r0, r4
  68              		.loc 1 211 8 view .LVU12
  69 0022 0228     		cmp	r0, #2
  70 0024 F5D9     		bls	.L2
 212:Drivers/STM32F7xx_HAL_Driver/Src/stm32f7xx_hal_rcc.c ****     {
 213:Drivers/STM32F7xx_HAL_Driver/Src/stm32f7xx_hal_rcc.c ****       return HAL_TIMEOUT;
  71              		.loc 1 213 14 view .LVU13
  72 0026 0320     		movs	r0, #3
  73              	.L3:
ARM GAS  D:\Dev\msys64\tmp\cckaQVt1.s 			page 6


 214:Drivers/STM32F7xx_HAL_Driver/Src/stm32f7xx_hal_rcc.c ****     }
 215:Drivers/STM32F7xx_HAL_Driver/Src/stm32f7xx_hal_rcc.c ****   }
 216:Drivers/STM32F7xx_HAL_Driver/Src/stm32f7xx_hal_rcc.c **** 
 217:Drivers/STM32F7xx_HAL_Driver/Src/stm32f7xx_hal_rcc.c ****   /* Set HSITRIM[4:0] bits to the reset value */
 218:Drivers/STM32F7xx_HAL_Driver/Src/stm32f7xx_hal_rcc.c ****   SET_BIT(RCC->CR, RCC_CR_HSITRIM_4);
 219:Drivers/STM32F7xx_HAL_Driver/Src/stm32f7xx_hal_rcc.c **** 
 220:Drivers/STM32F7xx_HAL_Driver/Src/stm32f7xx_hal_rcc.c ****   /* Get Start Tick */
 221:Drivers/STM32F7xx_HAL_Driver/Src/stm32f7xx_hal_rcc.c ****   tickstart = HAL_GetTick();
 222:Drivers/STM32F7xx_HAL_Driver/Src/stm32f7xx_hal_rcc.c **** 
 223:Drivers/STM32F7xx_HAL_Driver/Src/stm32f7xx_hal_rcc.c ****   /* Reset CFGR register */
 224:Drivers/STM32F7xx_HAL_Driver/Src/stm32f7xx_hal_rcc.c ****   CLEAR_REG(RCC->CFGR);
 225:Drivers/STM32F7xx_HAL_Driver/Src/stm32f7xx_hal_rcc.c **** 
 226:Drivers/STM32F7xx_HAL_Driver/Src/stm32f7xx_hal_rcc.c ****   /* Wait till clock switch is ready */
 227:Drivers/STM32F7xx_HAL_Driver/Src/stm32f7xx_hal_rcc.c ****   while (READ_BIT(RCC->CFGR, RCC_CFGR_SWS) != RESET)
 228:Drivers/STM32F7xx_HAL_Driver/Src/stm32f7xx_hal_rcc.c ****   {
 229:Drivers/STM32F7xx_HAL_Driver/Src/stm32f7xx_hal_rcc.c ****     if ((HAL_GetTick() - tickstart) > CLOCKSWITCH_TIMEOUT_VALUE)
 230:Drivers/STM32F7xx_HAL_Driver/Src/stm32f7xx_hal_rcc.c ****     {
 231:Drivers/STM32F7xx_HAL_Driver/Src/stm32f7xx_hal_rcc.c ****       return HAL_TIMEOUT;
 232:Drivers/STM32F7xx_HAL_Driver/Src/stm32f7xx_hal_rcc.c ****     }
 233:Drivers/STM32F7xx_HAL_Driver/Src/stm32f7xx_hal_rcc.c ****   }
 234:Drivers/STM32F7xx_HAL_Driver/Src/stm32f7xx_hal_rcc.c **** 
 235:Drivers/STM32F7xx_HAL_Driver/Src/stm32f7xx_hal_rcc.c ****   /* Get Start Tick */
 236:Drivers/STM32F7xx_HAL_Driver/Src/stm32f7xx_hal_rcc.c ****   tickstart = HAL_GetTick();
 237:Drivers/STM32F7xx_HAL_Driver/Src/stm32f7xx_hal_rcc.c **** 
 238:Drivers/STM32F7xx_HAL_Driver/Src/stm32f7xx_hal_rcc.c ****   /* Clear HSEON, HSEBYP and CSSON bits */
 239:Drivers/STM32F7xx_HAL_Driver/Src/stm32f7xx_hal_rcc.c ****   CLEAR_BIT(RCC->CR, RCC_CR_HSEON | RCC_CR_HSEBYP | RCC_CR_CSSON);
 240:Drivers/STM32F7xx_HAL_Driver/Src/stm32f7xx_hal_rcc.c **** 
 241:Drivers/STM32F7xx_HAL_Driver/Src/stm32f7xx_hal_rcc.c ****   /* Wait till HSE is disabled */
 242:Drivers/STM32F7xx_HAL_Driver/Src/stm32f7xx_hal_rcc.c ****   while (READ_BIT(RCC->CR, RCC_CR_HSERDY) != RESET)
 243:Drivers/STM32F7xx_HAL_Driver/Src/stm32f7xx_hal_rcc.c ****   {
 244:Drivers/STM32F7xx_HAL_Driver/Src/stm32f7xx_hal_rcc.c ****     if ((HAL_GetTick() - tickstart) > HSE_TIMEOUT_VALUE)
 245:Drivers/STM32F7xx_HAL_Driver/Src/stm32f7xx_hal_rcc.c ****     {
 246:Drivers/STM32F7xx_HAL_Driver/Src/stm32f7xx_hal_rcc.c ****       return HAL_TIMEOUT;
 247:Drivers/STM32F7xx_HAL_Driver/Src/stm32f7xx_hal_rcc.c ****     }
 248:Drivers/STM32F7xx_HAL_Driver/Src/stm32f7xx_hal_rcc.c ****   }
 249:Drivers/STM32F7xx_HAL_Driver/Src/stm32f7xx_hal_rcc.c **** 
 250:Drivers/STM32F7xx_HAL_Driver/Src/stm32f7xx_hal_rcc.c ****   /* Get Start Tick */
 251:Drivers/STM32F7xx_HAL_Driver/Src/stm32f7xx_hal_rcc.c ****   tickstart = HAL_GetTick();
 252:Drivers/STM32F7xx_HAL_Driver/Src/stm32f7xx_hal_rcc.c **** 
 253:Drivers/STM32F7xx_HAL_Driver/Src/stm32f7xx_hal_rcc.c ****   /* Clear PLLON bit */
 254:Drivers/STM32F7xx_HAL_Driver/Src/stm32f7xx_hal_rcc.c ****   CLEAR_BIT(RCC->CR, RCC_CR_PLLON);
 255:Drivers/STM32F7xx_HAL_Driver/Src/stm32f7xx_hal_rcc.c **** 
 256:Drivers/STM32F7xx_HAL_Driver/Src/stm32f7xx_hal_rcc.c ****   /* Wait till PLL is disabled */
 257:Drivers/STM32F7xx_HAL_Driver/Src/stm32f7xx_hal_rcc.c ****   while (READ_BIT(RCC->CR, RCC_CR_PLLRDY) != RESET)
 258:Drivers/STM32F7xx_HAL_Driver/Src/stm32f7xx_hal_rcc.c ****   {
 259:Drivers/STM32F7xx_HAL_Driver/Src/stm32f7xx_hal_rcc.c ****     if ((HAL_GetTick() - tickstart) > PLL_TIMEOUT_VALUE)
 260:Drivers/STM32F7xx_HAL_Driver/Src/stm32f7xx_hal_rcc.c ****     {
 261:Drivers/STM32F7xx_HAL_Driver/Src/stm32f7xx_hal_rcc.c ****       return HAL_TIMEOUT;
 262:Drivers/STM32F7xx_HAL_Driver/Src/stm32f7xx_hal_rcc.c ****     }
 263:Drivers/STM32F7xx_HAL_Driver/Src/stm32f7xx_hal_rcc.c ****   }
 264:Drivers/STM32F7xx_HAL_Driver/Src/stm32f7xx_hal_rcc.c **** 
 265:Drivers/STM32F7xx_HAL_Driver/Src/stm32f7xx_hal_rcc.c ****   /* Get Start Tick */
 266:Drivers/STM32F7xx_HAL_Driver/Src/stm32f7xx_hal_rcc.c ****   tickstart = HAL_GetTick();
 267:Drivers/STM32F7xx_HAL_Driver/Src/stm32f7xx_hal_rcc.c **** 
 268:Drivers/STM32F7xx_HAL_Driver/Src/stm32f7xx_hal_rcc.c ****   /* Reset PLLI2SON bit */
 269:Drivers/STM32F7xx_HAL_Driver/Src/stm32f7xx_hal_rcc.c ****   CLEAR_BIT(RCC->CR, RCC_CR_PLLI2SON);
 270:Drivers/STM32F7xx_HAL_Driver/Src/stm32f7xx_hal_rcc.c **** 
ARM GAS  D:\Dev\msys64\tmp\cckaQVt1.s 			page 7


 271:Drivers/STM32F7xx_HAL_Driver/Src/stm32f7xx_hal_rcc.c ****   /* Wait till PLLI2S is disabled */
 272:Drivers/STM32F7xx_HAL_Driver/Src/stm32f7xx_hal_rcc.c ****   while (READ_BIT(RCC->CR, RCC_CR_PLLI2SRDY) != RESET)
 273:Drivers/STM32F7xx_HAL_Driver/Src/stm32f7xx_hal_rcc.c ****   {
 274:Drivers/STM32F7xx_HAL_Driver/Src/stm32f7xx_hal_rcc.c ****     if ((HAL_GetTick() - tickstart) > PLLI2S_TIMEOUT_VALUE)
 275:Drivers/STM32F7xx_HAL_Driver/Src/stm32f7xx_hal_rcc.c ****     {
 276:Drivers/STM32F7xx_HAL_Driver/Src/stm32f7xx_hal_rcc.c ****       return HAL_TIMEOUT;
 277:Drivers/STM32F7xx_HAL_Driver/Src/stm32f7xx_hal_rcc.c ****     }
 278:Drivers/STM32F7xx_HAL_Driver/Src/stm32f7xx_hal_rcc.c ****   }
 279:Drivers/STM32F7xx_HAL_Driver/Src/stm32f7xx_hal_rcc.c **** 
 280:Drivers/STM32F7xx_HAL_Driver/Src/stm32f7xx_hal_rcc.c ****   /* Get Start Tick */
 281:Drivers/STM32F7xx_HAL_Driver/Src/stm32f7xx_hal_rcc.c ****   tickstart = HAL_GetTick();
 282:Drivers/STM32F7xx_HAL_Driver/Src/stm32f7xx_hal_rcc.c **** 
 283:Drivers/STM32F7xx_HAL_Driver/Src/stm32f7xx_hal_rcc.c ****   /* Reset PLLSAI bit */
 284:Drivers/STM32F7xx_HAL_Driver/Src/stm32f7xx_hal_rcc.c ****   CLEAR_BIT(RCC->CR, RCC_CR_PLLSAION);
 285:Drivers/STM32F7xx_HAL_Driver/Src/stm32f7xx_hal_rcc.c **** 
 286:Drivers/STM32F7xx_HAL_Driver/Src/stm32f7xx_hal_rcc.c ****   /* Wait till PLLSAI is disabled */
 287:Drivers/STM32F7xx_HAL_Driver/Src/stm32f7xx_hal_rcc.c ****   while (READ_BIT(RCC->CR, RCC_CR_PLLSAIRDY) != RESET)
 288:Drivers/STM32F7xx_HAL_Driver/Src/stm32f7xx_hal_rcc.c ****   {
 289:Drivers/STM32F7xx_HAL_Driver/Src/stm32f7xx_hal_rcc.c ****     if ((HAL_GetTick() - tickstart) > PLLSAI_TIMEOUT_VALUE)
 290:Drivers/STM32F7xx_HAL_Driver/Src/stm32f7xx_hal_rcc.c ****     {
 291:Drivers/STM32F7xx_HAL_Driver/Src/stm32f7xx_hal_rcc.c ****       return HAL_TIMEOUT;
 292:Drivers/STM32F7xx_HAL_Driver/Src/stm32f7xx_hal_rcc.c ****     }
 293:Drivers/STM32F7xx_HAL_Driver/Src/stm32f7xx_hal_rcc.c ****   }
 294:Drivers/STM32F7xx_HAL_Driver/Src/stm32f7xx_hal_rcc.c **** 
 295:Drivers/STM32F7xx_HAL_Driver/Src/stm32f7xx_hal_rcc.c ****   /* Once PLL, PLLI2S and PLLSAI are OFF, reset PLLCFGR register to default value */
 296:Drivers/STM32F7xx_HAL_Driver/Src/stm32f7xx_hal_rcc.c ****   RCC->PLLCFGR = RCC_PLLCFGR_PLLM_4 | RCC_PLLCFGR_PLLN_6 | RCC_PLLCFGR_PLLN_7 | RCC_PLLCFGR_PLLQ_2 
 297:Drivers/STM32F7xx_HAL_Driver/Src/stm32f7xx_hal_rcc.c **** 
 298:Drivers/STM32F7xx_HAL_Driver/Src/stm32f7xx_hal_rcc.c ****   /* Reset PLLI2SCFGR register to default value */
 299:Drivers/STM32F7xx_HAL_Driver/Src/stm32f7xx_hal_rcc.c ****   RCC->PLLI2SCFGR = RCC_PLLI2SCFGR_PLLI2SN_6 | RCC_PLLI2SCFGR_PLLI2SN_7 | RCC_PLLI2SCFGR_PLLI2SQ_2 
 300:Drivers/STM32F7xx_HAL_Driver/Src/stm32f7xx_hal_rcc.c **** 
 301:Drivers/STM32F7xx_HAL_Driver/Src/stm32f7xx_hal_rcc.c ****   /* Reset PLLSAICFGR register to default value */
 302:Drivers/STM32F7xx_HAL_Driver/Src/stm32f7xx_hal_rcc.c ****   RCC->PLLSAICFGR = RCC_PLLSAICFGR_PLLSAIN_6 | RCC_PLLSAICFGR_PLLSAIN_7 | RCC_PLLSAICFGR_PLLSAIQ_2 
 303:Drivers/STM32F7xx_HAL_Driver/Src/stm32f7xx_hal_rcc.c **** 
 304:Drivers/STM32F7xx_HAL_Driver/Src/stm32f7xx_hal_rcc.c ****   /* Disable all interrupts */
 305:Drivers/STM32F7xx_HAL_Driver/Src/stm32f7xx_hal_rcc.c ****   CLEAR_BIT(RCC->CIR, RCC_CIR_LSIRDYIE | RCC_CIR_LSERDYIE | RCC_CIR_HSIRDYIE | RCC_CIR_HSERDYIE | R
 306:Drivers/STM32F7xx_HAL_Driver/Src/stm32f7xx_hal_rcc.c **** 
 307:Drivers/STM32F7xx_HAL_Driver/Src/stm32f7xx_hal_rcc.c ****   /* Clear all interrupt flags */
 308:Drivers/STM32F7xx_HAL_Driver/Src/stm32f7xx_hal_rcc.c ****   SET_BIT(RCC->CIR, RCC_CIR_LSIRDYC | RCC_CIR_LSERDYC | RCC_CIR_HSIRDYC | RCC_CIR_HSERDYC | RCC_CIR
 309:Drivers/STM32F7xx_HAL_Driver/Src/stm32f7xx_hal_rcc.c **** 
 310:Drivers/STM32F7xx_HAL_Driver/Src/stm32f7xx_hal_rcc.c ****   /* Clear LSION bit */
 311:Drivers/STM32F7xx_HAL_Driver/Src/stm32f7xx_hal_rcc.c ****   CLEAR_BIT(RCC->CSR, RCC_CSR_LSION);
 312:Drivers/STM32F7xx_HAL_Driver/Src/stm32f7xx_hal_rcc.c **** 
 313:Drivers/STM32F7xx_HAL_Driver/Src/stm32f7xx_hal_rcc.c ****   /* Reset all CSR flags */
 314:Drivers/STM32F7xx_HAL_Driver/Src/stm32f7xx_hal_rcc.c ****   SET_BIT(RCC->CSR, RCC_CSR_RMVF);
 315:Drivers/STM32F7xx_HAL_Driver/Src/stm32f7xx_hal_rcc.c **** 
 316:Drivers/STM32F7xx_HAL_Driver/Src/stm32f7xx_hal_rcc.c ****   /* Update the SystemCoreClock global variable */
 317:Drivers/STM32F7xx_HAL_Driver/Src/stm32f7xx_hal_rcc.c ****   SystemCoreClock = HSI_VALUE;
 318:Drivers/STM32F7xx_HAL_Driver/Src/stm32f7xx_hal_rcc.c **** 
 319:Drivers/STM32F7xx_HAL_Driver/Src/stm32f7xx_hal_rcc.c ****   /* Adapt Systick interrupt period */
 320:Drivers/STM32F7xx_HAL_Driver/Src/stm32f7xx_hal_rcc.c ****   if (HAL_InitTick(uwTickPrio) != HAL_OK)
 321:Drivers/STM32F7xx_HAL_Driver/Src/stm32f7xx_hal_rcc.c ****   {
 322:Drivers/STM32F7xx_HAL_Driver/Src/stm32f7xx_hal_rcc.c ****     return HAL_ERROR;
 323:Drivers/STM32F7xx_HAL_Driver/Src/stm32f7xx_hal_rcc.c ****   }
 324:Drivers/STM32F7xx_HAL_Driver/Src/stm32f7xx_hal_rcc.c ****   else
 325:Drivers/STM32F7xx_HAL_Driver/Src/stm32f7xx_hal_rcc.c ****   {
 326:Drivers/STM32F7xx_HAL_Driver/Src/stm32f7xx_hal_rcc.c ****     return HAL_OK;
 327:Drivers/STM32F7xx_HAL_Driver/Src/stm32f7xx_hal_rcc.c ****   }
ARM GAS  D:\Dev\msys64\tmp\cckaQVt1.s 			page 8


 328:Drivers/STM32F7xx_HAL_Driver/Src/stm32f7xx_hal_rcc.c **** }
  74              		.loc 1 328 1 view .LVU14
  75 0028 38BD     		pop	{r3, r4, r5, pc}
  76              	.LVL4:
  77              	.L22:
 218:Drivers/STM32F7xx_HAL_Driver/Src/stm32f7xx_hal_rcc.c **** 
  78              		.loc 1 218 3 is_stmt 1 view .LVU15
  79 002a 464D     		ldr	r5, .L28
  80 002c 2B68     		ldr	r3, [r5]
  81 002e 43F08003 		orr	r3, r3, #128
  82 0032 2B60     		str	r3, [r5]
 221:Drivers/STM32F7xx_HAL_Driver/Src/stm32f7xx_hal_rcc.c **** 
  83              		.loc 1 221 3 view .LVU16
 221:Drivers/STM32F7xx_HAL_Driver/Src/stm32f7xx_hal_rcc.c **** 
  84              		.loc 1 221 15 is_stmt 0 view .LVU17
  85 0034 FFF7FEFF 		bl	HAL_GetTick
  86              	.LVL5:
  87 0038 0446     		mov	r4, r0
  88              	.LVL6:
 224:Drivers/STM32F7xx_HAL_Driver/Src/stm32f7xx_hal_rcc.c **** 
  89              		.loc 1 224 3 is_stmt 1 view .LVU18
  90 003a 0023     		movs	r3, #0
  91 003c AB60     		str	r3, [r5, #8]
 227:Drivers/STM32F7xx_HAL_Driver/Src/stm32f7xx_hal_rcc.c ****   {
  92              		.loc 1 227 3 view .LVU19
  93              	.LVL7:
  94              	.L5:
 227:Drivers/STM32F7xx_HAL_Driver/Src/stm32f7xx_hal_rcc.c ****   {
  95              		.loc 1 227 9 view .LVU20
 227:Drivers/STM32F7xx_HAL_Driver/Src/stm32f7xx_hal_rcc.c ****   {
  96              		.loc 1 227 10 is_stmt 0 view .LVU21
  97 003e 414B     		ldr	r3, .L28
  98 0040 9B68     		ldr	r3, [r3, #8]
 227:Drivers/STM32F7xx_HAL_Driver/Src/stm32f7xx_hal_rcc.c ****   {
  99              		.loc 1 227 9 view .LVU22
 100 0042 13F00C0F 		tst	r3, #12
 101 0046 08D0     		beq	.L23
 229:Drivers/STM32F7xx_HAL_Driver/Src/stm32f7xx_hal_rcc.c ****     {
 102              		.loc 1 229 5 is_stmt 1 view .LVU23
 229:Drivers/STM32F7xx_HAL_Driver/Src/stm32f7xx_hal_rcc.c ****     {
 103              		.loc 1 229 10 is_stmt 0 view .LVU24
 104 0048 FFF7FEFF 		bl	HAL_GetTick
 105              	.LVL8:
 229:Drivers/STM32F7xx_HAL_Driver/Src/stm32f7xx_hal_rcc.c ****     {
 106              		.loc 1 229 24 view .LVU25
 107 004c 001B     		subs	r0, r0, r4
 229:Drivers/STM32F7xx_HAL_Driver/Src/stm32f7xx_hal_rcc.c ****     {
 108              		.loc 1 229 8 view .LVU26
 109 004e 41F28833 		movw	r3, #5000
 110 0052 9842     		cmp	r0, r3
 111 0054 F3D9     		bls	.L5
 231:Drivers/STM32F7xx_HAL_Driver/Src/stm32f7xx_hal_rcc.c ****     }
 112              		.loc 1 231 14 view .LVU27
 113 0056 0320     		movs	r0, #3
 114 0058 E6E7     		b	.L3
 115              	.L23:
 236:Drivers/STM32F7xx_HAL_Driver/Src/stm32f7xx_hal_rcc.c **** 
ARM GAS  D:\Dev\msys64\tmp\cckaQVt1.s 			page 9


 116              		.loc 1 236 3 is_stmt 1 view .LVU28
 236:Drivers/STM32F7xx_HAL_Driver/Src/stm32f7xx_hal_rcc.c **** 
 117              		.loc 1 236 15 is_stmt 0 view .LVU29
 118 005a FFF7FEFF 		bl	HAL_GetTick
 119              	.LVL9:
 120 005e 0446     		mov	r4, r0
 121              	.LVL10:
 239:Drivers/STM32F7xx_HAL_Driver/Src/stm32f7xx_hal_rcc.c **** 
 122              		.loc 1 239 3 is_stmt 1 view .LVU30
 123 0060 384A     		ldr	r2, .L28
 124 0062 1368     		ldr	r3, [r2]
 125 0064 23F45023 		bic	r3, r3, #851968
 126 0068 1360     		str	r3, [r2]
 242:Drivers/STM32F7xx_HAL_Driver/Src/stm32f7xx_hal_rcc.c ****   {
 127              		.loc 1 242 3 view .LVU31
 128              	.LVL11:
 129              	.L7:
 242:Drivers/STM32F7xx_HAL_Driver/Src/stm32f7xx_hal_rcc.c ****   {
 130              		.loc 1 242 9 view .LVU32
 242:Drivers/STM32F7xx_HAL_Driver/Src/stm32f7xx_hal_rcc.c ****   {
 131              		.loc 1 242 10 is_stmt 0 view .LVU33
 132 006a 364B     		ldr	r3, .L28
 133 006c 1B68     		ldr	r3, [r3]
 242:Drivers/STM32F7xx_HAL_Driver/Src/stm32f7xx_hal_rcc.c ****   {
 134              		.loc 1 242 9 view .LVU34
 135 006e 13F4003F 		tst	r3, #131072
 136 0072 06D0     		beq	.L24
 244:Drivers/STM32F7xx_HAL_Driver/Src/stm32f7xx_hal_rcc.c ****     {
 137              		.loc 1 244 5 is_stmt 1 view .LVU35
 244:Drivers/STM32F7xx_HAL_Driver/Src/stm32f7xx_hal_rcc.c ****     {
 138              		.loc 1 244 10 is_stmt 0 view .LVU36
 139 0074 FFF7FEFF 		bl	HAL_GetTick
 140              	.LVL12:
 244:Drivers/STM32F7xx_HAL_Driver/Src/stm32f7xx_hal_rcc.c ****     {
 141              		.loc 1 244 24 view .LVU37
 142 0078 001B     		subs	r0, r0, r4
 244:Drivers/STM32F7xx_HAL_Driver/Src/stm32f7xx_hal_rcc.c ****     {
 143              		.loc 1 244 8 view .LVU38
 144 007a 6428     		cmp	r0, #100
 145 007c F5D9     		bls	.L7
 246:Drivers/STM32F7xx_HAL_Driver/Src/stm32f7xx_hal_rcc.c ****     }
 146              		.loc 1 246 14 view .LVU39
 147 007e 0320     		movs	r0, #3
 148 0080 D2E7     		b	.L3
 149              	.L24:
 251:Drivers/STM32F7xx_HAL_Driver/Src/stm32f7xx_hal_rcc.c **** 
 150              		.loc 1 251 3 is_stmt 1 view .LVU40
 251:Drivers/STM32F7xx_HAL_Driver/Src/stm32f7xx_hal_rcc.c **** 
 151              		.loc 1 251 15 is_stmt 0 view .LVU41
 152 0082 FFF7FEFF 		bl	HAL_GetTick
 153              	.LVL13:
 154 0086 0446     		mov	r4, r0
 155              	.LVL14:
 254:Drivers/STM32F7xx_HAL_Driver/Src/stm32f7xx_hal_rcc.c **** 
 156              		.loc 1 254 3 is_stmt 1 view .LVU42
 157 0088 2E4A     		ldr	r2, .L28
 158 008a 1368     		ldr	r3, [r2]
ARM GAS  D:\Dev\msys64\tmp\cckaQVt1.s 			page 10


 159 008c 23F08073 		bic	r3, r3, #16777216
 160 0090 1360     		str	r3, [r2]
 257:Drivers/STM32F7xx_HAL_Driver/Src/stm32f7xx_hal_rcc.c ****   {
 161              		.loc 1 257 3 view .LVU43
 162              	.LVL15:
 163              	.L9:
 257:Drivers/STM32F7xx_HAL_Driver/Src/stm32f7xx_hal_rcc.c ****   {
 164              		.loc 1 257 9 view .LVU44
 257:Drivers/STM32F7xx_HAL_Driver/Src/stm32f7xx_hal_rcc.c ****   {
 165              		.loc 1 257 10 is_stmt 0 view .LVU45
 166 0092 2C4B     		ldr	r3, .L28
 167 0094 1B68     		ldr	r3, [r3]
 257:Drivers/STM32F7xx_HAL_Driver/Src/stm32f7xx_hal_rcc.c ****   {
 168              		.loc 1 257 9 view .LVU46
 169 0096 13F0007F 		tst	r3, #33554432
 170 009a 06D0     		beq	.L25
 259:Drivers/STM32F7xx_HAL_Driver/Src/stm32f7xx_hal_rcc.c ****     {
 171              		.loc 1 259 5 is_stmt 1 view .LVU47
 259:Drivers/STM32F7xx_HAL_Driver/Src/stm32f7xx_hal_rcc.c ****     {
 172              		.loc 1 259 10 is_stmt 0 view .LVU48
 173 009c FFF7FEFF 		bl	HAL_GetTick
 174              	.LVL16:
 259:Drivers/STM32F7xx_HAL_Driver/Src/stm32f7xx_hal_rcc.c ****     {
 175              		.loc 1 259 24 view .LVU49
 176 00a0 001B     		subs	r0, r0, r4
 259:Drivers/STM32F7xx_HAL_Driver/Src/stm32f7xx_hal_rcc.c ****     {
 177              		.loc 1 259 8 view .LVU50
 178 00a2 0228     		cmp	r0, #2
 179 00a4 F5D9     		bls	.L9
 261:Drivers/STM32F7xx_HAL_Driver/Src/stm32f7xx_hal_rcc.c ****     }
 180              		.loc 1 261 14 view .LVU51
 181 00a6 0320     		movs	r0, #3
 182 00a8 BEE7     		b	.L3
 183              	.L25:
 266:Drivers/STM32F7xx_HAL_Driver/Src/stm32f7xx_hal_rcc.c **** 
 184              		.loc 1 266 3 is_stmt 1 view .LVU52
 266:Drivers/STM32F7xx_HAL_Driver/Src/stm32f7xx_hal_rcc.c **** 
 185              		.loc 1 266 15 is_stmt 0 view .LVU53
 186 00aa FFF7FEFF 		bl	HAL_GetTick
 187              	.LVL17:
 188 00ae 0446     		mov	r4, r0
 189              	.LVL18:
 269:Drivers/STM32F7xx_HAL_Driver/Src/stm32f7xx_hal_rcc.c **** 
 190              		.loc 1 269 3 is_stmt 1 view .LVU54
 191 00b0 244A     		ldr	r2, .L28
 192 00b2 1368     		ldr	r3, [r2]
 193 00b4 23F08063 		bic	r3, r3, #67108864
 194 00b8 1360     		str	r3, [r2]
 272:Drivers/STM32F7xx_HAL_Driver/Src/stm32f7xx_hal_rcc.c ****   {
 195              		.loc 1 272 3 view .LVU55
 196              	.LVL19:
 197              	.L11:
 272:Drivers/STM32F7xx_HAL_Driver/Src/stm32f7xx_hal_rcc.c ****   {
 198              		.loc 1 272 9 view .LVU56
 272:Drivers/STM32F7xx_HAL_Driver/Src/stm32f7xx_hal_rcc.c ****   {
 199              		.loc 1 272 10 is_stmt 0 view .LVU57
 200 00ba 224B     		ldr	r3, .L28
ARM GAS  D:\Dev\msys64\tmp\cckaQVt1.s 			page 11


 201 00bc 1B68     		ldr	r3, [r3]
 272:Drivers/STM32F7xx_HAL_Driver/Src/stm32f7xx_hal_rcc.c ****   {
 202              		.loc 1 272 9 view .LVU58
 203 00be 13F0006F 		tst	r3, #134217728
 204 00c2 06D0     		beq	.L26
 274:Drivers/STM32F7xx_HAL_Driver/Src/stm32f7xx_hal_rcc.c ****     {
 205              		.loc 1 274 5 is_stmt 1 view .LVU59
 274:Drivers/STM32F7xx_HAL_Driver/Src/stm32f7xx_hal_rcc.c ****     {
 206              		.loc 1 274 10 is_stmt 0 view .LVU60
 207 00c4 FFF7FEFF 		bl	HAL_GetTick
 208              	.LVL20:
 274:Drivers/STM32F7xx_HAL_Driver/Src/stm32f7xx_hal_rcc.c ****     {
 209              		.loc 1 274 24 view .LVU61
 210 00c8 001B     		subs	r0, r0, r4
 274:Drivers/STM32F7xx_HAL_Driver/Src/stm32f7xx_hal_rcc.c ****     {
 211              		.loc 1 274 8 view .LVU62
 212 00ca 6428     		cmp	r0, #100
 213 00cc F5D9     		bls	.L11
 276:Drivers/STM32F7xx_HAL_Driver/Src/stm32f7xx_hal_rcc.c ****     }
 214              		.loc 1 276 14 view .LVU63
 215 00ce 0320     		movs	r0, #3
 216 00d0 AAE7     		b	.L3
 217              	.L26:
 281:Drivers/STM32F7xx_HAL_Driver/Src/stm32f7xx_hal_rcc.c **** 
 218              		.loc 1 281 3 is_stmt 1 view .LVU64
 281:Drivers/STM32F7xx_HAL_Driver/Src/stm32f7xx_hal_rcc.c **** 
 219              		.loc 1 281 15 is_stmt 0 view .LVU65
 220 00d2 FFF7FEFF 		bl	HAL_GetTick
 221              	.LVL21:
 222 00d6 0446     		mov	r4, r0
 223              	.LVL22:
 284:Drivers/STM32F7xx_HAL_Driver/Src/stm32f7xx_hal_rcc.c **** 
 224              		.loc 1 284 3 is_stmt 1 view .LVU66
 225 00d8 1A4A     		ldr	r2, .L28
 226 00da 1368     		ldr	r3, [r2]
 227 00dc 23F08053 		bic	r3, r3, #268435456
 228 00e0 1360     		str	r3, [r2]
 287:Drivers/STM32F7xx_HAL_Driver/Src/stm32f7xx_hal_rcc.c ****   {
 229              		.loc 1 287 3 view .LVU67
 230              	.LVL23:
 231              	.L13:
 287:Drivers/STM32F7xx_HAL_Driver/Src/stm32f7xx_hal_rcc.c ****   {
 232              		.loc 1 287 9 view .LVU68
 287:Drivers/STM32F7xx_HAL_Driver/Src/stm32f7xx_hal_rcc.c ****   {
 233              		.loc 1 287 10 is_stmt 0 view .LVU69
 234 00e2 184B     		ldr	r3, .L28
 235 00e4 1B68     		ldr	r3, [r3]
 287:Drivers/STM32F7xx_HAL_Driver/Src/stm32f7xx_hal_rcc.c ****   {
 236              		.loc 1 287 9 view .LVU70
 237 00e6 13F0005F 		tst	r3, #536870912
 238 00ea 06D0     		beq	.L27
 289:Drivers/STM32F7xx_HAL_Driver/Src/stm32f7xx_hal_rcc.c ****     {
 239              		.loc 1 289 5 is_stmt 1 view .LVU71
 289:Drivers/STM32F7xx_HAL_Driver/Src/stm32f7xx_hal_rcc.c ****     {
 240              		.loc 1 289 10 is_stmt 0 view .LVU72
 241 00ec FFF7FEFF 		bl	HAL_GetTick
 242              	.LVL24:
ARM GAS  D:\Dev\msys64\tmp\cckaQVt1.s 			page 12


 289:Drivers/STM32F7xx_HAL_Driver/Src/stm32f7xx_hal_rcc.c ****     {
 243              		.loc 1 289 24 view .LVU73
 244 00f0 001B     		subs	r0, r0, r4
 289:Drivers/STM32F7xx_HAL_Driver/Src/stm32f7xx_hal_rcc.c ****     {
 245              		.loc 1 289 8 view .LVU74
 246 00f2 6428     		cmp	r0, #100
 247 00f4 F5D9     		bls	.L13
 291:Drivers/STM32F7xx_HAL_Driver/Src/stm32f7xx_hal_rcc.c ****     }
 248              		.loc 1 291 14 view .LVU75
 249 00f6 0320     		movs	r0, #3
 250 00f8 96E7     		b	.L3
 251              	.L27:
 296:Drivers/STM32F7xx_HAL_Driver/Src/stm32f7xx_hal_rcc.c **** 
 252              		.loc 1 296 3 is_stmt 1 view .LVU76
 296:Drivers/STM32F7xx_HAL_Driver/Src/stm32f7xx_hal_rcc.c **** 
 253              		.loc 1 296 16 is_stmt 0 view .LVU77
 254 00fa 124B     		ldr	r3, .L28
 255 00fc 124A     		ldr	r2, .L28+4
 256 00fe 5A60     		str	r2, [r3, #4]
 299:Drivers/STM32F7xx_HAL_Driver/Src/stm32f7xx_hal_rcc.c **** 
 257              		.loc 1 299 3 is_stmt 1 view .LVU78
 299:Drivers/STM32F7xx_HAL_Driver/Src/stm32f7xx_hal_rcc.c **** 
 258              		.loc 1 299 19 is_stmt 0 view .LVU79
 259 0100 103A     		subs	r2, r2, #16
 260 0102 C3F88420 		str	r2, [r3, #132]
 302:Drivers/STM32F7xx_HAL_Driver/Src/stm32f7xx_hal_rcc.c **** 
 261              		.loc 1 302 3 is_stmt 1 view .LVU80
 302:Drivers/STM32F7xx_HAL_Driver/Src/stm32f7xx_hal_rcc.c **** 
 262              		.loc 1 302 19 is_stmt 0 view .LVU81
 263 0106 C3F88820 		str	r2, [r3, #136]
 305:Drivers/STM32F7xx_HAL_Driver/Src/stm32f7xx_hal_rcc.c **** 
 264              		.loc 1 305 3 is_stmt 1 view .LVU82
 265 010a DA68     		ldr	r2, [r3, #12]
 266 010c 22F4FE42 		bic	r2, r2, #32512
 267 0110 DA60     		str	r2, [r3, #12]
 308:Drivers/STM32F7xx_HAL_Driver/Src/stm32f7xx_hal_rcc.c **** 
 268              		.loc 1 308 3 view .LVU83
 269 0112 DA68     		ldr	r2, [r3, #12]
 270 0114 42F47F02 		orr	r2, r2, #16711680
 271 0118 DA60     		str	r2, [r3, #12]
 311:Drivers/STM32F7xx_HAL_Driver/Src/stm32f7xx_hal_rcc.c **** 
 272              		.loc 1 311 3 view .LVU84
 273 011a 5A6F     		ldr	r2, [r3, #116]
 274 011c 22F00102 		bic	r2, r2, #1
 275 0120 5A67     		str	r2, [r3, #116]
 314:Drivers/STM32F7xx_HAL_Driver/Src/stm32f7xx_hal_rcc.c **** 
 276              		.loc 1 314 3 view .LVU85
 277 0122 5A6F     		ldr	r2, [r3, #116]
 278 0124 42F08072 		orr	r2, r2, #16777216
 279 0128 5A67     		str	r2, [r3, #116]
 317:Drivers/STM32F7xx_HAL_Driver/Src/stm32f7xx_hal_rcc.c **** 
 280              		.loc 1 317 3 view .LVU86
 317:Drivers/STM32F7xx_HAL_Driver/Src/stm32f7xx_hal_rcc.c **** 
 281              		.loc 1 317 19 is_stmt 0 view .LVU87
 282 012a 084B     		ldr	r3, .L28+8
 283 012c 084A     		ldr	r2, .L28+12
 284 012e 1A60     		str	r2, [r3]
ARM GAS  D:\Dev\msys64\tmp\cckaQVt1.s 			page 13


 320:Drivers/STM32F7xx_HAL_Driver/Src/stm32f7xx_hal_rcc.c ****   {
 285              		.loc 1 320 3 is_stmt 1 view .LVU88
 320:Drivers/STM32F7xx_HAL_Driver/Src/stm32f7xx_hal_rcc.c ****   {
 286              		.loc 1 320 7 is_stmt 0 view .LVU89
 287 0130 084B     		ldr	r3, .L28+16
 288 0132 1868     		ldr	r0, [r3]
 289 0134 FFF7FEFF 		bl	HAL_InitTick
 290              	.LVL25:
 320:Drivers/STM32F7xx_HAL_Driver/Src/stm32f7xx_hal_rcc.c ****   {
 291              		.loc 1 320 6 view .LVU90
 292 0138 0028     		cmp	r0, #0
 293 013a 3FF475AF 		beq	.L3
 322:Drivers/STM32F7xx_HAL_Driver/Src/stm32f7xx_hal_rcc.c ****   }
 294              		.loc 1 322 12 view .LVU91
 295 013e 0120     		movs	r0, #1
 296 0140 72E7     		b	.L3
 297              	.L29:
 298 0142 00BF     		.align	2
 299              	.L28:
 300 0144 00380240 		.word	1073887232
 301 0148 10300024 		.word	603992080
 302 014c 00000000 		.word	SystemCoreClock
 303 0150 0024F400 		.word	16000000
 304 0154 00000000 		.word	uwTickPrio
 305              		.cfi_endproc
 306              	.LFE141:
 308              		.section	.text.HAL_RCC_OscConfig,"ax",%progbits
 309              		.align	1
 310              		.global	HAL_RCC_OscConfig
 311              		.syntax unified
 312              		.thumb
 313              		.thumb_func
 314              		.fpu fpv5-sp-d16
 316              	HAL_RCC_OscConfig:
 317              	.LVL26:
 318              	.LFB142:
 329:Drivers/STM32F7xx_HAL_Driver/Src/stm32f7xx_hal_rcc.c **** 
 330:Drivers/STM32F7xx_HAL_Driver/Src/stm32f7xx_hal_rcc.c **** /**
 331:Drivers/STM32F7xx_HAL_Driver/Src/stm32f7xx_hal_rcc.c ****   * @brief  Initializes the RCC Oscillators according to the specified parameters in the
 332:Drivers/STM32F7xx_HAL_Driver/Src/stm32f7xx_hal_rcc.c ****   *         RCC_OscInitTypeDef.
 333:Drivers/STM32F7xx_HAL_Driver/Src/stm32f7xx_hal_rcc.c ****   * @param  RCC_OscInitStruct pointer to an RCC_OscInitTypeDef structure that
 334:Drivers/STM32F7xx_HAL_Driver/Src/stm32f7xx_hal_rcc.c ****   *         contains the configuration information for the RCC Oscillators.
 335:Drivers/STM32F7xx_HAL_Driver/Src/stm32f7xx_hal_rcc.c ****   * @note   The PLL is not disabled when used as system clock.
 336:Drivers/STM32F7xx_HAL_Driver/Src/stm32f7xx_hal_rcc.c ****   * @note   Transitions LSE Bypass to LSE On and LSE On to LSE Bypass are not
 337:Drivers/STM32F7xx_HAL_Driver/Src/stm32f7xx_hal_rcc.c ****   *         supported by this function. User should request a transition to LSE Off
 338:Drivers/STM32F7xx_HAL_Driver/Src/stm32f7xx_hal_rcc.c ****   *         first and then LSE On or LSE Bypass.
 339:Drivers/STM32F7xx_HAL_Driver/Src/stm32f7xx_hal_rcc.c ****   * @note   Transition HSE Bypass to HSE On and HSE On to HSE Bypass are not
 340:Drivers/STM32F7xx_HAL_Driver/Src/stm32f7xx_hal_rcc.c ****   *         supported by this function. User should request a transition to HSE Off
 341:Drivers/STM32F7xx_HAL_Driver/Src/stm32f7xx_hal_rcc.c ****   *         first and then HSE On or HSE Bypass.
 342:Drivers/STM32F7xx_HAL_Driver/Src/stm32f7xx_hal_rcc.c ****   * @retval HAL status
 343:Drivers/STM32F7xx_HAL_Driver/Src/stm32f7xx_hal_rcc.c ****   */
 344:Drivers/STM32F7xx_HAL_Driver/Src/stm32f7xx_hal_rcc.c **** HAL_StatusTypeDef HAL_RCC_OscConfig(RCC_OscInitTypeDef  *RCC_OscInitStruct)
 345:Drivers/STM32F7xx_HAL_Driver/Src/stm32f7xx_hal_rcc.c **** {
 319              		.loc 1 345 1 is_stmt 1 view -0
 320              		.cfi_startproc
 321              		@ args = 0, pretend = 0, frame = 8
 322              		@ frame_needed = 0, uses_anonymous_args = 0
ARM GAS  D:\Dev\msys64\tmp\cckaQVt1.s 			page 14


 346:Drivers/STM32F7xx_HAL_Driver/Src/stm32f7xx_hal_rcc.c ****   uint32_t tickstart;
 323              		.loc 1 346 3 view .LVU93
 347:Drivers/STM32F7xx_HAL_Driver/Src/stm32f7xx_hal_rcc.c ****   uint32_t pll_config;
 324              		.loc 1 347 3 view .LVU94
 348:Drivers/STM32F7xx_HAL_Driver/Src/stm32f7xx_hal_rcc.c ****   FlagStatus pwrclkchanged = RESET;
 325              		.loc 1 348 3 view .LVU95
 349:Drivers/STM32F7xx_HAL_Driver/Src/stm32f7xx_hal_rcc.c **** 
 350:Drivers/STM32F7xx_HAL_Driver/Src/stm32f7xx_hal_rcc.c ****   /* Check Null pointer */
 351:Drivers/STM32F7xx_HAL_Driver/Src/stm32f7xx_hal_rcc.c ****   if (RCC_OscInitStruct == NULL)
 326              		.loc 1 351 3 view .LVU96
 327              		.loc 1 351 6 is_stmt 0 view .LVU97
 328 0000 0028     		cmp	r0, #0
 329 0002 00F0FF81 		beq	.L82
 345:Drivers/STM32F7xx_HAL_Driver/Src/stm32f7xx_hal_rcc.c ****   uint32_t tickstart;
 330              		.loc 1 345 1 view .LVU98
 331 0006 70B5     		push	{r4, r5, r6, lr}
 332              	.LCFI1:
 333              		.cfi_def_cfa_offset 16
 334              		.cfi_offset 4, -16
 335              		.cfi_offset 5, -12
 336              		.cfi_offset 6, -8
 337              		.cfi_offset 14, -4
 338 0008 82B0     		sub	sp, sp, #8
 339              	.LCFI2:
 340              		.cfi_def_cfa_offset 24
 341 000a 0446     		mov	r4, r0
 352:Drivers/STM32F7xx_HAL_Driver/Src/stm32f7xx_hal_rcc.c ****   {
 353:Drivers/STM32F7xx_HAL_Driver/Src/stm32f7xx_hal_rcc.c ****     return HAL_ERROR;
 354:Drivers/STM32F7xx_HAL_Driver/Src/stm32f7xx_hal_rcc.c ****   }
 355:Drivers/STM32F7xx_HAL_Driver/Src/stm32f7xx_hal_rcc.c **** 
 356:Drivers/STM32F7xx_HAL_Driver/Src/stm32f7xx_hal_rcc.c ****   /* Check the parameters */
 357:Drivers/STM32F7xx_HAL_Driver/Src/stm32f7xx_hal_rcc.c ****   assert_param(IS_RCC_OSCILLATORTYPE(RCC_OscInitStruct->OscillatorType));
 342              		.loc 1 357 3 is_stmt 1 view .LVU99
 358:Drivers/STM32F7xx_HAL_Driver/Src/stm32f7xx_hal_rcc.c **** 
 359:Drivers/STM32F7xx_HAL_Driver/Src/stm32f7xx_hal_rcc.c ****   /*------------------------------- HSE Configuration ------------------------*/
 360:Drivers/STM32F7xx_HAL_Driver/Src/stm32f7xx_hal_rcc.c ****   if (((RCC_OscInitStruct->OscillatorType) & RCC_OSCILLATORTYPE_HSE) == RCC_OSCILLATORTYPE_HSE)
 343              		.loc 1 360 3 view .LVU100
 344              		.loc 1 360 26 is_stmt 0 view .LVU101
 345 000c 0368     		ldr	r3, [r0]
 346              		.loc 1 360 6 view .LVU102
 347 000e 13F0010F 		tst	r3, #1
 348 0012 29D0     		beq	.L32
 361:Drivers/STM32F7xx_HAL_Driver/Src/stm32f7xx_hal_rcc.c ****   {
 362:Drivers/STM32F7xx_HAL_Driver/Src/stm32f7xx_hal_rcc.c ****     /* Check the parameters */
 363:Drivers/STM32F7xx_HAL_Driver/Src/stm32f7xx_hal_rcc.c ****     assert_param(IS_RCC_HSE(RCC_OscInitStruct->HSEState));
 349              		.loc 1 363 5 is_stmt 1 view .LVU103
 364:Drivers/STM32F7xx_HAL_Driver/Src/stm32f7xx_hal_rcc.c ****     /* When the HSE is used as system clock or clock source for PLL, It can not be disabled */
 365:Drivers/STM32F7xx_HAL_Driver/Src/stm32f7xx_hal_rcc.c ****     if ((__HAL_RCC_GET_SYSCLK_SOURCE() == RCC_SYSCLKSOURCE_STATUS_HSE)
 350              		.loc 1 365 5 view .LVU104
 351              		.loc 1 365 10 is_stmt 0 view .LVU105
 352 0014 A74B     		ldr	r3, .L123
 353 0016 9B68     		ldr	r3, [r3, #8]
 354 0018 03F00C03 		and	r3, r3, #12
 355              		.loc 1 365 8 view .LVU106
 356 001c 042B     		cmp	r3, #4
 357 001e 1AD0     		beq	.L33
 366:Drivers/STM32F7xx_HAL_Driver/Src/stm32f7xx_hal_rcc.c ****         || ((__HAL_RCC_GET_SYSCLK_SOURCE() == RCC_SYSCLKSOURCE_STATUS_PLLCLK) && ((RCC->PLLCFGR & R
ARM GAS  D:\Dev\msys64\tmp\cckaQVt1.s 			page 15


 358              		.loc 1 366 14 view .LVU107
 359 0020 A44B     		ldr	r3, .L123
 360 0022 9B68     		ldr	r3, [r3, #8]
 361 0024 03F00C03 		and	r3, r3, #12
 362              		.loc 1 366 9 view .LVU108
 363 0028 082B     		cmp	r3, #8
 364 002a 0FD0     		beq	.L109
 365              	.L34:
 367:Drivers/STM32F7xx_HAL_Driver/Src/stm32f7xx_hal_rcc.c ****     {
 368:Drivers/STM32F7xx_HAL_Driver/Src/stm32f7xx_hal_rcc.c ****       if ((__HAL_RCC_GET_FLAG(RCC_FLAG_HSERDY) != RESET) && (RCC_OscInitStruct->HSEState == RCC_HSE
 369:Drivers/STM32F7xx_HAL_Driver/Src/stm32f7xx_hal_rcc.c ****       {
 370:Drivers/STM32F7xx_HAL_Driver/Src/stm32f7xx_hal_rcc.c ****         return HAL_ERROR;
 371:Drivers/STM32F7xx_HAL_Driver/Src/stm32f7xx_hal_rcc.c ****       }
 372:Drivers/STM32F7xx_HAL_Driver/Src/stm32f7xx_hal_rcc.c ****     }
 373:Drivers/STM32F7xx_HAL_Driver/Src/stm32f7xx_hal_rcc.c ****     else
 374:Drivers/STM32F7xx_HAL_Driver/Src/stm32f7xx_hal_rcc.c ****     {
 375:Drivers/STM32F7xx_HAL_Driver/Src/stm32f7xx_hal_rcc.c ****       /* Set the new HSE configuration ---------------------------------------*/
 376:Drivers/STM32F7xx_HAL_Driver/Src/stm32f7xx_hal_rcc.c ****       __HAL_RCC_HSE_CONFIG(RCC_OscInitStruct->HSEState);
 366              		.loc 1 376 7 is_stmt 1 view .LVU109
 367              		.loc 1 376 7 view .LVU110
 368 002c 6368     		ldr	r3, [r4, #4]
 369 002e B3F5803F 		cmp	r3, #65536
 370 0032 40D0     		beq	.L110
 371              		.loc 1 376 7 discriminator 2 view .LVU111
 372 0034 002B     		cmp	r3, #0
 373 0036 54D1     		bne	.L37
 374              		.loc 1 376 7 discriminator 4 view .LVU112
 375 0038 9E4B     		ldr	r3, .L123
 376 003a 1A68     		ldr	r2, [r3]
 377 003c 22F48032 		bic	r2, r2, #65536
 378 0040 1A60     		str	r2, [r3]
 379              		.loc 1 376 7 discriminator 4 view .LVU113
 380 0042 1A68     		ldr	r2, [r3]
 381 0044 22F48022 		bic	r2, r2, #262144
 382 0048 1A60     		str	r2, [r3]
 383 004a 39E0     		b	.L36
 384              	.L109:
 366:Drivers/STM32F7xx_HAL_Driver/Src/stm32f7xx_hal_rcc.c ****         || ((__HAL_RCC_GET_SYSCLK_SOURCE() == RCC_SYSCLKSOURCE_STATUS_PLLCLK) && ((RCC->PLLCFGR & R
 385              		.loc 1 366 87 is_stmt 0 discriminator 1 view .LVU114
 386 004c 994B     		ldr	r3, .L123
 387 004e 5B68     		ldr	r3, [r3, #4]
 366:Drivers/STM32F7xx_HAL_Driver/Src/stm32f7xx_hal_rcc.c ****         || ((__HAL_RCC_GET_SYSCLK_SOURCE() == RCC_SYSCLKSOURCE_STATUS_PLLCLK) && ((RCC->PLLCFGR & R
 388              		.loc 1 366 79 discriminator 1 view .LVU115
 389 0050 13F4800F 		tst	r3, #4194304
 390 0054 EAD0     		beq	.L34
 391              	.L33:
 368:Drivers/STM32F7xx_HAL_Driver/Src/stm32f7xx_hal_rcc.c ****       {
 392              		.loc 1 368 7 is_stmt 1 view .LVU116
 368:Drivers/STM32F7xx_HAL_Driver/Src/stm32f7xx_hal_rcc.c ****       {
 393              		.loc 1 368 12 is_stmt 0 view .LVU117
 394 0056 974B     		ldr	r3, .L123
 395 0058 1B68     		ldr	r3, [r3]
 368:Drivers/STM32F7xx_HAL_Driver/Src/stm32f7xx_hal_rcc.c ****       {
 396              		.loc 1 368 10 view .LVU118
 397 005a 13F4003F 		tst	r3, #131072
 398 005e 03D0     		beq	.L32
 368:Drivers/STM32F7xx_HAL_Driver/Src/stm32f7xx_hal_rcc.c ****       {
ARM GAS  D:\Dev\msys64\tmp\cckaQVt1.s 			page 16


 399              		.loc 1 368 79 discriminator 1 view .LVU119
 400 0060 6368     		ldr	r3, [r4, #4]
 368:Drivers/STM32F7xx_HAL_Driver/Src/stm32f7xx_hal_rcc.c ****       {
 401              		.loc 1 368 58 discriminator 1 view .LVU120
 402 0062 002B     		cmp	r3, #0
 403 0064 00F0D081 		beq	.L111
 404              	.LVL27:
 405              	.L32:
 377:Drivers/STM32F7xx_HAL_Driver/Src/stm32f7xx_hal_rcc.c **** 
 378:Drivers/STM32F7xx_HAL_Driver/Src/stm32f7xx_hal_rcc.c ****       /* Check the HSE State */
 379:Drivers/STM32F7xx_HAL_Driver/Src/stm32f7xx_hal_rcc.c ****       if (RCC_OscInitStruct->HSEState != RCC_HSE_OFF)
 380:Drivers/STM32F7xx_HAL_Driver/Src/stm32f7xx_hal_rcc.c ****       {
 381:Drivers/STM32F7xx_HAL_Driver/Src/stm32f7xx_hal_rcc.c ****         /* Get Start Tick*/
 382:Drivers/STM32F7xx_HAL_Driver/Src/stm32f7xx_hal_rcc.c ****         tickstart = HAL_GetTick();
 383:Drivers/STM32F7xx_HAL_Driver/Src/stm32f7xx_hal_rcc.c **** 
 384:Drivers/STM32F7xx_HAL_Driver/Src/stm32f7xx_hal_rcc.c ****         /* Wait till HSE is ready */
 385:Drivers/STM32F7xx_HAL_Driver/Src/stm32f7xx_hal_rcc.c ****         while (__HAL_RCC_GET_FLAG(RCC_FLAG_HSERDY) == RESET)
 386:Drivers/STM32F7xx_HAL_Driver/Src/stm32f7xx_hal_rcc.c ****         {
 387:Drivers/STM32F7xx_HAL_Driver/Src/stm32f7xx_hal_rcc.c ****           if ((HAL_GetTick() - tickstart) > HSE_TIMEOUT_VALUE)
 388:Drivers/STM32F7xx_HAL_Driver/Src/stm32f7xx_hal_rcc.c ****           {
 389:Drivers/STM32F7xx_HAL_Driver/Src/stm32f7xx_hal_rcc.c ****             return HAL_TIMEOUT;
 390:Drivers/STM32F7xx_HAL_Driver/Src/stm32f7xx_hal_rcc.c ****           }
 391:Drivers/STM32F7xx_HAL_Driver/Src/stm32f7xx_hal_rcc.c ****         }
 392:Drivers/STM32F7xx_HAL_Driver/Src/stm32f7xx_hal_rcc.c ****       }
 393:Drivers/STM32F7xx_HAL_Driver/Src/stm32f7xx_hal_rcc.c ****       else
 394:Drivers/STM32F7xx_HAL_Driver/Src/stm32f7xx_hal_rcc.c ****       {
 395:Drivers/STM32F7xx_HAL_Driver/Src/stm32f7xx_hal_rcc.c ****         /* Get Start Tick*/
 396:Drivers/STM32F7xx_HAL_Driver/Src/stm32f7xx_hal_rcc.c ****         tickstart = HAL_GetTick();
 397:Drivers/STM32F7xx_HAL_Driver/Src/stm32f7xx_hal_rcc.c **** 
 398:Drivers/STM32F7xx_HAL_Driver/Src/stm32f7xx_hal_rcc.c ****         /* Wait till HSE is bypassed or disabled */
 399:Drivers/STM32F7xx_HAL_Driver/Src/stm32f7xx_hal_rcc.c ****         while (__HAL_RCC_GET_FLAG(RCC_FLAG_HSERDY) != RESET)
 400:Drivers/STM32F7xx_HAL_Driver/Src/stm32f7xx_hal_rcc.c ****         {
 401:Drivers/STM32F7xx_HAL_Driver/Src/stm32f7xx_hal_rcc.c ****           if ((HAL_GetTick() - tickstart) > HSE_TIMEOUT_VALUE)
 402:Drivers/STM32F7xx_HAL_Driver/Src/stm32f7xx_hal_rcc.c ****           {
 403:Drivers/STM32F7xx_HAL_Driver/Src/stm32f7xx_hal_rcc.c ****             return HAL_TIMEOUT;
 404:Drivers/STM32F7xx_HAL_Driver/Src/stm32f7xx_hal_rcc.c ****           }
 405:Drivers/STM32F7xx_HAL_Driver/Src/stm32f7xx_hal_rcc.c ****         }
 406:Drivers/STM32F7xx_HAL_Driver/Src/stm32f7xx_hal_rcc.c ****       }
 407:Drivers/STM32F7xx_HAL_Driver/Src/stm32f7xx_hal_rcc.c ****     }
 408:Drivers/STM32F7xx_HAL_Driver/Src/stm32f7xx_hal_rcc.c ****   }
 409:Drivers/STM32F7xx_HAL_Driver/Src/stm32f7xx_hal_rcc.c ****   /*----------------------------- HSI Configuration --------------------------*/
 410:Drivers/STM32F7xx_HAL_Driver/Src/stm32f7xx_hal_rcc.c ****   if (((RCC_OscInitStruct->OscillatorType) & RCC_OSCILLATORTYPE_HSI) == RCC_OSCILLATORTYPE_HSI)
 406              		.loc 1 410 3 is_stmt 1 view .LVU121
 407              		.loc 1 410 26 is_stmt 0 view .LVU122
 408 0068 2368     		ldr	r3, [r4]
 409              		.loc 1 410 6 view .LVU123
 410 006a 13F0020F 		tst	r3, #2
 411 006e 74D0     		beq	.L44
 411:Drivers/STM32F7xx_HAL_Driver/Src/stm32f7xx_hal_rcc.c ****   {
 412:Drivers/STM32F7xx_HAL_Driver/Src/stm32f7xx_hal_rcc.c ****     /* Check the parameters */
 413:Drivers/STM32F7xx_HAL_Driver/Src/stm32f7xx_hal_rcc.c ****     assert_param(IS_RCC_HSI(RCC_OscInitStruct->HSIState));
 412              		.loc 1 413 5 is_stmt 1 view .LVU124
 414:Drivers/STM32F7xx_HAL_Driver/Src/stm32f7xx_hal_rcc.c ****     assert_param(IS_RCC_CALIBRATION_VALUE(RCC_OscInitStruct->HSICalibrationValue));
 413              		.loc 1 414 5 view .LVU125
 415:Drivers/STM32F7xx_HAL_Driver/Src/stm32f7xx_hal_rcc.c **** 
 416:Drivers/STM32F7xx_HAL_Driver/Src/stm32f7xx_hal_rcc.c ****     /* Check if HSI is used as system clock or as PLL source when PLL is selected as system clock *
 417:Drivers/STM32F7xx_HAL_Driver/Src/stm32f7xx_hal_rcc.c ****     if ((__HAL_RCC_GET_SYSCLK_SOURCE() == RCC_SYSCLKSOURCE_STATUS_HSI)
ARM GAS  D:\Dev\msys64\tmp\cckaQVt1.s 			page 17


 414              		.loc 1 417 5 view .LVU126
 415              		.loc 1 417 10 is_stmt 0 view .LVU127
 416 0070 904B     		ldr	r3, .L123
 417 0072 9B68     		ldr	r3, [r3, #8]
 418              		.loc 1 417 8 view .LVU128
 419 0074 13F00C0F 		tst	r3, #12
 420 0078 5ED0     		beq	.L45
 418:Drivers/STM32F7xx_HAL_Driver/Src/stm32f7xx_hal_rcc.c ****         || ((__HAL_RCC_GET_SYSCLK_SOURCE() == RCC_SYSCLKSOURCE_STATUS_PLLCLK) && ((RCC->PLLCFGR & R
 421              		.loc 1 418 14 view .LVU129
 422 007a 8E4B     		ldr	r3, .L123
 423 007c 9B68     		ldr	r3, [r3, #8]
 424 007e 03F00C03 		and	r3, r3, #12
 425              		.loc 1 418 9 view .LVU130
 426 0082 082B     		cmp	r3, #8
 427 0084 53D0     		beq	.L112
 428              	.L46:
 419:Drivers/STM32F7xx_HAL_Driver/Src/stm32f7xx_hal_rcc.c ****     {
 420:Drivers/STM32F7xx_HAL_Driver/Src/stm32f7xx_hal_rcc.c ****       /* When HSI is used as system clock it will not disabled */
 421:Drivers/STM32F7xx_HAL_Driver/Src/stm32f7xx_hal_rcc.c ****       if ((__HAL_RCC_GET_FLAG(RCC_FLAG_HSIRDY) != RESET) && (RCC_OscInitStruct->HSIState != RCC_HSI
 422:Drivers/STM32F7xx_HAL_Driver/Src/stm32f7xx_hal_rcc.c ****       {
 423:Drivers/STM32F7xx_HAL_Driver/Src/stm32f7xx_hal_rcc.c ****         return HAL_ERROR;
 424:Drivers/STM32F7xx_HAL_Driver/Src/stm32f7xx_hal_rcc.c ****       }
 425:Drivers/STM32F7xx_HAL_Driver/Src/stm32f7xx_hal_rcc.c ****       /* Otherwise, just the calibration is allowed */
 426:Drivers/STM32F7xx_HAL_Driver/Src/stm32f7xx_hal_rcc.c ****       else
 427:Drivers/STM32F7xx_HAL_Driver/Src/stm32f7xx_hal_rcc.c ****       {
 428:Drivers/STM32F7xx_HAL_Driver/Src/stm32f7xx_hal_rcc.c ****         /* Adjusts the Internal High Speed oscillator (HSI) calibration value.*/
 429:Drivers/STM32F7xx_HAL_Driver/Src/stm32f7xx_hal_rcc.c ****         __HAL_RCC_HSI_CALIBRATIONVALUE_ADJUST(RCC_OscInitStruct->HSICalibrationValue);
 430:Drivers/STM32F7xx_HAL_Driver/Src/stm32f7xx_hal_rcc.c ****       }
 431:Drivers/STM32F7xx_HAL_Driver/Src/stm32f7xx_hal_rcc.c ****     }
 432:Drivers/STM32F7xx_HAL_Driver/Src/stm32f7xx_hal_rcc.c ****     else
 433:Drivers/STM32F7xx_HAL_Driver/Src/stm32f7xx_hal_rcc.c ****     {
 434:Drivers/STM32F7xx_HAL_Driver/Src/stm32f7xx_hal_rcc.c ****       /* Check the HSI State */
 435:Drivers/STM32F7xx_HAL_Driver/Src/stm32f7xx_hal_rcc.c ****       if ((RCC_OscInitStruct->HSIState) != RCC_HSI_OFF)
 429              		.loc 1 435 7 is_stmt 1 view .LVU131
 430              		.loc 1 435 29 is_stmt 0 view .LVU132
 431 0086 E368     		ldr	r3, [r4, #12]
 432              		.loc 1 435 10 view .LVU133
 433 0088 002B     		cmp	r3, #0
 434 008a 00F08980 		beq	.L48
 436:Drivers/STM32F7xx_HAL_Driver/Src/stm32f7xx_hal_rcc.c ****       {
 437:Drivers/STM32F7xx_HAL_Driver/Src/stm32f7xx_hal_rcc.c ****         /* Enable the Internal High Speed oscillator (HSI). */
 438:Drivers/STM32F7xx_HAL_Driver/Src/stm32f7xx_hal_rcc.c ****         __HAL_RCC_HSI_ENABLE();
 435              		.loc 1 438 9 is_stmt 1 view .LVU134
 436 008e 894A     		ldr	r2, .L123
 437 0090 1368     		ldr	r3, [r2]
 438 0092 43F00103 		orr	r3, r3, #1
 439 0096 1360     		str	r3, [r2]
 439:Drivers/STM32F7xx_HAL_Driver/Src/stm32f7xx_hal_rcc.c **** 
 440:Drivers/STM32F7xx_HAL_Driver/Src/stm32f7xx_hal_rcc.c ****         /* Get Start Tick*/
 441:Drivers/STM32F7xx_HAL_Driver/Src/stm32f7xx_hal_rcc.c ****         tickstart = HAL_GetTick();
 440              		.loc 1 441 9 view .LVU135
 441              		.loc 1 441 21 is_stmt 0 view .LVU136
 442 0098 FFF7FEFF 		bl	HAL_GetTick
 443              	.LVL28:
 444 009c 0546     		mov	r5, r0
 445              	.LVL29:
 442:Drivers/STM32F7xx_HAL_Driver/Src/stm32f7xx_hal_rcc.c **** 
ARM GAS  D:\Dev\msys64\tmp\cckaQVt1.s 			page 18


 443:Drivers/STM32F7xx_HAL_Driver/Src/stm32f7xx_hal_rcc.c ****         /* Wait till HSI is ready */
 444:Drivers/STM32F7xx_HAL_Driver/Src/stm32f7xx_hal_rcc.c ****         while (__HAL_RCC_GET_FLAG(RCC_FLAG_HSIRDY) == RESET)
 446              		.loc 1 444 9 is_stmt 1 view .LVU137
 447              	.L49:
 448              		.loc 1 444 15 view .LVU138
 449              		.loc 1 444 16 is_stmt 0 view .LVU139
 450 009e 854B     		ldr	r3, .L123
 451 00a0 1B68     		ldr	r3, [r3]
 452              		.loc 1 444 15 view .LVU140
 453 00a2 13F0020F 		tst	r3, #2
 454 00a6 72D1     		bne	.L113
 445:Drivers/STM32F7xx_HAL_Driver/Src/stm32f7xx_hal_rcc.c ****         {
 446:Drivers/STM32F7xx_HAL_Driver/Src/stm32f7xx_hal_rcc.c ****           if ((HAL_GetTick() - tickstart) > HSI_TIMEOUT_VALUE)
 455              		.loc 1 446 11 is_stmt 1 view .LVU141
 456              		.loc 1 446 16 is_stmt 0 view .LVU142
 457 00a8 FFF7FEFF 		bl	HAL_GetTick
 458              	.LVL30:
 459              		.loc 1 446 30 view .LVU143
 460 00ac 401B     		subs	r0, r0, r5
 461              		.loc 1 446 14 view .LVU144
 462 00ae 0228     		cmp	r0, #2
 463 00b0 F5D9     		bls	.L49
 447:Drivers/STM32F7xx_HAL_Driver/Src/stm32f7xx_hal_rcc.c ****           {
 448:Drivers/STM32F7xx_HAL_Driver/Src/stm32f7xx_hal_rcc.c ****             return HAL_TIMEOUT;
 464              		.loc 1 448 20 view .LVU145
 465 00b2 0320     		movs	r0, #3
 466 00b4 ADE1     		b	.L31
 467              	.LVL31:
 468              	.L110:
 376:Drivers/STM32F7xx_HAL_Driver/Src/stm32f7xx_hal_rcc.c **** 
 469              		.loc 1 376 7 is_stmt 1 discriminator 1 view .LVU146
 470 00b6 7F4A     		ldr	r2, .L123
 471 00b8 1368     		ldr	r3, [r2]
 472 00ba 43F48033 		orr	r3, r3, #65536
 473 00be 1360     		str	r3, [r2]
 474              	.L36:
 376:Drivers/STM32F7xx_HAL_Driver/Src/stm32f7xx_hal_rcc.c **** 
 475              		.loc 1 376 7 discriminator 10 view .LVU147
 379:Drivers/STM32F7xx_HAL_Driver/Src/stm32f7xx_hal_rcc.c ****       {
 476              		.loc 1 379 7 discriminator 10 view .LVU148
 379:Drivers/STM32F7xx_HAL_Driver/Src/stm32f7xx_hal_rcc.c ****       {
 477              		.loc 1 379 28 is_stmt 0 discriminator 10 view .LVU149
 478 00c0 6368     		ldr	r3, [r4, #4]
 379:Drivers/STM32F7xx_HAL_Driver/Src/stm32f7xx_hal_rcc.c ****       {
 479              		.loc 1 379 10 discriminator 10 view .LVU150
 480 00c2 2BB3     		cbz	r3, .L39
 382:Drivers/STM32F7xx_HAL_Driver/Src/stm32f7xx_hal_rcc.c **** 
 481              		.loc 1 382 9 is_stmt 1 view .LVU151
 382:Drivers/STM32F7xx_HAL_Driver/Src/stm32f7xx_hal_rcc.c **** 
 482              		.loc 1 382 21 is_stmt 0 view .LVU152
 483 00c4 FFF7FEFF 		bl	HAL_GetTick
 484              	.LVL32:
 382:Drivers/STM32F7xx_HAL_Driver/Src/stm32f7xx_hal_rcc.c **** 
 485              		.loc 1 382 21 view .LVU153
 486 00c8 0546     		mov	r5, r0
 487              	.LVL33:
 385:Drivers/STM32F7xx_HAL_Driver/Src/stm32f7xx_hal_rcc.c ****         {
ARM GAS  D:\Dev\msys64\tmp\cckaQVt1.s 			page 19


 488              		.loc 1 385 9 is_stmt 1 view .LVU154
 489              	.L40:
 385:Drivers/STM32F7xx_HAL_Driver/Src/stm32f7xx_hal_rcc.c ****         {
 490              		.loc 1 385 15 view .LVU155
 385:Drivers/STM32F7xx_HAL_Driver/Src/stm32f7xx_hal_rcc.c ****         {
 491              		.loc 1 385 16 is_stmt 0 view .LVU156
 492 00ca 7A4B     		ldr	r3, .L123
 493 00cc 1B68     		ldr	r3, [r3]
 385:Drivers/STM32F7xx_HAL_Driver/Src/stm32f7xx_hal_rcc.c ****         {
 494              		.loc 1 385 15 view .LVU157
 495 00ce 13F4003F 		tst	r3, #131072
 496 00d2 C9D1     		bne	.L32
 387:Drivers/STM32F7xx_HAL_Driver/Src/stm32f7xx_hal_rcc.c ****           {
 497              		.loc 1 387 11 is_stmt 1 view .LVU158
 387:Drivers/STM32F7xx_HAL_Driver/Src/stm32f7xx_hal_rcc.c ****           {
 498              		.loc 1 387 16 is_stmt 0 view .LVU159
 499 00d4 FFF7FEFF 		bl	HAL_GetTick
 500              	.LVL34:
 387:Drivers/STM32F7xx_HAL_Driver/Src/stm32f7xx_hal_rcc.c ****           {
 501              		.loc 1 387 30 view .LVU160
 502 00d8 401B     		subs	r0, r0, r5
 387:Drivers/STM32F7xx_HAL_Driver/Src/stm32f7xx_hal_rcc.c ****           {
 503              		.loc 1 387 14 view .LVU161
 504 00da 6428     		cmp	r0, #100
 505 00dc F5D9     		bls	.L40
 389:Drivers/STM32F7xx_HAL_Driver/Src/stm32f7xx_hal_rcc.c ****           }
 506              		.loc 1 389 20 view .LVU162
 507 00de 0320     		movs	r0, #3
 508 00e0 97E1     		b	.L31
 509              	.LVL35:
 510              	.L37:
 376:Drivers/STM32F7xx_HAL_Driver/Src/stm32f7xx_hal_rcc.c **** 
 511              		.loc 1 376 7 is_stmt 1 discriminator 5 view .LVU163
 512 00e2 B3F5A02F 		cmp	r3, #327680
 513 00e6 09D0     		beq	.L114
 376:Drivers/STM32F7xx_HAL_Driver/Src/stm32f7xx_hal_rcc.c **** 
 514              		.loc 1 376 7 discriminator 8 view .LVU164
 515 00e8 724B     		ldr	r3, .L123
 516 00ea 1A68     		ldr	r2, [r3]
 517 00ec 22F48032 		bic	r2, r2, #65536
 518 00f0 1A60     		str	r2, [r3]
 376:Drivers/STM32F7xx_HAL_Driver/Src/stm32f7xx_hal_rcc.c **** 
 519              		.loc 1 376 7 discriminator 8 view .LVU165
 520 00f2 1A68     		ldr	r2, [r3]
 521 00f4 22F48022 		bic	r2, r2, #262144
 522 00f8 1A60     		str	r2, [r3]
 523 00fa E1E7     		b	.L36
 524              	.L114:
 376:Drivers/STM32F7xx_HAL_Driver/Src/stm32f7xx_hal_rcc.c **** 
 525              		.loc 1 376 7 discriminator 7 view .LVU166
 526 00fc 6D4B     		ldr	r3, .L123
 527 00fe 1A68     		ldr	r2, [r3]
 528 0100 42F48022 		orr	r2, r2, #262144
 529 0104 1A60     		str	r2, [r3]
 376:Drivers/STM32F7xx_HAL_Driver/Src/stm32f7xx_hal_rcc.c **** 
 530              		.loc 1 376 7 discriminator 7 view .LVU167
 531 0106 1A68     		ldr	r2, [r3]
ARM GAS  D:\Dev\msys64\tmp\cckaQVt1.s 			page 20


 532 0108 42F48032 		orr	r2, r2, #65536
 533 010c 1A60     		str	r2, [r3]
 534 010e D7E7     		b	.L36
 535              	.L39:
 396:Drivers/STM32F7xx_HAL_Driver/Src/stm32f7xx_hal_rcc.c **** 
 536              		.loc 1 396 9 view .LVU168
 396:Drivers/STM32F7xx_HAL_Driver/Src/stm32f7xx_hal_rcc.c **** 
 537              		.loc 1 396 21 is_stmt 0 view .LVU169
 538 0110 FFF7FEFF 		bl	HAL_GetTick
 539              	.LVL36:
 396:Drivers/STM32F7xx_HAL_Driver/Src/stm32f7xx_hal_rcc.c **** 
 540              		.loc 1 396 21 view .LVU170
 541 0114 0546     		mov	r5, r0
 542              	.LVL37:
 399:Drivers/STM32F7xx_HAL_Driver/Src/stm32f7xx_hal_rcc.c ****         {
 543              		.loc 1 399 9 is_stmt 1 view .LVU171
 544              	.L42:
 399:Drivers/STM32F7xx_HAL_Driver/Src/stm32f7xx_hal_rcc.c ****         {
 545              		.loc 1 399 15 view .LVU172
 399:Drivers/STM32F7xx_HAL_Driver/Src/stm32f7xx_hal_rcc.c ****         {
 546              		.loc 1 399 16 is_stmt 0 view .LVU173
 547 0116 674B     		ldr	r3, .L123
 548 0118 1B68     		ldr	r3, [r3]
 399:Drivers/STM32F7xx_HAL_Driver/Src/stm32f7xx_hal_rcc.c ****         {
 549              		.loc 1 399 15 view .LVU174
 550 011a 13F4003F 		tst	r3, #131072
 551 011e A3D0     		beq	.L32
 401:Drivers/STM32F7xx_HAL_Driver/Src/stm32f7xx_hal_rcc.c ****           {
 552              		.loc 1 401 11 is_stmt 1 view .LVU175
 401:Drivers/STM32F7xx_HAL_Driver/Src/stm32f7xx_hal_rcc.c ****           {
 553              		.loc 1 401 16 is_stmt 0 view .LVU176
 554 0120 FFF7FEFF 		bl	HAL_GetTick
 555              	.LVL38:
 401:Drivers/STM32F7xx_HAL_Driver/Src/stm32f7xx_hal_rcc.c ****           {
 556              		.loc 1 401 30 view .LVU177
 557 0124 401B     		subs	r0, r0, r5
 401:Drivers/STM32F7xx_HAL_Driver/Src/stm32f7xx_hal_rcc.c ****           {
 558              		.loc 1 401 14 view .LVU178
 559 0126 6428     		cmp	r0, #100
 560 0128 F5D9     		bls	.L42
 403:Drivers/STM32F7xx_HAL_Driver/Src/stm32f7xx_hal_rcc.c ****           }
 561              		.loc 1 403 20 view .LVU179
 562 012a 0320     		movs	r0, #3
 563 012c 71E1     		b	.L31
 564              	.LVL39:
 565              	.L112:
 418:Drivers/STM32F7xx_HAL_Driver/Src/stm32f7xx_hal_rcc.c ****     {
 566              		.loc 1 418 87 discriminator 1 view .LVU180
 567 012e 614B     		ldr	r3, .L123
 568 0130 5B68     		ldr	r3, [r3, #4]
 418:Drivers/STM32F7xx_HAL_Driver/Src/stm32f7xx_hal_rcc.c ****     {
 569              		.loc 1 418 79 discriminator 1 view .LVU181
 570 0132 13F4800F 		tst	r3, #4194304
 571 0136 A6D1     		bne	.L46
 572              	.L45:
 421:Drivers/STM32F7xx_HAL_Driver/Src/stm32f7xx_hal_rcc.c ****       {
 573              		.loc 1 421 7 is_stmt 1 view .LVU182
ARM GAS  D:\Dev\msys64\tmp\cckaQVt1.s 			page 21


 421:Drivers/STM32F7xx_HAL_Driver/Src/stm32f7xx_hal_rcc.c ****       {
 574              		.loc 1 421 12 is_stmt 0 view .LVU183
 575 0138 5E4B     		ldr	r3, .L123
 576 013a 1B68     		ldr	r3, [r3]
 421:Drivers/STM32F7xx_HAL_Driver/Src/stm32f7xx_hal_rcc.c ****       {
 577              		.loc 1 421 10 view .LVU184
 578 013c 13F0020F 		tst	r3, #2
 579 0140 03D0     		beq	.L47
 421:Drivers/STM32F7xx_HAL_Driver/Src/stm32f7xx_hal_rcc.c ****       {
 580              		.loc 1 421 79 discriminator 1 view .LVU185
 581 0142 E368     		ldr	r3, [r4, #12]
 421:Drivers/STM32F7xx_HAL_Driver/Src/stm32f7xx_hal_rcc.c ****       {
 582              		.loc 1 421 58 discriminator 1 view .LVU186
 583 0144 012B     		cmp	r3, #1
 584 0146 40F06181 		bne	.L86
 585              	.L47:
 429:Drivers/STM32F7xx_HAL_Driver/Src/stm32f7xx_hal_rcc.c ****       }
 586              		.loc 1 429 9 is_stmt 1 view .LVU187
 587 014a 5A4A     		ldr	r2, .L123
 588 014c 1368     		ldr	r3, [r2]
 589 014e 23F0F803 		bic	r3, r3, #248
 590 0152 2169     		ldr	r1, [r4, #16]
 591 0154 43EAC103 		orr	r3, r3, r1, lsl #3
 592 0158 1360     		str	r3, [r2]
 593              	.L44:
 449:Drivers/STM32F7xx_HAL_Driver/Src/stm32f7xx_hal_rcc.c ****           }
 450:Drivers/STM32F7xx_HAL_Driver/Src/stm32f7xx_hal_rcc.c ****         }
 451:Drivers/STM32F7xx_HAL_Driver/Src/stm32f7xx_hal_rcc.c **** 
 452:Drivers/STM32F7xx_HAL_Driver/Src/stm32f7xx_hal_rcc.c ****         /* Adjusts the Internal High Speed oscillator (HSI) calibration value.*/
 453:Drivers/STM32F7xx_HAL_Driver/Src/stm32f7xx_hal_rcc.c ****         __HAL_RCC_HSI_CALIBRATIONVALUE_ADJUST(RCC_OscInitStruct->HSICalibrationValue);
 454:Drivers/STM32F7xx_HAL_Driver/Src/stm32f7xx_hal_rcc.c ****       }
 455:Drivers/STM32F7xx_HAL_Driver/Src/stm32f7xx_hal_rcc.c ****       else
 456:Drivers/STM32F7xx_HAL_Driver/Src/stm32f7xx_hal_rcc.c ****       {
 457:Drivers/STM32F7xx_HAL_Driver/Src/stm32f7xx_hal_rcc.c ****         /* Disable the Internal High Speed oscillator (HSI). */
 458:Drivers/STM32F7xx_HAL_Driver/Src/stm32f7xx_hal_rcc.c ****         __HAL_RCC_HSI_DISABLE();
 459:Drivers/STM32F7xx_HAL_Driver/Src/stm32f7xx_hal_rcc.c **** 
 460:Drivers/STM32F7xx_HAL_Driver/Src/stm32f7xx_hal_rcc.c ****         /* Get Start Tick*/
 461:Drivers/STM32F7xx_HAL_Driver/Src/stm32f7xx_hal_rcc.c ****         tickstart = HAL_GetTick();
 462:Drivers/STM32F7xx_HAL_Driver/Src/stm32f7xx_hal_rcc.c **** 
 463:Drivers/STM32F7xx_HAL_Driver/Src/stm32f7xx_hal_rcc.c ****         /* Wait till HSI is ready */
 464:Drivers/STM32F7xx_HAL_Driver/Src/stm32f7xx_hal_rcc.c ****         while (__HAL_RCC_GET_FLAG(RCC_FLAG_HSIRDY) != RESET)
 465:Drivers/STM32F7xx_HAL_Driver/Src/stm32f7xx_hal_rcc.c ****         {
 466:Drivers/STM32F7xx_HAL_Driver/Src/stm32f7xx_hal_rcc.c ****           if ((HAL_GetTick() - tickstart) > HSI_TIMEOUT_VALUE)
 467:Drivers/STM32F7xx_HAL_Driver/Src/stm32f7xx_hal_rcc.c ****           {
 468:Drivers/STM32F7xx_HAL_Driver/Src/stm32f7xx_hal_rcc.c ****             return HAL_TIMEOUT;
 469:Drivers/STM32F7xx_HAL_Driver/Src/stm32f7xx_hal_rcc.c ****           }
 470:Drivers/STM32F7xx_HAL_Driver/Src/stm32f7xx_hal_rcc.c ****         }
 471:Drivers/STM32F7xx_HAL_Driver/Src/stm32f7xx_hal_rcc.c ****       }
 472:Drivers/STM32F7xx_HAL_Driver/Src/stm32f7xx_hal_rcc.c ****     }
 473:Drivers/STM32F7xx_HAL_Driver/Src/stm32f7xx_hal_rcc.c ****   }
 474:Drivers/STM32F7xx_HAL_Driver/Src/stm32f7xx_hal_rcc.c ****   /*------------------------------ LSI Configuration -------------------------*/
 475:Drivers/STM32F7xx_HAL_Driver/Src/stm32f7xx_hal_rcc.c ****   if (((RCC_OscInitStruct->OscillatorType) & RCC_OSCILLATORTYPE_LSI) == RCC_OSCILLATORTYPE_LSI)
 594              		.loc 1 475 3 view .LVU188
 595              		.loc 1 475 26 is_stmt 0 view .LVU189
 596 015a 2368     		ldr	r3, [r4]
 597              		.loc 1 475 6 view .LVU190
 598 015c 13F0080F 		tst	r3, #8
ARM GAS  D:\Dev\msys64\tmp\cckaQVt1.s 			page 22


 599 0160 46D0     		beq	.L53
 476:Drivers/STM32F7xx_HAL_Driver/Src/stm32f7xx_hal_rcc.c ****   {
 477:Drivers/STM32F7xx_HAL_Driver/Src/stm32f7xx_hal_rcc.c ****     /* Check the parameters */
 478:Drivers/STM32F7xx_HAL_Driver/Src/stm32f7xx_hal_rcc.c ****     assert_param(IS_RCC_LSI(RCC_OscInitStruct->LSIState));
 600              		.loc 1 478 5 is_stmt 1 view .LVU191
 479:Drivers/STM32F7xx_HAL_Driver/Src/stm32f7xx_hal_rcc.c **** 
 480:Drivers/STM32F7xx_HAL_Driver/Src/stm32f7xx_hal_rcc.c ****     /* Check the LSI State */
 481:Drivers/STM32F7xx_HAL_Driver/Src/stm32f7xx_hal_rcc.c ****     if ((RCC_OscInitStruct->LSIState) != RCC_LSI_OFF)
 601              		.loc 1 481 5 view .LVU192
 602              		.loc 1 481 27 is_stmt 0 view .LVU193
 603 0162 6369     		ldr	r3, [r4, #20]
 604              		.loc 1 481 8 view .LVU194
 605 0164 83B3     		cbz	r3, .L54
 482:Drivers/STM32F7xx_HAL_Driver/Src/stm32f7xx_hal_rcc.c ****     {
 483:Drivers/STM32F7xx_HAL_Driver/Src/stm32f7xx_hal_rcc.c ****       /* Enable the Internal Low Speed oscillator (LSI). */
 484:Drivers/STM32F7xx_HAL_Driver/Src/stm32f7xx_hal_rcc.c ****       __HAL_RCC_LSI_ENABLE();
 606              		.loc 1 484 7 is_stmt 1 view .LVU195
 607 0166 534A     		ldr	r2, .L123
 608 0168 536F     		ldr	r3, [r2, #116]
 609 016a 43F00103 		orr	r3, r3, #1
 610 016e 5367     		str	r3, [r2, #116]
 485:Drivers/STM32F7xx_HAL_Driver/Src/stm32f7xx_hal_rcc.c **** 
 486:Drivers/STM32F7xx_HAL_Driver/Src/stm32f7xx_hal_rcc.c ****       /* Get Start Tick*/
 487:Drivers/STM32F7xx_HAL_Driver/Src/stm32f7xx_hal_rcc.c ****       tickstart = HAL_GetTick();
 611              		.loc 1 487 7 view .LVU196
 612              		.loc 1 487 19 is_stmt 0 view .LVU197
 613 0170 FFF7FEFF 		bl	HAL_GetTick
 614              	.LVL40:
 615 0174 0546     		mov	r5, r0
 616              	.LVL41:
 488:Drivers/STM32F7xx_HAL_Driver/Src/stm32f7xx_hal_rcc.c **** 
 489:Drivers/STM32F7xx_HAL_Driver/Src/stm32f7xx_hal_rcc.c ****       /* Wait till LSI is ready */
 490:Drivers/STM32F7xx_HAL_Driver/Src/stm32f7xx_hal_rcc.c ****       while (__HAL_RCC_GET_FLAG(RCC_FLAG_LSIRDY) == RESET)
 617              		.loc 1 490 7 is_stmt 1 view .LVU198
 618              	.L55:
 619              		.loc 1 490 13 view .LVU199
 620              		.loc 1 490 14 is_stmt 0 view .LVU200
 621 0176 4F4B     		ldr	r3, .L123
 622 0178 5B6F     		ldr	r3, [r3, #116]
 623              		.loc 1 490 13 view .LVU201
 624 017a 13F0020F 		tst	r3, #2
 625 017e 37D1     		bne	.L53
 491:Drivers/STM32F7xx_HAL_Driver/Src/stm32f7xx_hal_rcc.c ****       {
 492:Drivers/STM32F7xx_HAL_Driver/Src/stm32f7xx_hal_rcc.c ****         if ((HAL_GetTick() - tickstart) > LSI_TIMEOUT_VALUE)
 626              		.loc 1 492 9 is_stmt 1 view .LVU202
 627              		.loc 1 492 14 is_stmt 0 view .LVU203
 628 0180 FFF7FEFF 		bl	HAL_GetTick
 629              	.LVL42:
 630              		.loc 1 492 28 view .LVU204
 631 0184 401B     		subs	r0, r0, r5
 632              		.loc 1 492 12 view .LVU205
 633 0186 0228     		cmp	r0, #2
 634 0188 F5D9     		bls	.L55
 493:Drivers/STM32F7xx_HAL_Driver/Src/stm32f7xx_hal_rcc.c ****         {
 494:Drivers/STM32F7xx_HAL_Driver/Src/stm32f7xx_hal_rcc.c ****           return HAL_TIMEOUT;
 635              		.loc 1 494 18 view .LVU206
 636 018a 0320     		movs	r0, #3
ARM GAS  D:\Dev\msys64\tmp\cckaQVt1.s 			page 23


 637 018c 41E1     		b	.L31
 638              	.L113:
 453:Drivers/STM32F7xx_HAL_Driver/Src/stm32f7xx_hal_rcc.c ****       }
 639              		.loc 1 453 9 is_stmt 1 view .LVU207
 640 018e 494A     		ldr	r2, .L123
 641 0190 1368     		ldr	r3, [r2]
 642 0192 23F0F803 		bic	r3, r3, #248
 643 0196 2169     		ldr	r1, [r4, #16]
 644 0198 43EAC103 		orr	r3, r3, r1, lsl #3
 645 019c 1360     		str	r3, [r2]
 646 019e DCE7     		b	.L44
 647              	.LVL43:
 648              	.L48:
 458:Drivers/STM32F7xx_HAL_Driver/Src/stm32f7xx_hal_rcc.c **** 
 649              		.loc 1 458 9 view .LVU208
 650 01a0 444A     		ldr	r2, .L123
 651 01a2 1368     		ldr	r3, [r2]
 652 01a4 23F00103 		bic	r3, r3, #1
 653 01a8 1360     		str	r3, [r2]
 461:Drivers/STM32F7xx_HAL_Driver/Src/stm32f7xx_hal_rcc.c **** 
 654              		.loc 1 461 9 view .LVU209
 461:Drivers/STM32F7xx_HAL_Driver/Src/stm32f7xx_hal_rcc.c **** 
 655              		.loc 1 461 21 is_stmt 0 view .LVU210
 656 01aa FFF7FEFF 		bl	HAL_GetTick
 657              	.LVL44:
 658 01ae 0546     		mov	r5, r0
 659              	.LVL45:
 464:Drivers/STM32F7xx_HAL_Driver/Src/stm32f7xx_hal_rcc.c ****         {
 660              		.loc 1 464 9 is_stmt 1 view .LVU211
 661              	.L51:
 464:Drivers/STM32F7xx_HAL_Driver/Src/stm32f7xx_hal_rcc.c ****         {
 662              		.loc 1 464 15 view .LVU212
 464:Drivers/STM32F7xx_HAL_Driver/Src/stm32f7xx_hal_rcc.c ****         {
 663              		.loc 1 464 16 is_stmt 0 view .LVU213
 664 01b0 404B     		ldr	r3, .L123
 665 01b2 1B68     		ldr	r3, [r3]
 464:Drivers/STM32F7xx_HAL_Driver/Src/stm32f7xx_hal_rcc.c ****         {
 666              		.loc 1 464 15 view .LVU214
 667 01b4 13F0020F 		tst	r3, #2
 668 01b8 CFD0     		beq	.L44
 466:Drivers/STM32F7xx_HAL_Driver/Src/stm32f7xx_hal_rcc.c ****           {
 669              		.loc 1 466 11 is_stmt 1 view .LVU215
 466:Drivers/STM32F7xx_HAL_Driver/Src/stm32f7xx_hal_rcc.c ****           {
 670              		.loc 1 466 16 is_stmt 0 view .LVU216
 671 01ba FFF7FEFF 		bl	HAL_GetTick
 672              	.LVL46:
 466:Drivers/STM32F7xx_HAL_Driver/Src/stm32f7xx_hal_rcc.c ****           {
 673              		.loc 1 466 30 view .LVU217
 674 01be 401B     		subs	r0, r0, r5
 466:Drivers/STM32F7xx_HAL_Driver/Src/stm32f7xx_hal_rcc.c ****           {
 675              		.loc 1 466 14 view .LVU218
 676 01c0 0228     		cmp	r0, #2
 677 01c2 F5D9     		bls	.L51
 468:Drivers/STM32F7xx_HAL_Driver/Src/stm32f7xx_hal_rcc.c ****           }
 678              		.loc 1 468 20 view .LVU219
 679 01c4 0320     		movs	r0, #3
 680 01c6 24E1     		b	.L31
ARM GAS  D:\Dev\msys64\tmp\cckaQVt1.s 			page 24


 681              	.LVL47:
 682              	.L54:
 495:Drivers/STM32F7xx_HAL_Driver/Src/stm32f7xx_hal_rcc.c ****         }
 496:Drivers/STM32F7xx_HAL_Driver/Src/stm32f7xx_hal_rcc.c ****       }
 497:Drivers/STM32F7xx_HAL_Driver/Src/stm32f7xx_hal_rcc.c ****     }
 498:Drivers/STM32F7xx_HAL_Driver/Src/stm32f7xx_hal_rcc.c ****     else
 499:Drivers/STM32F7xx_HAL_Driver/Src/stm32f7xx_hal_rcc.c ****     {
 500:Drivers/STM32F7xx_HAL_Driver/Src/stm32f7xx_hal_rcc.c ****       /* Disable the Internal Low Speed oscillator (LSI). */
 501:Drivers/STM32F7xx_HAL_Driver/Src/stm32f7xx_hal_rcc.c ****       __HAL_RCC_LSI_DISABLE();
 683              		.loc 1 501 7 is_stmt 1 view .LVU220
 684 01c8 3A4A     		ldr	r2, .L123
 685 01ca 536F     		ldr	r3, [r2, #116]
 686 01cc 23F00103 		bic	r3, r3, #1
 687 01d0 5367     		str	r3, [r2, #116]
 502:Drivers/STM32F7xx_HAL_Driver/Src/stm32f7xx_hal_rcc.c **** 
 503:Drivers/STM32F7xx_HAL_Driver/Src/stm32f7xx_hal_rcc.c ****       /* Get Start Tick*/
 504:Drivers/STM32F7xx_HAL_Driver/Src/stm32f7xx_hal_rcc.c ****       tickstart = HAL_GetTick();
 688              		.loc 1 504 7 view .LVU221
 689              		.loc 1 504 19 is_stmt 0 view .LVU222
 690 01d2 FFF7FEFF 		bl	HAL_GetTick
 691              	.LVL48:
 692 01d6 0546     		mov	r5, r0
 693              	.LVL49:
 505:Drivers/STM32F7xx_HAL_Driver/Src/stm32f7xx_hal_rcc.c **** 
 506:Drivers/STM32F7xx_HAL_Driver/Src/stm32f7xx_hal_rcc.c ****       /* Wait till LSI is ready */
 507:Drivers/STM32F7xx_HAL_Driver/Src/stm32f7xx_hal_rcc.c ****       while (__HAL_RCC_GET_FLAG(RCC_FLAG_LSIRDY) != RESET)
 694              		.loc 1 507 7 is_stmt 1 view .LVU223
 695              	.L57:
 696              		.loc 1 507 13 view .LVU224
 697              		.loc 1 507 14 is_stmt 0 view .LVU225
 698 01d8 364B     		ldr	r3, .L123
 699 01da 5B6F     		ldr	r3, [r3, #116]
 700              		.loc 1 507 13 view .LVU226
 701 01dc 13F0020F 		tst	r3, #2
 702 01e0 06D0     		beq	.L53
 508:Drivers/STM32F7xx_HAL_Driver/Src/stm32f7xx_hal_rcc.c ****       {
 509:Drivers/STM32F7xx_HAL_Driver/Src/stm32f7xx_hal_rcc.c ****         if ((HAL_GetTick() - tickstart) > LSI_TIMEOUT_VALUE)
 703              		.loc 1 509 9 is_stmt 1 view .LVU227
 704              		.loc 1 509 14 is_stmt 0 view .LVU228
 705 01e2 FFF7FEFF 		bl	HAL_GetTick
 706              	.LVL50:
 707              		.loc 1 509 28 view .LVU229
 708 01e6 401B     		subs	r0, r0, r5
 709              		.loc 1 509 12 view .LVU230
 710 01e8 0228     		cmp	r0, #2
 711 01ea F5D9     		bls	.L57
 510:Drivers/STM32F7xx_HAL_Driver/Src/stm32f7xx_hal_rcc.c ****         {
 511:Drivers/STM32F7xx_HAL_Driver/Src/stm32f7xx_hal_rcc.c ****           return HAL_TIMEOUT;
 712              		.loc 1 511 18 view .LVU231
 713 01ec 0320     		movs	r0, #3
 714 01ee 10E1     		b	.L31
 715              	.LVL51:
 716              	.L53:
 512:Drivers/STM32F7xx_HAL_Driver/Src/stm32f7xx_hal_rcc.c ****         }
 513:Drivers/STM32F7xx_HAL_Driver/Src/stm32f7xx_hal_rcc.c ****       }
 514:Drivers/STM32F7xx_HAL_Driver/Src/stm32f7xx_hal_rcc.c ****     }
 515:Drivers/STM32F7xx_HAL_Driver/Src/stm32f7xx_hal_rcc.c ****   }
ARM GAS  D:\Dev\msys64\tmp\cckaQVt1.s 			page 25


 516:Drivers/STM32F7xx_HAL_Driver/Src/stm32f7xx_hal_rcc.c ****   /*------------------------------ LSE Configuration -------------------------*/
 517:Drivers/STM32F7xx_HAL_Driver/Src/stm32f7xx_hal_rcc.c ****   if (((RCC_OscInitStruct->OscillatorType) & RCC_OSCILLATORTYPE_LSE) == RCC_OSCILLATORTYPE_LSE)
 717              		.loc 1 517 3 is_stmt 1 view .LVU232
 718              		.loc 1 517 26 is_stmt 0 view .LVU233
 719 01f0 2368     		ldr	r3, [r4]
 720              		.loc 1 517 6 view .LVU234
 721 01f2 13F0040F 		tst	r3, #4
 722 01f6 7DD0     		beq	.L59
 518:Drivers/STM32F7xx_HAL_Driver/Src/stm32f7xx_hal_rcc.c ****   {
 519:Drivers/STM32F7xx_HAL_Driver/Src/stm32f7xx_hal_rcc.c ****     /* Check the parameters */
 520:Drivers/STM32F7xx_HAL_Driver/Src/stm32f7xx_hal_rcc.c ****     assert_param(IS_RCC_LSE(RCC_OscInitStruct->LSEState));
 723              		.loc 1 520 5 is_stmt 1 view .LVU235
 521:Drivers/STM32F7xx_HAL_Driver/Src/stm32f7xx_hal_rcc.c **** 
 522:Drivers/STM32F7xx_HAL_Driver/Src/stm32f7xx_hal_rcc.c ****     /* Update LSE configuration in Backup Domain control register    */
 523:Drivers/STM32F7xx_HAL_Driver/Src/stm32f7xx_hal_rcc.c ****     /* Requires to enable write access to Backup Domain of necessary */
 524:Drivers/STM32F7xx_HAL_Driver/Src/stm32f7xx_hal_rcc.c ****     if (__HAL_RCC_PWR_IS_CLK_DISABLED())
 724              		.loc 1 524 5 view .LVU236
 725              		.loc 1 524 9 is_stmt 0 view .LVU237
 726 01f8 2E4B     		ldr	r3, .L123
 727 01fa 1B6C     		ldr	r3, [r3, #64]
 728              		.loc 1 524 8 view .LVU238
 729 01fc 13F0805F 		tst	r3, #268435456
 730 0200 0BD1     		bne	.L91
 525:Drivers/STM32F7xx_HAL_Driver/Src/stm32f7xx_hal_rcc.c ****     {
 526:Drivers/STM32F7xx_HAL_Driver/Src/stm32f7xx_hal_rcc.c ****       /* Enable Power Clock*/
 527:Drivers/STM32F7xx_HAL_Driver/Src/stm32f7xx_hal_rcc.c ****       __HAL_RCC_PWR_CLK_ENABLE();
 731              		.loc 1 527 7 is_stmt 1 view .LVU239
 732              	.LBB2:
 733              		.loc 1 527 7 view .LVU240
 734              		.loc 1 527 7 view .LVU241
 735 0202 2C4B     		ldr	r3, .L123
 736 0204 1A6C     		ldr	r2, [r3, #64]
 737 0206 42F08052 		orr	r2, r2, #268435456
 738 020a 1A64     		str	r2, [r3, #64]
 739              		.loc 1 527 7 view .LVU242
 740 020c 1B6C     		ldr	r3, [r3, #64]
 741 020e 03F08053 		and	r3, r3, #268435456
 742 0212 0193     		str	r3, [sp, #4]
 743              		.loc 1 527 7 view .LVU243
 744 0214 019B     		ldr	r3, [sp, #4]
 745              	.LBE2:
 746              		.loc 1 527 7 view .LVU244
 528:Drivers/STM32F7xx_HAL_Driver/Src/stm32f7xx_hal_rcc.c ****       pwrclkchanged = SET;
 747              		.loc 1 528 7 view .LVU245
 748              	.LVL52:
 749              		.loc 1 528 21 is_stmt 0 view .LVU246
 750 0216 0125     		movs	r5, #1
 751 0218 00E0     		b	.L60
 752              	.LVL53:
 753              	.L91:
 348:Drivers/STM32F7xx_HAL_Driver/Src/stm32f7xx_hal_rcc.c **** 
 754              		.loc 1 348 14 view .LVU247
 755 021a 0025     		movs	r5, #0
 756              	.LVL54:
 757              	.L60:
 529:Drivers/STM32F7xx_HAL_Driver/Src/stm32f7xx_hal_rcc.c ****     }
 530:Drivers/STM32F7xx_HAL_Driver/Src/stm32f7xx_hal_rcc.c **** 
ARM GAS  D:\Dev\msys64\tmp\cckaQVt1.s 			page 26


 531:Drivers/STM32F7xx_HAL_Driver/Src/stm32f7xx_hal_rcc.c ****     if (HAL_IS_BIT_CLR(PWR->CR1, PWR_CR1_DBP))
 758              		.loc 1 531 5 is_stmt 1 view .LVU248
 759              		.loc 1 531 9 is_stmt 0 view .LVU249
 760 021c 264B     		ldr	r3, .L123+4
 761 021e 1B68     		ldr	r3, [r3]
 762              		.loc 1 531 8 view .LVU250
 763 0220 13F4807F 		tst	r3, #256
 764 0224 0ED0     		beq	.L115
 765              	.L61:
 532:Drivers/STM32F7xx_HAL_Driver/Src/stm32f7xx_hal_rcc.c ****     {
 533:Drivers/STM32F7xx_HAL_Driver/Src/stm32f7xx_hal_rcc.c ****       /* Enable write access to Backup domain */
 534:Drivers/STM32F7xx_HAL_Driver/Src/stm32f7xx_hal_rcc.c ****       PWR->CR1 |= PWR_CR1_DBP;
 535:Drivers/STM32F7xx_HAL_Driver/Src/stm32f7xx_hal_rcc.c **** 
 536:Drivers/STM32F7xx_HAL_Driver/Src/stm32f7xx_hal_rcc.c ****       /* Wait for Backup domain Write protection disable */
 537:Drivers/STM32F7xx_HAL_Driver/Src/stm32f7xx_hal_rcc.c ****       tickstart = HAL_GetTick();
 538:Drivers/STM32F7xx_HAL_Driver/Src/stm32f7xx_hal_rcc.c **** 
 539:Drivers/STM32F7xx_HAL_Driver/Src/stm32f7xx_hal_rcc.c ****       while (HAL_IS_BIT_CLR(PWR->CR1, PWR_CR1_DBP))
 540:Drivers/STM32F7xx_HAL_Driver/Src/stm32f7xx_hal_rcc.c ****       {
 541:Drivers/STM32F7xx_HAL_Driver/Src/stm32f7xx_hal_rcc.c ****         if ((HAL_GetTick() - tickstart) > RCC_DBP_TIMEOUT_VALUE)
 542:Drivers/STM32F7xx_HAL_Driver/Src/stm32f7xx_hal_rcc.c ****         {
 543:Drivers/STM32F7xx_HAL_Driver/Src/stm32f7xx_hal_rcc.c ****           return HAL_TIMEOUT;
 544:Drivers/STM32F7xx_HAL_Driver/Src/stm32f7xx_hal_rcc.c ****         }
 545:Drivers/STM32F7xx_HAL_Driver/Src/stm32f7xx_hal_rcc.c ****       }
 546:Drivers/STM32F7xx_HAL_Driver/Src/stm32f7xx_hal_rcc.c ****     }
 547:Drivers/STM32F7xx_HAL_Driver/Src/stm32f7xx_hal_rcc.c **** 
 548:Drivers/STM32F7xx_HAL_Driver/Src/stm32f7xx_hal_rcc.c ****     /* Set the new LSE configuration -----------------------------------------*/
 549:Drivers/STM32F7xx_HAL_Driver/Src/stm32f7xx_hal_rcc.c ****     __HAL_RCC_LSE_CONFIG(RCC_OscInitStruct->LSEState);
 766              		.loc 1 549 5 is_stmt 1 view .LVU251
 767              		.loc 1 549 5 view .LVU252
 768 0226 A368     		ldr	r3, [r4, #8]
 769 0228 012B     		cmp	r3, #1
 770 022a 1FD0     		beq	.L116
 771              		.loc 1 549 5 discriminator 2 view .LVU253
 772 022c 002B     		cmp	r3, #0
 773 022e 35D1     		bne	.L66
 774              		.loc 1 549 5 discriminator 4 view .LVU254
 775 0230 204B     		ldr	r3, .L123
 776 0232 1A6F     		ldr	r2, [r3, #112]
 777 0234 22F00102 		bic	r2, r2, #1
 778 0238 1A67     		str	r2, [r3, #112]
 779              		.loc 1 549 5 discriminator 4 view .LVU255
 780 023a 1A6F     		ldr	r2, [r3, #112]
 781 023c 22F00402 		bic	r2, r2, #4
 782 0240 1A67     		str	r2, [r3, #112]
 783 0242 18E0     		b	.L65
 784              	.L115:
 534:Drivers/STM32F7xx_HAL_Driver/Src/stm32f7xx_hal_rcc.c **** 
 785              		.loc 1 534 7 view .LVU256
 534:Drivers/STM32F7xx_HAL_Driver/Src/stm32f7xx_hal_rcc.c **** 
 786              		.loc 1 534 16 is_stmt 0 view .LVU257
 787 0244 1C4A     		ldr	r2, .L123+4
 788 0246 1368     		ldr	r3, [r2]
 789 0248 43F48073 		orr	r3, r3, #256
 790 024c 1360     		str	r3, [r2]
 537:Drivers/STM32F7xx_HAL_Driver/Src/stm32f7xx_hal_rcc.c **** 
 791              		.loc 1 537 7 is_stmt 1 view .LVU258
 537:Drivers/STM32F7xx_HAL_Driver/Src/stm32f7xx_hal_rcc.c **** 
ARM GAS  D:\Dev\msys64\tmp\cckaQVt1.s 			page 27


 792              		.loc 1 537 19 is_stmt 0 view .LVU259
 793 024e FFF7FEFF 		bl	HAL_GetTick
 794              	.LVL55:
 795 0252 0646     		mov	r6, r0
 796              	.LVL56:
 539:Drivers/STM32F7xx_HAL_Driver/Src/stm32f7xx_hal_rcc.c ****       {
 797              		.loc 1 539 7 is_stmt 1 view .LVU260
 798              	.L62:
 539:Drivers/STM32F7xx_HAL_Driver/Src/stm32f7xx_hal_rcc.c ****       {
 799              		.loc 1 539 13 view .LVU261
 539:Drivers/STM32F7xx_HAL_Driver/Src/stm32f7xx_hal_rcc.c ****       {
 800              		.loc 1 539 14 is_stmt 0 view .LVU262
 801 0254 184B     		ldr	r3, .L123+4
 802 0256 1B68     		ldr	r3, [r3]
 539:Drivers/STM32F7xx_HAL_Driver/Src/stm32f7xx_hal_rcc.c ****       {
 803              		.loc 1 539 13 view .LVU263
 804 0258 13F4807F 		tst	r3, #256
 805 025c E3D1     		bne	.L61
 541:Drivers/STM32F7xx_HAL_Driver/Src/stm32f7xx_hal_rcc.c ****         {
 806              		.loc 1 541 9 is_stmt 1 view .LVU264
 541:Drivers/STM32F7xx_HAL_Driver/Src/stm32f7xx_hal_rcc.c ****         {
 807              		.loc 1 541 14 is_stmt 0 view .LVU265
 808 025e FFF7FEFF 		bl	HAL_GetTick
 809              	.LVL57:
 541:Drivers/STM32F7xx_HAL_Driver/Src/stm32f7xx_hal_rcc.c ****         {
 810              		.loc 1 541 28 view .LVU266
 811 0262 801B     		subs	r0, r0, r6
 541:Drivers/STM32F7xx_HAL_Driver/Src/stm32f7xx_hal_rcc.c ****         {
 812              		.loc 1 541 12 view .LVU267
 813 0264 6428     		cmp	r0, #100
 814 0266 F5D9     		bls	.L62
 543:Drivers/STM32F7xx_HAL_Driver/Src/stm32f7xx_hal_rcc.c ****         }
 815              		.loc 1 543 18 view .LVU268
 816 0268 0320     		movs	r0, #3
 817 026a D2E0     		b	.L31
 818              	.LVL58:
 819              	.L116:
 820              		.loc 1 549 5 is_stmt 1 discriminator 1 view .LVU269
 821 026c 114A     		ldr	r2, .L123
 822 026e 136F     		ldr	r3, [r2, #112]
 823 0270 43F00103 		orr	r3, r3, #1
 824 0274 1367     		str	r3, [r2, #112]
 825              	.L65:
 826              		.loc 1 549 5 discriminator 10 view .LVU270
 550:Drivers/STM32F7xx_HAL_Driver/Src/stm32f7xx_hal_rcc.c ****     /* Check the LSE State */
 551:Drivers/STM32F7xx_HAL_Driver/Src/stm32f7xx_hal_rcc.c ****     if ((RCC_OscInitStruct->LSEState) != RCC_LSE_OFF)
 827              		.loc 1 551 5 discriminator 10 view .LVU271
 828              		.loc 1 551 27 is_stmt 0 discriminator 10 view .LVU272
 829 0276 A368     		ldr	r3, [r4, #8]
 830              		.loc 1 551 8 discriminator 10 view .LVU273
 831 0278 53B3     		cbz	r3, .L68
 552:Drivers/STM32F7xx_HAL_Driver/Src/stm32f7xx_hal_rcc.c ****     {
 553:Drivers/STM32F7xx_HAL_Driver/Src/stm32f7xx_hal_rcc.c ****       /* Get Start Tick*/
 554:Drivers/STM32F7xx_HAL_Driver/Src/stm32f7xx_hal_rcc.c ****       tickstart = HAL_GetTick();
 832              		.loc 1 554 7 is_stmt 1 view .LVU274
 833              		.loc 1 554 19 is_stmt 0 view .LVU275
 834 027a FFF7FEFF 		bl	HAL_GetTick
ARM GAS  D:\Dev\msys64\tmp\cckaQVt1.s 			page 28


 835              	.LVL59:
 836 027e 0646     		mov	r6, r0
 837              	.LVL60:
 555:Drivers/STM32F7xx_HAL_Driver/Src/stm32f7xx_hal_rcc.c **** 
 556:Drivers/STM32F7xx_HAL_Driver/Src/stm32f7xx_hal_rcc.c ****       /* Wait till LSE is ready */
 557:Drivers/STM32F7xx_HAL_Driver/Src/stm32f7xx_hal_rcc.c ****       while (__HAL_RCC_GET_FLAG(RCC_FLAG_LSERDY) == RESET)
 838              		.loc 1 557 7 is_stmt 1 view .LVU276
 839              	.L69:
 840              		.loc 1 557 13 view .LVU277
 841              		.loc 1 557 14 is_stmt 0 view .LVU278
 842 0280 0C4B     		ldr	r3, .L123
 843 0282 1B6F     		ldr	r3, [r3, #112]
 844              		.loc 1 557 13 view .LVU279
 845 0284 13F0020F 		tst	r3, #2
 846 0288 33D1     		bne	.L71
 558:Drivers/STM32F7xx_HAL_Driver/Src/stm32f7xx_hal_rcc.c ****       {
 559:Drivers/STM32F7xx_HAL_Driver/Src/stm32f7xx_hal_rcc.c ****         if ((HAL_GetTick() - tickstart) > RCC_LSE_TIMEOUT_VALUE)
 847              		.loc 1 559 9 is_stmt 1 view .LVU280
 848              		.loc 1 559 14 is_stmt 0 view .LVU281
 849 028a FFF7FEFF 		bl	HAL_GetTick
 850              	.LVL61:
 851              		.loc 1 559 28 view .LVU282
 852 028e 801B     		subs	r0, r0, r6
 853              		.loc 1 559 12 view .LVU283
 854 0290 41F28833 		movw	r3, #5000
 855 0294 9842     		cmp	r0, r3
 856 0296 F3D9     		bls	.L69
 560:Drivers/STM32F7xx_HAL_Driver/Src/stm32f7xx_hal_rcc.c ****         {
 561:Drivers/STM32F7xx_HAL_Driver/Src/stm32f7xx_hal_rcc.c ****           return HAL_TIMEOUT;
 857              		.loc 1 561 18 view .LVU284
 858 0298 0320     		movs	r0, #3
 859 029a BAE0     		b	.L31
 860              	.LVL62:
 861              	.L66:
 549:Drivers/STM32F7xx_HAL_Driver/Src/stm32f7xx_hal_rcc.c ****     /* Check the LSE State */
 862              		.loc 1 549 5 is_stmt 1 discriminator 5 view .LVU285
 863 029c 052B     		cmp	r3, #5
 864 029e 0DD0     		beq	.L117
 549:Drivers/STM32F7xx_HAL_Driver/Src/stm32f7xx_hal_rcc.c ****     /* Check the LSE State */
 865              		.loc 1 549 5 discriminator 8 view .LVU286
 866 02a0 044B     		ldr	r3, .L123
 867 02a2 1A6F     		ldr	r2, [r3, #112]
 868 02a4 22F00102 		bic	r2, r2, #1
 869 02a8 1A67     		str	r2, [r3, #112]
 549:Drivers/STM32F7xx_HAL_Driver/Src/stm32f7xx_hal_rcc.c ****     /* Check the LSE State */
 870              		.loc 1 549 5 discriminator 8 view .LVU287
 871 02aa 1A6F     		ldr	r2, [r3, #112]
 872 02ac 22F00402 		bic	r2, r2, #4
 873 02b0 1A67     		str	r2, [r3, #112]
 874 02b2 E0E7     		b	.L65
 875              	.L124:
 876              		.align	2
 877              	.L123:
 878 02b4 00380240 		.word	1073887232
 879 02b8 00700040 		.word	1073770496
 880              	.L117:
 549:Drivers/STM32F7xx_HAL_Driver/Src/stm32f7xx_hal_rcc.c ****     /* Check the LSE State */
ARM GAS  D:\Dev\msys64\tmp\cckaQVt1.s 			page 29


 881              		.loc 1 549 5 discriminator 7 view .LVU288
 882 02bc 5C4B     		ldr	r3, .L125
 883 02be 1A6F     		ldr	r2, [r3, #112]
 884 02c0 42F00402 		orr	r2, r2, #4
 885 02c4 1A67     		str	r2, [r3, #112]
 549:Drivers/STM32F7xx_HAL_Driver/Src/stm32f7xx_hal_rcc.c ****     /* Check the LSE State */
 886              		.loc 1 549 5 discriminator 7 view .LVU289
 887 02c6 1A6F     		ldr	r2, [r3, #112]
 888 02c8 42F00102 		orr	r2, r2, #1
 889 02cc 1A67     		str	r2, [r3, #112]
 890 02ce D2E7     		b	.L65
 891              	.L68:
 562:Drivers/STM32F7xx_HAL_Driver/Src/stm32f7xx_hal_rcc.c ****         }
 563:Drivers/STM32F7xx_HAL_Driver/Src/stm32f7xx_hal_rcc.c ****       }
 564:Drivers/STM32F7xx_HAL_Driver/Src/stm32f7xx_hal_rcc.c ****     }
 565:Drivers/STM32F7xx_HAL_Driver/Src/stm32f7xx_hal_rcc.c ****     else
 566:Drivers/STM32F7xx_HAL_Driver/Src/stm32f7xx_hal_rcc.c ****     {
 567:Drivers/STM32F7xx_HAL_Driver/Src/stm32f7xx_hal_rcc.c ****       /* Get Start Tick*/
 568:Drivers/STM32F7xx_HAL_Driver/Src/stm32f7xx_hal_rcc.c ****       tickstart = HAL_GetTick();
 892              		.loc 1 568 7 view .LVU290
 893              		.loc 1 568 19 is_stmt 0 view .LVU291
 894 02d0 FFF7FEFF 		bl	HAL_GetTick
 895              	.LVL63:
 896 02d4 0646     		mov	r6, r0
 897              	.LVL64:
 569:Drivers/STM32F7xx_HAL_Driver/Src/stm32f7xx_hal_rcc.c **** 
 570:Drivers/STM32F7xx_HAL_Driver/Src/stm32f7xx_hal_rcc.c ****       /* Wait till LSE is ready */
 571:Drivers/STM32F7xx_HAL_Driver/Src/stm32f7xx_hal_rcc.c ****       while (__HAL_RCC_GET_FLAG(RCC_FLAG_LSERDY) != RESET)
 898              		.loc 1 571 7 is_stmt 1 view .LVU292
 899              	.L72:
 900              		.loc 1 571 13 view .LVU293
 901              		.loc 1 571 14 is_stmt 0 view .LVU294
 902 02d6 564B     		ldr	r3, .L125
 903 02d8 1B6F     		ldr	r3, [r3, #112]
 904              		.loc 1 571 13 view .LVU295
 905 02da 13F0020F 		tst	r3, #2
 906 02de 08D0     		beq	.L71
 572:Drivers/STM32F7xx_HAL_Driver/Src/stm32f7xx_hal_rcc.c ****       {
 573:Drivers/STM32F7xx_HAL_Driver/Src/stm32f7xx_hal_rcc.c ****         if ((HAL_GetTick() - tickstart) > RCC_LSE_TIMEOUT_VALUE)
 907              		.loc 1 573 9 is_stmt 1 view .LVU296
 908              		.loc 1 573 14 is_stmt 0 view .LVU297
 909 02e0 FFF7FEFF 		bl	HAL_GetTick
 910              	.LVL65:
 911              		.loc 1 573 28 view .LVU298
 912 02e4 801B     		subs	r0, r0, r6
 913              		.loc 1 573 12 view .LVU299
 914 02e6 41F28833 		movw	r3, #5000
 915 02ea 9842     		cmp	r0, r3
 916 02ec F3D9     		bls	.L72
 574:Drivers/STM32F7xx_HAL_Driver/Src/stm32f7xx_hal_rcc.c ****         {
 575:Drivers/STM32F7xx_HAL_Driver/Src/stm32f7xx_hal_rcc.c ****           return HAL_TIMEOUT;
 917              		.loc 1 575 18 view .LVU300
 918 02ee 0320     		movs	r0, #3
 919 02f0 8FE0     		b	.L31
 920              	.L71:
 576:Drivers/STM32F7xx_HAL_Driver/Src/stm32f7xx_hal_rcc.c ****         }
 577:Drivers/STM32F7xx_HAL_Driver/Src/stm32f7xx_hal_rcc.c ****       }
ARM GAS  D:\Dev\msys64\tmp\cckaQVt1.s 			page 30


 578:Drivers/STM32F7xx_HAL_Driver/Src/stm32f7xx_hal_rcc.c ****     }
 579:Drivers/STM32F7xx_HAL_Driver/Src/stm32f7xx_hal_rcc.c **** 
 580:Drivers/STM32F7xx_HAL_Driver/Src/stm32f7xx_hal_rcc.c ****     /* Restore clock configuration if changed */
 581:Drivers/STM32F7xx_HAL_Driver/Src/stm32f7xx_hal_rcc.c ****     if (pwrclkchanged == SET)
 921              		.loc 1 581 5 is_stmt 1 view .LVU301
 922              		.loc 1 581 8 is_stmt 0 view .LVU302
 923 02f2 FDB9     		cbnz	r5, .L118
 924              	.LVL66:
 925              	.L59:
 582:Drivers/STM32F7xx_HAL_Driver/Src/stm32f7xx_hal_rcc.c ****     {
 583:Drivers/STM32F7xx_HAL_Driver/Src/stm32f7xx_hal_rcc.c ****       __HAL_RCC_PWR_CLK_DISABLE();
 584:Drivers/STM32F7xx_HAL_Driver/Src/stm32f7xx_hal_rcc.c ****     }
 585:Drivers/STM32F7xx_HAL_Driver/Src/stm32f7xx_hal_rcc.c ****   }
 586:Drivers/STM32F7xx_HAL_Driver/Src/stm32f7xx_hal_rcc.c ****   /*-------------------------------- PLL Configuration -----------------------*/
 587:Drivers/STM32F7xx_HAL_Driver/Src/stm32f7xx_hal_rcc.c ****   /* Check the parameters */
 588:Drivers/STM32F7xx_HAL_Driver/Src/stm32f7xx_hal_rcc.c ****   assert_param(IS_RCC_PLL(RCC_OscInitStruct->PLL.PLLState));
 926              		.loc 1 588 3 is_stmt 1 view .LVU303
 589:Drivers/STM32F7xx_HAL_Driver/Src/stm32f7xx_hal_rcc.c ****   if ((RCC_OscInitStruct->PLL.PLLState) != RCC_PLL_NONE)
 927              		.loc 1 589 3 view .LVU304
 928              		.loc 1 589 30 is_stmt 0 view .LVU305
 929 02f4 A369     		ldr	r3, [r4, #24]
 930              		.loc 1 589 6 view .LVU306
 931 02f6 002B     		cmp	r3, #0
 932 02f8 00F08A80 		beq	.L95
 590:Drivers/STM32F7xx_HAL_Driver/Src/stm32f7xx_hal_rcc.c ****   {
 591:Drivers/STM32F7xx_HAL_Driver/Src/stm32f7xx_hal_rcc.c ****     /* Check if the PLL is used as system clock or not */
 592:Drivers/STM32F7xx_HAL_Driver/Src/stm32f7xx_hal_rcc.c ****     if (__HAL_RCC_GET_SYSCLK_SOURCE() != RCC_SYSCLKSOURCE_STATUS_PLLCLK)
 933              		.loc 1 592 5 is_stmt 1 view .LVU307
 934              		.loc 1 592 9 is_stmt 0 view .LVU308
 935 02fc 4C4A     		ldr	r2, .L125
 936 02fe 9268     		ldr	r2, [r2, #8]
 937 0300 02F00C02 		and	r2, r2, #12
 938              		.loc 1 592 8 view .LVU309
 939 0304 082A     		cmp	r2, #8
 940 0306 58D0     		beq	.L74
 593:Drivers/STM32F7xx_HAL_Driver/Src/stm32f7xx_hal_rcc.c ****     {
 594:Drivers/STM32F7xx_HAL_Driver/Src/stm32f7xx_hal_rcc.c ****       if ((RCC_OscInitStruct->PLL.PLLState) == RCC_PLL_ON)
 941              		.loc 1 594 7 is_stmt 1 view .LVU310
 942              		.loc 1 594 10 is_stmt 0 view .LVU311
 943 0308 022B     		cmp	r3, #2
 944 030a 19D0     		beq	.L119
 595:Drivers/STM32F7xx_HAL_Driver/Src/stm32f7xx_hal_rcc.c ****       {
 596:Drivers/STM32F7xx_HAL_Driver/Src/stm32f7xx_hal_rcc.c ****         /* Check the parameters */
 597:Drivers/STM32F7xx_HAL_Driver/Src/stm32f7xx_hal_rcc.c ****         assert_param(IS_RCC_PLLSOURCE(RCC_OscInitStruct->PLL.PLLSource));
 598:Drivers/STM32F7xx_HAL_Driver/Src/stm32f7xx_hal_rcc.c ****         assert_param(IS_RCC_PLLM_VALUE(RCC_OscInitStruct->PLL.PLLM));
 599:Drivers/STM32F7xx_HAL_Driver/Src/stm32f7xx_hal_rcc.c ****         assert_param(IS_RCC_PLLN_VALUE(RCC_OscInitStruct->PLL.PLLN));
 600:Drivers/STM32F7xx_HAL_Driver/Src/stm32f7xx_hal_rcc.c ****         assert_param(IS_RCC_PLLP_VALUE(RCC_OscInitStruct->PLL.PLLP));
 601:Drivers/STM32F7xx_HAL_Driver/Src/stm32f7xx_hal_rcc.c ****         assert_param(IS_RCC_PLLQ_VALUE(RCC_OscInitStruct->PLL.PLLQ));
 602:Drivers/STM32F7xx_HAL_Driver/Src/stm32f7xx_hal_rcc.c **** #if defined (RCC_PLLCFGR_PLLR)
 603:Drivers/STM32F7xx_HAL_Driver/Src/stm32f7xx_hal_rcc.c ****         assert_param(IS_RCC_PLLR_VALUE(RCC_OscInitStruct->PLL.PLLR));
 604:Drivers/STM32F7xx_HAL_Driver/Src/stm32f7xx_hal_rcc.c **** #endif
 605:Drivers/STM32F7xx_HAL_Driver/Src/stm32f7xx_hal_rcc.c **** 
 606:Drivers/STM32F7xx_HAL_Driver/Src/stm32f7xx_hal_rcc.c ****         /* Disable the main PLL. */
 607:Drivers/STM32F7xx_HAL_Driver/Src/stm32f7xx_hal_rcc.c ****         __HAL_RCC_PLL_DISABLE();
 608:Drivers/STM32F7xx_HAL_Driver/Src/stm32f7xx_hal_rcc.c **** 
 609:Drivers/STM32F7xx_HAL_Driver/Src/stm32f7xx_hal_rcc.c ****         /* Get Start Tick*/
 610:Drivers/STM32F7xx_HAL_Driver/Src/stm32f7xx_hal_rcc.c ****         tickstart = HAL_GetTick();
ARM GAS  D:\Dev\msys64\tmp\cckaQVt1.s 			page 31


 611:Drivers/STM32F7xx_HAL_Driver/Src/stm32f7xx_hal_rcc.c **** 
 612:Drivers/STM32F7xx_HAL_Driver/Src/stm32f7xx_hal_rcc.c ****         /* Wait till PLL is ready */
 613:Drivers/STM32F7xx_HAL_Driver/Src/stm32f7xx_hal_rcc.c ****         while (__HAL_RCC_GET_FLAG(RCC_FLAG_PLLRDY) != RESET)
 614:Drivers/STM32F7xx_HAL_Driver/Src/stm32f7xx_hal_rcc.c ****         {
 615:Drivers/STM32F7xx_HAL_Driver/Src/stm32f7xx_hal_rcc.c ****           if ((HAL_GetTick() - tickstart) > PLL_TIMEOUT_VALUE)
 616:Drivers/STM32F7xx_HAL_Driver/Src/stm32f7xx_hal_rcc.c ****           {
 617:Drivers/STM32F7xx_HAL_Driver/Src/stm32f7xx_hal_rcc.c ****             return HAL_TIMEOUT;
 618:Drivers/STM32F7xx_HAL_Driver/Src/stm32f7xx_hal_rcc.c ****           }
 619:Drivers/STM32F7xx_HAL_Driver/Src/stm32f7xx_hal_rcc.c ****         }
 620:Drivers/STM32F7xx_HAL_Driver/Src/stm32f7xx_hal_rcc.c **** 
 621:Drivers/STM32F7xx_HAL_Driver/Src/stm32f7xx_hal_rcc.c ****         /* Configure the main PLL clock source, multiplication and division factors. */
 622:Drivers/STM32F7xx_HAL_Driver/Src/stm32f7xx_hal_rcc.c **** #if defined (RCC_PLLCFGR_PLLR)
 623:Drivers/STM32F7xx_HAL_Driver/Src/stm32f7xx_hal_rcc.c ****         __HAL_RCC_PLL_CONFIG(RCC_OscInitStruct->PLL.PLLSource,
 624:Drivers/STM32F7xx_HAL_Driver/Src/stm32f7xx_hal_rcc.c ****                              RCC_OscInitStruct->PLL.PLLM,
 625:Drivers/STM32F7xx_HAL_Driver/Src/stm32f7xx_hal_rcc.c ****                              RCC_OscInitStruct->PLL.PLLN,
 626:Drivers/STM32F7xx_HAL_Driver/Src/stm32f7xx_hal_rcc.c ****                              RCC_OscInitStruct->PLL.PLLP,
 627:Drivers/STM32F7xx_HAL_Driver/Src/stm32f7xx_hal_rcc.c ****                              RCC_OscInitStruct->PLL.PLLQ,
 628:Drivers/STM32F7xx_HAL_Driver/Src/stm32f7xx_hal_rcc.c ****                              RCC_OscInitStruct->PLL.PLLR);
 629:Drivers/STM32F7xx_HAL_Driver/Src/stm32f7xx_hal_rcc.c **** #else
 630:Drivers/STM32F7xx_HAL_Driver/Src/stm32f7xx_hal_rcc.c ****         __HAL_RCC_PLL_CONFIG(RCC_OscInitStruct->PLL.PLLSource,
 631:Drivers/STM32F7xx_HAL_Driver/Src/stm32f7xx_hal_rcc.c ****                              RCC_OscInitStruct->PLL.PLLM,
 632:Drivers/STM32F7xx_HAL_Driver/Src/stm32f7xx_hal_rcc.c ****                              RCC_OscInitStruct->PLL.PLLN,
 633:Drivers/STM32F7xx_HAL_Driver/Src/stm32f7xx_hal_rcc.c ****                              RCC_OscInitStruct->PLL.PLLP,
 634:Drivers/STM32F7xx_HAL_Driver/Src/stm32f7xx_hal_rcc.c ****                              RCC_OscInitStruct->PLL.PLLQ);
 635:Drivers/STM32F7xx_HAL_Driver/Src/stm32f7xx_hal_rcc.c **** #endif
 636:Drivers/STM32F7xx_HAL_Driver/Src/stm32f7xx_hal_rcc.c **** 
 637:Drivers/STM32F7xx_HAL_Driver/Src/stm32f7xx_hal_rcc.c ****         /* Enable the main PLL. */
 638:Drivers/STM32F7xx_HAL_Driver/Src/stm32f7xx_hal_rcc.c ****         __HAL_RCC_PLL_ENABLE();
 639:Drivers/STM32F7xx_HAL_Driver/Src/stm32f7xx_hal_rcc.c **** 
 640:Drivers/STM32F7xx_HAL_Driver/Src/stm32f7xx_hal_rcc.c ****         /* Get Start Tick*/
 641:Drivers/STM32F7xx_HAL_Driver/Src/stm32f7xx_hal_rcc.c ****         tickstart = HAL_GetTick();
 642:Drivers/STM32F7xx_HAL_Driver/Src/stm32f7xx_hal_rcc.c **** 
 643:Drivers/STM32F7xx_HAL_Driver/Src/stm32f7xx_hal_rcc.c ****         /* Wait till PLL is ready */
 644:Drivers/STM32F7xx_HAL_Driver/Src/stm32f7xx_hal_rcc.c ****         while (__HAL_RCC_GET_FLAG(RCC_FLAG_PLLRDY) == RESET)
 645:Drivers/STM32F7xx_HAL_Driver/Src/stm32f7xx_hal_rcc.c ****         {
 646:Drivers/STM32F7xx_HAL_Driver/Src/stm32f7xx_hal_rcc.c ****           if ((HAL_GetTick() - tickstart) > PLL_TIMEOUT_VALUE)
 647:Drivers/STM32F7xx_HAL_Driver/Src/stm32f7xx_hal_rcc.c ****           {
 648:Drivers/STM32F7xx_HAL_Driver/Src/stm32f7xx_hal_rcc.c ****             return HAL_TIMEOUT;
 649:Drivers/STM32F7xx_HAL_Driver/Src/stm32f7xx_hal_rcc.c ****           }
 650:Drivers/STM32F7xx_HAL_Driver/Src/stm32f7xx_hal_rcc.c ****         }
 651:Drivers/STM32F7xx_HAL_Driver/Src/stm32f7xx_hal_rcc.c ****       }
 652:Drivers/STM32F7xx_HAL_Driver/Src/stm32f7xx_hal_rcc.c ****       else
 653:Drivers/STM32F7xx_HAL_Driver/Src/stm32f7xx_hal_rcc.c ****       {
 654:Drivers/STM32F7xx_HAL_Driver/Src/stm32f7xx_hal_rcc.c ****         /* Disable the main PLL. */
 655:Drivers/STM32F7xx_HAL_Driver/Src/stm32f7xx_hal_rcc.c ****         __HAL_RCC_PLL_DISABLE();
 945              		.loc 1 655 9 is_stmt 1 view .LVU312
 946 030c 484A     		ldr	r2, .L125
 947 030e 1368     		ldr	r3, [r2]
 948 0310 23F08073 		bic	r3, r3, #16777216
 949 0314 1360     		str	r3, [r2]
 656:Drivers/STM32F7xx_HAL_Driver/Src/stm32f7xx_hal_rcc.c **** 
 657:Drivers/STM32F7xx_HAL_Driver/Src/stm32f7xx_hal_rcc.c ****         /* Get Start Tick*/
 658:Drivers/STM32F7xx_HAL_Driver/Src/stm32f7xx_hal_rcc.c ****         tickstart = HAL_GetTick();
 950              		.loc 1 658 9 view .LVU313
 951              		.loc 1 658 21 is_stmt 0 view .LVU314
 952 0316 FFF7FEFF 		bl	HAL_GetTick
 953              	.LVL67:
ARM GAS  D:\Dev\msys64\tmp\cckaQVt1.s 			page 32


 954 031a 0446     		mov	r4, r0
 955              	.LVL68:
 659:Drivers/STM32F7xx_HAL_Driver/Src/stm32f7xx_hal_rcc.c **** 
 660:Drivers/STM32F7xx_HAL_Driver/Src/stm32f7xx_hal_rcc.c ****         /* Wait till PLL is ready */
 661:Drivers/STM32F7xx_HAL_Driver/Src/stm32f7xx_hal_rcc.c ****         while (__HAL_RCC_GET_FLAG(RCC_FLAG_PLLRDY) != RESET)
 956              		.loc 1 661 9 is_stmt 1 view .LVU315
 957              	.L80:
 958              		.loc 1 661 15 view .LVU316
 959              		.loc 1 661 16 is_stmt 0 view .LVU317
 960 031c 444B     		ldr	r3, .L125
 961 031e 1B68     		ldr	r3, [r3]
 962              		.loc 1 661 15 view .LVU318
 963 0320 13F0007F 		tst	r3, #33554432
 964 0324 47D0     		beq	.L120
 662:Drivers/STM32F7xx_HAL_Driver/Src/stm32f7xx_hal_rcc.c ****         {
 663:Drivers/STM32F7xx_HAL_Driver/Src/stm32f7xx_hal_rcc.c ****           if ((HAL_GetTick() - tickstart) > PLL_TIMEOUT_VALUE)
 965              		.loc 1 663 11 is_stmt 1 view .LVU319
 966              		.loc 1 663 16 is_stmt 0 view .LVU320
 967 0326 FFF7FEFF 		bl	HAL_GetTick
 968              	.LVL69:
 969              		.loc 1 663 30 view .LVU321
 970 032a 001B     		subs	r0, r0, r4
 971              		.loc 1 663 14 view .LVU322
 972 032c 0228     		cmp	r0, #2
 973 032e F5D9     		bls	.L80
 664:Drivers/STM32F7xx_HAL_Driver/Src/stm32f7xx_hal_rcc.c ****           {
 665:Drivers/STM32F7xx_HAL_Driver/Src/stm32f7xx_hal_rcc.c ****             return HAL_TIMEOUT;
 974              		.loc 1 665 20 view .LVU323
 975 0330 0320     		movs	r0, #3
 976 0332 6EE0     		b	.L31
 977              	.LVL70:
 978              	.L118:
 583:Drivers/STM32F7xx_HAL_Driver/Src/stm32f7xx_hal_rcc.c ****     }
 979              		.loc 1 583 7 is_stmt 1 view .LVU324
 980 0334 3E4A     		ldr	r2, .L125
 981 0336 136C     		ldr	r3, [r2, #64]
 982 0338 23F08053 		bic	r3, r3, #268435456
 983 033c 1364     		str	r3, [r2, #64]
 984 033e D9E7     		b	.L59
 985              	.LVL71:
 986              	.L119:
 597:Drivers/STM32F7xx_HAL_Driver/Src/stm32f7xx_hal_rcc.c ****         assert_param(IS_RCC_PLLM_VALUE(RCC_OscInitStruct->PLL.PLLM));
 987              		.loc 1 597 9 view .LVU325
 598:Drivers/STM32F7xx_HAL_Driver/Src/stm32f7xx_hal_rcc.c ****         assert_param(IS_RCC_PLLN_VALUE(RCC_OscInitStruct->PLL.PLLN));
 988              		.loc 1 598 9 view .LVU326
 599:Drivers/STM32F7xx_HAL_Driver/Src/stm32f7xx_hal_rcc.c ****         assert_param(IS_RCC_PLLP_VALUE(RCC_OscInitStruct->PLL.PLLP));
 989              		.loc 1 599 9 view .LVU327
 600:Drivers/STM32F7xx_HAL_Driver/Src/stm32f7xx_hal_rcc.c ****         assert_param(IS_RCC_PLLQ_VALUE(RCC_OscInitStruct->PLL.PLLQ));
 990              		.loc 1 600 9 view .LVU328
 601:Drivers/STM32F7xx_HAL_Driver/Src/stm32f7xx_hal_rcc.c **** #if defined (RCC_PLLCFGR_PLLR)
 991              		.loc 1 601 9 view .LVU329
 607:Drivers/STM32F7xx_HAL_Driver/Src/stm32f7xx_hal_rcc.c **** 
 992              		.loc 1 607 9 view .LVU330
 993 0340 3B4A     		ldr	r2, .L125
 994 0342 1368     		ldr	r3, [r2]
 995 0344 23F08073 		bic	r3, r3, #16777216
 996 0348 1360     		str	r3, [r2]
ARM GAS  D:\Dev\msys64\tmp\cckaQVt1.s 			page 33


 610:Drivers/STM32F7xx_HAL_Driver/Src/stm32f7xx_hal_rcc.c **** 
 997              		.loc 1 610 9 view .LVU331
 610:Drivers/STM32F7xx_HAL_Driver/Src/stm32f7xx_hal_rcc.c **** 
 998              		.loc 1 610 21 is_stmt 0 view .LVU332
 999 034a FFF7FEFF 		bl	HAL_GetTick
 1000              	.LVL72:
 1001 034e 0546     		mov	r5, r0
 1002              	.LVL73:
 613:Drivers/STM32F7xx_HAL_Driver/Src/stm32f7xx_hal_rcc.c ****         {
 1003              		.loc 1 613 9 is_stmt 1 view .LVU333
 1004              	.L76:
 613:Drivers/STM32F7xx_HAL_Driver/Src/stm32f7xx_hal_rcc.c ****         {
 1005              		.loc 1 613 15 view .LVU334
 613:Drivers/STM32F7xx_HAL_Driver/Src/stm32f7xx_hal_rcc.c ****         {
 1006              		.loc 1 613 16 is_stmt 0 view .LVU335
 1007 0350 374B     		ldr	r3, .L125
 1008 0352 1B68     		ldr	r3, [r3]
 613:Drivers/STM32F7xx_HAL_Driver/Src/stm32f7xx_hal_rcc.c ****         {
 1009              		.loc 1 613 15 view .LVU336
 1010 0354 13F0007F 		tst	r3, #33554432
 1011 0358 06D0     		beq	.L121
 615:Drivers/STM32F7xx_HAL_Driver/Src/stm32f7xx_hal_rcc.c ****           {
 1012              		.loc 1 615 11 is_stmt 1 view .LVU337
 615:Drivers/STM32F7xx_HAL_Driver/Src/stm32f7xx_hal_rcc.c ****           {
 1013              		.loc 1 615 16 is_stmt 0 view .LVU338
 1014 035a FFF7FEFF 		bl	HAL_GetTick
 1015              	.LVL74:
 615:Drivers/STM32F7xx_HAL_Driver/Src/stm32f7xx_hal_rcc.c ****           {
 1016              		.loc 1 615 30 view .LVU339
 1017 035e 401B     		subs	r0, r0, r5
 615:Drivers/STM32F7xx_HAL_Driver/Src/stm32f7xx_hal_rcc.c ****           {
 1018              		.loc 1 615 14 view .LVU340
 1019 0360 0228     		cmp	r0, #2
 1020 0362 F5D9     		bls	.L76
 617:Drivers/STM32F7xx_HAL_Driver/Src/stm32f7xx_hal_rcc.c ****           }
 1021              		.loc 1 617 20 view .LVU341
 1022 0364 0320     		movs	r0, #3
 1023 0366 54E0     		b	.L31
 1024              	.L121:
 630:Drivers/STM32F7xx_HAL_Driver/Src/stm32f7xx_hal_rcc.c ****                              RCC_OscInitStruct->PLL.PLLM,
 1025              		.loc 1 630 9 is_stmt 1 view .LVU342
 1026 0368 E369     		ldr	r3, [r4, #28]
 1027 036a 226A     		ldr	r2, [r4, #32]
 1028 036c 1343     		orrs	r3, r3, r2
 1029 036e 626A     		ldr	r2, [r4, #36]
 1030 0370 43EA8213 		orr	r3, r3, r2, lsl #6
 1031 0374 A26A     		ldr	r2, [r4, #40]
 1032 0376 5208     		lsrs	r2, r2, #1
 1033 0378 013A     		subs	r2, r2, #1
 1034 037a 43EA0243 		orr	r3, r3, r2, lsl #16
 1035 037e E26A     		ldr	r2, [r4, #44]
 1036 0380 43EA0263 		orr	r3, r3, r2, lsl #24
 1037 0384 43F00053 		orr	r3, r3, #536870912
 1038 0388 294A     		ldr	r2, .L125
 1039 038a 5360     		str	r3, [r2, #4]
 638:Drivers/STM32F7xx_HAL_Driver/Src/stm32f7xx_hal_rcc.c **** 
 1040              		.loc 1 638 9 view .LVU343
ARM GAS  D:\Dev\msys64\tmp\cckaQVt1.s 			page 34


 1041 038c 1368     		ldr	r3, [r2]
 1042 038e 43F08073 		orr	r3, r3, #16777216
 1043 0392 1360     		str	r3, [r2]
 641:Drivers/STM32F7xx_HAL_Driver/Src/stm32f7xx_hal_rcc.c **** 
 1044              		.loc 1 641 9 view .LVU344
 641:Drivers/STM32F7xx_HAL_Driver/Src/stm32f7xx_hal_rcc.c **** 
 1045              		.loc 1 641 21 is_stmt 0 view .LVU345
 1046 0394 FFF7FEFF 		bl	HAL_GetTick
 1047              	.LVL75:
 1048 0398 0446     		mov	r4, r0
 1049              	.LVL76:
 644:Drivers/STM32F7xx_HAL_Driver/Src/stm32f7xx_hal_rcc.c ****         {
 1050              		.loc 1 644 9 is_stmt 1 view .LVU346
 1051              	.L78:
 644:Drivers/STM32F7xx_HAL_Driver/Src/stm32f7xx_hal_rcc.c ****         {
 1052              		.loc 1 644 15 view .LVU347
 644:Drivers/STM32F7xx_HAL_Driver/Src/stm32f7xx_hal_rcc.c ****         {
 1053              		.loc 1 644 16 is_stmt 0 view .LVU348
 1054 039a 254B     		ldr	r3, .L125
 1055 039c 1B68     		ldr	r3, [r3]
 644:Drivers/STM32F7xx_HAL_Driver/Src/stm32f7xx_hal_rcc.c ****         {
 1056              		.loc 1 644 15 view .LVU349
 1057 039e 13F0007F 		tst	r3, #33554432
 1058 03a2 06D1     		bne	.L122
 646:Drivers/STM32F7xx_HAL_Driver/Src/stm32f7xx_hal_rcc.c ****           {
 1059              		.loc 1 646 11 is_stmt 1 view .LVU350
 646:Drivers/STM32F7xx_HAL_Driver/Src/stm32f7xx_hal_rcc.c ****           {
 1060              		.loc 1 646 16 is_stmt 0 view .LVU351
 1061 03a4 FFF7FEFF 		bl	HAL_GetTick
 1062              	.LVL77:
 646:Drivers/STM32F7xx_HAL_Driver/Src/stm32f7xx_hal_rcc.c ****           {
 1063              		.loc 1 646 30 view .LVU352
 1064 03a8 001B     		subs	r0, r0, r4
 646:Drivers/STM32F7xx_HAL_Driver/Src/stm32f7xx_hal_rcc.c ****           {
 1065              		.loc 1 646 14 view .LVU353
 1066 03aa 0228     		cmp	r0, #2
 1067 03ac F5D9     		bls	.L78
 648:Drivers/STM32F7xx_HAL_Driver/Src/stm32f7xx_hal_rcc.c ****           }
 1068              		.loc 1 648 20 view .LVU354
 1069 03ae 0320     		movs	r0, #3
 1070 03b0 2FE0     		b	.L31
 1071              	.L122:
 666:Drivers/STM32F7xx_HAL_Driver/Src/stm32f7xx_hal_rcc.c ****           }
 667:Drivers/STM32F7xx_HAL_Driver/Src/stm32f7xx_hal_rcc.c ****         }
 668:Drivers/STM32F7xx_HAL_Driver/Src/stm32f7xx_hal_rcc.c ****       }
 669:Drivers/STM32F7xx_HAL_Driver/Src/stm32f7xx_hal_rcc.c ****     }
 670:Drivers/STM32F7xx_HAL_Driver/Src/stm32f7xx_hal_rcc.c ****     else
 671:Drivers/STM32F7xx_HAL_Driver/Src/stm32f7xx_hal_rcc.c ****     {
 672:Drivers/STM32F7xx_HAL_Driver/Src/stm32f7xx_hal_rcc.c ****       /* Do not return HAL_ERROR if request repeats the current configuration */
 673:Drivers/STM32F7xx_HAL_Driver/Src/stm32f7xx_hal_rcc.c ****       pll_config = RCC->PLLCFGR;
 674:Drivers/STM32F7xx_HAL_Driver/Src/stm32f7xx_hal_rcc.c **** #if defined (RCC_PLLCFGR_PLLR)
 675:Drivers/STM32F7xx_HAL_Driver/Src/stm32f7xx_hal_rcc.c ****       if (((RCC_OscInitStruct->PLL.PLLState) == RCC_PLL_OFF) ||
 676:Drivers/STM32F7xx_HAL_Driver/Src/stm32f7xx_hal_rcc.c ****           (READ_BIT(pll_config, RCC_PLLCFGR_PLLSRC) != RCC_OscInitStruct->PLL.PLLSource) ||
 677:Drivers/STM32F7xx_HAL_Driver/Src/stm32f7xx_hal_rcc.c ****           (READ_BIT(pll_config, RCC_PLLCFGR_PLLM) != RCC_OscInitStruct->PLL.PLLM) ||
 678:Drivers/STM32F7xx_HAL_Driver/Src/stm32f7xx_hal_rcc.c ****           (READ_BIT(pll_config, RCC_PLLCFGR_PLLN) != (RCC_OscInitStruct->PLL.PLLN << RCC_PLLCFGR_PL
 679:Drivers/STM32F7xx_HAL_Driver/Src/stm32f7xx_hal_rcc.c ****           (READ_BIT(pll_config, RCC_PLLCFGR_PLLP) != ((((RCC_OscInitStruct->PLL.PLLP) >> 1U) - 1U) 
 680:Drivers/STM32F7xx_HAL_Driver/Src/stm32f7xx_hal_rcc.c ****           (READ_BIT(pll_config, RCC_PLLCFGR_PLLQ) != (RCC_OscInitStruct->PLL.PLLQ << RCC_PLLCFGR_PL
ARM GAS  D:\Dev\msys64\tmp\cckaQVt1.s 			page 35


 681:Drivers/STM32F7xx_HAL_Driver/Src/stm32f7xx_hal_rcc.c ****           (READ_BIT(pll_config, RCC_PLLCFGR_PLLR) != (RCC_OscInitStruct->PLL.PLLR << RCC_PLLCFGR_PL
 682:Drivers/STM32F7xx_HAL_Driver/Src/stm32f7xx_hal_rcc.c **** #else
 683:Drivers/STM32F7xx_HAL_Driver/Src/stm32f7xx_hal_rcc.c ****       if (((RCC_OscInitStruct->PLL.PLLState) == RCC_PLL_OFF) ||
 684:Drivers/STM32F7xx_HAL_Driver/Src/stm32f7xx_hal_rcc.c ****           (READ_BIT(pll_config, RCC_PLLCFGR_PLLSRC) != RCC_OscInitStruct->PLL.PLLSource) ||
 685:Drivers/STM32F7xx_HAL_Driver/Src/stm32f7xx_hal_rcc.c ****           (READ_BIT(pll_config, RCC_PLLCFGR_PLLM) != RCC_OscInitStruct->PLL.PLLM) ||
 686:Drivers/STM32F7xx_HAL_Driver/Src/stm32f7xx_hal_rcc.c ****           (READ_BIT(pll_config, RCC_PLLCFGR_PLLN) != (RCC_OscInitStruct->PLL.PLLN << RCC_PLLCFGR_PL
 687:Drivers/STM32F7xx_HAL_Driver/Src/stm32f7xx_hal_rcc.c ****           (READ_BIT(pll_config, RCC_PLLCFGR_PLLP) != ((((RCC_OscInitStruct->PLL.PLLP) >> 1U) - 1U) 
 688:Drivers/STM32F7xx_HAL_Driver/Src/stm32f7xx_hal_rcc.c ****           (READ_BIT(pll_config, RCC_PLLCFGR_PLLQ) != (RCC_OscInitStruct->PLL.PLLQ << RCC_PLLCFGR_PL
 689:Drivers/STM32F7xx_HAL_Driver/Src/stm32f7xx_hal_rcc.c **** #endif
 690:Drivers/STM32F7xx_HAL_Driver/Src/stm32f7xx_hal_rcc.c ****       {
 691:Drivers/STM32F7xx_HAL_Driver/Src/stm32f7xx_hal_rcc.c ****         return HAL_ERROR;
 692:Drivers/STM32F7xx_HAL_Driver/Src/stm32f7xx_hal_rcc.c ****       }
 693:Drivers/STM32F7xx_HAL_Driver/Src/stm32f7xx_hal_rcc.c ****     }
 694:Drivers/STM32F7xx_HAL_Driver/Src/stm32f7xx_hal_rcc.c ****   }
 695:Drivers/STM32F7xx_HAL_Driver/Src/stm32f7xx_hal_rcc.c ****   return HAL_OK;
 1072              		.loc 1 695 10 view .LVU355
 1073 03b2 0020     		movs	r0, #0
 1074 03b4 2DE0     		b	.L31
 1075              	.L120:
 1076              		.loc 1 695 10 view .LVU356
 1077 03b6 0020     		movs	r0, #0
 1078 03b8 2BE0     		b	.L31
 1079              	.LVL78:
 1080              	.L74:
 673:Drivers/STM32F7xx_HAL_Driver/Src/stm32f7xx_hal_rcc.c **** #if defined (RCC_PLLCFGR_PLLR)
 1081              		.loc 1 673 7 is_stmt 1 view .LVU357
 673:Drivers/STM32F7xx_HAL_Driver/Src/stm32f7xx_hal_rcc.c **** #if defined (RCC_PLLCFGR_PLLR)
 1082              		.loc 1 673 18 is_stmt 0 view .LVU358
 1083 03ba 1D4A     		ldr	r2, .L125
 1084 03bc 5268     		ldr	r2, [r2, #4]
 1085              	.LVL79:
 683:Drivers/STM32F7xx_HAL_Driver/Src/stm32f7xx_hal_rcc.c ****           (READ_BIT(pll_config, RCC_PLLCFGR_PLLSRC) != RCC_OscInitStruct->PLL.PLLSource) ||
 1086              		.loc 1 683 7 is_stmt 1 view .LVU359
 683:Drivers/STM32F7xx_HAL_Driver/Src/stm32f7xx_hal_rcc.c ****           (READ_BIT(pll_config, RCC_PLLCFGR_PLLSRC) != RCC_OscInitStruct->PLL.PLLSource) ||
 1087              		.loc 1 683 10 is_stmt 0 view .LVU360
 1088 03be 012B     		cmp	r3, #1
 1089 03c0 29D0     		beq	.L99
 684:Drivers/STM32F7xx_HAL_Driver/Src/stm32f7xx_hal_rcc.c ****           (READ_BIT(pll_config, RCC_PLLCFGR_PLLM) != RCC_OscInitStruct->PLL.PLLM) ||
 1090              		.loc 1 684 12 discriminator 1 view .LVU361
 1091 03c2 02F48003 		and	r3, r2, #4194304
 684:Drivers/STM32F7xx_HAL_Driver/Src/stm32f7xx_hal_rcc.c ****           (READ_BIT(pll_config, RCC_PLLCFGR_PLLM) != RCC_OscInitStruct->PLL.PLLM) ||
 1092              		.loc 1 684 78 discriminator 1 view .LVU362
 1093 03c6 E169     		ldr	r1, [r4, #28]
 683:Drivers/STM32F7xx_HAL_Driver/Src/stm32f7xx_hal_rcc.c ****           (READ_BIT(pll_config, RCC_PLLCFGR_PLLSRC) != RCC_OscInitStruct->PLL.PLLSource) ||
 1094              		.loc 1 683 62 discriminator 1 view .LVU363
 1095 03c8 8B42     		cmp	r3, r1
 1096 03ca 26D1     		bne	.L100
 685:Drivers/STM32F7xx_HAL_Driver/Src/stm32f7xx_hal_rcc.c ****           (READ_BIT(pll_config, RCC_PLLCFGR_PLLN) != (RCC_OscInitStruct->PLL.PLLN << RCC_PLLCFGR_PL
 1097              		.loc 1 685 12 view .LVU364
 1098 03cc 02F03F03 		and	r3, r2, #63
 685:Drivers/STM32F7xx_HAL_Driver/Src/stm32f7xx_hal_rcc.c ****           (READ_BIT(pll_config, RCC_PLLCFGR_PLLN) != (RCC_OscInitStruct->PLL.PLLN << RCC_PLLCFGR_PL
 1099              		.loc 1 685 76 view .LVU365
 1100 03d0 216A     		ldr	r1, [r4, #32]
 684:Drivers/STM32F7xx_HAL_Driver/Src/stm32f7xx_hal_rcc.c ****           (READ_BIT(pll_config, RCC_PLLCFGR_PLLM) != RCC_OscInitStruct->PLL.PLLM) ||
 1101              		.loc 1 684 90 view .LVU366
 1102 03d2 8B42     		cmp	r3, r1
 1103 03d4 23D1     		bne	.L101
ARM GAS  D:\Dev\msys64\tmp\cckaQVt1.s 			page 36


 686:Drivers/STM32F7xx_HAL_Driver/Src/stm32f7xx_hal_rcc.c ****           (READ_BIT(pll_config, RCC_PLLCFGR_PLLP) != ((((RCC_OscInitStruct->PLL.PLLP) >> 1U) - 1U) 
 1104              		.loc 1 686 77 view .LVU367
 1105 03d6 616A     		ldr	r1, [r4, #36]
 685:Drivers/STM32F7xx_HAL_Driver/Src/stm32f7xx_hal_rcc.c ****           (READ_BIT(pll_config, RCC_PLLCFGR_PLLN) != (RCC_OscInitStruct->PLL.PLLN << RCC_PLLCFGR_PL
 1106              		.loc 1 685 83 view .LVU368
 1107 03d8 47F6C073 		movw	r3, #32704
 1108 03dc 1340     		ands	r3, r3, r2
 1109 03de B3EB811F 		cmp	r3, r1, lsl #6
 1110 03e2 1ED1     		bne	.L102
 687:Drivers/STM32F7xx_HAL_Driver/Src/stm32f7xx_hal_rcc.c ****           (READ_BIT(pll_config, RCC_PLLCFGR_PLLQ) != (RCC_OscInitStruct->PLL.PLLQ << RCC_PLLCFGR_PL
 1111              		.loc 1 687 12 view .LVU369
 1112 03e4 02F44031 		and	r1, r2, #196608
 687:Drivers/STM32F7xx_HAL_Driver/Src/stm32f7xx_hal_rcc.c ****           (READ_BIT(pll_config, RCC_PLLCFGR_PLLQ) != (RCC_OscInitStruct->PLL.PLLQ << RCC_PLLCFGR_PL
 1113              		.loc 1 687 80 view .LVU370
 1114 03e8 A36A     		ldr	r3, [r4, #40]
 687:Drivers/STM32F7xx_HAL_Driver/Src/stm32f7xx_hal_rcc.c ****           (READ_BIT(pll_config, RCC_PLLCFGR_PLLQ) != (RCC_OscInitStruct->PLL.PLLQ << RCC_PLLCFGR_PL
 1115              		.loc 1 687 87 view .LVU371
 1116 03ea 5B08     		lsrs	r3, r3, #1
 687:Drivers/STM32F7xx_HAL_Driver/Src/stm32f7xx_hal_rcc.c ****           (READ_BIT(pll_config, RCC_PLLCFGR_PLLQ) != (RCC_OscInitStruct->PLL.PLLQ << RCC_PLLCFGR_PL
 1117              		.loc 1 687 94 view .LVU372
 1118 03ec 013B     		subs	r3, r3, #1
 686:Drivers/STM32F7xx_HAL_Driver/Src/stm32f7xx_hal_rcc.c ****           (READ_BIT(pll_config, RCC_PLLCFGR_PLLP) != ((((RCC_OscInitStruct->PLL.PLLP) >> 1U) - 1U) 
 1119              		.loc 1 686 109 view .LVU373
 1120 03ee B1EB034F 		cmp	r1, r3, lsl #16
 1121 03f2 18D1     		bne	.L103
 688:Drivers/STM32F7xx_HAL_Driver/Src/stm32f7xx_hal_rcc.c **** #endif
 1122              		.loc 1 688 12 view .LVU374
 1123 03f4 02F07062 		and	r2, r2, #251658240
 1124              	.LVL80:
 688:Drivers/STM32F7xx_HAL_Driver/Src/stm32f7xx_hal_rcc.c **** #endif
 1125              		.loc 1 688 77 view .LVU375
 1126 03f8 E36A     		ldr	r3, [r4, #44]
 687:Drivers/STM32F7xx_HAL_Driver/Src/stm32f7xx_hal_rcc.c ****           (READ_BIT(pll_config, RCC_PLLCFGR_PLLQ) != (RCC_OscInitStruct->PLL.PLLQ << RCC_PLLCFGR_PL
 1127              		.loc 1 687 126 view .LVU376
 1128 03fa B2EB036F 		cmp	r2, r3, lsl #24
 1129 03fe 14D1     		bne	.L104
 1130              		.loc 1 695 10 view .LVU377
 1131 0400 0020     		movs	r0, #0
 1132 0402 06E0     		b	.L31
 1133              	.LVL81:
 1134              	.L82:
 1135              	.LCFI3:
 1136              		.cfi_def_cfa_offset 0
 1137              		.cfi_restore 4
 1138              		.cfi_restore 5
 1139              		.cfi_restore 6
 1140              		.cfi_restore 14
 353:Drivers/STM32F7xx_HAL_Driver/Src/stm32f7xx_hal_rcc.c ****   }
 1141              		.loc 1 353 12 view .LVU378
 1142 0404 0120     		movs	r0, #1
 1143              	.LVL82:
 696:Drivers/STM32F7xx_HAL_Driver/Src/stm32f7xx_hal_rcc.c **** }
 1144              		.loc 1 696 1 view .LVU379
 1145 0406 7047     		bx	lr
 1146              	.LVL83:
 1147              	.L111:
 1148              	.LCFI4:
ARM GAS  D:\Dev\msys64\tmp\cckaQVt1.s 			page 37


 1149              		.cfi_def_cfa_offset 24
 1150              		.cfi_offset 4, -16
 1151              		.cfi_offset 5, -12
 1152              		.cfi_offset 6, -8
 1153              		.cfi_offset 14, -4
 370:Drivers/STM32F7xx_HAL_Driver/Src/stm32f7xx_hal_rcc.c ****       }
 1154              		.loc 1 370 16 view .LVU380
 1155 0408 0120     		movs	r0, #1
 1156              	.LVL84:
 370:Drivers/STM32F7xx_HAL_Driver/Src/stm32f7xx_hal_rcc.c ****       }
 1157              		.loc 1 370 16 view .LVU381
 1158 040a 02E0     		b	.L31
 1159              	.L86:
 423:Drivers/STM32F7xx_HAL_Driver/Src/stm32f7xx_hal_rcc.c ****       }
 1160              		.loc 1 423 16 view .LVU382
 1161 040c 0120     		movs	r0, #1
 1162 040e 00E0     		b	.L31
 1163              	.LVL85:
 1164              	.L95:
 695:Drivers/STM32F7xx_HAL_Driver/Src/stm32f7xx_hal_rcc.c **** }
 1165              		.loc 1 695 10 view .LVU383
 1166 0410 0020     		movs	r0, #0
 1167              	.LVL86:
 1168              	.L31:
 1169              		.loc 1 696 1 view .LVU384
 1170 0412 02B0     		add	sp, sp, #8
 1171              	.LCFI5:
 1172              		.cfi_remember_state
 1173              		.cfi_def_cfa_offset 16
 1174              		@ sp needed
 1175 0414 70BD     		pop	{r4, r5, r6, pc}
 1176              	.LVL87:
 1177              	.L99:
 1178              	.LCFI6:
 1179              		.cfi_restore_state
 691:Drivers/STM32F7xx_HAL_Driver/Src/stm32f7xx_hal_rcc.c ****       }
 1180              		.loc 1 691 16 view .LVU385
 1181 0416 0120     		movs	r0, #1
 1182 0418 FBE7     		b	.L31
 1183              	.L100:
 691:Drivers/STM32F7xx_HAL_Driver/Src/stm32f7xx_hal_rcc.c ****       }
 1184              		.loc 1 691 16 view .LVU386
 1185 041a 0120     		movs	r0, #1
 1186 041c F9E7     		b	.L31
 1187              	.L101:
 1188 041e 0120     		movs	r0, #1
 1189 0420 F7E7     		b	.L31
 1190              	.L102:
 1191 0422 0120     		movs	r0, #1
 1192 0424 F5E7     		b	.L31
 1193              	.L103:
 1194 0426 0120     		movs	r0, #1
 1195 0428 F3E7     		b	.L31
 1196              	.LVL88:
 1197              	.L104:
 691:Drivers/STM32F7xx_HAL_Driver/Src/stm32f7xx_hal_rcc.c ****       }
 1198              		.loc 1 691 16 view .LVU387
ARM GAS  D:\Dev\msys64\tmp\cckaQVt1.s 			page 38


 1199 042a 0120     		movs	r0, #1
 1200 042c F1E7     		b	.L31
 1201              	.L126:
 1202 042e 00BF     		.align	2
 1203              	.L125:
 1204 0430 00380240 		.word	1073887232
 1205              		.cfi_endproc
 1206              	.LFE142:
 1208              		.section	.text.HAL_RCC_MCOConfig,"ax",%progbits
 1209              		.align	1
 1210              		.global	HAL_RCC_MCOConfig
 1211              		.syntax unified
 1212              		.thumb
 1213              		.thumb_func
 1214              		.fpu fpv5-sp-d16
 1216              	HAL_RCC_MCOConfig:
 1217              	.LVL89:
 1218              	.LFB144:
 697:Drivers/STM32F7xx_HAL_Driver/Src/stm32f7xx_hal_rcc.c **** 
 698:Drivers/STM32F7xx_HAL_Driver/Src/stm32f7xx_hal_rcc.c **** /**
 699:Drivers/STM32F7xx_HAL_Driver/Src/stm32f7xx_hal_rcc.c ****   * @brief  Initializes the CPU, AHB and APB busses clocks according to the specified
 700:Drivers/STM32F7xx_HAL_Driver/Src/stm32f7xx_hal_rcc.c ****   *         parameters in the RCC_ClkInitStruct.
 701:Drivers/STM32F7xx_HAL_Driver/Src/stm32f7xx_hal_rcc.c ****   * @param  RCC_ClkInitStruct pointer to an RCC_OscInitTypeDef structure that
 702:Drivers/STM32F7xx_HAL_Driver/Src/stm32f7xx_hal_rcc.c ****   *         contains the configuration information for the RCC peripheral.
 703:Drivers/STM32F7xx_HAL_Driver/Src/stm32f7xx_hal_rcc.c ****   * @param  FLatency FLASH Latency, this parameter depend on device selected
 704:Drivers/STM32F7xx_HAL_Driver/Src/stm32f7xx_hal_rcc.c ****   *
 705:Drivers/STM32F7xx_HAL_Driver/Src/stm32f7xx_hal_rcc.c ****   * @note   The SystemCoreClock CMSIS variable is used to store System Clock Frequency
 706:Drivers/STM32F7xx_HAL_Driver/Src/stm32f7xx_hal_rcc.c ****   *         and updated by HAL_RCC_GetHCLKFreq() function called within this function
 707:Drivers/STM32F7xx_HAL_Driver/Src/stm32f7xx_hal_rcc.c ****   *
 708:Drivers/STM32F7xx_HAL_Driver/Src/stm32f7xx_hal_rcc.c ****   * @note   The HSI is used (enabled by hardware) as system clock source after
 709:Drivers/STM32F7xx_HAL_Driver/Src/stm32f7xx_hal_rcc.c ****   *         startup from Reset, wake-up from STOP and STANDBY mode, or in case
 710:Drivers/STM32F7xx_HAL_Driver/Src/stm32f7xx_hal_rcc.c ****   *         of failure of the HSE used directly or indirectly as system clock
 711:Drivers/STM32F7xx_HAL_Driver/Src/stm32f7xx_hal_rcc.c ****   *         (if the Clock Security System CSS is enabled).
 712:Drivers/STM32F7xx_HAL_Driver/Src/stm32f7xx_hal_rcc.c ****   *
 713:Drivers/STM32F7xx_HAL_Driver/Src/stm32f7xx_hal_rcc.c ****   * @note   A switch from one clock source to another occurs only if the target
 714:Drivers/STM32F7xx_HAL_Driver/Src/stm32f7xx_hal_rcc.c ****   *         clock source is ready (clock stable after startup delay or PLL locked).
 715:Drivers/STM32F7xx_HAL_Driver/Src/stm32f7xx_hal_rcc.c ****   *         If a clock source which is not yet ready is selected, the switch will
 716:Drivers/STM32F7xx_HAL_Driver/Src/stm32f7xx_hal_rcc.c ****   *         occur when the clock source will be ready.
 717:Drivers/STM32F7xx_HAL_Driver/Src/stm32f7xx_hal_rcc.c ****   *         You can use HAL_RCC_GetClockConfig() function to know which clock is
 718:Drivers/STM32F7xx_HAL_Driver/Src/stm32f7xx_hal_rcc.c ****   *         currently used as system clock source.
 719:Drivers/STM32F7xx_HAL_Driver/Src/stm32f7xx_hal_rcc.c ****   * @note   Depending on the device voltage range, the software has to set correctly
 720:Drivers/STM32F7xx_HAL_Driver/Src/stm32f7xx_hal_rcc.c ****   *         HPRE[3:0] bits to ensure that HCLK not exceed the maximum allowed frequency
 721:Drivers/STM32F7xx_HAL_Driver/Src/stm32f7xx_hal_rcc.c ****   *         (for more details refer to section above "Initialization/de-initialization functions")
 722:Drivers/STM32F7xx_HAL_Driver/Src/stm32f7xx_hal_rcc.c ****   * @retval None
 723:Drivers/STM32F7xx_HAL_Driver/Src/stm32f7xx_hal_rcc.c ****   */
 724:Drivers/STM32F7xx_HAL_Driver/Src/stm32f7xx_hal_rcc.c **** HAL_StatusTypeDef HAL_RCC_ClockConfig(RCC_ClkInitTypeDef  *RCC_ClkInitStruct, uint32_t FLatency)
 725:Drivers/STM32F7xx_HAL_Driver/Src/stm32f7xx_hal_rcc.c **** {
 726:Drivers/STM32F7xx_HAL_Driver/Src/stm32f7xx_hal_rcc.c ****   uint32_t tickstart = 0;
 727:Drivers/STM32F7xx_HAL_Driver/Src/stm32f7xx_hal_rcc.c **** 
 728:Drivers/STM32F7xx_HAL_Driver/Src/stm32f7xx_hal_rcc.c ****   /* Check Null pointer */
 729:Drivers/STM32F7xx_HAL_Driver/Src/stm32f7xx_hal_rcc.c ****   if (RCC_ClkInitStruct == NULL)
 730:Drivers/STM32F7xx_HAL_Driver/Src/stm32f7xx_hal_rcc.c ****   {
 731:Drivers/STM32F7xx_HAL_Driver/Src/stm32f7xx_hal_rcc.c ****     return HAL_ERROR;
 732:Drivers/STM32F7xx_HAL_Driver/Src/stm32f7xx_hal_rcc.c ****   }
 733:Drivers/STM32F7xx_HAL_Driver/Src/stm32f7xx_hal_rcc.c **** 
 734:Drivers/STM32F7xx_HAL_Driver/Src/stm32f7xx_hal_rcc.c ****   /* Check the parameters */
 735:Drivers/STM32F7xx_HAL_Driver/Src/stm32f7xx_hal_rcc.c ****   assert_param(IS_RCC_CLOCKTYPE(RCC_ClkInitStruct->ClockType));
ARM GAS  D:\Dev\msys64\tmp\cckaQVt1.s 			page 39


 736:Drivers/STM32F7xx_HAL_Driver/Src/stm32f7xx_hal_rcc.c ****   assert_param(IS_FLASH_LATENCY(FLatency));
 737:Drivers/STM32F7xx_HAL_Driver/Src/stm32f7xx_hal_rcc.c **** 
 738:Drivers/STM32F7xx_HAL_Driver/Src/stm32f7xx_hal_rcc.c ****   /* To correctly read data from FLASH memory, the number of wait states (LATENCY)
 739:Drivers/STM32F7xx_HAL_Driver/Src/stm32f7xx_hal_rcc.c ****      must be correctly programmed according to the frequency of the CPU clock
 740:Drivers/STM32F7xx_HAL_Driver/Src/stm32f7xx_hal_rcc.c ****      (HCLK) and the supply voltage of the device. */
 741:Drivers/STM32F7xx_HAL_Driver/Src/stm32f7xx_hal_rcc.c **** 
 742:Drivers/STM32F7xx_HAL_Driver/Src/stm32f7xx_hal_rcc.c ****   /* Increasing the CPU frequency */
 743:Drivers/STM32F7xx_HAL_Driver/Src/stm32f7xx_hal_rcc.c ****   if (FLatency > __HAL_FLASH_GET_LATENCY())
 744:Drivers/STM32F7xx_HAL_Driver/Src/stm32f7xx_hal_rcc.c ****   {
 745:Drivers/STM32F7xx_HAL_Driver/Src/stm32f7xx_hal_rcc.c ****     /* Program the new number of wait states to the LATENCY bits in the FLASH_ACR register */
 746:Drivers/STM32F7xx_HAL_Driver/Src/stm32f7xx_hal_rcc.c ****     __HAL_FLASH_SET_LATENCY(FLatency);
 747:Drivers/STM32F7xx_HAL_Driver/Src/stm32f7xx_hal_rcc.c **** 
 748:Drivers/STM32F7xx_HAL_Driver/Src/stm32f7xx_hal_rcc.c ****     /* Check that the new number of wait states is taken into account to access the Flash
 749:Drivers/STM32F7xx_HAL_Driver/Src/stm32f7xx_hal_rcc.c ****     memory by reading the FLASH_ACR register */
 750:Drivers/STM32F7xx_HAL_Driver/Src/stm32f7xx_hal_rcc.c ****     if (__HAL_FLASH_GET_LATENCY() != FLatency)
 751:Drivers/STM32F7xx_HAL_Driver/Src/stm32f7xx_hal_rcc.c ****     {
 752:Drivers/STM32F7xx_HAL_Driver/Src/stm32f7xx_hal_rcc.c ****       return HAL_ERROR;
 753:Drivers/STM32F7xx_HAL_Driver/Src/stm32f7xx_hal_rcc.c ****     }
 754:Drivers/STM32F7xx_HAL_Driver/Src/stm32f7xx_hal_rcc.c ****   }
 755:Drivers/STM32F7xx_HAL_Driver/Src/stm32f7xx_hal_rcc.c **** 
 756:Drivers/STM32F7xx_HAL_Driver/Src/stm32f7xx_hal_rcc.c ****   /*-------------------------- HCLK Configuration --------------------------*/
 757:Drivers/STM32F7xx_HAL_Driver/Src/stm32f7xx_hal_rcc.c ****   if (((RCC_ClkInitStruct->ClockType) & RCC_CLOCKTYPE_HCLK) == RCC_CLOCKTYPE_HCLK)
 758:Drivers/STM32F7xx_HAL_Driver/Src/stm32f7xx_hal_rcc.c ****   {
 759:Drivers/STM32F7xx_HAL_Driver/Src/stm32f7xx_hal_rcc.c ****     /* Set the highest APBx dividers in order to ensure that we do not go through
 760:Drivers/STM32F7xx_HAL_Driver/Src/stm32f7xx_hal_rcc.c ****        a non-spec phase whatever we decrease or increase HCLK. */
 761:Drivers/STM32F7xx_HAL_Driver/Src/stm32f7xx_hal_rcc.c ****     if (((RCC_ClkInitStruct->ClockType) & RCC_CLOCKTYPE_PCLK1) == RCC_CLOCKTYPE_PCLK1)
 762:Drivers/STM32F7xx_HAL_Driver/Src/stm32f7xx_hal_rcc.c ****     {
 763:Drivers/STM32F7xx_HAL_Driver/Src/stm32f7xx_hal_rcc.c ****       MODIFY_REG(RCC->CFGR, RCC_CFGR_PPRE1, RCC_HCLK_DIV16);
 764:Drivers/STM32F7xx_HAL_Driver/Src/stm32f7xx_hal_rcc.c ****     }
 765:Drivers/STM32F7xx_HAL_Driver/Src/stm32f7xx_hal_rcc.c **** 
 766:Drivers/STM32F7xx_HAL_Driver/Src/stm32f7xx_hal_rcc.c ****     if (((RCC_ClkInitStruct->ClockType) & RCC_CLOCKTYPE_PCLK2) == RCC_CLOCKTYPE_PCLK2)
 767:Drivers/STM32F7xx_HAL_Driver/Src/stm32f7xx_hal_rcc.c ****     {
 768:Drivers/STM32F7xx_HAL_Driver/Src/stm32f7xx_hal_rcc.c ****       MODIFY_REG(RCC->CFGR, RCC_CFGR_PPRE2, (RCC_HCLK_DIV16 << 3));
 769:Drivers/STM32F7xx_HAL_Driver/Src/stm32f7xx_hal_rcc.c ****     }
 770:Drivers/STM32F7xx_HAL_Driver/Src/stm32f7xx_hal_rcc.c **** 
 771:Drivers/STM32F7xx_HAL_Driver/Src/stm32f7xx_hal_rcc.c ****     /* Set the new HCLK clock divider */
 772:Drivers/STM32F7xx_HAL_Driver/Src/stm32f7xx_hal_rcc.c ****     assert_param(IS_RCC_HCLK(RCC_ClkInitStruct->AHBCLKDivider));
 773:Drivers/STM32F7xx_HAL_Driver/Src/stm32f7xx_hal_rcc.c ****     MODIFY_REG(RCC->CFGR, RCC_CFGR_HPRE, RCC_ClkInitStruct->AHBCLKDivider);
 774:Drivers/STM32F7xx_HAL_Driver/Src/stm32f7xx_hal_rcc.c ****   }
 775:Drivers/STM32F7xx_HAL_Driver/Src/stm32f7xx_hal_rcc.c **** 
 776:Drivers/STM32F7xx_HAL_Driver/Src/stm32f7xx_hal_rcc.c ****   /*------------------------- SYSCLK Configuration ---------------------------*/
 777:Drivers/STM32F7xx_HAL_Driver/Src/stm32f7xx_hal_rcc.c ****   if (((RCC_ClkInitStruct->ClockType) & RCC_CLOCKTYPE_SYSCLK) == RCC_CLOCKTYPE_SYSCLK)
 778:Drivers/STM32F7xx_HAL_Driver/Src/stm32f7xx_hal_rcc.c ****   {
 779:Drivers/STM32F7xx_HAL_Driver/Src/stm32f7xx_hal_rcc.c ****     assert_param(IS_RCC_SYSCLKSOURCE(RCC_ClkInitStruct->SYSCLKSource));
 780:Drivers/STM32F7xx_HAL_Driver/Src/stm32f7xx_hal_rcc.c **** 
 781:Drivers/STM32F7xx_HAL_Driver/Src/stm32f7xx_hal_rcc.c ****     /* HSE is selected as System Clock Source */
 782:Drivers/STM32F7xx_HAL_Driver/Src/stm32f7xx_hal_rcc.c ****     if (RCC_ClkInitStruct->SYSCLKSource == RCC_SYSCLKSOURCE_HSE)
 783:Drivers/STM32F7xx_HAL_Driver/Src/stm32f7xx_hal_rcc.c ****     {
 784:Drivers/STM32F7xx_HAL_Driver/Src/stm32f7xx_hal_rcc.c ****       /* Check the HSE ready flag */
 785:Drivers/STM32F7xx_HAL_Driver/Src/stm32f7xx_hal_rcc.c ****       if (__HAL_RCC_GET_FLAG(RCC_FLAG_HSERDY) == RESET)
 786:Drivers/STM32F7xx_HAL_Driver/Src/stm32f7xx_hal_rcc.c ****       {
 787:Drivers/STM32F7xx_HAL_Driver/Src/stm32f7xx_hal_rcc.c ****         return HAL_ERROR;
 788:Drivers/STM32F7xx_HAL_Driver/Src/stm32f7xx_hal_rcc.c ****       }
 789:Drivers/STM32F7xx_HAL_Driver/Src/stm32f7xx_hal_rcc.c ****     }
 790:Drivers/STM32F7xx_HAL_Driver/Src/stm32f7xx_hal_rcc.c ****     /* PLL is selected as System Clock Source */
 791:Drivers/STM32F7xx_HAL_Driver/Src/stm32f7xx_hal_rcc.c ****     else if (RCC_ClkInitStruct->SYSCLKSource == RCC_SYSCLKSOURCE_PLLCLK)
 792:Drivers/STM32F7xx_HAL_Driver/Src/stm32f7xx_hal_rcc.c ****     {
ARM GAS  D:\Dev\msys64\tmp\cckaQVt1.s 			page 40


 793:Drivers/STM32F7xx_HAL_Driver/Src/stm32f7xx_hal_rcc.c ****       /* Check the PLL ready flag */
 794:Drivers/STM32F7xx_HAL_Driver/Src/stm32f7xx_hal_rcc.c ****       if (__HAL_RCC_GET_FLAG(RCC_FLAG_PLLRDY) == RESET)
 795:Drivers/STM32F7xx_HAL_Driver/Src/stm32f7xx_hal_rcc.c ****       {
 796:Drivers/STM32F7xx_HAL_Driver/Src/stm32f7xx_hal_rcc.c ****         return HAL_ERROR;
 797:Drivers/STM32F7xx_HAL_Driver/Src/stm32f7xx_hal_rcc.c ****       }
 798:Drivers/STM32F7xx_HAL_Driver/Src/stm32f7xx_hal_rcc.c ****     }
 799:Drivers/STM32F7xx_HAL_Driver/Src/stm32f7xx_hal_rcc.c ****     /* HSI is selected as System Clock Source */
 800:Drivers/STM32F7xx_HAL_Driver/Src/stm32f7xx_hal_rcc.c ****     else
 801:Drivers/STM32F7xx_HAL_Driver/Src/stm32f7xx_hal_rcc.c ****     {
 802:Drivers/STM32F7xx_HAL_Driver/Src/stm32f7xx_hal_rcc.c ****       /* Check the HSI ready flag */
 803:Drivers/STM32F7xx_HAL_Driver/Src/stm32f7xx_hal_rcc.c ****       if (__HAL_RCC_GET_FLAG(RCC_FLAG_HSIRDY) == RESET)
 804:Drivers/STM32F7xx_HAL_Driver/Src/stm32f7xx_hal_rcc.c ****       {
 805:Drivers/STM32F7xx_HAL_Driver/Src/stm32f7xx_hal_rcc.c ****         return HAL_ERROR;
 806:Drivers/STM32F7xx_HAL_Driver/Src/stm32f7xx_hal_rcc.c ****       }
 807:Drivers/STM32F7xx_HAL_Driver/Src/stm32f7xx_hal_rcc.c ****     }
 808:Drivers/STM32F7xx_HAL_Driver/Src/stm32f7xx_hal_rcc.c **** 
 809:Drivers/STM32F7xx_HAL_Driver/Src/stm32f7xx_hal_rcc.c ****     __HAL_RCC_SYSCLK_CONFIG(RCC_ClkInitStruct->SYSCLKSource);
 810:Drivers/STM32F7xx_HAL_Driver/Src/stm32f7xx_hal_rcc.c **** 
 811:Drivers/STM32F7xx_HAL_Driver/Src/stm32f7xx_hal_rcc.c ****     /* Get Start Tick*/
 812:Drivers/STM32F7xx_HAL_Driver/Src/stm32f7xx_hal_rcc.c ****     tickstart = HAL_GetTick();
 813:Drivers/STM32F7xx_HAL_Driver/Src/stm32f7xx_hal_rcc.c **** 
 814:Drivers/STM32F7xx_HAL_Driver/Src/stm32f7xx_hal_rcc.c ****     while (__HAL_RCC_GET_SYSCLK_SOURCE() != (RCC_ClkInitStruct->SYSCLKSource << RCC_CFGR_SWS_Pos))
 815:Drivers/STM32F7xx_HAL_Driver/Src/stm32f7xx_hal_rcc.c ****     {
 816:Drivers/STM32F7xx_HAL_Driver/Src/stm32f7xx_hal_rcc.c ****       if ((HAL_GetTick() - tickstart) > CLOCKSWITCH_TIMEOUT_VALUE)
 817:Drivers/STM32F7xx_HAL_Driver/Src/stm32f7xx_hal_rcc.c ****       {
 818:Drivers/STM32F7xx_HAL_Driver/Src/stm32f7xx_hal_rcc.c ****         return HAL_TIMEOUT;
 819:Drivers/STM32F7xx_HAL_Driver/Src/stm32f7xx_hal_rcc.c ****       }
 820:Drivers/STM32F7xx_HAL_Driver/Src/stm32f7xx_hal_rcc.c ****     }
 821:Drivers/STM32F7xx_HAL_Driver/Src/stm32f7xx_hal_rcc.c ****   }
 822:Drivers/STM32F7xx_HAL_Driver/Src/stm32f7xx_hal_rcc.c **** 
 823:Drivers/STM32F7xx_HAL_Driver/Src/stm32f7xx_hal_rcc.c ****   /* Decreasing the number of wait states because of lower CPU frequency */
 824:Drivers/STM32F7xx_HAL_Driver/Src/stm32f7xx_hal_rcc.c ****   if (FLatency < __HAL_FLASH_GET_LATENCY())
 825:Drivers/STM32F7xx_HAL_Driver/Src/stm32f7xx_hal_rcc.c ****   {
 826:Drivers/STM32F7xx_HAL_Driver/Src/stm32f7xx_hal_rcc.c ****     /* Program the new number of wait states to the LATENCY bits in the FLASH_ACR register */
 827:Drivers/STM32F7xx_HAL_Driver/Src/stm32f7xx_hal_rcc.c ****     __HAL_FLASH_SET_LATENCY(FLatency);
 828:Drivers/STM32F7xx_HAL_Driver/Src/stm32f7xx_hal_rcc.c **** 
 829:Drivers/STM32F7xx_HAL_Driver/Src/stm32f7xx_hal_rcc.c ****     /* Check that the new number of wait states is taken into account to access the Flash
 830:Drivers/STM32F7xx_HAL_Driver/Src/stm32f7xx_hal_rcc.c ****     memory by reading the FLASH_ACR register */
 831:Drivers/STM32F7xx_HAL_Driver/Src/stm32f7xx_hal_rcc.c ****     if (__HAL_FLASH_GET_LATENCY() != FLatency)
 832:Drivers/STM32F7xx_HAL_Driver/Src/stm32f7xx_hal_rcc.c ****     {
 833:Drivers/STM32F7xx_HAL_Driver/Src/stm32f7xx_hal_rcc.c ****       return HAL_ERROR;
 834:Drivers/STM32F7xx_HAL_Driver/Src/stm32f7xx_hal_rcc.c ****     }
 835:Drivers/STM32F7xx_HAL_Driver/Src/stm32f7xx_hal_rcc.c ****   }
 836:Drivers/STM32F7xx_HAL_Driver/Src/stm32f7xx_hal_rcc.c **** 
 837:Drivers/STM32F7xx_HAL_Driver/Src/stm32f7xx_hal_rcc.c ****   /*-------------------------- PCLK1 Configuration ---------------------------*/
 838:Drivers/STM32F7xx_HAL_Driver/Src/stm32f7xx_hal_rcc.c ****   if (((RCC_ClkInitStruct->ClockType) & RCC_CLOCKTYPE_PCLK1) == RCC_CLOCKTYPE_PCLK1)
 839:Drivers/STM32F7xx_HAL_Driver/Src/stm32f7xx_hal_rcc.c ****   {
 840:Drivers/STM32F7xx_HAL_Driver/Src/stm32f7xx_hal_rcc.c ****     assert_param(IS_RCC_PCLK(RCC_ClkInitStruct->APB1CLKDivider));
 841:Drivers/STM32F7xx_HAL_Driver/Src/stm32f7xx_hal_rcc.c ****     MODIFY_REG(RCC->CFGR, RCC_CFGR_PPRE1, RCC_ClkInitStruct->APB1CLKDivider);
 842:Drivers/STM32F7xx_HAL_Driver/Src/stm32f7xx_hal_rcc.c ****   }
 843:Drivers/STM32F7xx_HAL_Driver/Src/stm32f7xx_hal_rcc.c **** 
 844:Drivers/STM32F7xx_HAL_Driver/Src/stm32f7xx_hal_rcc.c ****   /*-------------------------- PCLK2 Configuration ---------------------------*/
 845:Drivers/STM32F7xx_HAL_Driver/Src/stm32f7xx_hal_rcc.c ****   if (((RCC_ClkInitStruct->ClockType) & RCC_CLOCKTYPE_PCLK2) == RCC_CLOCKTYPE_PCLK2)
 846:Drivers/STM32F7xx_HAL_Driver/Src/stm32f7xx_hal_rcc.c ****   {
 847:Drivers/STM32F7xx_HAL_Driver/Src/stm32f7xx_hal_rcc.c ****     assert_param(IS_RCC_PCLK(RCC_ClkInitStruct->APB2CLKDivider));
 848:Drivers/STM32F7xx_HAL_Driver/Src/stm32f7xx_hal_rcc.c ****     MODIFY_REG(RCC->CFGR, RCC_CFGR_PPRE2, ((RCC_ClkInitStruct->APB2CLKDivider) << 3));
 849:Drivers/STM32F7xx_HAL_Driver/Src/stm32f7xx_hal_rcc.c ****   }
ARM GAS  D:\Dev\msys64\tmp\cckaQVt1.s 			page 41


 850:Drivers/STM32F7xx_HAL_Driver/Src/stm32f7xx_hal_rcc.c **** 
 851:Drivers/STM32F7xx_HAL_Driver/Src/stm32f7xx_hal_rcc.c ****   /* Update the SystemCoreClock global variable */
 852:Drivers/STM32F7xx_HAL_Driver/Src/stm32f7xx_hal_rcc.c ****   SystemCoreClock = HAL_RCC_GetSysClockFreq() >> AHBPrescTable[(RCC->CFGR & RCC_CFGR_HPRE) >> RCC_C
 853:Drivers/STM32F7xx_HAL_Driver/Src/stm32f7xx_hal_rcc.c **** 
 854:Drivers/STM32F7xx_HAL_Driver/Src/stm32f7xx_hal_rcc.c ****   /* Configure the source of time base considering new system clocks settings*/
 855:Drivers/STM32F7xx_HAL_Driver/Src/stm32f7xx_hal_rcc.c ****   HAL_InitTick(uwTickPrio);
 856:Drivers/STM32F7xx_HAL_Driver/Src/stm32f7xx_hal_rcc.c **** 
 857:Drivers/STM32F7xx_HAL_Driver/Src/stm32f7xx_hal_rcc.c ****   return HAL_OK;
 858:Drivers/STM32F7xx_HAL_Driver/Src/stm32f7xx_hal_rcc.c **** }
 859:Drivers/STM32F7xx_HAL_Driver/Src/stm32f7xx_hal_rcc.c **** 
 860:Drivers/STM32F7xx_HAL_Driver/Src/stm32f7xx_hal_rcc.c **** /**
 861:Drivers/STM32F7xx_HAL_Driver/Src/stm32f7xx_hal_rcc.c ****   * @}
 862:Drivers/STM32F7xx_HAL_Driver/Src/stm32f7xx_hal_rcc.c ****   */
 863:Drivers/STM32F7xx_HAL_Driver/Src/stm32f7xx_hal_rcc.c **** 
 864:Drivers/STM32F7xx_HAL_Driver/Src/stm32f7xx_hal_rcc.c **** /** @defgroup RCC_Exported_Functions_Group2 Peripheral Control functions
 865:Drivers/STM32F7xx_HAL_Driver/Src/stm32f7xx_hal_rcc.c ****   *  @brief   RCC clocks control functions
 866:Drivers/STM32F7xx_HAL_Driver/Src/stm32f7xx_hal_rcc.c ****   *
 867:Drivers/STM32F7xx_HAL_Driver/Src/stm32f7xx_hal_rcc.c ****   @verbatim
 868:Drivers/STM32F7xx_HAL_Driver/Src/stm32f7xx_hal_rcc.c ****   ===============================================================================
 869:Drivers/STM32F7xx_HAL_Driver/Src/stm32f7xx_hal_rcc.c ****                   ##### Peripheral Control functions #####
 870:Drivers/STM32F7xx_HAL_Driver/Src/stm32f7xx_hal_rcc.c ****   ===============================================================================
 871:Drivers/STM32F7xx_HAL_Driver/Src/stm32f7xx_hal_rcc.c ****     [..]
 872:Drivers/STM32F7xx_HAL_Driver/Src/stm32f7xx_hal_rcc.c ****     This subsection provides a set of functions allowing to control the RCC Clocks
 873:Drivers/STM32F7xx_HAL_Driver/Src/stm32f7xx_hal_rcc.c ****     frequencies.
 874:Drivers/STM32F7xx_HAL_Driver/Src/stm32f7xx_hal_rcc.c **** 
 875:Drivers/STM32F7xx_HAL_Driver/Src/stm32f7xx_hal_rcc.c **** @endverbatim
 876:Drivers/STM32F7xx_HAL_Driver/Src/stm32f7xx_hal_rcc.c ****   * @{
 877:Drivers/STM32F7xx_HAL_Driver/Src/stm32f7xx_hal_rcc.c ****   */
 878:Drivers/STM32F7xx_HAL_Driver/Src/stm32f7xx_hal_rcc.c **** 
 879:Drivers/STM32F7xx_HAL_Driver/Src/stm32f7xx_hal_rcc.c **** /**
 880:Drivers/STM32F7xx_HAL_Driver/Src/stm32f7xx_hal_rcc.c ****   * @brief  Selects the clock source to output on MCO1 pin(PA8) or on MCO2 pin(PC9).
 881:Drivers/STM32F7xx_HAL_Driver/Src/stm32f7xx_hal_rcc.c ****   * @note   PA8/PC9 should be configured in alternate function mode.
 882:Drivers/STM32F7xx_HAL_Driver/Src/stm32f7xx_hal_rcc.c ****   * @param  RCC_MCOx specifies the output direction for the clock source.
 883:Drivers/STM32F7xx_HAL_Driver/Src/stm32f7xx_hal_rcc.c ****   *          This parameter can be one of the following values:
 884:Drivers/STM32F7xx_HAL_Driver/Src/stm32f7xx_hal_rcc.c ****   *            @arg RCC_MCO1: Clock source to output on MCO1 pin(PA8).
 885:Drivers/STM32F7xx_HAL_Driver/Src/stm32f7xx_hal_rcc.c ****   *            @arg RCC_MCO2: Clock source to output on MCO2 pin(PC9).
 886:Drivers/STM32F7xx_HAL_Driver/Src/stm32f7xx_hal_rcc.c ****   * @param  RCC_MCOSource specifies the clock source to output.
 887:Drivers/STM32F7xx_HAL_Driver/Src/stm32f7xx_hal_rcc.c ****   *          This parameter can be one of the following values:
 888:Drivers/STM32F7xx_HAL_Driver/Src/stm32f7xx_hal_rcc.c ****   *            @arg RCC_MCO1SOURCE_HSI: HSI clock selected as MCO1 source
 889:Drivers/STM32F7xx_HAL_Driver/Src/stm32f7xx_hal_rcc.c ****   *            @arg RCC_MCO1SOURCE_LSE: LSE clock selected as MCO1 source
 890:Drivers/STM32F7xx_HAL_Driver/Src/stm32f7xx_hal_rcc.c ****   *            @arg RCC_MCO1SOURCE_HSE: HSE clock selected as MCO1 source
 891:Drivers/STM32F7xx_HAL_Driver/Src/stm32f7xx_hal_rcc.c ****   *            @arg RCC_MCO1SOURCE_PLLCLK: main PLL clock selected as MCO1 source
 892:Drivers/STM32F7xx_HAL_Driver/Src/stm32f7xx_hal_rcc.c ****   *            @arg RCC_MCO2SOURCE_SYSCLK: System clock (SYSCLK) selected as MCO2 source
 893:Drivers/STM32F7xx_HAL_Driver/Src/stm32f7xx_hal_rcc.c ****   *            @arg RCC_MCO2SOURCE_PLLI2SCLK: PLLI2S clock selected as MCO2 source
 894:Drivers/STM32F7xx_HAL_Driver/Src/stm32f7xx_hal_rcc.c ****   *            @arg RCC_MCO2SOURCE_HSE: HSE clock selected as MCO2 source
 895:Drivers/STM32F7xx_HAL_Driver/Src/stm32f7xx_hal_rcc.c ****   *            @arg RCC_MCO2SOURCE_PLLCLK: main PLL clock selected as MCO2 source
 896:Drivers/STM32F7xx_HAL_Driver/Src/stm32f7xx_hal_rcc.c ****   * @param  RCC_MCODiv specifies the MCOx prescaler.
 897:Drivers/STM32F7xx_HAL_Driver/Src/stm32f7xx_hal_rcc.c ****   *          This parameter can be one of the following values:
 898:Drivers/STM32F7xx_HAL_Driver/Src/stm32f7xx_hal_rcc.c ****   *            @arg RCC_MCODIV_1: no division applied to MCOx clock
 899:Drivers/STM32F7xx_HAL_Driver/Src/stm32f7xx_hal_rcc.c ****   *            @arg RCC_MCODIV_2: division by 2 applied to MCOx clock
 900:Drivers/STM32F7xx_HAL_Driver/Src/stm32f7xx_hal_rcc.c ****   *            @arg RCC_MCODIV_3: division by 3 applied to MCOx clock
 901:Drivers/STM32F7xx_HAL_Driver/Src/stm32f7xx_hal_rcc.c ****   *            @arg RCC_MCODIV_4: division by 4 applied to MCOx clock
 902:Drivers/STM32F7xx_HAL_Driver/Src/stm32f7xx_hal_rcc.c ****   *            @arg RCC_MCODIV_5: division by 5 applied to MCOx clock
 903:Drivers/STM32F7xx_HAL_Driver/Src/stm32f7xx_hal_rcc.c ****   * @retval None
 904:Drivers/STM32F7xx_HAL_Driver/Src/stm32f7xx_hal_rcc.c ****   */
 905:Drivers/STM32F7xx_HAL_Driver/Src/stm32f7xx_hal_rcc.c **** void HAL_RCC_MCOConfig(uint32_t RCC_MCOx, uint32_t RCC_MCOSource, uint32_t RCC_MCODiv)
 906:Drivers/STM32F7xx_HAL_Driver/Src/stm32f7xx_hal_rcc.c **** {
ARM GAS  D:\Dev\msys64\tmp\cckaQVt1.s 			page 42


 1219              		.loc 1 906 1 is_stmt 1 view -0
 1220              		.cfi_startproc
 1221              		@ args = 0, pretend = 0, frame = 32
 1222              		@ frame_needed = 0, uses_anonymous_args = 0
 1223              		.loc 1 906 1 is_stmt 0 view .LVU389
 1224 0000 70B5     		push	{r4, r5, r6, lr}
 1225              	.LCFI7:
 1226              		.cfi_def_cfa_offset 16
 1227              		.cfi_offset 4, -16
 1228              		.cfi_offset 5, -12
 1229              		.cfi_offset 6, -8
 1230              		.cfi_offset 14, -4
 1231 0002 88B0     		sub	sp, sp, #32
 1232              	.LCFI8:
 1233              		.cfi_def_cfa_offset 48
 1234 0004 0C46     		mov	r4, r1
 1235 0006 1546     		mov	r5, r2
 907:Drivers/STM32F7xx_HAL_Driver/Src/stm32f7xx_hal_rcc.c ****   GPIO_InitTypeDef GPIO_InitStruct;
 1236              		.loc 1 907 3 is_stmt 1 view .LVU390
 908:Drivers/STM32F7xx_HAL_Driver/Src/stm32f7xx_hal_rcc.c ****   /* Check the parameters */
 909:Drivers/STM32F7xx_HAL_Driver/Src/stm32f7xx_hal_rcc.c ****   assert_param(IS_RCC_MCO(RCC_MCOx));
 1237              		.loc 1 909 3 view .LVU391
 910:Drivers/STM32F7xx_HAL_Driver/Src/stm32f7xx_hal_rcc.c ****   assert_param(IS_RCC_MCODIV(RCC_MCODiv));
 1238              		.loc 1 910 3 view .LVU392
 911:Drivers/STM32F7xx_HAL_Driver/Src/stm32f7xx_hal_rcc.c ****   /* RCC_MCO1 */
 912:Drivers/STM32F7xx_HAL_Driver/Src/stm32f7xx_hal_rcc.c ****   if (RCC_MCOx == RCC_MCO1)
 1239              		.loc 1 912 3 view .LVU393
 1240              		.loc 1 912 6 is_stmt 0 view .LVU394
 1241 0008 F8B9     		cbnz	r0, .L128
 913:Drivers/STM32F7xx_HAL_Driver/Src/stm32f7xx_hal_rcc.c ****   {
 914:Drivers/STM32F7xx_HAL_Driver/Src/stm32f7xx_hal_rcc.c ****     assert_param(IS_RCC_MCO1SOURCE(RCC_MCOSource));
 1242              		.loc 1 914 5 is_stmt 1 view .LVU395
 915:Drivers/STM32F7xx_HAL_Driver/Src/stm32f7xx_hal_rcc.c **** 
 916:Drivers/STM32F7xx_HAL_Driver/Src/stm32f7xx_hal_rcc.c ****     /* MCO1 Clock Enable */
 917:Drivers/STM32F7xx_HAL_Driver/Src/stm32f7xx_hal_rcc.c ****     MCO1_CLK_ENABLE();
 1243              		.loc 1 917 5 view .LVU396
 1244              	.LBB3:
 1245              		.loc 1 917 5 view .LVU397
 1246              		.loc 1 917 5 view .LVU398
 1247 000a 204E     		ldr	r6, .L131
 1248 000c 336B     		ldr	r3, [r6, #48]
 1249 000e 43F00103 		orr	r3, r3, #1
 1250 0012 3363     		str	r3, [r6, #48]
 1251              		.loc 1 917 5 view .LVU399
 1252 0014 336B     		ldr	r3, [r6, #48]
 1253 0016 03F00103 		and	r3, r3, #1
 1254 001a 0193     		str	r3, [sp, #4]
 1255              		.loc 1 917 5 view .LVU400
 1256 001c 019B     		ldr	r3, [sp, #4]
 1257              	.LBE3:
 1258              		.loc 1 917 5 view .LVU401
 918:Drivers/STM32F7xx_HAL_Driver/Src/stm32f7xx_hal_rcc.c **** 
 919:Drivers/STM32F7xx_HAL_Driver/Src/stm32f7xx_hal_rcc.c ****     /* Configure the MCO1 pin in alternate function mode */
 920:Drivers/STM32F7xx_HAL_Driver/Src/stm32f7xx_hal_rcc.c ****     GPIO_InitStruct.Pin = MCO1_PIN;
 1259              		.loc 1 920 5 view .LVU402
 1260              		.loc 1 920 25 is_stmt 0 view .LVU403
 1261 001e 4FF48073 		mov	r3, #256
ARM GAS  D:\Dev\msys64\tmp\cckaQVt1.s 			page 43


 1262 0022 0393     		str	r3, [sp, #12]
 921:Drivers/STM32F7xx_HAL_Driver/Src/stm32f7xx_hal_rcc.c ****     GPIO_InitStruct.Mode = GPIO_MODE_AF_PP;
 1263              		.loc 1 921 5 is_stmt 1 view .LVU404
 1264              		.loc 1 921 26 is_stmt 0 view .LVU405
 1265 0024 0223     		movs	r3, #2
 1266 0026 0493     		str	r3, [sp, #16]
 922:Drivers/STM32F7xx_HAL_Driver/Src/stm32f7xx_hal_rcc.c ****     GPIO_InitStruct.Speed = GPIO_SPEED_HIGH;
 1267              		.loc 1 922 5 is_stmt 1 view .LVU406
 1268              		.loc 1 922 27 is_stmt 0 view .LVU407
 1269 0028 0323     		movs	r3, #3
 1270 002a 0693     		str	r3, [sp, #24]
 923:Drivers/STM32F7xx_HAL_Driver/Src/stm32f7xx_hal_rcc.c ****     GPIO_InitStruct.Pull = GPIO_NOPULL;
 1271              		.loc 1 923 5 is_stmt 1 view .LVU408
 1272              		.loc 1 923 26 is_stmt 0 view .LVU409
 1273 002c 0023     		movs	r3, #0
 1274 002e 0593     		str	r3, [sp, #20]
 924:Drivers/STM32F7xx_HAL_Driver/Src/stm32f7xx_hal_rcc.c ****     GPIO_InitStruct.Alternate = GPIO_AF0_MCO;
 1275              		.loc 1 924 5 is_stmt 1 view .LVU410
 1276              		.loc 1 924 31 is_stmt 0 view .LVU411
 1277 0030 0793     		str	r3, [sp, #28]
 925:Drivers/STM32F7xx_HAL_Driver/Src/stm32f7xx_hal_rcc.c ****     HAL_GPIO_Init(MCO1_GPIO_PORT, &GPIO_InitStruct);
 1278              		.loc 1 925 5 is_stmt 1 view .LVU412
 1279 0032 03A9     		add	r1, sp, #12
 1280              	.LVL90:
 1281              		.loc 1 925 5 is_stmt 0 view .LVU413
 1282 0034 1648     		ldr	r0, .L131+4
 1283              	.LVL91:
 1284              		.loc 1 925 5 view .LVU414
 1285 0036 FFF7FEFF 		bl	HAL_GPIO_Init
 1286              	.LVL92:
 926:Drivers/STM32F7xx_HAL_Driver/Src/stm32f7xx_hal_rcc.c **** 
 927:Drivers/STM32F7xx_HAL_Driver/Src/stm32f7xx_hal_rcc.c ****     /* Mask MCO1 and MCO1PRE[2:0] bits then Select MCO1 clock source and prescaler */
 928:Drivers/STM32F7xx_HAL_Driver/Src/stm32f7xx_hal_rcc.c ****     MODIFY_REG(RCC->CFGR, (RCC_CFGR_MCO1 | RCC_CFGR_MCO1PRE), (RCC_MCOSource | RCC_MCODiv));
 1287              		.loc 1 928 5 is_stmt 1 view .LVU415
 1288 003a B368     		ldr	r3, [r6, #8]
 1289 003c 23F0EC63 		bic	r3, r3, #123731968
 1290 0040 2C43     		orrs	r4, r4, r5
 1291              	.LVL93:
 1292              		.loc 1 928 5 is_stmt 0 view .LVU416
 1293 0042 1C43     		orrs	r4, r4, r3
 1294 0044 B460     		str	r4, [r6, #8]
 1295              	.L127:
 929:Drivers/STM32F7xx_HAL_Driver/Src/stm32f7xx_hal_rcc.c ****   }
 930:Drivers/STM32F7xx_HAL_Driver/Src/stm32f7xx_hal_rcc.c ****   else
 931:Drivers/STM32F7xx_HAL_Driver/Src/stm32f7xx_hal_rcc.c ****   {
 932:Drivers/STM32F7xx_HAL_Driver/Src/stm32f7xx_hal_rcc.c ****     assert_param(IS_RCC_MCO2SOURCE(RCC_MCOSource));
 933:Drivers/STM32F7xx_HAL_Driver/Src/stm32f7xx_hal_rcc.c **** 
 934:Drivers/STM32F7xx_HAL_Driver/Src/stm32f7xx_hal_rcc.c ****     /* MCO2 Clock Enable */
 935:Drivers/STM32F7xx_HAL_Driver/Src/stm32f7xx_hal_rcc.c ****     MCO2_CLK_ENABLE();
 936:Drivers/STM32F7xx_HAL_Driver/Src/stm32f7xx_hal_rcc.c **** 
 937:Drivers/STM32F7xx_HAL_Driver/Src/stm32f7xx_hal_rcc.c ****     /* Configure the MCO2 pin in alternate function mode */
 938:Drivers/STM32F7xx_HAL_Driver/Src/stm32f7xx_hal_rcc.c ****     GPIO_InitStruct.Pin = MCO2_PIN;
 939:Drivers/STM32F7xx_HAL_Driver/Src/stm32f7xx_hal_rcc.c ****     GPIO_InitStruct.Mode = GPIO_MODE_AF_PP;
 940:Drivers/STM32F7xx_HAL_Driver/Src/stm32f7xx_hal_rcc.c ****     GPIO_InitStruct.Speed = GPIO_SPEED_HIGH;
 941:Drivers/STM32F7xx_HAL_Driver/Src/stm32f7xx_hal_rcc.c ****     GPIO_InitStruct.Pull = GPIO_NOPULL;
 942:Drivers/STM32F7xx_HAL_Driver/Src/stm32f7xx_hal_rcc.c ****     GPIO_InitStruct.Alternate = GPIO_AF0_MCO;
 943:Drivers/STM32F7xx_HAL_Driver/Src/stm32f7xx_hal_rcc.c ****     HAL_GPIO_Init(MCO2_GPIO_PORT, &GPIO_InitStruct);
ARM GAS  D:\Dev\msys64\tmp\cckaQVt1.s 			page 44


 944:Drivers/STM32F7xx_HAL_Driver/Src/stm32f7xx_hal_rcc.c **** 
 945:Drivers/STM32F7xx_HAL_Driver/Src/stm32f7xx_hal_rcc.c ****     /* Mask MCO2 and MCO2PRE[2:0] bits then Select MCO2 clock source and prescaler */
 946:Drivers/STM32F7xx_HAL_Driver/Src/stm32f7xx_hal_rcc.c ****     MODIFY_REG(RCC->CFGR, (RCC_CFGR_MCO2 | RCC_CFGR_MCO2PRE), (RCC_MCOSource | (RCC_MCODiv << 3)));
 947:Drivers/STM32F7xx_HAL_Driver/Src/stm32f7xx_hal_rcc.c ****   }
 948:Drivers/STM32F7xx_HAL_Driver/Src/stm32f7xx_hal_rcc.c **** }
 1296              		.loc 1 948 1 view .LVU417
 1297 0046 08B0     		add	sp, sp, #32
 1298              	.LCFI9:
 1299              		.cfi_remember_state
 1300              		.cfi_def_cfa_offset 16
 1301              		@ sp needed
 1302 0048 70BD     		pop	{r4, r5, r6, pc}
 1303              	.LVL94:
 1304              	.L128:
 1305              	.LCFI10:
 1306              		.cfi_restore_state
 932:Drivers/STM32F7xx_HAL_Driver/Src/stm32f7xx_hal_rcc.c **** 
 1307              		.loc 1 932 5 is_stmt 1 view .LVU418
 935:Drivers/STM32F7xx_HAL_Driver/Src/stm32f7xx_hal_rcc.c **** 
 1308              		.loc 1 935 5 view .LVU419
 1309              	.LBB4:
 935:Drivers/STM32F7xx_HAL_Driver/Src/stm32f7xx_hal_rcc.c **** 
 1310              		.loc 1 935 5 view .LVU420
 935:Drivers/STM32F7xx_HAL_Driver/Src/stm32f7xx_hal_rcc.c **** 
 1311              		.loc 1 935 5 view .LVU421
 1312 004a 104E     		ldr	r6, .L131
 1313 004c 336B     		ldr	r3, [r6, #48]
 1314 004e 43F00403 		orr	r3, r3, #4
 1315 0052 3363     		str	r3, [r6, #48]
 935:Drivers/STM32F7xx_HAL_Driver/Src/stm32f7xx_hal_rcc.c **** 
 1316              		.loc 1 935 5 view .LVU422
 1317 0054 336B     		ldr	r3, [r6, #48]
 1318 0056 03F00403 		and	r3, r3, #4
 1319 005a 0293     		str	r3, [sp, #8]
 935:Drivers/STM32F7xx_HAL_Driver/Src/stm32f7xx_hal_rcc.c **** 
 1320              		.loc 1 935 5 view .LVU423
 1321 005c 029B     		ldr	r3, [sp, #8]
 1322              	.LBE4:
 935:Drivers/STM32F7xx_HAL_Driver/Src/stm32f7xx_hal_rcc.c **** 
 1323              		.loc 1 935 5 view .LVU424
 938:Drivers/STM32F7xx_HAL_Driver/Src/stm32f7xx_hal_rcc.c ****     GPIO_InitStruct.Mode = GPIO_MODE_AF_PP;
 1324              		.loc 1 938 5 view .LVU425
 938:Drivers/STM32F7xx_HAL_Driver/Src/stm32f7xx_hal_rcc.c ****     GPIO_InitStruct.Mode = GPIO_MODE_AF_PP;
 1325              		.loc 1 938 25 is_stmt 0 view .LVU426
 1326 005e 4FF40073 		mov	r3, #512
 1327 0062 0393     		str	r3, [sp, #12]
 939:Drivers/STM32F7xx_HAL_Driver/Src/stm32f7xx_hal_rcc.c ****     GPIO_InitStruct.Speed = GPIO_SPEED_HIGH;
 1328              		.loc 1 939 5 is_stmt 1 view .LVU427
 939:Drivers/STM32F7xx_HAL_Driver/Src/stm32f7xx_hal_rcc.c ****     GPIO_InitStruct.Speed = GPIO_SPEED_HIGH;
 1329              		.loc 1 939 26 is_stmt 0 view .LVU428
 1330 0064 0223     		movs	r3, #2
 1331 0066 0493     		str	r3, [sp, #16]
 940:Drivers/STM32F7xx_HAL_Driver/Src/stm32f7xx_hal_rcc.c ****     GPIO_InitStruct.Pull = GPIO_NOPULL;
 1332              		.loc 1 940 5 is_stmt 1 view .LVU429
 940:Drivers/STM32F7xx_HAL_Driver/Src/stm32f7xx_hal_rcc.c ****     GPIO_InitStruct.Pull = GPIO_NOPULL;
 1333              		.loc 1 940 27 is_stmt 0 view .LVU430
 1334 0068 0323     		movs	r3, #3
ARM GAS  D:\Dev\msys64\tmp\cckaQVt1.s 			page 45


 1335 006a 0693     		str	r3, [sp, #24]
 941:Drivers/STM32F7xx_HAL_Driver/Src/stm32f7xx_hal_rcc.c ****     GPIO_InitStruct.Alternate = GPIO_AF0_MCO;
 1336              		.loc 1 941 5 is_stmt 1 view .LVU431
 941:Drivers/STM32F7xx_HAL_Driver/Src/stm32f7xx_hal_rcc.c ****     GPIO_InitStruct.Alternate = GPIO_AF0_MCO;
 1337              		.loc 1 941 26 is_stmt 0 view .LVU432
 1338 006c 0023     		movs	r3, #0
 1339 006e 0593     		str	r3, [sp, #20]
 942:Drivers/STM32F7xx_HAL_Driver/Src/stm32f7xx_hal_rcc.c ****     HAL_GPIO_Init(MCO2_GPIO_PORT, &GPIO_InitStruct);
 1340              		.loc 1 942 5 is_stmt 1 view .LVU433
 942:Drivers/STM32F7xx_HAL_Driver/Src/stm32f7xx_hal_rcc.c ****     HAL_GPIO_Init(MCO2_GPIO_PORT, &GPIO_InitStruct);
 1341              		.loc 1 942 31 is_stmt 0 view .LVU434
 1342 0070 0793     		str	r3, [sp, #28]
 943:Drivers/STM32F7xx_HAL_Driver/Src/stm32f7xx_hal_rcc.c **** 
 1343              		.loc 1 943 5 is_stmt 1 view .LVU435
 1344 0072 03A9     		add	r1, sp, #12
 1345              	.LVL95:
 943:Drivers/STM32F7xx_HAL_Driver/Src/stm32f7xx_hal_rcc.c **** 
 1346              		.loc 1 943 5 is_stmt 0 view .LVU436
 1347 0074 0748     		ldr	r0, .L131+8
 1348              	.LVL96:
 943:Drivers/STM32F7xx_HAL_Driver/Src/stm32f7xx_hal_rcc.c **** 
 1349              		.loc 1 943 5 view .LVU437
 1350 0076 FFF7FEFF 		bl	HAL_GPIO_Init
 1351              	.LVL97:
 946:Drivers/STM32F7xx_HAL_Driver/Src/stm32f7xx_hal_rcc.c ****   }
 1352              		.loc 1 946 5 is_stmt 1 view .LVU438
 1353 007a B368     		ldr	r3, [r6, #8]
 1354 007c 23F07843 		bic	r3, r3, #-134217728
 1355 0080 44EAC504 		orr	r4, r4, r5, lsl #3
 1356              	.LVL98:
 946:Drivers/STM32F7xx_HAL_Driver/Src/stm32f7xx_hal_rcc.c ****   }
 1357              		.loc 1 946 5 is_stmt 0 view .LVU439
 1358 0084 1C43     		orrs	r4, r4, r3
 1359 0086 B460     		str	r4, [r6, #8]
 1360              		.loc 1 948 1 view .LVU440
 1361 0088 DDE7     		b	.L127
 1362              	.L132:
 1363 008a 00BF     		.align	2
 1364              	.L131:
 1365 008c 00380240 		.word	1073887232
 1366 0090 00000240 		.word	1073872896
 1367 0094 00080240 		.word	1073874944
 1368              		.cfi_endproc
 1369              	.LFE144:
 1371              		.section	.text.HAL_RCC_EnableCSS,"ax",%progbits
 1372              		.align	1
 1373              		.global	HAL_RCC_EnableCSS
 1374              		.syntax unified
 1375              		.thumb
 1376              		.thumb_func
 1377              		.fpu fpv5-sp-d16
 1379              	HAL_RCC_EnableCSS:
 1380              	.LFB145:
 949:Drivers/STM32F7xx_HAL_Driver/Src/stm32f7xx_hal_rcc.c **** 
 950:Drivers/STM32F7xx_HAL_Driver/Src/stm32f7xx_hal_rcc.c **** /**
 951:Drivers/STM32F7xx_HAL_Driver/Src/stm32f7xx_hal_rcc.c ****   * @brief  Enables the Clock Security System.
 952:Drivers/STM32F7xx_HAL_Driver/Src/stm32f7xx_hal_rcc.c ****   * @note   If a failure is detected on the HSE oscillator clock, this oscillator
ARM GAS  D:\Dev\msys64\tmp\cckaQVt1.s 			page 46


 953:Drivers/STM32F7xx_HAL_Driver/Src/stm32f7xx_hal_rcc.c ****   *         is automatically disabled and an interrupt is generated to inform the
 954:Drivers/STM32F7xx_HAL_Driver/Src/stm32f7xx_hal_rcc.c ****   *         software about the failure (Clock Security System Interrupt, CSSI),
 955:Drivers/STM32F7xx_HAL_Driver/Src/stm32f7xx_hal_rcc.c ****   *         allowing the MCU to perform rescue operations. The CSSI is linked to
 956:Drivers/STM32F7xx_HAL_Driver/Src/stm32f7xx_hal_rcc.c ****   *         the Cortex-M7 NMI (Non-Maskable Interrupt) exception vector.
 957:Drivers/STM32F7xx_HAL_Driver/Src/stm32f7xx_hal_rcc.c ****   * @retval None
 958:Drivers/STM32F7xx_HAL_Driver/Src/stm32f7xx_hal_rcc.c ****   */
 959:Drivers/STM32F7xx_HAL_Driver/Src/stm32f7xx_hal_rcc.c **** void HAL_RCC_EnableCSS(void)
 960:Drivers/STM32F7xx_HAL_Driver/Src/stm32f7xx_hal_rcc.c **** {
 1381              		.loc 1 960 1 is_stmt 1 view -0
 1382              		.cfi_startproc
 1383              		@ args = 0, pretend = 0, frame = 0
 1384              		@ frame_needed = 0, uses_anonymous_args = 0
 1385              		@ link register save eliminated.
 961:Drivers/STM32F7xx_HAL_Driver/Src/stm32f7xx_hal_rcc.c ****   SET_BIT(RCC->CR, RCC_CR_CSSON);
 1386              		.loc 1 961 3 view .LVU442
 1387 0000 024A     		ldr	r2, .L134
 1388 0002 1368     		ldr	r3, [r2]
 1389 0004 43F40023 		orr	r3, r3, #524288
 1390 0008 1360     		str	r3, [r2]
 962:Drivers/STM32F7xx_HAL_Driver/Src/stm32f7xx_hal_rcc.c **** }
 1391              		.loc 1 962 1 is_stmt 0 view .LVU443
 1392 000a 7047     		bx	lr
 1393              	.L135:
 1394              		.align	2
 1395              	.L134:
 1396 000c 00380240 		.word	1073887232
 1397              		.cfi_endproc
 1398              	.LFE145:
 1400              		.section	.text.HAL_RCC_DisableCSS,"ax",%progbits
 1401              		.align	1
 1402              		.global	HAL_RCC_DisableCSS
 1403              		.syntax unified
 1404              		.thumb
 1405              		.thumb_func
 1406              		.fpu fpv5-sp-d16
 1408              	HAL_RCC_DisableCSS:
 1409              	.LFB146:
 963:Drivers/STM32F7xx_HAL_Driver/Src/stm32f7xx_hal_rcc.c **** 
 964:Drivers/STM32F7xx_HAL_Driver/Src/stm32f7xx_hal_rcc.c **** /**
 965:Drivers/STM32F7xx_HAL_Driver/Src/stm32f7xx_hal_rcc.c ****   * @brief  Disables the Clock Security System.
 966:Drivers/STM32F7xx_HAL_Driver/Src/stm32f7xx_hal_rcc.c ****   * @retval None
 967:Drivers/STM32F7xx_HAL_Driver/Src/stm32f7xx_hal_rcc.c ****   */
 968:Drivers/STM32F7xx_HAL_Driver/Src/stm32f7xx_hal_rcc.c **** void HAL_RCC_DisableCSS(void)
 969:Drivers/STM32F7xx_HAL_Driver/Src/stm32f7xx_hal_rcc.c **** {
 1410              		.loc 1 969 1 is_stmt 1 view -0
 1411              		.cfi_startproc
 1412              		@ args = 0, pretend = 0, frame = 0
 1413              		@ frame_needed = 0, uses_anonymous_args = 0
 1414              		@ link register save eliminated.
 970:Drivers/STM32F7xx_HAL_Driver/Src/stm32f7xx_hal_rcc.c ****   CLEAR_BIT(RCC->CR, RCC_CR_CSSON);
 1415              		.loc 1 970 3 view .LVU445
 1416 0000 024A     		ldr	r2, .L137
 1417 0002 1368     		ldr	r3, [r2]
 1418 0004 23F40023 		bic	r3, r3, #524288
 1419 0008 1360     		str	r3, [r2]
 971:Drivers/STM32F7xx_HAL_Driver/Src/stm32f7xx_hal_rcc.c **** }
 1420              		.loc 1 971 1 is_stmt 0 view .LVU446
ARM GAS  D:\Dev\msys64\tmp\cckaQVt1.s 			page 47


 1421 000a 7047     		bx	lr
 1422              	.L138:
 1423              		.align	2
 1424              	.L137:
 1425 000c 00380240 		.word	1073887232
 1426              		.cfi_endproc
 1427              	.LFE146:
 1429              		.global	__aeabi_uldivmod
 1430              		.section	.text.HAL_RCC_GetSysClockFreq,"ax",%progbits
 1431              		.align	1
 1432              		.global	HAL_RCC_GetSysClockFreq
 1433              		.syntax unified
 1434              		.thumb
 1435              		.thumb_func
 1436              		.fpu fpv5-sp-d16
 1438              	HAL_RCC_GetSysClockFreq:
 1439              	.LFB147:
 972:Drivers/STM32F7xx_HAL_Driver/Src/stm32f7xx_hal_rcc.c **** 
 973:Drivers/STM32F7xx_HAL_Driver/Src/stm32f7xx_hal_rcc.c **** /**
 974:Drivers/STM32F7xx_HAL_Driver/Src/stm32f7xx_hal_rcc.c ****   * @brief  Returns the SYSCLK frequency
 975:Drivers/STM32F7xx_HAL_Driver/Src/stm32f7xx_hal_rcc.c ****   *
 976:Drivers/STM32F7xx_HAL_Driver/Src/stm32f7xx_hal_rcc.c ****   * @note   The system frequency computed by this function is not the real
 977:Drivers/STM32F7xx_HAL_Driver/Src/stm32f7xx_hal_rcc.c ****   *         frequency in the chip. It is calculated based on the predefined
 978:Drivers/STM32F7xx_HAL_Driver/Src/stm32f7xx_hal_rcc.c ****   *         constant and the selected clock source:
 979:Drivers/STM32F7xx_HAL_Driver/Src/stm32f7xx_hal_rcc.c ****   * @note     If SYSCLK source is HSI, function returns values based on HSI_VALUE(*)
 980:Drivers/STM32F7xx_HAL_Driver/Src/stm32f7xx_hal_rcc.c ****   * @note     If SYSCLK source is HSE, function returns values based on HSE_VALUE(**)
 981:Drivers/STM32F7xx_HAL_Driver/Src/stm32f7xx_hal_rcc.c ****   * @note     If SYSCLK source is PLL, function returns values based on HSE_VALUE(**)
 982:Drivers/STM32F7xx_HAL_Driver/Src/stm32f7xx_hal_rcc.c ****   *           or HSI_VALUE(*) multiplied/divided by the PLL factors.
 983:Drivers/STM32F7xx_HAL_Driver/Src/stm32f7xx_hal_rcc.c ****   * @note     (*) HSI_VALUE is a constant defined in stm32f7xx_hal_conf.h file (default value
 984:Drivers/STM32F7xx_HAL_Driver/Src/stm32f7xx_hal_rcc.c ****   *               16 MHz) but the real value may vary depending on the variations
 985:Drivers/STM32F7xx_HAL_Driver/Src/stm32f7xx_hal_rcc.c ****   *               in voltage and temperature.
 986:Drivers/STM32F7xx_HAL_Driver/Src/stm32f7xx_hal_rcc.c ****   * @note     (**) HSE_VALUE is a constant defined in stm32f7xx_hal_conf.h file (default value
 987:Drivers/STM32F7xx_HAL_Driver/Src/stm32f7xx_hal_rcc.c ****   *                25 MHz), user has to ensure that HSE_VALUE is same as the real
 988:Drivers/STM32F7xx_HAL_Driver/Src/stm32f7xx_hal_rcc.c ****   *                frequency of the crystal used. Otherwise, this function may
 989:Drivers/STM32F7xx_HAL_Driver/Src/stm32f7xx_hal_rcc.c ****   *                have wrong result.
 990:Drivers/STM32F7xx_HAL_Driver/Src/stm32f7xx_hal_rcc.c ****   *
 991:Drivers/STM32F7xx_HAL_Driver/Src/stm32f7xx_hal_rcc.c ****   * @note   The result of this function could be not correct when using fractional
 992:Drivers/STM32F7xx_HAL_Driver/Src/stm32f7xx_hal_rcc.c ****   *         value for HSE crystal.
 993:Drivers/STM32F7xx_HAL_Driver/Src/stm32f7xx_hal_rcc.c ****   *
 994:Drivers/STM32F7xx_HAL_Driver/Src/stm32f7xx_hal_rcc.c ****   * @note   This function can be used by the user application to compute the
 995:Drivers/STM32F7xx_HAL_Driver/Src/stm32f7xx_hal_rcc.c ****   *         baudrate for the communication peripherals or configure other parameters.
 996:Drivers/STM32F7xx_HAL_Driver/Src/stm32f7xx_hal_rcc.c ****   *
 997:Drivers/STM32F7xx_HAL_Driver/Src/stm32f7xx_hal_rcc.c ****   * @note   Each time SYSCLK changes, this function must be called to update the
 998:Drivers/STM32F7xx_HAL_Driver/Src/stm32f7xx_hal_rcc.c ****   *         right SYSCLK value. Otherwise, any configuration based on this function will be incorre
 999:Drivers/STM32F7xx_HAL_Driver/Src/stm32f7xx_hal_rcc.c ****   *
1000:Drivers/STM32F7xx_HAL_Driver/Src/stm32f7xx_hal_rcc.c ****   *
1001:Drivers/STM32F7xx_HAL_Driver/Src/stm32f7xx_hal_rcc.c ****   * @retval SYSCLK frequency
1002:Drivers/STM32F7xx_HAL_Driver/Src/stm32f7xx_hal_rcc.c ****   */
1003:Drivers/STM32F7xx_HAL_Driver/Src/stm32f7xx_hal_rcc.c **** uint32_t HAL_RCC_GetSysClockFreq(void)
1004:Drivers/STM32F7xx_HAL_Driver/Src/stm32f7xx_hal_rcc.c **** {
 1440              		.loc 1 1004 1 is_stmt 1 view -0
 1441              		.cfi_startproc
 1442              		@ args = 0, pretend = 0, frame = 0
 1443              		@ frame_needed = 0, uses_anonymous_args = 0
 1444 0000 F8B5     		push	{r3, r4, r5, r6, r7, lr}
 1445              	.LCFI11:
 1446              		.cfi_def_cfa_offset 24
ARM GAS  D:\Dev\msys64\tmp\cckaQVt1.s 			page 48


 1447              		.cfi_offset 3, -24
 1448              		.cfi_offset 4, -20
 1449              		.cfi_offset 5, -16
 1450              		.cfi_offset 6, -12
 1451              		.cfi_offset 7, -8
 1452              		.cfi_offset 14, -4
1005:Drivers/STM32F7xx_HAL_Driver/Src/stm32f7xx_hal_rcc.c ****   uint32_t pllm = 0, pllvco = 0, pllp = 0;
 1453              		.loc 1 1005 3 view .LVU448
 1454              	.LVL99:
1006:Drivers/STM32F7xx_HAL_Driver/Src/stm32f7xx_hal_rcc.c ****   uint32_t sysclockfreq = 0;
 1455              		.loc 1 1006 3 view .LVU449
1007:Drivers/STM32F7xx_HAL_Driver/Src/stm32f7xx_hal_rcc.c **** 
1008:Drivers/STM32F7xx_HAL_Driver/Src/stm32f7xx_hal_rcc.c ****   /* Get SYSCLK source -------------------------------------------------------*/
1009:Drivers/STM32F7xx_HAL_Driver/Src/stm32f7xx_hal_rcc.c ****   switch (RCC->CFGR & RCC_CFGR_SWS)
 1456              		.loc 1 1009 3 view .LVU450
 1457              		.loc 1 1009 14 is_stmt 0 view .LVU451
 1458 0002 2F4B     		ldr	r3, .L146
 1459 0004 9B68     		ldr	r3, [r3, #8]
 1460              		.loc 1 1009 21 view .LVU452
 1461 0006 03F00C03 		and	r3, r3, #12
 1462              		.loc 1 1009 3 view .LVU453
 1463 000a 042B     		cmp	r3, #4
 1464 000c 53D0     		beq	.L143
 1465 000e 082B     		cmp	r3, #8
 1466 0010 53D1     		bne	.L144
1010:Drivers/STM32F7xx_HAL_Driver/Src/stm32f7xx_hal_rcc.c ****   {
1011:Drivers/STM32F7xx_HAL_Driver/Src/stm32f7xx_hal_rcc.c ****     case RCC_SYSCLKSOURCE_STATUS_HSI:  /* HSI used as system clock source */
1012:Drivers/STM32F7xx_HAL_Driver/Src/stm32f7xx_hal_rcc.c ****     {
1013:Drivers/STM32F7xx_HAL_Driver/Src/stm32f7xx_hal_rcc.c ****       sysclockfreq = HSI_VALUE;
1014:Drivers/STM32F7xx_HAL_Driver/Src/stm32f7xx_hal_rcc.c ****       break;
1015:Drivers/STM32F7xx_HAL_Driver/Src/stm32f7xx_hal_rcc.c ****     }
1016:Drivers/STM32F7xx_HAL_Driver/Src/stm32f7xx_hal_rcc.c ****     case RCC_SYSCLKSOURCE_STATUS_HSE:  /* HSE used as system clock  source */
1017:Drivers/STM32F7xx_HAL_Driver/Src/stm32f7xx_hal_rcc.c ****     {
1018:Drivers/STM32F7xx_HAL_Driver/Src/stm32f7xx_hal_rcc.c ****       sysclockfreq = HSE_VALUE;
1019:Drivers/STM32F7xx_HAL_Driver/Src/stm32f7xx_hal_rcc.c ****       break;
1020:Drivers/STM32F7xx_HAL_Driver/Src/stm32f7xx_hal_rcc.c ****     }
1021:Drivers/STM32F7xx_HAL_Driver/Src/stm32f7xx_hal_rcc.c ****     case RCC_SYSCLKSOURCE_STATUS_PLLCLK:  /* PLL used as system clock  source */
1022:Drivers/STM32F7xx_HAL_Driver/Src/stm32f7xx_hal_rcc.c ****     {
1023:Drivers/STM32F7xx_HAL_Driver/Src/stm32f7xx_hal_rcc.c ****       /* PLL_VCO = (HSE_VALUE or HSI_VALUE / PLLM) * PLLN
1024:Drivers/STM32F7xx_HAL_Driver/Src/stm32f7xx_hal_rcc.c ****       SYSCLK = PLL_VCO / PLLP */
1025:Drivers/STM32F7xx_HAL_Driver/Src/stm32f7xx_hal_rcc.c ****       pllm = RCC->PLLCFGR & RCC_PLLCFGR_PLLM;
 1467              		.loc 1 1025 7 is_stmt 1 view .LVU454
 1468              		.loc 1 1025 17 is_stmt 0 view .LVU455
 1469 0012 2B4B     		ldr	r3, .L146
 1470 0014 5A68     		ldr	r2, [r3, #4]
 1471              		.loc 1 1025 12 view .LVU456
 1472 0016 02F03F02 		and	r2, r2, #63
 1473              	.LVL100:
1026:Drivers/STM32F7xx_HAL_Driver/Src/stm32f7xx_hal_rcc.c ****       if (__HAL_RCC_GET_PLL_OSCSOURCE() != RCC_PLLCFGR_PLLSRC_HSI)
 1474              		.loc 1 1026 7 is_stmt 1 view .LVU457
 1475              		.loc 1 1026 11 is_stmt 0 view .LVU458
 1476 001a 5B68     		ldr	r3, [r3, #4]
 1477              		.loc 1 1026 10 view .LVU459
 1478 001c 13F4800F 		tst	r3, #4194304
 1479 0020 28D0     		beq	.L141
1027:Drivers/STM32F7xx_HAL_Driver/Src/stm32f7xx_hal_rcc.c ****       {
1028:Drivers/STM32F7xx_HAL_Driver/Src/stm32f7xx_hal_rcc.c ****         /* HSE used as PLL clock source */
ARM GAS  D:\Dev\msys64\tmp\cckaQVt1.s 			page 49


1029:Drivers/STM32F7xx_HAL_Driver/Src/stm32f7xx_hal_rcc.c ****         pllvco = (uint32_t)((((uint64_t) HSE_VALUE * ((uint64_t)((RCC->PLLCFGR & RCC_PLLCFGR_PLLN) 
 1480              		.loc 1 1029 9 is_stmt 1 view .LVU460
 1481              		.loc 1 1029 70 is_stmt 0 view .LVU461
 1482 0022 274B     		ldr	r3, .L146
 1483 0024 5B68     		ldr	r3, [r3, #4]
 1484              		.loc 1 1029 55 view .LVU462
 1485 0026 C3F38813 		ubfx	r3, r3, #6, #9
 1486              		.loc 1 1029 52 view .LVU463
 1487 002a 5801     		lsls	r0, r3, #5
 1488 002c 0021     		movs	r1, #0
 1489 002e C01A     		subs	r0, r0, r3
 1490 0030 61F10001 		sbc	r1, r1, #0
 1491 0034 8E01     		lsls	r6, r1, #6
 1492 0036 46EA9066 		orr	r6, r6, r0, lsr #26
 1493 003a 8701     		lsls	r7, r0, #6
 1494 003c 3C1A     		subs	r4, r7, r0
 1495 003e 66EB0105 		sbc	r5, r6, r1
 1496 0042 E900     		lsls	r1, r5, #3
 1497 0044 41EA5471 		orr	r1, r1, r4, lsr #29
 1498 0048 E000     		lsls	r0, r4, #3
 1499 004a C018     		adds	r0, r0, r3
 1500 004c 41F10001 		adc	r1, r1, #0
 1501 0050 4B02     		lsls	r3, r1, #9
 1502 0052 43EAD053 		orr	r3, r3, r0, lsr #23
 1503 0056 4402     		lsls	r4, r0, #9
 1504 0058 2046     		mov	r0, r4
 1505 005a 1946     		mov	r1, r3
 1506              		.loc 1 1029 128 view .LVU464
 1507 005c 0023     		movs	r3, #0
 1508 005e FFF7FEFF 		bl	__aeabi_uldivmod
 1509              	.LVL101:
 1510              	.L142:
1030:Drivers/STM32F7xx_HAL_Driver/Src/stm32f7xx_hal_rcc.c ****       }
1031:Drivers/STM32F7xx_HAL_Driver/Src/stm32f7xx_hal_rcc.c ****       else
1032:Drivers/STM32F7xx_HAL_Driver/Src/stm32f7xx_hal_rcc.c ****       {
1033:Drivers/STM32F7xx_HAL_Driver/Src/stm32f7xx_hal_rcc.c ****         /* HSI used as PLL clock source */
1034:Drivers/STM32F7xx_HAL_Driver/Src/stm32f7xx_hal_rcc.c ****         pllvco = (uint32_t)((((uint64_t) HSI_VALUE * ((uint64_t)((RCC->PLLCFGR & RCC_PLLCFGR_PLLN) 
1035:Drivers/STM32F7xx_HAL_Driver/Src/stm32f7xx_hal_rcc.c ****       }
1036:Drivers/STM32F7xx_HAL_Driver/Src/stm32f7xx_hal_rcc.c ****       pllp = ((((RCC->PLLCFGR & RCC_PLLCFGR_PLLP) >> RCC_PLLCFGR_PLLP_Pos) + 1) * 2);
 1511              		.loc 1 1036 7 is_stmt 1 view .LVU465
 1512              		.loc 1 1036 21 is_stmt 0 view .LVU466
 1513 0062 174B     		ldr	r3, .L146
 1514 0064 5B68     		ldr	r3, [r3, #4]
 1515              		.loc 1 1036 51 view .LVU467
 1516 0066 C3F30143 		ubfx	r3, r3, #16, #2
 1517              		.loc 1 1036 76 view .LVU468
 1518 006a 0133     		adds	r3, r3, #1
 1519              		.loc 1 1036 12 view .LVU469
 1520 006c 5B00     		lsls	r3, r3, #1
 1521              	.LVL102:
1037:Drivers/STM32F7xx_HAL_Driver/Src/stm32f7xx_hal_rcc.c **** 
1038:Drivers/STM32F7xx_HAL_Driver/Src/stm32f7xx_hal_rcc.c ****       sysclockfreq = pllvco / pllp;
 1522              		.loc 1 1038 7 is_stmt 1 view .LVU470
 1523              		.loc 1 1038 20 is_stmt 0 view .LVU471
 1524 006e B0FBF3F0 		udiv	r0, r0, r3
 1525              	.LVL103:
1039:Drivers/STM32F7xx_HAL_Driver/Src/stm32f7xx_hal_rcc.c ****       break;
ARM GAS  D:\Dev\msys64\tmp\cckaQVt1.s 			page 50


 1526              		.loc 1 1039 7 is_stmt 1 view .LVU472
 1527 0072 23E0     		b	.L139
 1528              	.LVL104:
 1529              	.L141:
1034:Drivers/STM32F7xx_HAL_Driver/Src/stm32f7xx_hal_rcc.c ****       }
 1530              		.loc 1 1034 9 view .LVU473
1034:Drivers/STM32F7xx_HAL_Driver/Src/stm32f7xx_hal_rcc.c ****       }
 1531              		.loc 1 1034 70 is_stmt 0 view .LVU474
 1532 0074 124B     		ldr	r3, .L146
 1533 0076 5B68     		ldr	r3, [r3, #4]
1034:Drivers/STM32F7xx_HAL_Driver/Src/stm32f7xx_hal_rcc.c ****       }
 1534              		.loc 1 1034 55 view .LVU475
 1535 0078 C3F38813 		ubfx	r3, r3, #6, #9
1034:Drivers/STM32F7xx_HAL_Driver/Src/stm32f7xx_hal_rcc.c ****       }
 1536              		.loc 1 1034 52 view .LVU476
 1537 007c 5C01     		lsls	r4, r3, #5
 1538 007e 0025     		movs	r5, #0
 1539 0080 E41A     		subs	r4, r4, r3
 1540 0082 65F10005 		sbc	r5, r5, #0
 1541 0086 AE01     		lsls	r6, r5, #6
 1542 0088 46EA9466 		orr	r6, r6, r4, lsr #26
 1543 008c A701     		lsls	r7, r4, #6
 1544 008e 381B     		subs	r0, r7, r4
 1545 0090 66EB0501 		sbc	r1, r6, r5
 1546 0094 CC00     		lsls	r4, r1, #3
 1547 0096 44EA5074 		orr	r4, r4, r0, lsr #29
 1548 009a C500     		lsls	r5, r0, #3
 1549 009c E818     		adds	r0, r5, r3
 1550 009e 44F10001 		adc	r1, r4, #0
 1551 00a2 8B02     		lsls	r3, r1, #10
 1552 00a4 43EA9053 		orr	r3, r3, r0, lsr #22
 1553 00a8 8402     		lsls	r4, r0, #10
 1554 00aa 2046     		mov	r0, r4
 1555 00ac 1946     		mov	r1, r3
1034:Drivers/STM32F7xx_HAL_Driver/Src/stm32f7xx_hal_rcc.c ****       }
 1556              		.loc 1 1034 128 view .LVU477
 1557 00ae 0023     		movs	r3, #0
 1558 00b0 FFF7FEFF 		bl	__aeabi_uldivmod
 1559              	.LVL105:
1034:Drivers/STM32F7xx_HAL_Driver/Src/stm32f7xx_hal_rcc.c ****       }
 1560              		.loc 1 1034 128 view .LVU478
 1561 00b4 D5E7     		b	.L142
 1562              	.LVL106:
 1563              	.L143:
1018:Drivers/STM32F7xx_HAL_Driver/Src/stm32f7xx_hal_rcc.c ****       break;
 1564              		.loc 1 1018 20 view .LVU479
 1565 00b6 0348     		ldr	r0, .L146+4
 1566 00b8 00E0     		b	.L139
 1567              	.L144:
1009:Drivers/STM32F7xx_HAL_Driver/Src/stm32f7xx_hal_rcc.c ****   {
 1568              		.loc 1 1009 3 view .LVU480
 1569 00ba 0348     		ldr	r0, .L146+8
 1570              	.LVL107:
1040:Drivers/STM32F7xx_HAL_Driver/Src/stm32f7xx_hal_rcc.c ****     }
1041:Drivers/STM32F7xx_HAL_Driver/Src/stm32f7xx_hal_rcc.c ****     default:
1042:Drivers/STM32F7xx_HAL_Driver/Src/stm32f7xx_hal_rcc.c ****     {
1043:Drivers/STM32F7xx_HAL_Driver/Src/stm32f7xx_hal_rcc.c ****       sysclockfreq = HSI_VALUE;
ARM GAS  D:\Dev\msys64\tmp\cckaQVt1.s 			page 51


1044:Drivers/STM32F7xx_HAL_Driver/Src/stm32f7xx_hal_rcc.c ****       break;
1045:Drivers/STM32F7xx_HAL_Driver/Src/stm32f7xx_hal_rcc.c ****     }
1046:Drivers/STM32F7xx_HAL_Driver/Src/stm32f7xx_hal_rcc.c ****   }
1047:Drivers/STM32F7xx_HAL_Driver/Src/stm32f7xx_hal_rcc.c ****   return sysclockfreq;
 1571              		.loc 1 1047 3 is_stmt 1 view .LVU481
 1572              	.L139:
1048:Drivers/STM32F7xx_HAL_Driver/Src/stm32f7xx_hal_rcc.c **** }
 1573              		.loc 1 1048 1 is_stmt 0 view .LVU482
 1574 00bc F8BD     		pop	{r3, r4, r5, r6, r7, pc}
 1575              	.L147:
 1576 00be 00BF     		.align	2
 1577              	.L146:
 1578 00c0 00380240 		.word	1073887232
 1579 00c4 00127A00 		.word	8000000
 1580 00c8 0024F400 		.word	16000000
 1581              		.cfi_endproc
 1582              	.LFE147:
 1584              		.section	.text.HAL_RCC_ClockConfig,"ax",%progbits
 1585              		.align	1
 1586              		.global	HAL_RCC_ClockConfig
 1587              		.syntax unified
 1588              		.thumb
 1589              		.thumb_func
 1590              		.fpu fpv5-sp-d16
 1592              	HAL_RCC_ClockConfig:
 1593              	.LVL108:
 1594              	.LFB143:
 725:Drivers/STM32F7xx_HAL_Driver/Src/stm32f7xx_hal_rcc.c ****   uint32_t tickstart = 0;
 1595              		.loc 1 725 1 is_stmt 1 view -0
 1596              		.cfi_startproc
 1597              		@ args = 0, pretend = 0, frame = 0
 1598              		@ frame_needed = 0, uses_anonymous_args = 0
 726:Drivers/STM32F7xx_HAL_Driver/Src/stm32f7xx_hal_rcc.c **** 
 1599              		.loc 1 726 3 view .LVU484
 729:Drivers/STM32F7xx_HAL_Driver/Src/stm32f7xx_hal_rcc.c ****   {
 1600              		.loc 1 729 3 view .LVU485
 729:Drivers/STM32F7xx_HAL_Driver/Src/stm32f7xx_hal_rcc.c ****   {
 1601              		.loc 1 729 6 is_stmt 0 view .LVU486
 1602 0000 0028     		cmp	r0, #0
 1603 0002 00F0A080 		beq	.L163
 725:Drivers/STM32F7xx_HAL_Driver/Src/stm32f7xx_hal_rcc.c ****   uint32_t tickstart = 0;
 1604              		.loc 1 725 1 view .LVU487
 1605 0006 70B5     		push	{r4, r5, r6, lr}
 1606              	.LCFI12:
 1607              		.cfi_def_cfa_offset 16
 1608              		.cfi_offset 4, -16
 1609              		.cfi_offset 5, -12
 1610              		.cfi_offset 6, -8
 1611              		.cfi_offset 14, -4
 1612 0008 0D46     		mov	r5, r1
 1613 000a 0446     		mov	r4, r0
 735:Drivers/STM32F7xx_HAL_Driver/Src/stm32f7xx_hal_rcc.c ****   assert_param(IS_FLASH_LATENCY(FLatency));
 1614              		.loc 1 735 3 is_stmt 1 view .LVU488
 736:Drivers/STM32F7xx_HAL_Driver/Src/stm32f7xx_hal_rcc.c **** 
 1615              		.loc 1 736 3 view .LVU489
 743:Drivers/STM32F7xx_HAL_Driver/Src/stm32f7xx_hal_rcc.c ****   {
 1616              		.loc 1 743 3 view .LVU490
ARM GAS  D:\Dev\msys64\tmp\cckaQVt1.s 			page 52


 743:Drivers/STM32F7xx_HAL_Driver/Src/stm32f7xx_hal_rcc.c ****   {
 1617              		.loc 1 743 18 is_stmt 0 view .LVU491
 1618 000c 524B     		ldr	r3, .L176
 1619 000e 1B68     		ldr	r3, [r3]
 1620 0010 03F00F03 		and	r3, r3, #15
 743:Drivers/STM32F7xx_HAL_Driver/Src/stm32f7xx_hal_rcc.c ****   {
 1621              		.loc 1 743 6 view .LVU492
 1622 0014 8B42     		cmp	r3, r1
 1623 0016 0BD2     		bcs	.L150
 746:Drivers/STM32F7xx_HAL_Driver/Src/stm32f7xx_hal_rcc.c **** 
 1624              		.loc 1 746 5 is_stmt 1 view .LVU493
 1625 0018 4F4A     		ldr	r2, .L176
 1626 001a 1368     		ldr	r3, [r2]
 1627 001c 23F00F03 		bic	r3, r3, #15
 1628 0020 0B43     		orrs	r3, r3, r1
 1629 0022 1360     		str	r3, [r2]
 750:Drivers/STM32F7xx_HAL_Driver/Src/stm32f7xx_hal_rcc.c ****     {
 1630              		.loc 1 750 5 view .LVU494
 750:Drivers/STM32F7xx_HAL_Driver/Src/stm32f7xx_hal_rcc.c ****     {
 1631              		.loc 1 750 9 is_stmt 0 view .LVU495
 1632 0024 1368     		ldr	r3, [r2]
 1633 0026 03F00F03 		and	r3, r3, #15
 750:Drivers/STM32F7xx_HAL_Driver/Src/stm32f7xx_hal_rcc.c ****     {
 1634              		.loc 1 750 8 view .LVU496
 1635 002a 8B42     		cmp	r3, r1
 1636 002c 40F08D80 		bne	.L164
 1637              	.L150:
 757:Drivers/STM32F7xx_HAL_Driver/Src/stm32f7xx_hal_rcc.c ****   {
 1638              		.loc 1 757 3 is_stmt 1 view .LVU497
 757:Drivers/STM32F7xx_HAL_Driver/Src/stm32f7xx_hal_rcc.c ****   {
 1639              		.loc 1 757 26 is_stmt 0 view .LVU498
 1640 0030 2368     		ldr	r3, [r4]
 757:Drivers/STM32F7xx_HAL_Driver/Src/stm32f7xx_hal_rcc.c ****   {
 1641              		.loc 1 757 6 view .LVU499
 1642 0032 13F0020F 		tst	r3, #2
 1643 0036 17D0     		beq	.L151
 761:Drivers/STM32F7xx_HAL_Driver/Src/stm32f7xx_hal_rcc.c ****     {
 1644              		.loc 1 761 5 is_stmt 1 view .LVU500
 761:Drivers/STM32F7xx_HAL_Driver/Src/stm32f7xx_hal_rcc.c ****     {
 1645              		.loc 1 761 8 is_stmt 0 view .LVU501
 1646 0038 13F0040F 		tst	r3, #4
 1647 003c 04D0     		beq	.L152
 763:Drivers/STM32F7xx_HAL_Driver/Src/stm32f7xx_hal_rcc.c ****     }
 1648              		.loc 1 763 7 is_stmt 1 view .LVU502
 1649 003e 474A     		ldr	r2, .L176+4
 1650 0040 9368     		ldr	r3, [r2, #8]
 1651 0042 43F4E053 		orr	r3, r3, #7168
 1652 0046 9360     		str	r3, [r2, #8]
 1653              	.L152:
 766:Drivers/STM32F7xx_HAL_Driver/Src/stm32f7xx_hal_rcc.c ****     {
 1654              		.loc 1 766 5 view .LVU503
 766:Drivers/STM32F7xx_HAL_Driver/Src/stm32f7xx_hal_rcc.c ****     {
 1655              		.loc 1 766 28 is_stmt 0 view .LVU504
 1656 0048 2368     		ldr	r3, [r4]
 766:Drivers/STM32F7xx_HAL_Driver/Src/stm32f7xx_hal_rcc.c ****     {
 1657              		.loc 1 766 8 view .LVU505
 1658 004a 13F0080F 		tst	r3, #8
ARM GAS  D:\Dev\msys64\tmp\cckaQVt1.s 			page 53


 1659 004e 04D0     		beq	.L153
 768:Drivers/STM32F7xx_HAL_Driver/Src/stm32f7xx_hal_rcc.c ****     }
 1660              		.loc 1 768 7 is_stmt 1 view .LVU506
 1661 0050 424A     		ldr	r2, .L176+4
 1662 0052 9368     		ldr	r3, [r2, #8]
 1663 0054 43F46043 		orr	r3, r3, #57344
 1664 0058 9360     		str	r3, [r2, #8]
 1665              	.L153:
 772:Drivers/STM32F7xx_HAL_Driver/Src/stm32f7xx_hal_rcc.c ****     MODIFY_REG(RCC->CFGR, RCC_CFGR_HPRE, RCC_ClkInitStruct->AHBCLKDivider);
 1666              		.loc 1 772 5 view .LVU507
 773:Drivers/STM32F7xx_HAL_Driver/Src/stm32f7xx_hal_rcc.c ****   }
 1667              		.loc 1 773 5 view .LVU508
 1668 005a 404A     		ldr	r2, .L176+4
 1669 005c 9368     		ldr	r3, [r2, #8]
 1670 005e 23F0F003 		bic	r3, r3, #240
 1671 0062 A168     		ldr	r1, [r4, #8]
 1672              	.LVL109:
 773:Drivers/STM32F7xx_HAL_Driver/Src/stm32f7xx_hal_rcc.c ****   }
 1673              		.loc 1 773 5 is_stmt 0 view .LVU509
 1674 0064 0B43     		orrs	r3, r3, r1
 1675 0066 9360     		str	r3, [r2, #8]
 1676              	.L151:
 777:Drivers/STM32F7xx_HAL_Driver/Src/stm32f7xx_hal_rcc.c ****   {
 1677              		.loc 1 777 3 is_stmt 1 view .LVU510
 777:Drivers/STM32F7xx_HAL_Driver/Src/stm32f7xx_hal_rcc.c ****   {
 1678              		.loc 1 777 26 is_stmt 0 view .LVU511
 1679 0068 2368     		ldr	r3, [r4]
 777:Drivers/STM32F7xx_HAL_Driver/Src/stm32f7xx_hal_rcc.c ****   {
 1680              		.loc 1 777 6 view .LVU512
 1681 006a 13F0010F 		tst	r3, #1
 1682 006e 31D0     		beq	.L154
 779:Drivers/STM32F7xx_HAL_Driver/Src/stm32f7xx_hal_rcc.c **** 
 1683              		.loc 1 779 5 is_stmt 1 view .LVU513
 782:Drivers/STM32F7xx_HAL_Driver/Src/stm32f7xx_hal_rcc.c ****     {
 1684              		.loc 1 782 5 view .LVU514
 782:Drivers/STM32F7xx_HAL_Driver/Src/stm32f7xx_hal_rcc.c ****     {
 1685              		.loc 1 782 26 is_stmt 0 view .LVU515
 1686 0070 6368     		ldr	r3, [r4, #4]
 782:Drivers/STM32F7xx_HAL_Driver/Src/stm32f7xx_hal_rcc.c ****     {
 1687              		.loc 1 782 8 view .LVU516
 1688 0072 012B     		cmp	r3, #1
 1689 0074 20D0     		beq	.L174
 791:Drivers/STM32F7xx_HAL_Driver/Src/stm32f7xx_hal_rcc.c ****     {
 1690              		.loc 1 791 10 is_stmt 1 view .LVU517
 791:Drivers/STM32F7xx_HAL_Driver/Src/stm32f7xx_hal_rcc.c ****     {
 1691              		.loc 1 791 13 is_stmt 0 view .LVU518
 1692 0076 022B     		cmp	r3, #2
 1693 0078 25D0     		beq	.L175
 803:Drivers/STM32F7xx_HAL_Driver/Src/stm32f7xx_hal_rcc.c ****       {
 1694              		.loc 1 803 7 is_stmt 1 view .LVU519
 803:Drivers/STM32F7xx_HAL_Driver/Src/stm32f7xx_hal_rcc.c ****       {
 1695              		.loc 1 803 11 is_stmt 0 view .LVU520
 1696 007a 384A     		ldr	r2, .L176+4
 1697 007c 1268     		ldr	r2, [r2]
 803:Drivers/STM32F7xx_HAL_Driver/Src/stm32f7xx_hal_rcc.c ****       {
 1698              		.loc 1 803 10 view .LVU521
 1699 007e 12F0020F 		tst	r2, #2
ARM GAS  D:\Dev\msys64\tmp\cckaQVt1.s 			page 54


 1700 0082 64D0     		beq	.L167
 1701              	.L156:
 809:Drivers/STM32F7xx_HAL_Driver/Src/stm32f7xx_hal_rcc.c **** 
 1702              		.loc 1 809 5 is_stmt 1 view .LVU522
 1703 0084 3549     		ldr	r1, .L176+4
 1704 0086 8A68     		ldr	r2, [r1, #8]
 1705 0088 22F00302 		bic	r2, r2, #3
 1706 008c 1343     		orrs	r3, r3, r2
 1707 008e 8B60     		str	r3, [r1, #8]
 812:Drivers/STM32F7xx_HAL_Driver/Src/stm32f7xx_hal_rcc.c **** 
 1708              		.loc 1 812 5 view .LVU523
 812:Drivers/STM32F7xx_HAL_Driver/Src/stm32f7xx_hal_rcc.c **** 
 1709              		.loc 1 812 17 is_stmt 0 view .LVU524
 1710 0090 FFF7FEFF 		bl	HAL_GetTick
 1711              	.LVL110:
 812:Drivers/STM32F7xx_HAL_Driver/Src/stm32f7xx_hal_rcc.c **** 
 1712              		.loc 1 812 17 view .LVU525
 1713 0094 0646     		mov	r6, r0
 1714              	.LVL111:
 814:Drivers/STM32F7xx_HAL_Driver/Src/stm32f7xx_hal_rcc.c ****     {
 1715              		.loc 1 814 5 is_stmt 1 view .LVU526
 1716              	.L158:
 814:Drivers/STM32F7xx_HAL_Driver/Src/stm32f7xx_hal_rcc.c ****     {
 1717              		.loc 1 814 11 view .LVU527
 814:Drivers/STM32F7xx_HAL_Driver/Src/stm32f7xx_hal_rcc.c ****     {
 1718              		.loc 1 814 12 is_stmt 0 view .LVU528
 1719 0096 314B     		ldr	r3, .L176+4
 1720 0098 9B68     		ldr	r3, [r3, #8]
 1721 009a 03F00C03 		and	r3, r3, #12
 814:Drivers/STM32F7xx_HAL_Driver/Src/stm32f7xx_hal_rcc.c ****     {
 1722              		.loc 1 814 63 view .LVU529
 1723 009e 6268     		ldr	r2, [r4, #4]
 814:Drivers/STM32F7xx_HAL_Driver/Src/stm32f7xx_hal_rcc.c ****     {
 1724              		.loc 1 814 11 view .LVU530
 1725 00a0 B3EB820F 		cmp	r3, r2, lsl #2
 1726 00a4 16D0     		beq	.L154
 816:Drivers/STM32F7xx_HAL_Driver/Src/stm32f7xx_hal_rcc.c ****       {
 1727              		.loc 1 816 7 is_stmt 1 view .LVU531
 816:Drivers/STM32F7xx_HAL_Driver/Src/stm32f7xx_hal_rcc.c ****       {
 1728              		.loc 1 816 12 is_stmt 0 view .LVU532
 1729 00a6 FFF7FEFF 		bl	HAL_GetTick
 1730              	.LVL112:
 816:Drivers/STM32F7xx_HAL_Driver/Src/stm32f7xx_hal_rcc.c ****       {
 1731              		.loc 1 816 26 view .LVU533
 1732 00aa 801B     		subs	r0, r0, r6
 816:Drivers/STM32F7xx_HAL_Driver/Src/stm32f7xx_hal_rcc.c ****       {
 1733              		.loc 1 816 10 view .LVU534
 1734 00ac 41F28833 		movw	r3, #5000
 1735 00b0 9842     		cmp	r0, r3
 1736 00b2 F0D9     		bls	.L158
 818:Drivers/STM32F7xx_HAL_Driver/Src/stm32f7xx_hal_rcc.c ****       }
 1737              		.loc 1 818 16 view .LVU535
 1738 00b4 0320     		movs	r0, #3
 1739 00b6 45E0     		b	.L149
 1740              	.LVL113:
 1741              	.L174:
 785:Drivers/STM32F7xx_HAL_Driver/Src/stm32f7xx_hal_rcc.c ****       {
ARM GAS  D:\Dev\msys64\tmp\cckaQVt1.s 			page 55


 1742              		.loc 1 785 7 is_stmt 1 view .LVU536
 785:Drivers/STM32F7xx_HAL_Driver/Src/stm32f7xx_hal_rcc.c ****       {
 1743              		.loc 1 785 11 is_stmt 0 view .LVU537
 1744 00b8 284A     		ldr	r2, .L176+4
 1745 00ba 1268     		ldr	r2, [r2]
 785:Drivers/STM32F7xx_HAL_Driver/Src/stm32f7xx_hal_rcc.c ****       {
 1746              		.loc 1 785 10 view .LVU538
 1747 00bc 12F4003F 		tst	r2, #131072
 1748 00c0 E0D1     		bne	.L156
 787:Drivers/STM32F7xx_HAL_Driver/Src/stm32f7xx_hal_rcc.c ****       }
 1749              		.loc 1 787 16 view .LVU539
 1750 00c2 0120     		movs	r0, #1
 1751              	.LVL114:
 787:Drivers/STM32F7xx_HAL_Driver/Src/stm32f7xx_hal_rcc.c ****       }
 1752              		.loc 1 787 16 view .LVU540
 1753 00c4 3EE0     		b	.L149
 1754              	.LVL115:
 1755              	.L175:
 794:Drivers/STM32F7xx_HAL_Driver/Src/stm32f7xx_hal_rcc.c ****       {
 1756              		.loc 1 794 7 is_stmt 1 view .LVU541
 794:Drivers/STM32F7xx_HAL_Driver/Src/stm32f7xx_hal_rcc.c ****       {
 1757              		.loc 1 794 11 is_stmt 0 view .LVU542
 1758 00c6 254A     		ldr	r2, .L176+4
 1759 00c8 1268     		ldr	r2, [r2]
 794:Drivers/STM32F7xx_HAL_Driver/Src/stm32f7xx_hal_rcc.c ****       {
 1760              		.loc 1 794 10 view .LVU543
 1761 00ca 12F0007F 		tst	r2, #33554432
 1762 00ce D9D1     		bne	.L156
 796:Drivers/STM32F7xx_HAL_Driver/Src/stm32f7xx_hal_rcc.c ****       }
 1763              		.loc 1 796 16 view .LVU544
 1764 00d0 0120     		movs	r0, #1
 1765              	.LVL116:
 796:Drivers/STM32F7xx_HAL_Driver/Src/stm32f7xx_hal_rcc.c ****       }
 1766              		.loc 1 796 16 view .LVU545
 1767 00d2 37E0     		b	.L149
 1768              	.LVL117:
 1769              	.L154:
 824:Drivers/STM32F7xx_HAL_Driver/Src/stm32f7xx_hal_rcc.c ****   {
 1770              		.loc 1 824 3 is_stmt 1 view .LVU546
 824:Drivers/STM32F7xx_HAL_Driver/Src/stm32f7xx_hal_rcc.c ****   {
 1771              		.loc 1 824 18 is_stmt 0 view .LVU547
 1772 00d4 204B     		ldr	r3, .L176
 1773 00d6 1B68     		ldr	r3, [r3]
 1774 00d8 03F00F03 		and	r3, r3, #15
 824:Drivers/STM32F7xx_HAL_Driver/Src/stm32f7xx_hal_rcc.c ****   {
 1775              		.loc 1 824 6 view .LVU548
 1776 00dc AB42     		cmp	r3, r5
 1777 00de 0AD9     		bls	.L160
 827:Drivers/STM32F7xx_HAL_Driver/Src/stm32f7xx_hal_rcc.c **** 
 1778              		.loc 1 827 5 is_stmt 1 view .LVU549
 1779 00e0 1D4A     		ldr	r2, .L176
 1780 00e2 1368     		ldr	r3, [r2]
 1781 00e4 23F00F03 		bic	r3, r3, #15
 1782 00e8 2B43     		orrs	r3, r3, r5
 1783 00ea 1360     		str	r3, [r2]
 831:Drivers/STM32F7xx_HAL_Driver/Src/stm32f7xx_hal_rcc.c ****     {
 1784              		.loc 1 831 5 view .LVU550
ARM GAS  D:\Dev\msys64\tmp\cckaQVt1.s 			page 56


 831:Drivers/STM32F7xx_HAL_Driver/Src/stm32f7xx_hal_rcc.c ****     {
 1785              		.loc 1 831 9 is_stmt 0 view .LVU551
 1786 00ec 1368     		ldr	r3, [r2]
 1787 00ee 03F00F03 		and	r3, r3, #15
 831:Drivers/STM32F7xx_HAL_Driver/Src/stm32f7xx_hal_rcc.c ****     {
 1788              		.loc 1 831 8 view .LVU552
 1789 00f2 AB42     		cmp	r3, r5
 1790 00f4 2DD1     		bne	.L169
 1791              	.L160:
 838:Drivers/STM32F7xx_HAL_Driver/Src/stm32f7xx_hal_rcc.c ****   {
 1792              		.loc 1 838 3 is_stmt 1 view .LVU553
 838:Drivers/STM32F7xx_HAL_Driver/Src/stm32f7xx_hal_rcc.c ****   {
 1793              		.loc 1 838 26 is_stmt 0 view .LVU554
 1794 00f6 2368     		ldr	r3, [r4]
 838:Drivers/STM32F7xx_HAL_Driver/Src/stm32f7xx_hal_rcc.c ****   {
 1795              		.loc 1 838 6 view .LVU555
 1796 00f8 13F0040F 		tst	r3, #4
 1797 00fc 06D0     		beq	.L161
 840:Drivers/STM32F7xx_HAL_Driver/Src/stm32f7xx_hal_rcc.c ****     MODIFY_REG(RCC->CFGR, RCC_CFGR_PPRE1, RCC_ClkInitStruct->APB1CLKDivider);
 1798              		.loc 1 840 5 is_stmt 1 view .LVU556
 841:Drivers/STM32F7xx_HAL_Driver/Src/stm32f7xx_hal_rcc.c ****   }
 1799              		.loc 1 841 5 view .LVU557
 1800 00fe 174A     		ldr	r2, .L176+4
 1801 0100 9368     		ldr	r3, [r2, #8]
 1802 0102 23F4E053 		bic	r3, r3, #7168
 1803 0106 E168     		ldr	r1, [r4, #12]
 1804 0108 0B43     		orrs	r3, r3, r1
 1805 010a 9360     		str	r3, [r2, #8]
 1806              	.L161:
 845:Drivers/STM32F7xx_HAL_Driver/Src/stm32f7xx_hal_rcc.c ****   {
 1807              		.loc 1 845 3 view .LVU558
 845:Drivers/STM32F7xx_HAL_Driver/Src/stm32f7xx_hal_rcc.c ****   {
 1808              		.loc 1 845 26 is_stmt 0 view .LVU559
 1809 010c 2368     		ldr	r3, [r4]
 845:Drivers/STM32F7xx_HAL_Driver/Src/stm32f7xx_hal_rcc.c ****   {
 1810              		.loc 1 845 6 view .LVU560
 1811 010e 13F0080F 		tst	r3, #8
 1812 0112 07D0     		beq	.L162
 847:Drivers/STM32F7xx_HAL_Driver/Src/stm32f7xx_hal_rcc.c ****     MODIFY_REG(RCC->CFGR, RCC_CFGR_PPRE2, ((RCC_ClkInitStruct->APB2CLKDivider) << 3));
 1813              		.loc 1 847 5 is_stmt 1 view .LVU561
 848:Drivers/STM32F7xx_HAL_Driver/Src/stm32f7xx_hal_rcc.c ****   }
 1814              		.loc 1 848 5 view .LVU562
 1815 0114 114A     		ldr	r2, .L176+4
 1816 0116 9368     		ldr	r3, [r2, #8]
 1817 0118 23F46043 		bic	r3, r3, #57344
 1818 011c 2169     		ldr	r1, [r4, #16]
 1819 011e 43EAC103 		orr	r3, r3, r1, lsl #3
 1820 0122 9360     		str	r3, [r2, #8]
 1821              	.L162:
 852:Drivers/STM32F7xx_HAL_Driver/Src/stm32f7xx_hal_rcc.c **** 
 1822              		.loc 1 852 3 view .LVU563
 852:Drivers/STM32F7xx_HAL_Driver/Src/stm32f7xx_hal_rcc.c **** 
 1823              		.loc 1 852 21 is_stmt 0 view .LVU564
 1824 0124 FFF7FEFF 		bl	HAL_RCC_GetSysClockFreq
 1825              	.LVL118:
 852:Drivers/STM32F7xx_HAL_Driver/Src/stm32f7xx_hal_rcc.c **** 
 1826              		.loc 1 852 68 view .LVU565
ARM GAS  D:\Dev\msys64\tmp\cckaQVt1.s 			page 57


 1827 0128 0C4B     		ldr	r3, .L176+4
 1828 012a 9B68     		ldr	r3, [r3, #8]
 852:Drivers/STM32F7xx_HAL_Driver/Src/stm32f7xx_hal_rcc.c **** 
 1829              		.loc 1 852 92 view .LVU566
 1830 012c C3F30313 		ubfx	r3, r3, #4, #4
 852:Drivers/STM32F7xx_HAL_Driver/Src/stm32f7xx_hal_rcc.c **** 
 1831              		.loc 1 852 63 view .LVU567
 1832 0130 0B4A     		ldr	r2, .L176+8
 1833 0132 D35C     		ldrb	r3, [r2, r3]	@ zero_extendqisi2
 852:Drivers/STM32F7xx_HAL_Driver/Src/stm32f7xx_hal_rcc.c **** 
 1834              		.loc 1 852 47 view .LVU568
 1835 0134 D840     		lsrs	r0, r0, r3
 852:Drivers/STM32F7xx_HAL_Driver/Src/stm32f7xx_hal_rcc.c **** 
 1836              		.loc 1 852 19 view .LVU569
 1837 0136 0B4B     		ldr	r3, .L176+12
 1838 0138 1860     		str	r0, [r3]
 855:Drivers/STM32F7xx_HAL_Driver/Src/stm32f7xx_hal_rcc.c **** 
 1839              		.loc 1 855 3 is_stmt 1 view .LVU570
 1840 013a 0B4B     		ldr	r3, .L176+16
 1841 013c 1868     		ldr	r0, [r3]
 1842 013e FFF7FEFF 		bl	HAL_InitTick
 1843              	.LVL119:
 857:Drivers/STM32F7xx_HAL_Driver/Src/stm32f7xx_hal_rcc.c **** }
 1844              		.loc 1 857 3 view .LVU571
 857:Drivers/STM32F7xx_HAL_Driver/Src/stm32f7xx_hal_rcc.c **** }
 1845              		.loc 1 857 10 is_stmt 0 view .LVU572
 1846 0142 0020     		movs	r0, #0
 1847              	.L149:
 858:Drivers/STM32F7xx_HAL_Driver/Src/stm32f7xx_hal_rcc.c **** 
 1848              		.loc 1 858 1 view .LVU573
 1849 0144 70BD     		pop	{r4, r5, r6, pc}
 1850              	.LVL120:
 1851              	.L163:
 1852              	.LCFI13:
 1853              		.cfi_def_cfa_offset 0
 1854              		.cfi_restore 4
 1855              		.cfi_restore 5
 1856              		.cfi_restore 6
 1857              		.cfi_restore 14
 731:Drivers/STM32F7xx_HAL_Driver/Src/stm32f7xx_hal_rcc.c ****   }
 1858              		.loc 1 731 12 view .LVU574
 1859 0146 0120     		movs	r0, #1
 1860              	.LVL121:
 858:Drivers/STM32F7xx_HAL_Driver/Src/stm32f7xx_hal_rcc.c **** 
 1861              		.loc 1 858 1 view .LVU575
 1862 0148 7047     		bx	lr
 1863              	.LVL122:
 1864              	.L164:
 1865              	.LCFI14:
 1866              		.cfi_def_cfa_offset 16
 1867              		.cfi_offset 4, -16
 1868              		.cfi_offset 5, -12
 1869              		.cfi_offset 6, -8
 1870              		.cfi_offset 14, -4
 752:Drivers/STM32F7xx_HAL_Driver/Src/stm32f7xx_hal_rcc.c ****     }
 1871              		.loc 1 752 14 view .LVU576
 1872 014a 0120     		movs	r0, #1
ARM GAS  D:\Dev\msys64\tmp\cckaQVt1.s 			page 58


 1873              	.LVL123:
 752:Drivers/STM32F7xx_HAL_Driver/Src/stm32f7xx_hal_rcc.c ****     }
 1874              		.loc 1 752 14 view .LVU577
 1875 014c FAE7     		b	.L149
 1876              	.LVL124:
 1877              	.L167:
 805:Drivers/STM32F7xx_HAL_Driver/Src/stm32f7xx_hal_rcc.c ****       }
 1878              		.loc 1 805 16 view .LVU578
 1879 014e 0120     		movs	r0, #1
 1880              	.LVL125:
 805:Drivers/STM32F7xx_HAL_Driver/Src/stm32f7xx_hal_rcc.c ****       }
 1881              		.loc 1 805 16 view .LVU579
 1882 0150 F8E7     		b	.L149
 1883              	.LVL126:
 1884              	.L169:
 833:Drivers/STM32F7xx_HAL_Driver/Src/stm32f7xx_hal_rcc.c ****     }
 1885              		.loc 1 833 14 view .LVU580
 1886 0152 0120     		movs	r0, #1
 1887 0154 F6E7     		b	.L149
 1888              	.L177:
 1889 0156 00BF     		.align	2
 1890              	.L176:
 1891 0158 003C0240 		.word	1073888256
 1892 015c 00380240 		.word	1073887232
 1893 0160 00000000 		.word	AHBPrescTable
 1894 0164 00000000 		.word	SystemCoreClock
 1895 0168 00000000 		.word	uwTickPrio
 1896              		.cfi_endproc
 1897              	.LFE143:
 1899              		.section	.text.HAL_RCC_GetHCLKFreq,"ax",%progbits
 1900              		.align	1
 1901              		.global	HAL_RCC_GetHCLKFreq
 1902              		.syntax unified
 1903              		.thumb
 1904              		.thumb_func
 1905              		.fpu fpv5-sp-d16
 1907              	HAL_RCC_GetHCLKFreq:
 1908              	.LFB148:
1049:Drivers/STM32F7xx_HAL_Driver/Src/stm32f7xx_hal_rcc.c **** 
1050:Drivers/STM32F7xx_HAL_Driver/Src/stm32f7xx_hal_rcc.c **** /**
1051:Drivers/STM32F7xx_HAL_Driver/Src/stm32f7xx_hal_rcc.c ****   * @brief  Returns the HCLK frequency
1052:Drivers/STM32F7xx_HAL_Driver/Src/stm32f7xx_hal_rcc.c ****   * @note   Each time HCLK changes, this function must be called to update the
1053:Drivers/STM32F7xx_HAL_Driver/Src/stm32f7xx_hal_rcc.c ****   *         right HCLK value. Otherwise, any configuration based on this function will be incorrect
1054:Drivers/STM32F7xx_HAL_Driver/Src/stm32f7xx_hal_rcc.c ****   * @note   The SystemCoreClock CMSIS variable is used to store System Clock Frequency.
1055:Drivers/STM32F7xx_HAL_Driver/Src/stm32f7xx_hal_rcc.c ****   * @retval HCLK frequency
1056:Drivers/STM32F7xx_HAL_Driver/Src/stm32f7xx_hal_rcc.c ****   */
1057:Drivers/STM32F7xx_HAL_Driver/Src/stm32f7xx_hal_rcc.c **** uint32_t HAL_RCC_GetHCLKFreq(void)
1058:Drivers/STM32F7xx_HAL_Driver/Src/stm32f7xx_hal_rcc.c **** {
 1909              		.loc 1 1058 1 is_stmt 1 view -0
 1910              		.cfi_startproc
 1911              		@ args = 0, pretend = 0, frame = 0
 1912              		@ frame_needed = 0, uses_anonymous_args = 0
 1913              		@ link register save eliminated.
1059:Drivers/STM32F7xx_HAL_Driver/Src/stm32f7xx_hal_rcc.c ****   return SystemCoreClock;
 1914              		.loc 1 1059 3 view .LVU582
1060:Drivers/STM32F7xx_HAL_Driver/Src/stm32f7xx_hal_rcc.c **** }
 1915              		.loc 1 1060 1 is_stmt 0 view .LVU583
ARM GAS  D:\Dev\msys64\tmp\cckaQVt1.s 			page 59


 1916 0000 014B     		ldr	r3, .L179
 1917 0002 1868     		ldr	r0, [r3]
 1918 0004 7047     		bx	lr
 1919              	.L180:
 1920 0006 00BF     		.align	2
 1921              	.L179:
 1922 0008 00000000 		.word	SystemCoreClock
 1923              		.cfi_endproc
 1924              	.LFE148:
 1926              		.section	.text.HAL_RCC_GetPCLK1Freq,"ax",%progbits
 1927              		.align	1
 1928              		.global	HAL_RCC_GetPCLK1Freq
 1929              		.syntax unified
 1930              		.thumb
 1931              		.thumb_func
 1932              		.fpu fpv5-sp-d16
 1934              	HAL_RCC_GetPCLK1Freq:
 1935              	.LFB149:
1061:Drivers/STM32F7xx_HAL_Driver/Src/stm32f7xx_hal_rcc.c **** 
1062:Drivers/STM32F7xx_HAL_Driver/Src/stm32f7xx_hal_rcc.c **** /**
1063:Drivers/STM32F7xx_HAL_Driver/Src/stm32f7xx_hal_rcc.c ****   * @brief  Returns the PCLK1 frequency
1064:Drivers/STM32F7xx_HAL_Driver/Src/stm32f7xx_hal_rcc.c ****   * @note   Each time PCLK1 changes, this function must be called to update the
1065:Drivers/STM32F7xx_HAL_Driver/Src/stm32f7xx_hal_rcc.c ****   *         right PCLK1 value. Otherwise, any configuration based on this function will be incorrec
1066:Drivers/STM32F7xx_HAL_Driver/Src/stm32f7xx_hal_rcc.c ****   * @retval PCLK1 frequency
1067:Drivers/STM32F7xx_HAL_Driver/Src/stm32f7xx_hal_rcc.c ****   */
1068:Drivers/STM32F7xx_HAL_Driver/Src/stm32f7xx_hal_rcc.c **** uint32_t HAL_RCC_GetPCLK1Freq(void)
1069:Drivers/STM32F7xx_HAL_Driver/Src/stm32f7xx_hal_rcc.c **** {
 1936              		.loc 1 1069 1 is_stmt 1 view -0
 1937              		.cfi_startproc
 1938              		@ args = 0, pretend = 0, frame = 0
 1939              		@ frame_needed = 0, uses_anonymous_args = 0
 1940 0000 08B5     		push	{r3, lr}
 1941              	.LCFI15:
 1942              		.cfi_def_cfa_offset 8
 1943              		.cfi_offset 3, -8
 1944              		.cfi_offset 14, -4
1070:Drivers/STM32F7xx_HAL_Driver/Src/stm32f7xx_hal_rcc.c ****   /* Get HCLK source and Compute PCLK1 frequency ---------------------------*/
1071:Drivers/STM32F7xx_HAL_Driver/Src/stm32f7xx_hal_rcc.c ****   return (HAL_RCC_GetHCLKFreq() >> APBPrescTable[(RCC->CFGR & RCC_CFGR_PPRE1) >> RCC_CFGR_PPRE1_Pos
 1945              		.loc 1 1071 3 view .LVU585
 1946              		.loc 1 1071 11 is_stmt 0 view .LVU586
 1947 0002 FFF7FEFF 		bl	HAL_RCC_GetHCLKFreq
 1948              	.LVL127:
 1949              		.loc 1 1071 54 view .LVU587
 1950 0006 044B     		ldr	r3, .L183
 1951 0008 9B68     		ldr	r3, [r3, #8]
 1952              		.loc 1 1071 79 view .LVU588
 1953 000a C3F38223 		ubfx	r3, r3, #10, #3
 1954              		.loc 1 1071 49 view .LVU589
 1955 000e 034A     		ldr	r2, .L183+4
 1956 0010 D35C     		ldrb	r3, [r2, r3]	@ zero_extendqisi2
1072:Drivers/STM32F7xx_HAL_Driver/Src/stm32f7xx_hal_rcc.c **** }
 1957              		.loc 1 1072 1 view .LVU590
 1958 0012 D840     		lsrs	r0, r0, r3
 1959 0014 08BD     		pop	{r3, pc}
 1960              	.L184:
 1961 0016 00BF     		.align	2
 1962              	.L183:
ARM GAS  D:\Dev\msys64\tmp\cckaQVt1.s 			page 60


 1963 0018 00380240 		.word	1073887232
 1964 001c 00000000 		.word	APBPrescTable
 1965              		.cfi_endproc
 1966              	.LFE149:
 1968              		.section	.text.HAL_RCC_GetPCLK2Freq,"ax",%progbits
 1969              		.align	1
 1970              		.global	HAL_RCC_GetPCLK2Freq
 1971              		.syntax unified
 1972              		.thumb
 1973              		.thumb_func
 1974              		.fpu fpv5-sp-d16
 1976              	HAL_RCC_GetPCLK2Freq:
 1977              	.LFB150:
1073:Drivers/STM32F7xx_HAL_Driver/Src/stm32f7xx_hal_rcc.c **** 
1074:Drivers/STM32F7xx_HAL_Driver/Src/stm32f7xx_hal_rcc.c **** /**
1075:Drivers/STM32F7xx_HAL_Driver/Src/stm32f7xx_hal_rcc.c ****   * @brief  Returns the PCLK2 frequency
1076:Drivers/STM32F7xx_HAL_Driver/Src/stm32f7xx_hal_rcc.c ****   * @note   Each time PCLK2 changes, this function must be called to update the
1077:Drivers/STM32F7xx_HAL_Driver/Src/stm32f7xx_hal_rcc.c ****   *         right PCLK2 value. Otherwise, any configuration based on this function will be incorrec
1078:Drivers/STM32F7xx_HAL_Driver/Src/stm32f7xx_hal_rcc.c ****   * @retval PCLK2 frequency
1079:Drivers/STM32F7xx_HAL_Driver/Src/stm32f7xx_hal_rcc.c ****   */
1080:Drivers/STM32F7xx_HAL_Driver/Src/stm32f7xx_hal_rcc.c **** uint32_t HAL_RCC_GetPCLK2Freq(void)
1081:Drivers/STM32F7xx_HAL_Driver/Src/stm32f7xx_hal_rcc.c **** {
 1978              		.loc 1 1081 1 is_stmt 1 view -0
 1979              		.cfi_startproc
 1980              		@ args = 0, pretend = 0, frame = 0
 1981              		@ frame_needed = 0, uses_anonymous_args = 0
 1982 0000 08B5     		push	{r3, lr}
 1983              	.LCFI16:
 1984              		.cfi_def_cfa_offset 8
 1985              		.cfi_offset 3, -8
 1986              		.cfi_offset 14, -4
1082:Drivers/STM32F7xx_HAL_Driver/Src/stm32f7xx_hal_rcc.c ****   /* Get HCLK source and Compute PCLK2 frequency ---------------------------*/
1083:Drivers/STM32F7xx_HAL_Driver/Src/stm32f7xx_hal_rcc.c ****   return (HAL_RCC_GetHCLKFreq() >> APBPrescTable[(RCC->CFGR & RCC_CFGR_PPRE2) >> RCC_CFGR_PPRE2_Pos
 1987              		.loc 1 1083 3 view .LVU592
 1988              		.loc 1 1083 11 is_stmt 0 view .LVU593
 1989 0002 FFF7FEFF 		bl	HAL_RCC_GetHCLKFreq
 1990              	.LVL128:
 1991              		.loc 1 1083 54 view .LVU594
 1992 0006 044B     		ldr	r3, .L187
 1993 0008 9B68     		ldr	r3, [r3, #8]
 1994              		.loc 1 1083 79 view .LVU595
 1995 000a C3F34233 		ubfx	r3, r3, #13, #3
 1996              		.loc 1 1083 49 view .LVU596
 1997 000e 034A     		ldr	r2, .L187+4
 1998 0010 D35C     		ldrb	r3, [r2, r3]	@ zero_extendqisi2
1084:Drivers/STM32F7xx_HAL_Driver/Src/stm32f7xx_hal_rcc.c **** }
 1999              		.loc 1 1084 1 view .LVU597
 2000 0012 D840     		lsrs	r0, r0, r3
 2001 0014 08BD     		pop	{r3, pc}
 2002              	.L188:
 2003 0016 00BF     		.align	2
 2004              	.L187:
 2005 0018 00380240 		.word	1073887232
 2006 001c 00000000 		.word	APBPrescTable
 2007              		.cfi_endproc
 2008              	.LFE150:
 2010              		.section	.text.HAL_RCC_GetOscConfig,"ax",%progbits
ARM GAS  D:\Dev\msys64\tmp\cckaQVt1.s 			page 61


 2011              		.align	1
 2012              		.global	HAL_RCC_GetOscConfig
 2013              		.syntax unified
 2014              		.thumb
 2015              		.thumb_func
 2016              		.fpu fpv5-sp-d16
 2018              	HAL_RCC_GetOscConfig:
 2019              	.LVL129:
 2020              	.LFB151:
1085:Drivers/STM32F7xx_HAL_Driver/Src/stm32f7xx_hal_rcc.c **** 
1086:Drivers/STM32F7xx_HAL_Driver/Src/stm32f7xx_hal_rcc.c **** /**
1087:Drivers/STM32F7xx_HAL_Driver/Src/stm32f7xx_hal_rcc.c ****   * @brief  Configures the RCC_OscInitStruct according to the internal
1088:Drivers/STM32F7xx_HAL_Driver/Src/stm32f7xx_hal_rcc.c ****   * RCC configuration registers.
1089:Drivers/STM32F7xx_HAL_Driver/Src/stm32f7xx_hal_rcc.c ****   * @param  RCC_OscInitStruct pointer to an RCC_OscInitTypeDef structure that
1090:Drivers/STM32F7xx_HAL_Driver/Src/stm32f7xx_hal_rcc.c ****   * will be configured.
1091:Drivers/STM32F7xx_HAL_Driver/Src/stm32f7xx_hal_rcc.c ****   * @retval None
1092:Drivers/STM32F7xx_HAL_Driver/Src/stm32f7xx_hal_rcc.c ****   */
1093:Drivers/STM32F7xx_HAL_Driver/Src/stm32f7xx_hal_rcc.c **** void HAL_RCC_GetOscConfig(RCC_OscInitTypeDef  *RCC_OscInitStruct)
1094:Drivers/STM32F7xx_HAL_Driver/Src/stm32f7xx_hal_rcc.c **** {
 2021              		.loc 1 1094 1 is_stmt 1 view -0
 2022              		.cfi_startproc
 2023              		@ args = 0, pretend = 0, frame = 0
 2024              		@ frame_needed = 0, uses_anonymous_args = 0
 2025              		@ link register save eliminated.
1095:Drivers/STM32F7xx_HAL_Driver/Src/stm32f7xx_hal_rcc.c ****   /* Set all possible values for the Oscillator type parameter ---------------*/
1096:Drivers/STM32F7xx_HAL_Driver/Src/stm32f7xx_hal_rcc.c ****   RCC_OscInitStruct->OscillatorType = RCC_OSCILLATORTYPE_HSE | RCC_OSCILLATORTYPE_HSI | RCC_OSCILLA
 2026              		.loc 1 1096 3 view .LVU599
 2027              		.loc 1 1096 37 is_stmt 0 view .LVU600
 2028 0000 0F23     		movs	r3, #15
 2029 0002 0360     		str	r3, [r0]
1097:Drivers/STM32F7xx_HAL_Driver/Src/stm32f7xx_hal_rcc.c **** 
1098:Drivers/STM32F7xx_HAL_Driver/Src/stm32f7xx_hal_rcc.c ****   /* Get the HSE configuration -----------------------------------------------*/
1099:Drivers/STM32F7xx_HAL_Driver/Src/stm32f7xx_hal_rcc.c ****   if ((RCC->CR & RCC_CR_HSEBYP) == RCC_CR_HSEBYP)
 2030              		.loc 1 1099 3 is_stmt 1 view .LVU601
 2031              		.loc 1 1099 11 is_stmt 0 view .LVU602
 2032 0004 304B     		ldr	r3, .L202
 2033 0006 1B68     		ldr	r3, [r3]
 2034              		.loc 1 1099 6 view .LVU603
 2035 0008 13F4802F 		tst	r3, #262144
 2036 000c 3BD0     		beq	.L190
1100:Drivers/STM32F7xx_HAL_Driver/Src/stm32f7xx_hal_rcc.c ****   {
1101:Drivers/STM32F7xx_HAL_Driver/Src/stm32f7xx_hal_rcc.c ****     RCC_OscInitStruct->HSEState = RCC_HSE_BYPASS;
 2037              		.loc 1 1101 5 is_stmt 1 view .LVU604
 2038              		.loc 1 1101 33 is_stmt 0 view .LVU605
 2039 000e 4FF4A023 		mov	r3, #327680
 2040 0012 4360     		str	r3, [r0, #4]
 2041              	.L191:
1102:Drivers/STM32F7xx_HAL_Driver/Src/stm32f7xx_hal_rcc.c ****   }
1103:Drivers/STM32F7xx_HAL_Driver/Src/stm32f7xx_hal_rcc.c ****   else if ((RCC->CR & RCC_CR_HSEON) == RCC_CR_HSEON)
1104:Drivers/STM32F7xx_HAL_Driver/Src/stm32f7xx_hal_rcc.c ****   {
1105:Drivers/STM32F7xx_HAL_Driver/Src/stm32f7xx_hal_rcc.c ****     RCC_OscInitStruct->HSEState = RCC_HSE_ON;
1106:Drivers/STM32F7xx_HAL_Driver/Src/stm32f7xx_hal_rcc.c ****   }
1107:Drivers/STM32F7xx_HAL_Driver/Src/stm32f7xx_hal_rcc.c ****   else
1108:Drivers/STM32F7xx_HAL_Driver/Src/stm32f7xx_hal_rcc.c ****   {
1109:Drivers/STM32F7xx_HAL_Driver/Src/stm32f7xx_hal_rcc.c ****     RCC_OscInitStruct->HSEState = RCC_HSE_OFF;
1110:Drivers/STM32F7xx_HAL_Driver/Src/stm32f7xx_hal_rcc.c ****   }
1111:Drivers/STM32F7xx_HAL_Driver/Src/stm32f7xx_hal_rcc.c **** 
ARM GAS  D:\Dev\msys64\tmp\cckaQVt1.s 			page 62


1112:Drivers/STM32F7xx_HAL_Driver/Src/stm32f7xx_hal_rcc.c ****   /* Get the HSI configuration -----------------------------------------------*/
1113:Drivers/STM32F7xx_HAL_Driver/Src/stm32f7xx_hal_rcc.c ****   if ((RCC->CR & RCC_CR_HSION) == RCC_CR_HSION)
 2042              		.loc 1 1113 3 is_stmt 1 view .LVU606
 2043              		.loc 1 1113 11 is_stmt 0 view .LVU607
 2044 0014 2C4B     		ldr	r3, .L202
 2045 0016 1B68     		ldr	r3, [r3]
 2046              		.loc 1 1113 6 view .LVU608
 2047 0018 13F0010F 		tst	r3, #1
 2048 001c 3FD0     		beq	.L193
1114:Drivers/STM32F7xx_HAL_Driver/Src/stm32f7xx_hal_rcc.c ****   {
1115:Drivers/STM32F7xx_HAL_Driver/Src/stm32f7xx_hal_rcc.c ****     RCC_OscInitStruct->HSIState = RCC_HSI_ON;
 2049              		.loc 1 1115 5 is_stmt 1 view .LVU609
 2050              		.loc 1 1115 33 is_stmt 0 view .LVU610
 2051 001e 0123     		movs	r3, #1
 2052 0020 C360     		str	r3, [r0, #12]
 2053              	.L194:
1116:Drivers/STM32F7xx_HAL_Driver/Src/stm32f7xx_hal_rcc.c ****   }
1117:Drivers/STM32F7xx_HAL_Driver/Src/stm32f7xx_hal_rcc.c ****   else
1118:Drivers/STM32F7xx_HAL_Driver/Src/stm32f7xx_hal_rcc.c ****   {
1119:Drivers/STM32F7xx_HAL_Driver/Src/stm32f7xx_hal_rcc.c ****     RCC_OscInitStruct->HSIState = RCC_HSI_OFF;
1120:Drivers/STM32F7xx_HAL_Driver/Src/stm32f7xx_hal_rcc.c ****   }
1121:Drivers/STM32F7xx_HAL_Driver/Src/stm32f7xx_hal_rcc.c **** 
1122:Drivers/STM32F7xx_HAL_Driver/Src/stm32f7xx_hal_rcc.c ****   RCC_OscInitStruct->HSICalibrationValue = (uint32_t)((RCC->CR & RCC_CR_HSITRIM) >> RCC_CR_HSITRIM_
 2054              		.loc 1 1122 3 is_stmt 1 view .LVU611
 2055              		.loc 1 1122 59 is_stmt 0 view .LVU612
 2056 0022 294A     		ldr	r2, .L202
 2057 0024 1368     		ldr	r3, [r2]
 2058              		.loc 1 1122 44 view .LVU613
 2059 0026 C3F3C403 		ubfx	r3, r3, #3, #5
 2060              		.loc 1 1122 42 view .LVU614
 2061 002a 0361     		str	r3, [r0, #16]
1123:Drivers/STM32F7xx_HAL_Driver/Src/stm32f7xx_hal_rcc.c **** 
1124:Drivers/STM32F7xx_HAL_Driver/Src/stm32f7xx_hal_rcc.c ****   /* Get the LSE configuration -----------------------------------------------*/
1125:Drivers/STM32F7xx_HAL_Driver/Src/stm32f7xx_hal_rcc.c ****   if ((RCC->BDCR & RCC_BDCR_LSEBYP) == RCC_BDCR_LSEBYP)
 2062              		.loc 1 1125 3 is_stmt 1 view .LVU615
 2063              		.loc 1 1125 11 is_stmt 0 view .LVU616
 2064 002c 136F     		ldr	r3, [r2, #112]
 2065              		.loc 1 1125 6 view .LVU617
 2066 002e 13F0040F 		tst	r3, #4
 2067 0032 37D0     		beq	.L195
1126:Drivers/STM32F7xx_HAL_Driver/Src/stm32f7xx_hal_rcc.c ****   {
1127:Drivers/STM32F7xx_HAL_Driver/Src/stm32f7xx_hal_rcc.c ****     RCC_OscInitStruct->LSEState = RCC_LSE_BYPASS;
 2068              		.loc 1 1127 5 is_stmt 1 view .LVU618
 2069              		.loc 1 1127 33 is_stmt 0 view .LVU619
 2070 0034 0523     		movs	r3, #5
 2071 0036 8360     		str	r3, [r0, #8]
 2072              	.L196:
1128:Drivers/STM32F7xx_HAL_Driver/Src/stm32f7xx_hal_rcc.c ****   }
1129:Drivers/STM32F7xx_HAL_Driver/Src/stm32f7xx_hal_rcc.c ****   else if ((RCC->BDCR & RCC_BDCR_LSEON) == RCC_BDCR_LSEON)
1130:Drivers/STM32F7xx_HAL_Driver/Src/stm32f7xx_hal_rcc.c ****   {
1131:Drivers/STM32F7xx_HAL_Driver/Src/stm32f7xx_hal_rcc.c ****     RCC_OscInitStruct->LSEState = RCC_LSE_ON;
1132:Drivers/STM32F7xx_HAL_Driver/Src/stm32f7xx_hal_rcc.c ****   }
1133:Drivers/STM32F7xx_HAL_Driver/Src/stm32f7xx_hal_rcc.c ****   else
1134:Drivers/STM32F7xx_HAL_Driver/Src/stm32f7xx_hal_rcc.c ****   {
1135:Drivers/STM32F7xx_HAL_Driver/Src/stm32f7xx_hal_rcc.c ****     RCC_OscInitStruct->LSEState = RCC_LSE_OFF;
1136:Drivers/STM32F7xx_HAL_Driver/Src/stm32f7xx_hal_rcc.c ****   }
1137:Drivers/STM32F7xx_HAL_Driver/Src/stm32f7xx_hal_rcc.c **** 
ARM GAS  D:\Dev\msys64\tmp\cckaQVt1.s 			page 63


1138:Drivers/STM32F7xx_HAL_Driver/Src/stm32f7xx_hal_rcc.c ****   /* Get the LSI configuration -----------------------------------------------*/
1139:Drivers/STM32F7xx_HAL_Driver/Src/stm32f7xx_hal_rcc.c ****   if ((RCC->CSR & RCC_CSR_LSION) == RCC_CSR_LSION)
 2073              		.loc 1 1139 3 is_stmt 1 view .LVU620
 2074              		.loc 1 1139 11 is_stmt 0 view .LVU621
 2075 0038 234B     		ldr	r3, .L202
 2076 003a 5B6F     		ldr	r3, [r3, #116]
 2077              		.loc 1 1139 6 view .LVU622
 2078 003c 13F0010F 		tst	r3, #1
 2079 0040 3BD0     		beq	.L198
1140:Drivers/STM32F7xx_HAL_Driver/Src/stm32f7xx_hal_rcc.c ****   {
1141:Drivers/STM32F7xx_HAL_Driver/Src/stm32f7xx_hal_rcc.c ****     RCC_OscInitStruct->LSIState = RCC_LSI_ON;
 2080              		.loc 1 1141 5 is_stmt 1 view .LVU623
 2081              		.loc 1 1141 33 is_stmt 0 view .LVU624
 2082 0042 0123     		movs	r3, #1
 2083 0044 4361     		str	r3, [r0, #20]
 2084              	.L199:
1142:Drivers/STM32F7xx_HAL_Driver/Src/stm32f7xx_hal_rcc.c ****   }
1143:Drivers/STM32F7xx_HAL_Driver/Src/stm32f7xx_hal_rcc.c ****   else
1144:Drivers/STM32F7xx_HAL_Driver/Src/stm32f7xx_hal_rcc.c ****   {
1145:Drivers/STM32F7xx_HAL_Driver/Src/stm32f7xx_hal_rcc.c ****     RCC_OscInitStruct->LSIState = RCC_LSI_OFF;
1146:Drivers/STM32F7xx_HAL_Driver/Src/stm32f7xx_hal_rcc.c ****   }
1147:Drivers/STM32F7xx_HAL_Driver/Src/stm32f7xx_hal_rcc.c **** 
1148:Drivers/STM32F7xx_HAL_Driver/Src/stm32f7xx_hal_rcc.c ****   /* Get the PLL configuration -----------------------------------------------*/
1149:Drivers/STM32F7xx_HAL_Driver/Src/stm32f7xx_hal_rcc.c ****   if ((RCC->CR & RCC_CR_PLLON) == RCC_CR_PLLON)
 2085              		.loc 1 1149 3 is_stmt 1 view .LVU625
 2086              		.loc 1 1149 11 is_stmt 0 view .LVU626
 2087 0046 204B     		ldr	r3, .L202
 2088 0048 1B68     		ldr	r3, [r3]
 2089              		.loc 1 1149 6 view .LVU627
 2090 004a 13F0807F 		tst	r3, #16777216
 2091 004e 37D0     		beq	.L200
1150:Drivers/STM32F7xx_HAL_Driver/Src/stm32f7xx_hal_rcc.c ****   {
1151:Drivers/STM32F7xx_HAL_Driver/Src/stm32f7xx_hal_rcc.c ****     RCC_OscInitStruct->PLL.PLLState = RCC_PLL_ON;
 2092              		.loc 1 1151 5 is_stmt 1 view .LVU628
 2093              		.loc 1 1151 37 is_stmt 0 view .LVU629
 2094 0050 0223     		movs	r3, #2
 2095 0052 8361     		str	r3, [r0, #24]
 2096              	.L201:
1152:Drivers/STM32F7xx_HAL_Driver/Src/stm32f7xx_hal_rcc.c ****   }
1153:Drivers/STM32F7xx_HAL_Driver/Src/stm32f7xx_hal_rcc.c ****   else
1154:Drivers/STM32F7xx_HAL_Driver/Src/stm32f7xx_hal_rcc.c ****   {
1155:Drivers/STM32F7xx_HAL_Driver/Src/stm32f7xx_hal_rcc.c ****     RCC_OscInitStruct->PLL.PLLState = RCC_PLL_OFF;
1156:Drivers/STM32F7xx_HAL_Driver/Src/stm32f7xx_hal_rcc.c ****   }
1157:Drivers/STM32F7xx_HAL_Driver/Src/stm32f7xx_hal_rcc.c ****   RCC_OscInitStruct->PLL.PLLSource = (uint32_t)(RCC->PLLCFGR & RCC_PLLCFGR_PLLSRC);
 2097              		.loc 1 1157 3 is_stmt 1 view .LVU630
 2098              		.loc 1 1157 52 is_stmt 0 view .LVU631
 2099 0054 1C4A     		ldr	r2, .L202
 2100 0056 5368     		ldr	r3, [r2, #4]
 2101              		.loc 1 1157 38 view .LVU632
 2102 0058 03F48003 		and	r3, r3, #4194304
 2103              		.loc 1 1157 36 view .LVU633
 2104 005c C361     		str	r3, [r0, #28]
1158:Drivers/STM32F7xx_HAL_Driver/Src/stm32f7xx_hal_rcc.c ****   RCC_OscInitStruct->PLL.PLLM = (uint32_t)(RCC->PLLCFGR & RCC_PLLCFGR_PLLM);
 2105              		.loc 1 1158 3 is_stmt 1 view .LVU634
 2106              		.loc 1 1158 47 is_stmt 0 view .LVU635
 2107 005e 5368     		ldr	r3, [r2, #4]
 2108              		.loc 1 1158 33 view .LVU636
ARM GAS  D:\Dev\msys64\tmp\cckaQVt1.s 			page 64


 2109 0060 03F03F03 		and	r3, r3, #63
 2110              		.loc 1 1158 31 view .LVU637
 2111 0064 0362     		str	r3, [r0, #32]
1159:Drivers/STM32F7xx_HAL_Driver/Src/stm32f7xx_hal_rcc.c ****   RCC_OscInitStruct->PLL.PLLN = (uint32_t)((RCC->PLLCFGR & RCC_PLLCFGR_PLLN) >> RCC_PLLCFGR_PLLN_Po
 2112              		.loc 1 1159 3 is_stmt 1 view .LVU638
 2113              		.loc 1 1159 48 is_stmt 0 view .LVU639
 2114 0066 5368     		ldr	r3, [r2, #4]
 2115              		.loc 1 1159 33 view .LVU640
 2116 0068 C3F38813 		ubfx	r3, r3, #6, #9
 2117              		.loc 1 1159 31 view .LVU641
 2118 006c 4362     		str	r3, [r0, #36]
1160:Drivers/STM32F7xx_HAL_Driver/Src/stm32f7xx_hal_rcc.c ****   RCC_OscInitStruct->PLL.PLLP = (uint32_t)((((RCC->PLLCFGR & RCC_PLLCFGR_PLLP) + RCC_PLLCFGR_PLLP_0
 2119              		.loc 1 1160 3 is_stmt 1 view .LVU642
 2120              		.loc 1 1160 50 is_stmt 0 view .LVU643
 2121 006e 5368     		ldr	r3, [r2, #4]
 2122              		.loc 1 1160 60 view .LVU644
 2123 0070 03F44033 		and	r3, r3, #196608
 2124              		.loc 1 1160 80 view .LVU645
 2125 0074 03F58033 		add	r3, r3, #65536
 2126              		.loc 1 1160 33 view .LVU646
 2127 0078 DB0B     		lsrs	r3, r3, #15
 2128              		.loc 1 1160 31 view .LVU647
 2129 007a 8362     		str	r3, [r0, #40]
1161:Drivers/STM32F7xx_HAL_Driver/Src/stm32f7xx_hal_rcc.c ****   RCC_OscInitStruct->PLL.PLLQ = (uint32_t)((RCC->PLLCFGR & RCC_PLLCFGR_PLLQ) >> RCC_PLLCFGR_PLLQ_Po
 2130              		.loc 1 1161 3 is_stmt 1 view .LVU648
 2131              		.loc 1 1161 48 is_stmt 0 view .LVU649
 2132 007c 5368     		ldr	r3, [r2, #4]
 2133              		.loc 1 1161 33 view .LVU650
 2134 007e C3F30363 		ubfx	r3, r3, #24, #4
 2135              		.loc 1 1161 31 view .LVU651
 2136 0082 C362     		str	r3, [r0, #44]
1162:Drivers/STM32F7xx_HAL_Driver/Src/stm32f7xx_hal_rcc.c **** #if defined (RCC_PLLCFGR_PLLR)
1163:Drivers/STM32F7xx_HAL_Driver/Src/stm32f7xx_hal_rcc.c ****   RCC_OscInitStruct->PLL.PLLR = (uint32_t)((RCC->PLLCFGR & RCC_PLLCFGR_PLLR) >> POSITION_VAL(RCC_PL
1164:Drivers/STM32F7xx_HAL_Driver/Src/stm32f7xx_hal_rcc.c **** #endif
1165:Drivers/STM32F7xx_HAL_Driver/Src/stm32f7xx_hal_rcc.c **** }
 2137              		.loc 1 1165 1 view .LVU652
 2138 0084 7047     		bx	lr
 2139              	.L190:
1103:Drivers/STM32F7xx_HAL_Driver/Src/stm32f7xx_hal_rcc.c ****   {
 2140              		.loc 1 1103 8 is_stmt 1 view .LVU653
1103:Drivers/STM32F7xx_HAL_Driver/Src/stm32f7xx_hal_rcc.c ****   {
 2141              		.loc 1 1103 16 is_stmt 0 view .LVU654
 2142 0086 104B     		ldr	r3, .L202
 2143 0088 1B68     		ldr	r3, [r3]
1103:Drivers/STM32F7xx_HAL_Driver/Src/stm32f7xx_hal_rcc.c ****   {
 2144              		.loc 1 1103 11 view .LVU655
 2145 008a 13F4803F 		tst	r3, #65536
 2146 008e 03D0     		beq	.L192
1105:Drivers/STM32F7xx_HAL_Driver/Src/stm32f7xx_hal_rcc.c ****   }
 2147              		.loc 1 1105 5 is_stmt 1 view .LVU656
1105:Drivers/STM32F7xx_HAL_Driver/Src/stm32f7xx_hal_rcc.c ****   }
 2148              		.loc 1 1105 33 is_stmt 0 view .LVU657
 2149 0090 4FF48033 		mov	r3, #65536
 2150 0094 4360     		str	r3, [r0, #4]
 2151 0096 BDE7     		b	.L191
 2152              	.L192:
1109:Drivers/STM32F7xx_HAL_Driver/Src/stm32f7xx_hal_rcc.c ****   }
ARM GAS  D:\Dev\msys64\tmp\cckaQVt1.s 			page 65


 2153              		.loc 1 1109 5 is_stmt 1 view .LVU658
1109:Drivers/STM32F7xx_HAL_Driver/Src/stm32f7xx_hal_rcc.c ****   }
 2154              		.loc 1 1109 33 is_stmt 0 view .LVU659
 2155 0098 0023     		movs	r3, #0
 2156 009a 4360     		str	r3, [r0, #4]
 2157 009c BAE7     		b	.L191
 2158              	.L193:
1119:Drivers/STM32F7xx_HAL_Driver/Src/stm32f7xx_hal_rcc.c ****   }
 2159              		.loc 1 1119 5 is_stmt 1 view .LVU660
1119:Drivers/STM32F7xx_HAL_Driver/Src/stm32f7xx_hal_rcc.c ****   }
 2160              		.loc 1 1119 33 is_stmt 0 view .LVU661
 2161 009e 0023     		movs	r3, #0
 2162 00a0 C360     		str	r3, [r0, #12]
 2163 00a2 BEE7     		b	.L194
 2164              	.L195:
1129:Drivers/STM32F7xx_HAL_Driver/Src/stm32f7xx_hal_rcc.c ****   {
 2165              		.loc 1 1129 8 is_stmt 1 view .LVU662
1129:Drivers/STM32F7xx_HAL_Driver/Src/stm32f7xx_hal_rcc.c ****   {
 2166              		.loc 1 1129 16 is_stmt 0 view .LVU663
 2167 00a4 084B     		ldr	r3, .L202
 2168 00a6 1B6F     		ldr	r3, [r3, #112]
1129:Drivers/STM32F7xx_HAL_Driver/Src/stm32f7xx_hal_rcc.c ****   {
 2169              		.loc 1 1129 11 view .LVU664
 2170 00a8 13F0010F 		tst	r3, #1
 2171 00ac 02D0     		beq	.L197
1131:Drivers/STM32F7xx_HAL_Driver/Src/stm32f7xx_hal_rcc.c ****   }
 2172              		.loc 1 1131 5 is_stmt 1 view .LVU665
1131:Drivers/STM32F7xx_HAL_Driver/Src/stm32f7xx_hal_rcc.c ****   }
 2173              		.loc 1 1131 33 is_stmt 0 view .LVU666
 2174 00ae 0123     		movs	r3, #1
 2175 00b0 8360     		str	r3, [r0, #8]
 2176 00b2 C1E7     		b	.L196
 2177              	.L197:
1135:Drivers/STM32F7xx_HAL_Driver/Src/stm32f7xx_hal_rcc.c ****   }
 2178              		.loc 1 1135 5 is_stmt 1 view .LVU667
1135:Drivers/STM32F7xx_HAL_Driver/Src/stm32f7xx_hal_rcc.c ****   }
 2179              		.loc 1 1135 33 is_stmt 0 view .LVU668
 2180 00b4 0023     		movs	r3, #0
 2181 00b6 8360     		str	r3, [r0, #8]
 2182 00b8 BEE7     		b	.L196
 2183              	.L198:
1145:Drivers/STM32F7xx_HAL_Driver/Src/stm32f7xx_hal_rcc.c ****   }
 2184              		.loc 1 1145 5 is_stmt 1 view .LVU669
1145:Drivers/STM32F7xx_HAL_Driver/Src/stm32f7xx_hal_rcc.c ****   }
 2185              		.loc 1 1145 33 is_stmt 0 view .LVU670
 2186 00ba 0023     		movs	r3, #0
 2187 00bc 4361     		str	r3, [r0, #20]
 2188 00be C2E7     		b	.L199
 2189              	.L200:
1155:Drivers/STM32F7xx_HAL_Driver/Src/stm32f7xx_hal_rcc.c ****   }
 2190              		.loc 1 1155 5 is_stmt 1 view .LVU671
1155:Drivers/STM32F7xx_HAL_Driver/Src/stm32f7xx_hal_rcc.c ****   }
 2191              		.loc 1 1155 37 is_stmt 0 view .LVU672
 2192 00c0 0123     		movs	r3, #1
 2193 00c2 8361     		str	r3, [r0, #24]
 2194 00c4 C6E7     		b	.L201
 2195              	.L203:
ARM GAS  D:\Dev\msys64\tmp\cckaQVt1.s 			page 66


 2196 00c6 00BF     		.align	2
 2197              	.L202:
 2198 00c8 00380240 		.word	1073887232
 2199              		.cfi_endproc
 2200              	.LFE151:
 2202              		.section	.text.HAL_RCC_GetClockConfig,"ax",%progbits
 2203              		.align	1
 2204              		.global	HAL_RCC_GetClockConfig
 2205              		.syntax unified
 2206              		.thumb
 2207              		.thumb_func
 2208              		.fpu fpv5-sp-d16
 2210              	HAL_RCC_GetClockConfig:
 2211              	.LVL130:
 2212              	.LFB152:
1166:Drivers/STM32F7xx_HAL_Driver/Src/stm32f7xx_hal_rcc.c **** 
1167:Drivers/STM32F7xx_HAL_Driver/Src/stm32f7xx_hal_rcc.c **** /**
1168:Drivers/STM32F7xx_HAL_Driver/Src/stm32f7xx_hal_rcc.c ****   * @brief  Configures the RCC_ClkInitStruct according to the internal
1169:Drivers/STM32F7xx_HAL_Driver/Src/stm32f7xx_hal_rcc.c ****   * RCC configuration registers.
1170:Drivers/STM32F7xx_HAL_Driver/Src/stm32f7xx_hal_rcc.c ****   * @param  RCC_ClkInitStruct pointer to an RCC_ClkInitTypeDef structure that
1171:Drivers/STM32F7xx_HAL_Driver/Src/stm32f7xx_hal_rcc.c ****   * will be configured.
1172:Drivers/STM32F7xx_HAL_Driver/Src/stm32f7xx_hal_rcc.c ****   * @param  pFLatency Pointer on the Flash Latency.
1173:Drivers/STM32F7xx_HAL_Driver/Src/stm32f7xx_hal_rcc.c ****   * @retval None
1174:Drivers/STM32F7xx_HAL_Driver/Src/stm32f7xx_hal_rcc.c ****   */
1175:Drivers/STM32F7xx_HAL_Driver/Src/stm32f7xx_hal_rcc.c **** void HAL_RCC_GetClockConfig(RCC_ClkInitTypeDef  *RCC_ClkInitStruct, uint32_t *pFLatency)
1176:Drivers/STM32F7xx_HAL_Driver/Src/stm32f7xx_hal_rcc.c **** {
 2213              		.loc 1 1176 1 is_stmt 1 view -0
 2214              		.cfi_startproc
 2215              		@ args = 0, pretend = 0, frame = 0
 2216              		@ frame_needed = 0, uses_anonymous_args = 0
 2217              		@ link register save eliminated.
1177:Drivers/STM32F7xx_HAL_Driver/Src/stm32f7xx_hal_rcc.c ****   /* Set all possible values for the Clock type parameter --------------------*/
1178:Drivers/STM32F7xx_HAL_Driver/Src/stm32f7xx_hal_rcc.c ****   RCC_ClkInitStruct->ClockType = RCC_CLOCKTYPE_SYSCLK | RCC_CLOCKTYPE_HCLK | RCC_CLOCKTYPE_PCLK1 | 
 2218              		.loc 1 1178 3 view .LVU674
 2219              		.loc 1 1178 32 is_stmt 0 view .LVU675
 2220 0000 0F23     		movs	r3, #15
 2221 0002 0360     		str	r3, [r0]
1179:Drivers/STM32F7xx_HAL_Driver/Src/stm32f7xx_hal_rcc.c **** 
1180:Drivers/STM32F7xx_HAL_Driver/Src/stm32f7xx_hal_rcc.c ****   /* Get the SYSCLK configuration --------------------------------------------*/
1181:Drivers/STM32F7xx_HAL_Driver/Src/stm32f7xx_hal_rcc.c ****   RCC_ClkInitStruct->SYSCLKSource = (uint32_t)(RCC->CFGR & RCC_CFGR_SW);
 2222              		.loc 1 1181 3 is_stmt 1 view .LVU676
 2223              		.loc 1 1181 51 is_stmt 0 view .LVU677
 2224 0004 0B4B     		ldr	r3, .L205
 2225 0006 9A68     		ldr	r2, [r3, #8]
 2226              		.loc 1 1181 37 view .LVU678
 2227 0008 02F00302 		and	r2, r2, #3
 2228              		.loc 1 1181 35 view .LVU679
 2229 000c 4260     		str	r2, [r0, #4]
1182:Drivers/STM32F7xx_HAL_Driver/Src/stm32f7xx_hal_rcc.c **** 
1183:Drivers/STM32F7xx_HAL_Driver/Src/stm32f7xx_hal_rcc.c ****   /* Get the HCLK configuration ----------------------------------------------*/
1184:Drivers/STM32F7xx_HAL_Driver/Src/stm32f7xx_hal_rcc.c ****   RCC_ClkInitStruct->AHBCLKDivider = (uint32_t)(RCC->CFGR & RCC_CFGR_HPRE);
 2230              		.loc 1 1184 3 is_stmt 1 view .LVU680
 2231              		.loc 1 1184 52 is_stmt 0 view .LVU681
 2232 000e 9A68     		ldr	r2, [r3, #8]
 2233              		.loc 1 1184 38 view .LVU682
 2234 0010 02F0F002 		and	r2, r2, #240
 2235              		.loc 1 1184 36 view .LVU683
ARM GAS  D:\Dev\msys64\tmp\cckaQVt1.s 			page 67


 2236 0014 8260     		str	r2, [r0, #8]
1185:Drivers/STM32F7xx_HAL_Driver/Src/stm32f7xx_hal_rcc.c **** 
1186:Drivers/STM32F7xx_HAL_Driver/Src/stm32f7xx_hal_rcc.c ****   /* Get the APB1 configuration ----------------------------------------------*/
1187:Drivers/STM32F7xx_HAL_Driver/Src/stm32f7xx_hal_rcc.c ****   RCC_ClkInitStruct->APB1CLKDivider = (uint32_t)(RCC->CFGR & RCC_CFGR_PPRE1);
 2237              		.loc 1 1187 3 is_stmt 1 view .LVU684
 2238              		.loc 1 1187 53 is_stmt 0 view .LVU685
 2239 0016 9A68     		ldr	r2, [r3, #8]
 2240              		.loc 1 1187 39 view .LVU686
 2241 0018 02F4E052 		and	r2, r2, #7168
 2242              		.loc 1 1187 37 view .LVU687
 2243 001c C260     		str	r2, [r0, #12]
1188:Drivers/STM32F7xx_HAL_Driver/Src/stm32f7xx_hal_rcc.c **** 
1189:Drivers/STM32F7xx_HAL_Driver/Src/stm32f7xx_hal_rcc.c ****   /* Get the APB2 configuration ----------------------------------------------*/
1190:Drivers/STM32F7xx_HAL_Driver/Src/stm32f7xx_hal_rcc.c ****   RCC_ClkInitStruct->APB2CLKDivider = (uint32_t)((RCC->CFGR & RCC_CFGR_PPRE2) >> 3);
 2244              		.loc 1 1190 3 is_stmt 1 view .LVU688
 2245              		.loc 1 1190 54 is_stmt 0 view .LVU689
 2246 001e 9B68     		ldr	r3, [r3, #8]
 2247              		.loc 1 1190 39 view .LVU690
 2248 0020 DB08     		lsrs	r3, r3, #3
 2249 0022 03F4E053 		and	r3, r3, #7168
 2250              		.loc 1 1190 37 view .LVU691
 2251 0026 0361     		str	r3, [r0, #16]
1191:Drivers/STM32F7xx_HAL_Driver/Src/stm32f7xx_hal_rcc.c **** 
1192:Drivers/STM32F7xx_HAL_Driver/Src/stm32f7xx_hal_rcc.c ****   /* Get the Flash Wait State (Latency) configuration ------------------------*/
1193:Drivers/STM32F7xx_HAL_Driver/Src/stm32f7xx_hal_rcc.c ****   *pFLatency = (uint32_t)(FLASH->ACR & FLASH_ACR_LATENCY);
 2252              		.loc 1 1193 3 is_stmt 1 view .LVU692
 2253              		.loc 1 1193 32 is_stmt 0 view .LVU693
 2254 0028 034B     		ldr	r3, .L205+4
 2255 002a 1B68     		ldr	r3, [r3]
 2256              		.loc 1 1193 16 view .LVU694
 2257 002c 03F00F03 		and	r3, r3, #15
 2258              		.loc 1 1193 14 view .LVU695
 2259 0030 0B60     		str	r3, [r1]
1194:Drivers/STM32F7xx_HAL_Driver/Src/stm32f7xx_hal_rcc.c **** }
 2260              		.loc 1 1194 1 view .LVU696
 2261 0032 7047     		bx	lr
 2262              	.L206:
 2263              		.align	2
 2264              	.L205:
 2265 0034 00380240 		.word	1073887232
 2266 0038 003C0240 		.word	1073888256
 2267              		.cfi_endproc
 2268              	.LFE152:
 2270              		.section	.text.HAL_RCC_CSSCallback,"ax",%progbits
 2271              		.align	1
 2272              		.weak	HAL_RCC_CSSCallback
 2273              		.syntax unified
 2274              		.thumb
 2275              		.thumb_func
 2276              		.fpu fpv5-sp-d16
 2278              	HAL_RCC_CSSCallback:
 2279              	.LFB154:
1195:Drivers/STM32F7xx_HAL_Driver/Src/stm32f7xx_hal_rcc.c **** 
1196:Drivers/STM32F7xx_HAL_Driver/Src/stm32f7xx_hal_rcc.c **** /**
1197:Drivers/STM32F7xx_HAL_Driver/Src/stm32f7xx_hal_rcc.c ****   * @brief This function handles the RCC CSS interrupt request.
1198:Drivers/STM32F7xx_HAL_Driver/Src/stm32f7xx_hal_rcc.c ****   * @note This API should be called under the NMI_Handler().
1199:Drivers/STM32F7xx_HAL_Driver/Src/stm32f7xx_hal_rcc.c ****   * @retval None
ARM GAS  D:\Dev\msys64\tmp\cckaQVt1.s 			page 68


1200:Drivers/STM32F7xx_HAL_Driver/Src/stm32f7xx_hal_rcc.c ****   */
1201:Drivers/STM32F7xx_HAL_Driver/Src/stm32f7xx_hal_rcc.c **** void HAL_RCC_NMI_IRQHandler(void)
1202:Drivers/STM32F7xx_HAL_Driver/Src/stm32f7xx_hal_rcc.c **** {
1203:Drivers/STM32F7xx_HAL_Driver/Src/stm32f7xx_hal_rcc.c ****   /* Check RCC CSSF flag  */
1204:Drivers/STM32F7xx_HAL_Driver/Src/stm32f7xx_hal_rcc.c ****   if (__HAL_RCC_GET_IT(RCC_IT_CSS))
1205:Drivers/STM32F7xx_HAL_Driver/Src/stm32f7xx_hal_rcc.c ****   {
1206:Drivers/STM32F7xx_HAL_Driver/Src/stm32f7xx_hal_rcc.c ****     /* RCC Clock Security System interrupt user callback */
1207:Drivers/STM32F7xx_HAL_Driver/Src/stm32f7xx_hal_rcc.c ****     HAL_RCC_CSSCallback();
1208:Drivers/STM32F7xx_HAL_Driver/Src/stm32f7xx_hal_rcc.c **** 
1209:Drivers/STM32F7xx_HAL_Driver/Src/stm32f7xx_hal_rcc.c ****     /* Clear RCC CSS pending bit */
1210:Drivers/STM32F7xx_HAL_Driver/Src/stm32f7xx_hal_rcc.c ****     __HAL_RCC_CLEAR_IT(RCC_IT_CSS);
1211:Drivers/STM32F7xx_HAL_Driver/Src/stm32f7xx_hal_rcc.c ****   }
1212:Drivers/STM32F7xx_HAL_Driver/Src/stm32f7xx_hal_rcc.c **** }
1213:Drivers/STM32F7xx_HAL_Driver/Src/stm32f7xx_hal_rcc.c **** 
1214:Drivers/STM32F7xx_HAL_Driver/Src/stm32f7xx_hal_rcc.c **** /**
1215:Drivers/STM32F7xx_HAL_Driver/Src/stm32f7xx_hal_rcc.c ****   * @brief  RCC Clock Security System interrupt callback
1216:Drivers/STM32F7xx_HAL_Driver/Src/stm32f7xx_hal_rcc.c ****   * @retval None
1217:Drivers/STM32F7xx_HAL_Driver/Src/stm32f7xx_hal_rcc.c ****   */
1218:Drivers/STM32F7xx_HAL_Driver/Src/stm32f7xx_hal_rcc.c **** __weak void HAL_RCC_CSSCallback(void)
1219:Drivers/STM32F7xx_HAL_Driver/Src/stm32f7xx_hal_rcc.c **** {
 2280              		.loc 1 1219 1 is_stmt 1 view -0
 2281              		.cfi_startproc
 2282              		@ args = 0, pretend = 0, frame = 0
 2283              		@ frame_needed = 0, uses_anonymous_args = 0
 2284              		@ link register save eliminated.
1220:Drivers/STM32F7xx_HAL_Driver/Src/stm32f7xx_hal_rcc.c ****   /* NOTE : This function Should not be modified, when the callback is needed,
1221:Drivers/STM32F7xx_HAL_Driver/Src/stm32f7xx_hal_rcc.c ****             the HAL_RCC_CSSCallback could be implemented in the user file
1222:Drivers/STM32F7xx_HAL_Driver/Src/stm32f7xx_hal_rcc.c ****    */
1223:Drivers/STM32F7xx_HAL_Driver/Src/stm32f7xx_hal_rcc.c **** }
 2285              		.loc 1 1223 1 view .LVU698
 2286 0000 7047     		bx	lr
 2287              		.cfi_endproc
 2288              	.LFE154:
 2290              		.section	.text.HAL_RCC_NMI_IRQHandler,"ax",%progbits
 2291              		.align	1
 2292              		.global	HAL_RCC_NMI_IRQHandler
 2293              		.syntax unified
 2294              		.thumb
 2295              		.thumb_func
 2296              		.fpu fpv5-sp-d16
 2298              	HAL_RCC_NMI_IRQHandler:
 2299              	.LFB153:
1202:Drivers/STM32F7xx_HAL_Driver/Src/stm32f7xx_hal_rcc.c ****   /* Check RCC CSSF flag  */
 2300              		.loc 1 1202 1 view -0
 2301              		.cfi_startproc
 2302              		@ args = 0, pretend = 0, frame = 0
 2303              		@ frame_needed = 0, uses_anonymous_args = 0
 2304 0000 08B5     		push	{r3, lr}
 2305              	.LCFI17:
 2306              		.cfi_def_cfa_offset 8
 2307              		.cfi_offset 3, -8
 2308              		.cfi_offset 14, -4
1204:Drivers/STM32F7xx_HAL_Driver/Src/stm32f7xx_hal_rcc.c ****   {
 2309              		.loc 1 1204 3 view .LVU700
1204:Drivers/STM32F7xx_HAL_Driver/Src/stm32f7xx_hal_rcc.c ****   {
 2310              		.loc 1 1204 7 is_stmt 0 view .LVU701
 2311 0002 064B     		ldr	r3, .L212
ARM GAS  D:\Dev\msys64\tmp\cckaQVt1.s 			page 69


 2312 0004 DB68     		ldr	r3, [r3, #12]
1204:Drivers/STM32F7xx_HAL_Driver/Src/stm32f7xx_hal_rcc.c ****   {
 2313              		.loc 1 1204 6 view .LVU702
 2314 0006 13F0800F 		tst	r3, #128
 2315 000a 00D1     		bne	.L211
 2316              	.L208:
1212:Drivers/STM32F7xx_HAL_Driver/Src/stm32f7xx_hal_rcc.c **** 
 2317              		.loc 1 1212 1 view .LVU703
