ARM GAS  D:\Dev\msys64\tmp\ccnJ960g.s 			page 1


   1              		.cpu cortex-m7
   2              		.eabi_attribute 27, 1
   3              		.eabi_attribute 28, 1
   4              		.eabi_attribute 20, 1
   5              		.eabi_attribute 21, 1
   6              		.eabi_attribute 23, 3
   7              		.eabi_attribute 24, 1
   8              		.eabi_attribute 25, 1
   9              		.eabi_attribute 26, 1
  10              		.eabi_attribute 30, 1
  11              		.eabi_attribute 34, 1
  12              		.eabi_attribute 18, 4
  13              		.file	"stm32f7xx_hal_gpio.c"
  14              		.text
  15              	.Ltext0:
  16              		.cfi_sections	.debug_frame
  17              		.section	.text.HAL_GPIO_Init,"ax",%progbits
  18              		.align	1
  19              		.global	HAL_GPIO_Init
  20              		.arch armv7e-m
  21              		.syntax unified
  22              		.thumb
  23              		.thumb_func
  24              		.fpu fpv5-sp-d16
  26              	HAL_GPIO_Init:
  27              	.LVL0:
  28              	.LFB141:
  29              		.file 1 "Drivers/STM32F7xx_HAL_Driver/Src/stm32f7xx_hal_gpio.c"
   1:Drivers/STM32F7xx_HAL_Driver/Src/stm32f7xx_hal_gpio.c **** /**
   2:Drivers/STM32F7xx_HAL_Driver/Src/stm32f7xx_hal_gpio.c ****   ******************************************************************************
   3:Drivers/STM32F7xx_HAL_Driver/Src/stm32f7xx_hal_gpio.c ****   * @file    stm32f7xx_hal_gpio.c
   4:Drivers/STM32F7xx_HAL_Driver/Src/stm32f7xx_hal_gpio.c ****   * @author  MCD Application Team
   5:Drivers/STM32F7xx_HAL_Driver/Src/stm32f7xx_hal_gpio.c ****   * @brief   GPIO HAL module driver.
   6:Drivers/STM32F7xx_HAL_Driver/Src/stm32f7xx_hal_gpio.c ****   *          This file provides firmware functions to manage the following 
   7:Drivers/STM32F7xx_HAL_Driver/Src/stm32f7xx_hal_gpio.c ****   *          functionalities of the General Purpose Input/Output (GPIO) peripheral:
   8:Drivers/STM32F7xx_HAL_Driver/Src/stm32f7xx_hal_gpio.c ****   *           + Initialization and de-initialization functions
   9:Drivers/STM32F7xx_HAL_Driver/Src/stm32f7xx_hal_gpio.c ****   *           + IO operation functions
  10:Drivers/STM32F7xx_HAL_Driver/Src/stm32f7xx_hal_gpio.c ****   *
  11:Drivers/STM32F7xx_HAL_Driver/Src/stm32f7xx_hal_gpio.c ****   @verbatim
  12:Drivers/STM32F7xx_HAL_Driver/Src/stm32f7xx_hal_gpio.c ****   ==============================================================================
  13:Drivers/STM32F7xx_HAL_Driver/Src/stm32f7xx_hal_gpio.c ****                     ##### GPIO Peripheral features #####
  14:Drivers/STM32F7xx_HAL_Driver/Src/stm32f7xx_hal_gpio.c ****   ==============================================================================
  15:Drivers/STM32F7xx_HAL_Driver/Src/stm32f7xx_hal_gpio.c ****   [..] 
  16:Drivers/STM32F7xx_HAL_Driver/Src/stm32f7xx_hal_gpio.c ****   Subject to the specific hardware characteristics of each I/O port listed in the datasheet, each
  17:Drivers/STM32F7xx_HAL_Driver/Src/stm32f7xx_hal_gpio.c ****   port bit of the General Purpose IO (GPIO) Ports, can be individually configured by software
  18:Drivers/STM32F7xx_HAL_Driver/Src/stm32f7xx_hal_gpio.c ****   in several modes:
  19:Drivers/STM32F7xx_HAL_Driver/Src/stm32f7xx_hal_gpio.c ****   (+) Input mode 
  20:Drivers/STM32F7xx_HAL_Driver/Src/stm32f7xx_hal_gpio.c ****   (+) Analog mode
  21:Drivers/STM32F7xx_HAL_Driver/Src/stm32f7xx_hal_gpio.c ****   (+) Output mode
  22:Drivers/STM32F7xx_HAL_Driver/Src/stm32f7xx_hal_gpio.c ****   (+) Alternate function mode
  23:Drivers/STM32F7xx_HAL_Driver/Src/stm32f7xx_hal_gpio.c ****   (+) External interrupt/event lines
  24:Drivers/STM32F7xx_HAL_Driver/Src/stm32f7xx_hal_gpio.c **** 
  25:Drivers/STM32F7xx_HAL_Driver/Src/stm32f7xx_hal_gpio.c ****   [..]  
  26:Drivers/STM32F7xx_HAL_Driver/Src/stm32f7xx_hal_gpio.c ****   During and just after reset, the alternate functions and external interrupt  
  27:Drivers/STM32F7xx_HAL_Driver/Src/stm32f7xx_hal_gpio.c ****   lines are not active and the I/O ports are configured in input floating mode.
  28:Drivers/STM32F7xx_HAL_Driver/Src/stm32f7xx_hal_gpio.c ****   
  29:Drivers/STM32F7xx_HAL_Driver/Src/stm32f7xx_hal_gpio.c ****   [..]   
ARM GAS  D:\Dev\msys64\tmp\ccnJ960g.s 			page 2


  30:Drivers/STM32F7xx_HAL_Driver/Src/stm32f7xx_hal_gpio.c ****   All GPIO pins have weak internal pull-up and pull-down resistors, which can be 
  31:Drivers/STM32F7xx_HAL_Driver/Src/stm32f7xx_hal_gpio.c ****   activated or not.
  32:Drivers/STM32F7xx_HAL_Driver/Src/stm32f7xx_hal_gpio.c **** 
  33:Drivers/STM32F7xx_HAL_Driver/Src/stm32f7xx_hal_gpio.c ****   [..]
  34:Drivers/STM32F7xx_HAL_Driver/Src/stm32f7xx_hal_gpio.c ****   In Output or Alternate mode, each IO can be configured on open-drain or push-pull
  35:Drivers/STM32F7xx_HAL_Driver/Src/stm32f7xx_hal_gpio.c ****   type and the IO speed can be selected depending on the VDD value.
  36:Drivers/STM32F7xx_HAL_Driver/Src/stm32f7xx_hal_gpio.c **** 
  37:Drivers/STM32F7xx_HAL_Driver/Src/stm32f7xx_hal_gpio.c ****   [..]  
  38:Drivers/STM32F7xx_HAL_Driver/Src/stm32f7xx_hal_gpio.c ****   All ports have external interrupt/event capability. To use external interrupt 
  39:Drivers/STM32F7xx_HAL_Driver/Src/stm32f7xx_hal_gpio.c ****   lines, the port must be configured in input mode. All available GPIO pins are 
  40:Drivers/STM32F7xx_HAL_Driver/Src/stm32f7xx_hal_gpio.c ****   connected to the 16 external interrupt/event lines from EXTI0 to EXTI15.
  41:Drivers/STM32F7xx_HAL_Driver/Src/stm32f7xx_hal_gpio.c ****   
  42:Drivers/STM32F7xx_HAL_Driver/Src/stm32f7xx_hal_gpio.c ****   [..]
  43:Drivers/STM32F7xx_HAL_Driver/Src/stm32f7xx_hal_gpio.c ****   The external interrupt/event controller consists of up to 23 edge detectors 
  44:Drivers/STM32F7xx_HAL_Driver/Src/stm32f7xx_hal_gpio.c ****   (16 lines are connected to GPIO) for generating event/interrupt requests (each 
  45:Drivers/STM32F7xx_HAL_Driver/Src/stm32f7xx_hal_gpio.c ****   input line can be independently configured to select the type (interrupt or event) 
  46:Drivers/STM32F7xx_HAL_Driver/Src/stm32f7xx_hal_gpio.c ****   and the corresponding trigger event (rising or falling or both). Each line can 
  47:Drivers/STM32F7xx_HAL_Driver/Src/stm32f7xx_hal_gpio.c ****   also be masked independently. 
  48:Drivers/STM32F7xx_HAL_Driver/Src/stm32f7xx_hal_gpio.c **** 
  49:Drivers/STM32F7xx_HAL_Driver/Src/stm32f7xx_hal_gpio.c ****                      ##### How to use this driver #####
  50:Drivers/STM32F7xx_HAL_Driver/Src/stm32f7xx_hal_gpio.c ****   ==============================================================================  
  51:Drivers/STM32F7xx_HAL_Driver/Src/stm32f7xx_hal_gpio.c ****   [..]
  52:Drivers/STM32F7xx_HAL_Driver/Src/stm32f7xx_hal_gpio.c ****     (#) Enable the GPIO AHB clock using the following function: __HAL_RCC_GPIOx_CLK_ENABLE(). 
  53:Drivers/STM32F7xx_HAL_Driver/Src/stm32f7xx_hal_gpio.c **** 
  54:Drivers/STM32F7xx_HAL_Driver/Src/stm32f7xx_hal_gpio.c ****     (#) Configure the GPIO pin(s) using HAL_GPIO_Init().
  55:Drivers/STM32F7xx_HAL_Driver/Src/stm32f7xx_hal_gpio.c ****         (++) Configure the IO mode using "Mode" member from GPIO_InitTypeDef structure
  56:Drivers/STM32F7xx_HAL_Driver/Src/stm32f7xx_hal_gpio.c ****         (++) Activate Pull-up, Pull-down resistor using "Pull" member from GPIO_InitTypeDef 
  57:Drivers/STM32F7xx_HAL_Driver/Src/stm32f7xx_hal_gpio.c ****              structure.
  58:Drivers/STM32F7xx_HAL_Driver/Src/stm32f7xx_hal_gpio.c ****         (++) In case of Output or alternate function mode selection: the speed is 
  59:Drivers/STM32F7xx_HAL_Driver/Src/stm32f7xx_hal_gpio.c ****              configured through "Speed" member from GPIO_InitTypeDef structure.
  60:Drivers/STM32F7xx_HAL_Driver/Src/stm32f7xx_hal_gpio.c ****         (++) In alternate mode is selection, the alternate function connected to the IO
  61:Drivers/STM32F7xx_HAL_Driver/Src/stm32f7xx_hal_gpio.c ****              is configured through "Alternate" member from GPIO_InitTypeDef structure.
  62:Drivers/STM32F7xx_HAL_Driver/Src/stm32f7xx_hal_gpio.c ****         (++) Analog mode is required when a pin is to be used as ADC channel 
  63:Drivers/STM32F7xx_HAL_Driver/Src/stm32f7xx_hal_gpio.c ****              or DAC output.
  64:Drivers/STM32F7xx_HAL_Driver/Src/stm32f7xx_hal_gpio.c ****         (++) In case of external interrupt/event selection the "Mode" member from 
  65:Drivers/STM32F7xx_HAL_Driver/Src/stm32f7xx_hal_gpio.c ****              GPIO_InitTypeDef structure select the type (interrupt or event) and 
  66:Drivers/STM32F7xx_HAL_Driver/Src/stm32f7xx_hal_gpio.c ****              the corresponding trigger event (rising or falling or both).
  67:Drivers/STM32F7xx_HAL_Driver/Src/stm32f7xx_hal_gpio.c **** 
  68:Drivers/STM32F7xx_HAL_Driver/Src/stm32f7xx_hal_gpio.c ****     (#) In case of external interrupt/event mode selection, configure NVIC IRQ priority 
  69:Drivers/STM32F7xx_HAL_Driver/Src/stm32f7xx_hal_gpio.c ****         mapped to the EXTI line using HAL_NVIC_SetPriority() and enable it using
  70:Drivers/STM32F7xx_HAL_Driver/Src/stm32f7xx_hal_gpio.c ****         HAL_NVIC_EnableIRQ().
  71:Drivers/STM32F7xx_HAL_Driver/Src/stm32f7xx_hal_gpio.c ****          
  72:Drivers/STM32F7xx_HAL_Driver/Src/stm32f7xx_hal_gpio.c ****     (#) To get the level of a pin configured in input mode use HAL_GPIO_ReadPin().
  73:Drivers/STM32F7xx_HAL_Driver/Src/stm32f7xx_hal_gpio.c ****             
  74:Drivers/STM32F7xx_HAL_Driver/Src/stm32f7xx_hal_gpio.c ****     (#) To set/reset the level of a pin configured in output mode use 
  75:Drivers/STM32F7xx_HAL_Driver/Src/stm32f7xx_hal_gpio.c ****         HAL_GPIO_WritePin()/HAL_GPIO_TogglePin().
  76:Drivers/STM32F7xx_HAL_Driver/Src/stm32f7xx_hal_gpio.c ****     
  77:Drivers/STM32F7xx_HAL_Driver/Src/stm32f7xx_hal_gpio.c ****     (#) To lock pin configuration until next reset use HAL_GPIO_LockPin().
  78:Drivers/STM32F7xx_HAL_Driver/Src/stm32f7xx_hal_gpio.c **** 
  79:Drivers/STM32F7xx_HAL_Driver/Src/stm32f7xx_hal_gpio.c ****                  
  80:Drivers/STM32F7xx_HAL_Driver/Src/stm32f7xx_hal_gpio.c ****     (#) During and just after reset, the alternate functions are not 
  81:Drivers/STM32F7xx_HAL_Driver/Src/stm32f7xx_hal_gpio.c ****         active and the GPIO pins are configured in input floating mode (except JTAG
  82:Drivers/STM32F7xx_HAL_Driver/Src/stm32f7xx_hal_gpio.c ****         pins).
  83:Drivers/STM32F7xx_HAL_Driver/Src/stm32f7xx_hal_gpio.c ****   
  84:Drivers/STM32F7xx_HAL_Driver/Src/stm32f7xx_hal_gpio.c ****     (#) The LSE oscillator pins OSC32_IN and OSC32_OUT can be used as general purpose 
  85:Drivers/STM32F7xx_HAL_Driver/Src/stm32f7xx_hal_gpio.c ****         (PC14 and PC15, respectively) when the LSE oscillator is off. The LSE has 
  86:Drivers/STM32F7xx_HAL_Driver/Src/stm32f7xx_hal_gpio.c ****         priority over the GPIO function.
ARM GAS  D:\Dev\msys64\tmp\ccnJ960g.s 			page 3


  87:Drivers/STM32F7xx_HAL_Driver/Src/stm32f7xx_hal_gpio.c ****   
  88:Drivers/STM32F7xx_HAL_Driver/Src/stm32f7xx_hal_gpio.c ****     (#) The HSE oscillator pins OSC_IN/OSC_OUT can be used as 
  89:Drivers/STM32F7xx_HAL_Driver/Src/stm32f7xx_hal_gpio.c ****         general purpose PH0 and PH1, respectively, when the HSE oscillator is off. 
  90:Drivers/STM32F7xx_HAL_Driver/Src/stm32f7xx_hal_gpio.c ****         The HSE has priority over the GPIO function.
  91:Drivers/STM32F7xx_HAL_Driver/Src/stm32f7xx_hal_gpio.c ****   
  92:Drivers/STM32F7xx_HAL_Driver/Src/stm32f7xx_hal_gpio.c ****   @endverbatim
  93:Drivers/STM32F7xx_HAL_Driver/Src/stm32f7xx_hal_gpio.c ****   ******************************************************************************
  94:Drivers/STM32F7xx_HAL_Driver/Src/stm32f7xx_hal_gpio.c ****   * @attention
  95:Drivers/STM32F7xx_HAL_Driver/Src/stm32f7xx_hal_gpio.c ****   *
  96:Drivers/STM32F7xx_HAL_Driver/Src/stm32f7xx_hal_gpio.c ****   * <h2><center>&copy; Copyright (c) 2017 STMicroelectronics.
  97:Drivers/STM32F7xx_HAL_Driver/Src/stm32f7xx_hal_gpio.c ****   * All rights reserved.</center></h2>
  98:Drivers/STM32F7xx_HAL_Driver/Src/stm32f7xx_hal_gpio.c ****   *
  99:Drivers/STM32F7xx_HAL_Driver/Src/stm32f7xx_hal_gpio.c ****   * This software component is licensed by ST under BSD 3-Clause license,
 100:Drivers/STM32F7xx_HAL_Driver/Src/stm32f7xx_hal_gpio.c ****   * the "License"; You may not use this file except in compliance with the
 101:Drivers/STM32F7xx_HAL_Driver/Src/stm32f7xx_hal_gpio.c ****   * License. You may obtain a copy of the License at:
 102:Drivers/STM32F7xx_HAL_Driver/Src/stm32f7xx_hal_gpio.c ****   *                        opensource.org/licenses/BSD-3-Clause
 103:Drivers/STM32F7xx_HAL_Driver/Src/stm32f7xx_hal_gpio.c ****   *
 104:Drivers/STM32F7xx_HAL_Driver/Src/stm32f7xx_hal_gpio.c ****   ******************************************************************************
 105:Drivers/STM32F7xx_HAL_Driver/Src/stm32f7xx_hal_gpio.c ****   */ 
 106:Drivers/STM32F7xx_HAL_Driver/Src/stm32f7xx_hal_gpio.c **** 
 107:Drivers/STM32F7xx_HAL_Driver/Src/stm32f7xx_hal_gpio.c **** /* Includes ------------------------------------------------------------------*/
 108:Drivers/STM32F7xx_HAL_Driver/Src/stm32f7xx_hal_gpio.c **** #include "stm32f7xx_hal.h"
 109:Drivers/STM32F7xx_HAL_Driver/Src/stm32f7xx_hal_gpio.c **** 
 110:Drivers/STM32F7xx_HAL_Driver/Src/stm32f7xx_hal_gpio.c **** /** @addtogroup STM32F7xx_HAL_Driver
 111:Drivers/STM32F7xx_HAL_Driver/Src/stm32f7xx_hal_gpio.c ****   * @{
 112:Drivers/STM32F7xx_HAL_Driver/Src/stm32f7xx_hal_gpio.c ****   */
 113:Drivers/STM32F7xx_HAL_Driver/Src/stm32f7xx_hal_gpio.c **** 
 114:Drivers/STM32F7xx_HAL_Driver/Src/stm32f7xx_hal_gpio.c **** /** @defgroup GPIO GPIO
 115:Drivers/STM32F7xx_HAL_Driver/Src/stm32f7xx_hal_gpio.c ****   * @brief GPIO HAL module driver
 116:Drivers/STM32F7xx_HAL_Driver/Src/stm32f7xx_hal_gpio.c ****   * @{
 117:Drivers/STM32F7xx_HAL_Driver/Src/stm32f7xx_hal_gpio.c ****   */
 118:Drivers/STM32F7xx_HAL_Driver/Src/stm32f7xx_hal_gpio.c **** 
 119:Drivers/STM32F7xx_HAL_Driver/Src/stm32f7xx_hal_gpio.c **** #ifdef HAL_GPIO_MODULE_ENABLED
 120:Drivers/STM32F7xx_HAL_Driver/Src/stm32f7xx_hal_gpio.c **** 
 121:Drivers/STM32F7xx_HAL_Driver/Src/stm32f7xx_hal_gpio.c **** /* Private typedef -----------------------------------------------------------*/
 122:Drivers/STM32F7xx_HAL_Driver/Src/stm32f7xx_hal_gpio.c **** /* Private define ------------------------------------------------------------*/
 123:Drivers/STM32F7xx_HAL_Driver/Src/stm32f7xx_hal_gpio.c **** /** @addtogroup GPIO_Private_Constants GPIO Private Constants
 124:Drivers/STM32F7xx_HAL_Driver/Src/stm32f7xx_hal_gpio.c ****   * @{
 125:Drivers/STM32F7xx_HAL_Driver/Src/stm32f7xx_hal_gpio.c ****   */
 126:Drivers/STM32F7xx_HAL_Driver/Src/stm32f7xx_hal_gpio.c **** #define GPIO_MODE             ((uint32_t)0x00000003U)
 127:Drivers/STM32F7xx_HAL_Driver/Src/stm32f7xx_hal_gpio.c **** #define EXTI_MODE             ((uint32_t)0x10000000U)
 128:Drivers/STM32F7xx_HAL_Driver/Src/stm32f7xx_hal_gpio.c **** #define GPIO_MODE_IT          ((uint32_t)0x00010000U)
 129:Drivers/STM32F7xx_HAL_Driver/Src/stm32f7xx_hal_gpio.c **** #define GPIO_MODE_EVT         ((uint32_t)0x00020000U)
 130:Drivers/STM32F7xx_HAL_Driver/Src/stm32f7xx_hal_gpio.c **** #define RISING_EDGE           ((uint32_t)0x00100000U)
 131:Drivers/STM32F7xx_HAL_Driver/Src/stm32f7xx_hal_gpio.c **** #define FALLING_EDGE          ((uint32_t)0x00200000U)
 132:Drivers/STM32F7xx_HAL_Driver/Src/stm32f7xx_hal_gpio.c **** #define GPIO_OUTPUT_TYPE      ((uint32_t)0x00000010U)
 133:Drivers/STM32F7xx_HAL_Driver/Src/stm32f7xx_hal_gpio.c **** 
 134:Drivers/STM32F7xx_HAL_Driver/Src/stm32f7xx_hal_gpio.c **** #define GPIO_NUMBER           ((uint32_t)16U)
 135:Drivers/STM32F7xx_HAL_Driver/Src/stm32f7xx_hal_gpio.c **** /**
 136:Drivers/STM32F7xx_HAL_Driver/Src/stm32f7xx_hal_gpio.c ****   * @}
 137:Drivers/STM32F7xx_HAL_Driver/Src/stm32f7xx_hal_gpio.c ****   */
 138:Drivers/STM32F7xx_HAL_Driver/Src/stm32f7xx_hal_gpio.c **** /* Private macro -------------------------------------------------------------*/
 139:Drivers/STM32F7xx_HAL_Driver/Src/stm32f7xx_hal_gpio.c **** /* Private variables ---------------------------------------------------------*/
 140:Drivers/STM32F7xx_HAL_Driver/Src/stm32f7xx_hal_gpio.c **** /* Private function prototypes -----------------------------------------------*/
 141:Drivers/STM32F7xx_HAL_Driver/Src/stm32f7xx_hal_gpio.c **** /* Private functions ---------------------------------------------------------*/
 142:Drivers/STM32F7xx_HAL_Driver/Src/stm32f7xx_hal_gpio.c **** /* Exported functions --------------------------------------------------------*/
 143:Drivers/STM32F7xx_HAL_Driver/Src/stm32f7xx_hal_gpio.c **** /** @defgroup GPIO_Exported_Functions GPIO Exported Functions
ARM GAS  D:\Dev\msys64\tmp\ccnJ960g.s 			page 4


 144:Drivers/STM32F7xx_HAL_Driver/Src/stm32f7xx_hal_gpio.c ****   * @{
 145:Drivers/STM32F7xx_HAL_Driver/Src/stm32f7xx_hal_gpio.c ****   */
 146:Drivers/STM32F7xx_HAL_Driver/Src/stm32f7xx_hal_gpio.c **** 
 147:Drivers/STM32F7xx_HAL_Driver/Src/stm32f7xx_hal_gpio.c **** /** @defgroup GPIO_Exported_Functions_Group1 Initialization and de-initialization functions
 148:Drivers/STM32F7xx_HAL_Driver/Src/stm32f7xx_hal_gpio.c ****  *  @brief    Initialization and Configuration functions
 149:Drivers/STM32F7xx_HAL_Driver/Src/stm32f7xx_hal_gpio.c ****  *
 150:Drivers/STM32F7xx_HAL_Driver/Src/stm32f7xx_hal_gpio.c **** @verbatim
 151:Drivers/STM32F7xx_HAL_Driver/Src/stm32f7xx_hal_gpio.c ****  ===============================================================================
 152:Drivers/STM32F7xx_HAL_Driver/Src/stm32f7xx_hal_gpio.c ****               ##### Initialization and de-initialization functions #####
 153:Drivers/STM32F7xx_HAL_Driver/Src/stm32f7xx_hal_gpio.c ****  ===============================================================================
 154:Drivers/STM32F7xx_HAL_Driver/Src/stm32f7xx_hal_gpio.c ****   [..]
 155:Drivers/STM32F7xx_HAL_Driver/Src/stm32f7xx_hal_gpio.c ****     This section provides functions allowing to initialize and de-initialize the GPIOs
 156:Drivers/STM32F7xx_HAL_Driver/Src/stm32f7xx_hal_gpio.c ****     to be ready for use.
 157:Drivers/STM32F7xx_HAL_Driver/Src/stm32f7xx_hal_gpio.c ****  
 158:Drivers/STM32F7xx_HAL_Driver/Src/stm32f7xx_hal_gpio.c **** @endverbatim
 159:Drivers/STM32F7xx_HAL_Driver/Src/stm32f7xx_hal_gpio.c ****   * @{
 160:Drivers/STM32F7xx_HAL_Driver/Src/stm32f7xx_hal_gpio.c ****   */
 161:Drivers/STM32F7xx_HAL_Driver/Src/stm32f7xx_hal_gpio.c **** 
 162:Drivers/STM32F7xx_HAL_Driver/Src/stm32f7xx_hal_gpio.c **** /**
 163:Drivers/STM32F7xx_HAL_Driver/Src/stm32f7xx_hal_gpio.c ****   * @brief  Initializes the GPIOx peripheral according to the specified parameters in the GPIO_Init
 164:Drivers/STM32F7xx_HAL_Driver/Src/stm32f7xx_hal_gpio.c ****   * @param  GPIOx where x can be (A..K) to select the GPIO peripheral.
 165:Drivers/STM32F7xx_HAL_Driver/Src/stm32f7xx_hal_gpio.c ****   * @param  GPIO_Init pointer to a GPIO_InitTypeDef structure that contains
 166:Drivers/STM32F7xx_HAL_Driver/Src/stm32f7xx_hal_gpio.c ****   *         the configuration information for the specified GPIO peripheral.
 167:Drivers/STM32F7xx_HAL_Driver/Src/stm32f7xx_hal_gpio.c ****   * @retval None
 168:Drivers/STM32F7xx_HAL_Driver/Src/stm32f7xx_hal_gpio.c ****   */
 169:Drivers/STM32F7xx_HAL_Driver/Src/stm32f7xx_hal_gpio.c **** void HAL_GPIO_Init(GPIO_TypeDef  *GPIOx, GPIO_InitTypeDef *GPIO_Init)
 170:Drivers/STM32F7xx_HAL_Driver/Src/stm32f7xx_hal_gpio.c **** {
  30              		.loc 1 170 1 view -0
  31              		.cfi_startproc
  32              		@ args = 0, pretend = 0, frame = 8
  33              		@ frame_needed = 0, uses_anonymous_args = 0
 171:Drivers/STM32F7xx_HAL_Driver/Src/stm32f7xx_hal_gpio.c ****   uint32_t position = 0x00;
  34              		.loc 1 171 3 view .LVU1
 172:Drivers/STM32F7xx_HAL_Driver/Src/stm32f7xx_hal_gpio.c ****   uint32_t ioposition = 0x00;
  35              		.loc 1 172 3 view .LVU2
 173:Drivers/STM32F7xx_HAL_Driver/Src/stm32f7xx_hal_gpio.c ****   uint32_t iocurrent = 0x00;
  36              		.loc 1 173 3 view .LVU3
 174:Drivers/STM32F7xx_HAL_Driver/Src/stm32f7xx_hal_gpio.c ****   uint32_t temp = 0x00;
  37              		.loc 1 174 3 view .LVU4
 175:Drivers/STM32F7xx_HAL_Driver/Src/stm32f7xx_hal_gpio.c **** 
 176:Drivers/STM32F7xx_HAL_Driver/Src/stm32f7xx_hal_gpio.c ****   /* Check the parameters */
 177:Drivers/STM32F7xx_HAL_Driver/Src/stm32f7xx_hal_gpio.c ****   assert_param(IS_GPIO_ALL_INSTANCE(GPIOx));
  38              		.loc 1 177 3 view .LVU5
 178:Drivers/STM32F7xx_HAL_Driver/Src/stm32f7xx_hal_gpio.c ****   assert_param(IS_GPIO_PIN(GPIO_Init->Pin));
  39              		.loc 1 178 3 view .LVU6
 179:Drivers/STM32F7xx_HAL_Driver/Src/stm32f7xx_hal_gpio.c ****   assert_param(IS_GPIO_MODE(GPIO_Init->Mode));
  40              		.loc 1 179 3 view .LVU7
 180:Drivers/STM32F7xx_HAL_Driver/Src/stm32f7xx_hal_gpio.c ****   assert_param(IS_GPIO_PULL(GPIO_Init->Pull));
  41              		.loc 1 180 3 view .LVU8
 181:Drivers/STM32F7xx_HAL_Driver/Src/stm32f7xx_hal_gpio.c **** 
 182:Drivers/STM32F7xx_HAL_Driver/Src/stm32f7xx_hal_gpio.c ****   /* Configure the port pins */
 183:Drivers/STM32F7xx_HAL_Driver/Src/stm32f7xx_hal_gpio.c ****   for(position = 0; position < GPIO_NUMBER; position++)
  42              		.loc 1 183 3 view .LVU9
  43              		.loc 1 183 16 is_stmt 0 view .LVU10
  44 0000 0023     		movs	r3, #0
  45              	.LVL1:
  46              		.loc 1 183 21 is_stmt 1 view .LVU11
ARM GAS  D:\Dev\msys64\tmp\ccnJ960g.s 			page 5


  47              		.loc 1 183 3 is_stmt 0 view .LVU12
  48 0002 0F2B     		cmp	r3, #15
  49 0004 00F2E380 		bhi	.L26
 170:Drivers/STM32F7xx_HAL_Driver/Src/stm32f7xx_hal_gpio.c ****   uint32_t position = 0x00;
  50              		.loc 1 170 1 view .LVU13
  51 0008 F0B5     		push	{r4, r5, r6, r7, lr}
  52              	.LCFI0:
  53              		.cfi_def_cfa_offset 20
  54              		.cfi_offset 4, -20
  55              		.cfi_offset 5, -16
  56              		.cfi_offset 6, -12
  57              		.cfi_offset 7, -8
  58              		.cfi_offset 14, -4
  59 000a 83B0     		sub	sp, sp, #12
  60              	.LCFI1:
  61              		.cfi_def_cfa_offset 32
  62 000c 39E0     		b	.L12
  63              	.LVL2:
  64              	.L28:
 184:Drivers/STM32F7xx_HAL_Driver/Src/stm32f7xx_hal_gpio.c ****   {
 185:Drivers/STM32F7xx_HAL_Driver/Src/stm32f7xx_hal_gpio.c ****     /* Get the IO position */
 186:Drivers/STM32F7xx_HAL_Driver/Src/stm32f7xx_hal_gpio.c ****     ioposition = ((uint32_t)0x01) << position;
 187:Drivers/STM32F7xx_HAL_Driver/Src/stm32f7xx_hal_gpio.c ****     /* Get the current IO position */
 188:Drivers/STM32F7xx_HAL_Driver/Src/stm32f7xx_hal_gpio.c ****     iocurrent = (uint32_t)(GPIO_Init->Pin) & ioposition;
 189:Drivers/STM32F7xx_HAL_Driver/Src/stm32f7xx_hal_gpio.c **** 
 190:Drivers/STM32F7xx_HAL_Driver/Src/stm32f7xx_hal_gpio.c ****     if(iocurrent == ioposition)
 191:Drivers/STM32F7xx_HAL_Driver/Src/stm32f7xx_hal_gpio.c ****     {
 192:Drivers/STM32F7xx_HAL_Driver/Src/stm32f7xx_hal_gpio.c ****       /*--------------------- GPIO Mode Configuration ------------------------*/
 193:Drivers/STM32F7xx_HAL_Driver/Src/stm32f7xx_hal_gpio.c ****       /* In case of Output or Alternate function mode selection */
 194:Drivers/STM32F7xx_HAL_Driver/Src/stm32f7xx_hal_gpio.c ****       if((GPIO_Init->Mode == GPIO_MODE_OUTPUT_PP) || (GPIO_Init->Mode == GPIO_MODE_AF_PP) ||
 195:Drivers/STM32F7xx_HAL_Driver/Src/stm32f7xx_hal_gpio.c ****          (GPIO_Init->Mode == GPIO_MODE_OUTPUT_OD) || (GPIO_Init->Mode == GPIO_MODE_AF_OD))
 196:Drivers/STM32F7xx_HAL_Driver/Src/stm32f7xx_hal_gpio.c ****       {
 197:Drivers/STM32F7xx_HAL_Driver/Src/stm32f7xx_hal_gpio.c ****         /* Check the Speed parameter */
 198:Drivers/STM32F7xx_HAL_Driver/Src/stm32f7xx_hal_gpio.c ****         assert_param(IS_GPIO_SPEED(GPIO_Init->Speed));
 199:Drivers/STM32F7xx_HAL_Driver/Src/stm32f7xx_hal_gpio.c ****         /* Configure the IO Speed */
 200:Drivers/STM32F7xx_HAL_Driver/Src/stm32f7xx_hal_gpio.c ****         temp = GPIOx->OSPEEDR; 
 201:Drivers/STM32F7xx_HAL_Driver/Src/stm32f7xx_hal_gpio.c ****         temp &= ~(GPIO_OSPEEDER_OSPEEDR0 << (position * 2));
 202:Drivers/STM32F7xx_HAL_Driver/Src/stm32f7xx_hal_gpio.c ****         temp |= (GPIO_Init->Speed << (position * 2));
 203:Drivers/STM32F7xx_HAL_Driver/Src/stm32f7xx_hal_gpio.c ****         GPIOx->OSPEEDR = temp;
 204:Drivers/STM32F7xx_HAL_Driver/Src/stm32f7xx_hal_gpio.c **** 
 205:Drivers/STM32F7xx_HAL_Driver/Src/stm32f7xx_hal_gpio.c ****         /* Configure the IO Output Type */
 206:Drivers/STM32F7xx_HAL_Driver/Src/stm32f7xx_hal_gpio.c ****         temp = GPIOx->OTYPER;
 207:Drivers/STM32F7xx_HAL_Driver/Src/stm32f7xx_hal_gpio.c ****         temp &= ~(GPIO_OTYPER_OT_0 << position) ;
 208:Drivers/STM32F7xx_HAL_Driver/Src/stm32f7xx_hal_gpio.c ****         temp |= (((GPIO_Init->Mode & GPIO_OUTPUT_TYPE) >> 4) << position);
 209:Drivers/STM32F7xx_HAL_Driver/Src/stm32f7xx_hal_gpio.c ****         GPIOx->OTYPER = temp;
 210:Drivers/STM32F7xx_HAL_Driver/Src/stm32f7xx_hal_gpio.c ****       }
 211:Drivers/STM32F7xx_HAL_Driver/Src/stm32f7xx_hal_gpio.c **** 
 212:Drivers/STM32F7xx_HAL_Driver/Src/stm32f7xx_hal_gpio.c ****       /* Activate the Pull-up or Pull down resistor for the current IO */
 213:Drivers/STM32F7xx_HAL_Driver/Src/stm32f7xx_hal_gpio.c ****       temp = GPIOx->PUPDR;
 214:Drivers/STM32F7xx_HAL_Driver/Src/stm32f7xx_hal_gpio.c ****       temp &= ~(GPIO_PUPDR_PUPDR0 << (position * 2));
 215:Drivers/STM32F7xx_HAL_Driver/Src/stm32f7xx_hal_gpio.c ****       temp |= ((GPIO_Init->Pull) << (position * 2));
 216:Drivers/STM32F7xx_HAL_Driver/Src/stm32f7xx_hal_gpio.c ****       GPIOx->PUPDR = temp;
 217:Drivers/STM32F7xx_HAL_Driver/Src/stm32f7xx_hal_gpio.c **** 
 218:Drivers/STM32F7xx_HAL_Driver/Src/stm32f7xx_hal_gpio.c ****       /* In case of Alternate function mode selection */
 219:Drivers/STM32F7xx_HAL_Driver/Src/stm32f7xx_hal_gpio.c ****       if((GPIO_Init->Mode == GPIO_MODE_AF_PP) || (GPIO_Init->Mode == GPIO_MODE_AF_OD))
 220:Drivers/STM32F7xx_HAL_Driver/Src/stm32f7xx_hal_gpio.c ****       {
 221:Drivers/STM32F7xx_HAL_Driver/Src/stm32f7xx_hal_gpio.c ****         /* Check the Alternate function parameter */
ARM GAS  D:\Dev\msys64\tmp\ccnJ960g.s 			page 6


 222:Drivers/STM32F7xx_HAL_Driver/Src/stm32f7xx_hal_gpio.c ****         assert_param(IS_GPIO_AF(GPIO_Init->Alternate));
 223:Drivers/STM32F7xx_HAL_Driver/Src/stm32f7xx_hal_gpio.c **** 
 224:Drivers/STM32F7xx_HAL_Driver/Src/stm32f7xx_hal_gpio.c ****         /* Configure Alternate function mapped with the current IO */
 225:Drivers/STM32F7xx_HAL_Driver/Src/stm32f7xx_hal_gpio.c ****         temp = GPIOx->AFR[position >> 3];
 226:Drivers/STM32F7xx_HAL_Driver/Src/stm32f7xx_hal_gpio.c ****         temp &= ~((uint32_t)0xF << ((uint32_t)(position & (uint32_t)0x07) * 4)) ;
 227:Drivers/STM32F7xx_HAL_Driver/Src/stm32f7xx_hal_gpio.c ****         temp |= ((uint32_t)(GPIO_Init->Alternate) << (((uint32_t)position & (uint32_t)0x07) * 4));
 228:Drivers/STM32F7xx_HAL_Driver/Src/stm32f7xx_hal_gpio.c ****         GPIOx->AFR[position >> 3] = temp;
 229:Drivers/STM32F7xx_HAL_Driver/Src/stm32f7xx_hal_gpio.c ****       }
 230:Drivers/STM32F7xx_HAL_Driver/Src/stm32f7xx_hal_gpio.c ****       
 231:Drivers/STM32F7xx_HAL_Driver/Src/stm32f7xx_hal_gpio.c ****       /* Configure IO Direction mode (Input, Output, Alternate or Analog) */
 232:Drivers/STM32F7xx_HAL_Driver/Src/stm32f7xx_hal_gpio.c ****       temp = GPIOx->MODER;
 233:Drivers/STM32F7xx_HAL_Driver/Src/stm32f7xx_hal_gpio.c ****       temp &= ~(GPIO_MODER_MODER0 << (position * 2));
 234:Drivers/STM32F7xx_HAL_Driver/Src/stm32f7xx_hal_gpio.c ****       temp |= ((GPIO_Init->Mode & GPIO_MODE) << (position * 2));
 235:Drivers/STM32F7xx_HAL_Driver/Src/stm32f7xx_hal_gpio.c ****       GPIOx->MODER = temp;
 236:Drivers/STM32F7xx_HAL_Driver/Src/stm32f7xx_hal_gpio.c **** 
 237:Drivers/STM32F7xx_HAL_Driver/Src/stm32f7xx_hal_gpio.c ****       /*--------------------- EXTI Mode Configuration ------------------------*/
 238:Drivers/STM32F7xx_HAL_Driver/Src/stm32f7xx_hal_gpio.c ****       /* Configure the External Interrupt or event for the current IO */
 239:Drivers/STM32F7xx_HAL_Driver/Src/stm32f7xx_hal_gpio.c ****       if((GPIO_Init->Mode & EXTI_MODE) == EXTI_MODE)
 240:Drivers/STM32F7xx_HAL_Driver/Src/stm32f7xx_hal_gpio.c ****       {
 241:Drivers/STM32F7xx_HAL_Driver/Src/stm32f7xx_hal_gpio.c ****         /* Enable SYSCFG Clock */
 242:Drivers/STM32F7xx_HAL_Driver/Src/stm32f7xx_hal_gpio.c ****         __HAL_RCC_SYSCFG_CLK_ENABLE();
 243:Drivers/STM32F7xx_HAL_Driver/Src/stm32f7xx_hal_gpio.c **** 
 244:Drivers/STM32F7xx_HAL_Driver/Src/stm32f7xx_hal_gpio.c ****         temp = SYSCFG->EXTICR[position >> 2];
 245:Drivers/STM32F7xx_HAL_Driver/Src/stm32f7xx_hal_gpio.c ****         temp &= ~(((uint32_t)0x0F) << (4 * (position & 0x03)));
 246:Drivers/STM32F7xx_HAL_Driver/Src/stm32f7xx_hal_gpio.c ****         temp |= ((uint32_t)(GPIO_GET_INDEX(GPIOx)) << (4 * (position & 0x03)));
  65              		.loc 1 246 29 view .LVU14
  66 000e 0922     		movs	r2, #9
  67 0010 00E0     		b	.L7
  68              	.L13:
  69              		.loc 1 246 18 view .LVU15
  70 0012 0022     		movs	r2, #0
  71              	.L7:
  72              		.loc 1 246 52 discriminator 40 view .LVU16
  73 0014 B240     		lsls	r2, r2, r6
  74              		.loc 1 246 14 discriminator 40 view .LVU17
  75 0016 3A43     		orrs	r2, r2, r7
  76              	.LVL3:
 247:Drivers/STM32F7xx_HAL_Driver/Src/stm32f7xx_hal_gpio.c ****         SYSCFG->EXTICR[position >> 2] = temp;
  77              		.loc 1 247 9 is_stmt 1 discriminator 40 view .LVU18
  78              		.loc 1 247 39 is_stmt 0 discriminator 40 view .LVU19
  79 0018 0234     		adds	r4, r4, #2
  80 001a 6D4E     		ldr	r6, .L29
  81 001c 46F82420 		str	r2, [r6, r4, lsl #2]
 248:Drivers/STM32F7xx_HAL_Driver/Src/stm32f7xx_hal_gpio.c **** 
 249:Drivers/STM32F7xx_HAL_Driver/Src/stm32f7xx_hal_gpio.c ****         /* Clear EXTI line configuration */
 250:Drivers/STM32F7xx_HAL_Driver/Src/stm32f7xx_hal_gpio.c ****         temp = EXTI->IMR;
  82              		.loc 1 250 9 is_stmt 1 discriminator 40 view .LVU20
  83              		.loc 1 250 14 is_stmt 0 discriminator 40 view .LVU21
  84 0020 6C4A     		ldr	r2, .L29+4
  85              	.LVL4:
  86              		.loc 1 250 14 discriminator 40 view .LVU22
  87 0022 1468     		ldr	r4, [r2]
  88              	.LVL5:
 251:Drivers/STM32F7xx_HAL_Driver/Src/stm32f7xx_hal_gpio.c ****         temp &= ~((uint32_t)iocurrent);
  89              		.loc 1 251 9 is_stmt 1 discriminator 40 view .LVU23
  90              		.loc 1 251 17 is_stmt 0 discriminator 40 view .LVU24
  91 0024 EA43     		mvns	r2, r5
ARM GAS  D:\Dev\msys64\tmp\ccnJ960g.s 			page 7


  92              		.loc 1 251 14 discriminator 40 view .LVU25
  93 0026 24EA0506 		bic	r6, r4, r5
  94              	.LVL6:
 252:Drivers/STM32F7xx_HAL_Driver/Src/stm32f7xx_hal_gpio.c ****         if((GPIO_Init->Mode & GPIO_MODE_IT) == GPIO_MODE_IT)
  95              		.loc 1 252 9 is_stmt 1 discriminator 40 view .LVU26
  96              		.loc 1 252 22 is_stmt 0 discriminator 40 view .LVU27
  97 002a 4F68     		ldr	r7, [r1, #4]
  98              		.loc 1 252 11 discriminator 40 view .LVU28
  99 002c 17F4803F 		tst	r7, #65536
 100 0030 01D0     		beq	.L8
 253:Drivers/STM32F7xx_HAL_Driver/Src/stm32f7xx_hal_gpio.c ****         {
 254:Drivers/STM32F7xx_HAL_Driver/Src/stm32f7xx_hal_gpio.c ****           temp |= iocurrent;
 101              		.loc 1 254 11 is_stmt 1 view .LVU29
 102              		.loc 1 254 16 is_stmt 0 view .LVU30
 103 0032 45EA0406 		orr	r6, r5, r4
 104              	.LVL7:
 105              	.L8:
 255:Drivers/STM32F7xx_HAL_Driver/Src/stm32f7xx_hal_gpio.c ****         }
 256:Drivers/STM32F7xx_HAL_Driver/Src/stm32f7xx_hal_gpio.c ****         EXTI->IMR = temp;
 106              		.loc 1 256 9 is_stmt 1 view .LVU31
 107              		.loc 1 256 19 is_stmt 0 view .LVU32
 108 0036 674C     		ldr	r4, .L29+4
 109 0038 2660     		str	r6, [r4]
 257:Drivers/STM32F7xx_HAL_Driver/Src/stm32f7xx_hal_gpio.c **** 
 258:Drivers/STM32F7xx_HAL_Driver/Src/stm32f7xx_hal_gpio.c ****         temp = EXTI->EMR;
 110              		.loc 1 258 9 is_stmt 1 view .LVU33
 111              		.loc 1 258 14 is_stmt 0 view .LVU34
 112 003a 6468     		ldr	r4, [r4, #4]
 113              	.LVL8:
 259:Drivers/STM32F7xx_HAL_Driver/Src/stm32f7xx_hal_gpio.c ****         temp &= ~((uint32_t)iocurrent);
 114              		.loc 1 259 9 is_stmt 1 view .LVU35
 115              		.loc 1 259 14 is_stmt 0 view .LVU36
 116 003c 02EA0406 		and	r6, r2, r4
 117              	.LVL9:
 260:Drivers/STM32F7xx_HAL_Driver/Src/stm32f7xx_hal_gpio.c ****         if((GPIO_Init->Mode & GPIO_MODE_EVT) == GPIO_MODE_EVT)
 118              		.loc 1 260 9 is_stmt 1 view .LVU37
 119              		.loc 1 260 22 is_stmt 0 view .LVU38
 120 0040 4F68     		ldr	r7, [r1, #4]
 121              		.loc 1 260 11 view .LVU39
 122 0042 17F4003F 		tst	r7, #131072
 123 0046 01D0     		beq	.L9
 261:Drivers/STM32F7xx_HAL_Driver/Src/stm32f7xx_hal_gpio.c ****         {
 262:Drivers/STM32F7xx_HAL_Driver/Src/stm32f7xx_hal_gpio.c ****           temp |= iocurrent;
 124              		.loc 1 262 11 is_stmt 1 view .LVU40
 125              		.loc 1 262 16 is_stmt 0 view .LVU41
 126 0048 45EA0406 		orr	r6, r5, r4
 127              	.LVL10:
 128              	.L9:
 263:Drivers/STM32F7xx_HAL_Driver/Src/stm32f7xx_hal_gpio.c ****         }
 264:Drivers/STM32F7xx_HAL_Driver/Src/stm32f7xx_hal_gpio.c ****         EXTI->EMR = temp;
 129              		.loc 1 264 9 is_stmt 1 view .LVU42
 130              		.loc 1 264 19 is_stmt 0 view .LVU43
 131 004c 614C     		ldr	r4, .L29+4
 132 004e 6660     		str	r6, [r4, #4]
 265:Drivers/STM32F7xx_HAL_Driver/Src/stm32f7xx_hal_gpio.c **** 
 266:Drivers/STM32F7xx_HAL_Driver/Src/stm32f7xx_hal_gpio.c ****         /* Clear Rising Falling edge configuration */
 267:Drivers/STM32F7xx_HAL_Driver/Src/stm32f7xx_hal_gpio.c ****         temp = EXTI->RTSR;
ARM GAS  D:\Dev\msys64\tmp\ccnJ960g.s 			page 8


 133              		.loc 1 267 9 is_stmt 1 view .LVU44
 134              		.loc 1 267 14 is_stmt 0 view .LVU45
 135 0050 A468     		ldr	r4, [r4, #8]
 136              	.LVL11:
 268:Drivers/STM32F7xx_HAL_Driver/Src/stm32f7xx_hal_gpio.c ****         temp &= ~((uint32_t)iocurrent);
 137              		.loc 1 268 9 is_stmt 1 view .LVU46
 138              		.loc 1 268 14 is_stmt 0 view .LVU47
 139 0052 02EA0406 		and	r6, r2, r4
 140              	.LVL12:
 269:Drivers/STM32F7xx_HAL_Driver/Src/stm32f7xx_hal_gpio.c ****         if((GPIO_Init->Mode & RISING_EDGE) == RISING_EDGE)
 141              		.loc 1 269 9 is_stmt 1 view .LVU48
 142              		.loc 1 269 22 is_stmt 0 view .LVU49
 143 0056 4F68     		ldr	r7, [r1, #4]
 144              		.loc 1 269 11 view .LVU50
 145 0058 17F4801F 		tst	r7, #1048576
 146 005c 01D0     		beq	.L10
 270:Drivers/STM32F7xx_HAL_Driver/Src/stm32f7xx_hal_gpio.c ****         {
 271:Drivers/STM32F7xx_HAL_Driver/Src/stm32f7xx_hal_gpio.c ****           temp |= iocurrent;
 147              		.loc 1 271 11 is_stmt 1 view .LVU51
 148              		.loc 1 271 16 is_stmt 0 view .LVU52
 149 005e 45EA0406 		orr	r6, r5, r4
 150              	.LVL13:
 151              	.L10:
 272:Drivers/STM32F7xx_HAL_Driver/Src/stm32f7xx_hal_gpio.c ****         }
 273:Drivers/STM32F7xx_HAL_Driver/Src/stm32f7xx_hal_gpio.c ****         EXTI->RTSR = temp;
 152              		.loc 1 273 9 is_stmt 1 view .LVU53
 153              		.loc 1 273 20 is_stmt 0 view .LVU54
 154 0062 5C4C     		ldr	r4, .L29+4
 155 0064 A660     		str	r6, [r4, #8]
 274:Drivers/STM32F7xx_HAL_Driver/Src/stm32f7xx_hal_gpio.c **** 
 275:Drivers/STM32F7xx_HAL_Driver/Src/stm32f7xx_hal_gpio.c ****         temp = EXTI->FTSR;
 156              		.loc 1 275 9 is_stmt 1 view .LVU55
 157              		.loc 1 275 14 is_stmt 0 view .LVU56
 158 0066 E468     		ldr	r4, [r4, #12]
 159              	.LVL14:
 276:Drivers/STM32F7xx_HAL_Driver/Src/stm32f7xx_hal_gpio.c ****         temp &= ~((uint32_t)iocurrent);
 160              		.loc 1 276 9 is_stmt 1 view .LVU57
 161              		.loc 1 276 14 is_stmt 0 view .LVU58
 162 0068 2240     		ands	r2, r2, r4
 163              	.LVL15:
 277:Drivers/STM32F7xx_HAL_Driver/Src/stm32f7xx_hal_gpio.c ****         if((GPIO_Init->Mode & FALLING_EDGE) == FALLING_EDGE)
 164              		.loc 1 277 9 is_stmt 1 view .LVU59
 165              		.loc 1 277 22 is_stmt 0 view .LVU60
 166 006a 4E68     		ldr	r6, [r1, #4]
 167              		.loc 1 277 11 view .LVU61
 168 006c 16F4001F 		tst	r6, #2097152
 169 0070 01D0     		beq	.L11
 278:Drivers/STM32F7xx_HAL_Driver/Src/stm32f7xx_hal_gpio.c ****         {
 279:Drivers/STM32F7xx_HAL_Driver/Src/stm32f7xx_hal_gpio.c ****           temp |= iocurrent;
 170              		.loc 1 279 11 is_stmt 1 view .LVU62
 171              		.loc 1 279 16 is_stmt 0 view .LVU63
 172 0072 45EA0402 		orr	r2, r5, r4
 173              	.LVL16:
 174              	.L11:
 280:Drivers/STM32F7xx_HAL_Driver/Src/stm32f7xx_hal_gpio.c ****         }
 281:Drivers/STM32F7xx_HAL_Driver/Src/stm32f7xx_hal_gpio.c ****         EXTI->FTSR = temp;
 175              		.loc 1 281 9 is_stmt 1 view .LVU64
ARM GAS  D:\Dev\msys64\tmp\ccnJ960g.s 			page 9


 176              		.loc 1 281 20 is_stmt 0 view .LVU65
 177 0076 574C     		ldr	r4, .L29+4
 178 0078 E260     		str	r2, [r4, #12]
 179              	.LVL17:
 180              	.L3:
 183:Drivers/STM32F7xx_HAL_Driver/Src/stm32f7xx_hal_gpio.c ****   {
 181              		.loc 1 183 45 is_stmt 1 discriminator 2 view .LVU66
 183:Drivers/STM32F7xx_HAL_Driver/Src/stm32f7xx_hal_gpio.c ****   {
 182              		.loc 1 183 53 is_stmt 0 discriminator 2 view .LVU67
 183 007a 0133     		adds	r3, r3, #1
 184              	.LVL18:
 183:Drivers/STM32F7xx_HAL_Driver/Src/stm32f7xx_hal_gpio.c ****   {
 185              		.loc 1 183 21 is_stmt 1 discriminator 2 view .LVU68
 183:Drivers/STM32F7xx_HAL_Driver/Src/stm32f7xx_hal_gpio.c ****   {
 186              		.loc 1 183 3 is_stmt 0 discriminator 2 view .LVU69
 187 007c 0F2B     		cmp	r3, #15
 188 007e 00F2A480 		bhi	.L27
 189              	.LVL19:
 190              	.L12:
 186:Drivers/STM32F7xx_HAL_Driver/Src/stm32f7xx_hal_gpio.c ****     /* Get the current IO position */
 191              		.loc 1 186 5 is_stmt 1 view .LVU70
 186:Drivers/STM32F7xx_HAL_Driver/Src/stm32f7xx_hal_gpio.c ****     /* Get the current IO position */
 192              		.loc 1 186 16 is_stmt 0 view .LVU71
 193 0082 0122     		movs	r2, #1
 194 0084 9A40     		lsls	r2, r2, r3
 195              	.LVL20:
 188:Drivers/STM32F7xx_HAL_Driver/Src/stm32f7xx_hal_gpio.c **** 
 196              		.loc 1 188 5 is_stmt 1 view .LVU72
 188:Drivers/STM32F7xx_HAL_Driver/Src/stm32f7xx_hal_gpio.c **** 
 197              		.loc 1 188 37 is_stmt 0 view .LVU73
 198 0086 0C68     		ldr	r4, [r1]
 188:Drivers/STM32F7xx_HAL_Driver/Src/stm32f7xx_hal_gpio.c **** 
 199              		.loc 1 188 15 view .LVU74
 200 0088 04EA0205 		and	r5, r4, r2
 201              	.LVL21:
 190:Drivers/STM32F7xx_HAL_Driver/Src/stm32f7xx_hal_gpio.c ****     {
 202              		.loc 1 190 5 is_stmt 1 view .LVU75
 190:Drivers/STM32F7xx_HAL_Driver/Src/stm32f7xx_hal_gpio.c ****     {
 203              		.loc 1 190 7 is_stmt 0 view .LVU76
 204 008c 32EA0404 		bics	r4, r2, r4
 205 0090 F3D1     		bne	.L3
 194:Drivers/STM32F7xx_HAL_Driver/Src/stm32f7xx_hal_gpio.c ****          (GPIO_Init->Mode == GPIO_MODE_OUTPUT_OD) || (GPIO_Init->Mode == GPIO_MODE_AF_OD))
 206              		.loc 1 194 7 is_stmt 1 view .LVU77
 194:Drivers/STM32F7xx_HAL_Driver/Src/stm32f7xx_hal_gpio.c ****          (GPIO_Init->Mode == GPIO_MODE_OUTPUT_OD) || (GPIO_Init->Mode == GPIO_MODE_AF_OD))
 207              		.loc 1 194 20 is_stmt 0 view .LVU78
 208 0092 4C68     		ldr	r4, [r1, #4]
 194:Drivers/STM32F7xx_HAL_Driver/Src/stm32f7xx_hal_gpio.c ****          (GPIO_Init->Mode == GPIO_MODE_OUTPUT_OD) || (GPIO_Init->Mode == GPIO_MODE_AF_OD))
 209              		.loc 1 194 91 view .LVU79
 210 0094 661E     		subs	r6, r4, #1
 194:Drivers/STM32F7xx_HAL_Driver/Src/stm32f7xx_hal_gpio.c ****          (GPIO_Init->Mode == GPIO_MODE_OUTPUT_OD) || (GPIO_Init->Mode == GPIO_MODE_AF_OD))
 211              		.loc 1 194 9 view .LVU80
 212 0096 112C     		cmp	r4, #17
 213 0098 18BF     		it	ne
 214 009a 012E     		cmpne	r6, #1
 215 009c 01D9     		bls	.L4
 195:Drivers/STM32F7xx_HAL_Driver/Src/stm32f7xx_hal_gpio.c ****       {
 216              		.loc 1 195 51 view .LVU81
ARM GAS  D:\Dev\msys64\tmp\ccnJ960g.s 			page 10


 217 009e 122C     		cmp	r4, #18
 218 00a0 12D1     		bne	.L5
 219              	.L4:
 198:Drivers/STM32F7xx_HAL_Driver/Src/stm32f7xx_hal_gpio.c ****         /* Configure the IO Speed */
 220              		.loc 1 198 9 is_stmt 1 view .LVU82
 200:Drivers/STM32F7xx_HAL_Driver/Src/stm32f7xx_hal_gpio.c ****         temp &= ~(GPIO_OSPEEDER_OSPEEDR0 << (position * 2));
 221              		.loc 1 200 9 view .LVU83
 200:Drivers/STM32F7xx_HAL_Driver/Src/stm32f7xx_hal_gpio.c ****         temp &= ~(GPIO_OSPEEDER_OSPEEDR0 << (position * 2));
 222              		.loc 1 200 14 is_stmt 0 view .LVU84
 223 00a2 8668     		ldr	r6, [r0, #8]
 224              	.LVL22:
 201:Drivers/STM32F7xx_HAL_Driver/Src/stm32f7xx_hal_gpio.c ****         temp |= (GPIO_Init->Speed << (position * 2));
 225              		.loc 1 201 9 is_stmt 1 view .LVU85
 201:Drivers/STM32F7xx_HAL_Driver/Src/stm32f7xx_hal_gpio.c ****         temp |= (GPIO_Init->Speed << (position * 2));
 226              		.loc 1 201 55 is_stmt 0 view .LVU86
 227 00a4 5F00     		lsls	r7, r3, #1
 201:Drivers/STM32F7xx_HAL_Driver/Src/stm32f7xx_hal_gpio.c ****         temp |= (GPIO_Init->Speed << (position * 2));
 228              		.loc 1 201 42 view .LVU87
 229 00a6 0324     		movs	r4, #3
 230 00a8 BC40     		lsls	r4, r4, r7
 201:Drivers/STM32F7xx_HAL_Driver/Src/stm32f7xx_hal_gpio.c ****         temp |= (GPIO_Init->Speed << (position * 2));
 231              		.loc 1 201 14 view .LVU88
 232 00aa 26EA0406 		bic	r6, r6, r4
 233              	.LVL23:
 202:Drivers/STM32F7xx_HAL_Driver/Src/stm32f7xx_hal_gpio.c ****         GPIOx->OSPEEDR = temp;
 234              		.loc 1 202 9 is_stmt 1 view .LVU89
 202:Drivers/STM32F7xx_HAL_Driver/Src/stm32f7xx_hal_gpio.c ****         GPIOx->OSPEEDR = temp;
 235              		.loc 1 202 27 is_stmt 0 view .LVU90
 236 00ae CC68     		ldr	r4, [r1, #12]
 202:Drivers/STM32F7xx_HAL_Driver/Src/stm32f7xx_hal_gpio.c ****         GPIOx->OSPEEDR = temp;
 237              		.loc 1 202 35 view .LVU91
 238 00b0 BC40     		lsls	r4, r4, r7
 202:Drivers/STM32F7xx_HAL_Driver/Src/stm32f7xx_hal_gpio.c ****         GPIOx->OSPEEDR = temp;
 239              		.loc 1 202 14 view .LVU92
 240 00b2 3443     		orrs	r4, r4, r6
 241              	.LVL24:
 203:Drivers/STM32F7xx_HAL_Driver/Src/stm32f7xx_hal_gpio.c **** 
 242              		.loc 1 203 9 is_stmt 1 view .LVU93
 203:Drivers/STM32F7xx_HAL_Driver/Src/stm32f7xx_hal_gpio.c **** 
 243              		.loc 1 203 24 is_stmt 0 view .LVU94
 244 00b4 8460     		str	r4, [r0, #8]
 206:Drivers/STM32F7xx_HAL_Driver/Src/stm32f7xx_hal_gpio.c ****         temp &= ~(GPIO_OTYPER_OT_0 << position) ;
 245              		.loc 1 206 9 is_stmt 1 view .LVU95
 206:Drivers/STM32F7xx_HAL_Driver/Src/stm32f7xx_hal_gpio.c ****         temp &= ~(GPIO_OTYPER_OT_0 << position) ;
 246              		.loc 1 206 14 is_stmt 0 view .LVU96
 247 00b6 4668     		ldr	r6, [r0, #4]
 248              	.LVL25:
 207:Drivers/STM32F7xx_HAL_Driver/Src/stm32f7xx_hal_gpio.c ****         temp |= (((GPIO_Init->Mode & GPIO_OUTPUT_TYPE) >> 4) << position);
 249              		.loc 1 207 9 is_stmt 1 view .LVU97
 207:Drivers/STM32F7xx_HAL_Driver/Src/stm32f7xx_hal_gpio.c ****         temp |= (((GPIO_Init->Mode & GPIO_OUTPUT_TYPE) >> 4) << position);
 250              		.loc 1 207 14 is_stmt 0 view .LVU98
 251 00b8 26EA0206 		bic	r6, r6, r2
 252              	.LVL26:
 208:Drivers/STM32F7xx_HAL_Driver/Src/stm32f7xx_hal_gpio.c ****         GPIOx->OTYPER = temp;
 253              		.loc 1 208 9 is_stmt 1 view .LVU99
 208:Drivers/STM32F7xx_HAL_Driver/Src/stm32f7xx_hal_gpio.c ****         GPIOx->OTYPER = temp;
 254              		.loc 1 208 29 is_stmt 0 view .LVU100
ARM GAS  D:\Dev\msys64\tmp\ccnJ960g.s 			page 11


 255 00bc 4C68     		ldr	r4, [r1, #4]
 208:Drivers/STM32F7xx_HAL_Driver/Src/stm32f7xx_hal_gpio.c ****         GPIOx->OTYPER = temp;
 256              		.loc 1 208 56 view .LVU101
 257 00be C4F30012 		ubfx	r2, r4, #4, #1
 258              	.LVL27:
 208:Drivers/STM32F7xx_HAL_Driver/Src/stm32f7xx_hal_gpio.c ****         GPIOx->OTYPER = temp;
 259              		.loc 1 208 62 view .LVU102
 260 00c2 9A40     		lsls	r2, r2, r3
 208:Drivers/STM32F7xx_HAL_Driver/Src/stm32f7xx_hal_gpio.c ****         GPIOx->OTYPER = temp;
 261              		.loc 1 208 14 view .LVU103
 262 00c4 3243     		orrs	r2, r2, r6
 263              	.LVL28:
 209:Drivers/STM32F7xx_HAL_Driver/Src/stm32f7xx_hal_gpio.c ****       }
 264              		.loc 1 209 9 is_stmt 1 view .LVU104
 209:Drivers/STM32F7xx_HAL_Driver/Src/stm32f7xx_hal_gpio.c ****       }
 265              		.loc 1 209 23 is_stmt 0 view .LVU105
 266 00c6 4260     		str	r2, [r0, #4]
 267              	.LVL29:
 268              	.L5:
 213:Drivers/STM32F7xx_HAL_Driver/Src/stm32f7xx_hal_gpio.c ****       temp &= ~(GPIO_PUPDR_PUPDR0 << (position * 2));
 269              		.loc 1 213 7 is_stmt 1 view .LVU106
 213:Drivers/STM32F7xx_HAL_Driver/Src/stm32f7xx_hal_gpio.c ****       temp &= ~(GPIO_PUPDR_PUPDR0 << (position * 2));
 270              		.loc 1 213 12 is_stmt 0 view .LVU107
 271 00c8 C768     		ldr	r7, [r0, #12]
 272              	.LVL30:
 214:Drivers/STM32F7xx_HAL_Driver/Src/stm32f7xx_hal_gpio.c ****       temp |= ((GPIO_Init->Pull) << (position * 2));
 273              		.loc 1 214 7 is_stmt 1 view .LVU108
 214:Drivers/STM32F7xx_HAL_Driver/Src/stm32f7xx_hal_gpio.c ****       temp |= ((GPIO_Init->Pull) << (position * 2));
 274              		.loc 1 214 48 is_stmt 0 view .LVU109
 275 00ca 5E00     		lsls	r6, r3, #1
 214:Drivers/STM32F7xx_HAL_Driver/Src/stm32f7xx_hal_gpio.c ****       temp |= ((GPIO_Init->Pull) << (position * 2));
 276              		.loc 1 214 35 view .LVU110
 277 00cc 0324     		movs	r4, #3
 278 00ce B440     		lsls	r4, r4, r6
 214:Drivers/STM32F7xx_HAL_Driver/Src/stm32f7xx_hal_gpio.c ****       temp |= ((GPIO_Init->Pull) << (position * 2));
 279              		.loc 1 214 15 view .LVU111
 280 00d0 E243     		mvns	r2, r4
 214:Drivers/STM32F7xx_HAL_Driver/Src/stm32f7xx_hal_gpio.c ****       temp |= ((GPIO_Init->Pull) << (position * 2));
 281              		.loc 1 214 12 view .LVU112
 282 00d2 27EA0407 		bic	r7, r7, r4
 283              	.LVL31:
 215:Drivers/STM32F7xx_HAL_Driver/Src/stm32f7xx_hal_gpio.c ****       GPIOx->PUPDR = temp;
 284              		.loc 1 215 7 is_stmt 1 view .LVU113
 215:Drivers/STM32F7xx_HAL_Driver/Src/stm32f7xx_hal_gpio.c ****       GPIOx->PUPDR = temp;
 285              		.loc 1 215 26 is_stmt 0 view .LVU114
 286 00d6 8C68     		ldr	r4, [r1, #8]
 215:Drivers/STM32F7xx_HAL_Driver/Src/stm32f7xx_hal_gpio.c ****       GPIOx->PUPDR = temp;
 287              		.loc 1 215 34 view .LVU115
 288 00d8 B440     		lsls	r4, r4, r6
 215:Drivers/STM32F7xx_HAL_Driver/Src/stm32f7xx_hal_gpio.c ****       GPIOx->PUPDR = temp;
 289              		.loc 1 215 12 view .LVU116
 290 00da 3C43     		orrs	r4, r4, r7
 291              	.LVL32:
 216:Drivers/STM32F7xx_HAL_Driver/Src/stm32f7xx_hal_gpio.c **** 
 292              		.loc 1 216 7 is_stmt 1 view .LVU117
 216:Drivers/STM32F7xx_HAL_Driver/Src/stm32f7xx_hal_gpio.c **** 
 293              		.loc 1 216 20 is_stmt 0 view .LVU118
ARM GAS  D:\Dev\msys64\tmp\ccnJ960g.s 			page 12


 294 00dc C460     		str	r4, [r0, #12]
 219:Drivers/STM32F7xx_HAL_Driver/Src/stm32f7xx_hal_gpio.c ****       {
 295              		.loc 1 219 7 is_stmt 1 view .LVU119
 219:Drivers/STM32F7xx_HAL_Driver/Src/stm32f7xx_hal_gpio.c ****       {
 296              		.loc 1 219 20 is_stmt 0 view .LVU120
 297 00de 4C68     		ldr	r4, [r1, #4]
 298              	.LVL33:
 219:Drivers/STM32F7xx_HAL_Driver/Src/stm32f7xx_hal_gpio.c ****       {
 299              		.loc 1 219 9 view .LVU121
 300 00e0 122C     		cmp	r4, #18
 301 00e2 18BF     		it	ne
 302 00e4 022C     		cmpne	r4, #2
 303 00e6 13D1     		bne	.L6
 222:Drivers/STM32F7xx_HAL_Driver/Src/stm32f7xx_hal_gpio.c **** 
 304              		.loc 1 222 9 is_stmt 1 view .LVU122
 225:Drivers/STM32F7xx_HAL_Driver/Src/stm32f7xx_hal_gpio.c ****         temp &= ~((uint32_t)0xF << ((uint32_t)(position & (uint32_t)0x07) * 4)) ;
 305              		.loc 1 225 9 view .LVU123
 225:Drivers/STM32F7xx_HAL_Driver/Src/stm32f7xx_hal_gpio.c ****         temp &= ~((uint32_t)0xF << ((uint32_t)(position & (uint32_t)0x07) * 4)) ;
 306              		.loc 1 225 36 is_stmt 0 view .LVU124
 307 00e8 DF08     		lsrs	r7, r3, #3
 225:Drivers/STM32F7xx_HAL_Driver/Src/stm32f7xx_hal_gpio.c ****         temp &= ~((uint32_t)0xF << ((uint32_t)(position & (uint32_t)0x07) * 4)) ;
 308              		.loc 1 225 14 view .LVU125
 309 00ea 0837     		adds	r7, r7, #8
 310 00ec 50F827E0 		ldr	lr, [r0, r7, lsl #2]
 311              	.LVL34:
 226:Drivers/STM32F7xx_HAL_Driver/Src/stm32f7xx_hal_gpio.c ****         temp |= ((uint32_t)(GPIO_Init->Alternate) << (((uint32_t)position & (uint32_t)0x07) * 4));
 312              		.loc 1 226 9 is_stmt 1 view .LVU126
 226:Drivers/STM32F7xx_HAL_Driver/Src/stm32f7xx_hal_gpio.c ****         temp |= ((uint32_t)(GPIO_Init->Alternate) << (((uint32_t)position & (uint32_t)0x07) * 4));
 313              		.loc 1 226 37 is_stmt 0 view .LVU127
 314 00f0 03F00704 		and	r4, r3, #7
 226:Drivers/STM32F7xx_HAL_Driver/Src/stm32f7xx_hal_gpio.c ****         temp |= ((uint32_t)(GPIO_Init->Alternate) << (((uint32_t)position & (uint32_t)0x07) * 4));
 315              		.loc 1 226 75 view .LVU128
 316 00f4 4FEA840C 		lsl	ip, r4, #2
 226:Drivers/STM32F7xx_HAL_Driver/Src/stm32f7xx_hal_gpio.c ****         temp |= ((uint32_t)(GPIO_Init->Alternate) << (((uint32_t)position & (uint32_t)0x07) * 4));
 317              		.loc 1 226 33 view .LVU129
 318 00f8 0F24     		movs	r4, #15
 319 00fa 04FA0CF4 		lsl	r4, r4, ip
 226:Drivers/STM32F7xx_HAL_Driver/Src/stm32f7xx_hal_gpio.c ****         temp |= ((uint32_t)(GPIO_Init->Alternate) << (((uint32_t)position & (uint32_t)0x07) * 4));
 320              		.loc 1 226 14 view .LVU130
 321 00fe 2EEA040E 		bic	lr, lr, r4
 322              	.LVL35:
 227:Drivers/STM32F7xx_HAL_Driver/Src/stm32f7xx_hal_gpio.c ****         GPIOx->AFR[position >> 3] = temp;
 323              		.loc 1 227 9 is_stmt 1 view .LVU131
 227:Drivers/STM32F7xx_HAL_Driver/Src/stm32f7xx_hal_gpio.c ****         GPIOx->AFR[position >> 3] = temp;
 324              		.loc 1 227 38 is_stmt 0 view .LVU132
 325 0102 0C69     		ldr	r4, [r1, #16]
 227:Drivers/STM32F7xx_HAL_Driver/Src/stm32f7xx_hal_gpio.c ****         GPIOx->AFR[position >> 3] = temp;
 326              		.loc 1 227 51 view .LVU133
 327 0104 04FA0CF4 		lsl	r4, r4, ip
 227:Drivers/STM32F7xx_HAL_Driver/Src/stm32f7xx_hal_gpio.c ****         GPIOx->AFR[position >> 3] = temp;
 328              		.loc 1 227 14 view .LVU134
 329 0108 44EA0E04 		orr	r4, r4, lr
 330              	.LVL36:
 228:Drivers/STM32F7xx_HAL_Driver/Src/stm32f7xx_hal_gpio.c ****       }
 331              		.loc 1 228 9 is_stmt 1 view .LVU135
 228:Drivers/STM32F7xx_HAL_Driver/Src/stm32f7xx_hal_gpio.c ****       }
 332              		.loc 1 228 35 is_stmt 0 view .LVU136
ARM GAS  D:\Dev\msys64\tmp\ccnJ960g.s 			page 13


 333 010c 40F82740 		str	r4, [r0, r7, lsl #2]
 334              	.LVL37:
 335              	.L6:
 232:Drivers/STM32F7xx_HAL_Driver/Src/stm32f7xx_hal_gpio.c ****       temp &= ~(GPIO_MODER_MODER0 << (position * 2));
 336              		.loc 1 232 7 is_stmt 1 view .LVU137
 232:Drivers/STM32F7xx_HAL_Driver/Src/stm32f7xx_hal_gpio.c ****       temp &= ~(GPIO_MODER_MODER0 << (position * 2));
 337              		.loc 1 232 12 is_stmt 0 view .LVU138
 338 0110 0468     		ldr	r4, [r0]
 339              	.LVL38:
 233:Drivers/STM32F7xx_HAL_Driver/Src/stm32f7xx_hal_gpio.c ****       temp |= ((GPIO_Init->Mode & GPIO_MODE) << (position * 2));
 340              		.loc 1 233 7 is_stmt 1 view .LVU139
 233:Drivers/STM32F7xx_HAL_Driver/Src/stm32f7xx_hal_gpio.c ****       temp |= ((GPIO_Init->Mode & GPIO_MODE) << (position * 2));
 341              		.loc 1 233 12 is_stmt 0 view .LVU140
 342 0112 1440     		ands	r4, r4, r2
 343              	.LVL39:
 234:Drivers/STM32F7xx_HAL_Driver/Src/stm32f7xx_hal_gpio.c ****       GPIOx->MODER = temp;
 344              		.loc 1 234 7 is_stmt 1 view .LVU141
 234:Drivers/STM32F7xx_HAL_Driver/Src/stm32f7xx_hal_gpio.c ****       GPIOx->MODER = temp;
 345              		.loc 1 234 26 is_stmt 0 view .LVU142
 346 0114 4A68     		ldr	r2, [r1, #4]
 234:Drivers/STM32F7xx_HAL_Driver/Src/stm32f7xx_hal_gpio.c ****       GPIOx->MODER = temp;
 347              		.loc 1 234 33 view .LVU143
 348 0116 02F00302 		and	r2, r2, #3
 234:Drivers/STM32F7xx_HAL_Driver/Src/stm32f7xx_hal_gpio.c ****       GPIOx->MODER = temp;
 349              		.loc 1 234 46 view .LVU144
 350 011a B240     		lsls	r2, r2, r6
 234:Drivers/STM32F7xx_HAL_Driver/Src/stm32f7xx_hal_gpio.c ****       GPIOx->MODER = temp;
 351              		.loc 1 234 12 view .LVU145
 352 011c 2243     		orrs	r2, r2, r4
 353              	.LVL40:
 235:Drivers/STM32F7xx_HAL_Driver/Src/stm32f7xx_hal_gpio.c **** 
 354              		.loc 1 235 7 is_stmt 1 view .LVU146
 235:Drivers/STM32F7xx_HAL_Driver/Src/stm32f7xx_hal_gpio.c **** 
 355              		.loc 1 235 20 is_stmt 0 view .LVU147
 356 011e 0260     		str	r2, [r0]
 239:Drivers/STM32F7xx_HAL_Driver/Src/stm32f7xx_hal_gpio.c ****       {
 357              		.loc 1 239 7 is_stmt 1 view .LVU148
 239:Drivers/STM32F7xx_HAL_Driver/Src/stm32f7xx_hal_gpio.c ****       {
 358              		.loc 1 239 20 is_stmt 0 view .LVU149
 359 0120 4A68     		ldr	r2, [r1, #4]
 360              	.LVL41:
 239:Drivers/STM32F7xx_HAL_Driver/Src/stm32f7xx_hal_gpio.c ****       {
 361              		.loc 1 239 9 view .LVU150
 362 0122 12F0805F 		tst	r2, #268435456
 363 0126 A8D0     		beq	.L3
 242:Drivers/STM32F7xx_HAL_Driver/Src/stm32f7xx_hal_gpio.c **** 
 364              		.loc 1 242 9 is_stmt 1 view .LVU151
 365              	.LBB2:
 242:Drivers/STM32F7xx_HAL_Driver/Src/stm32f7xx_hal_gpio.c **** 
 366              		.loc 1 242 9 view .LVU152
 242:Drivers/STM32F7xx_HAL_Driver/Src/stm32f7xx_hal_gpio.c **** 
 367              		.loc 1 242 9 view .LVU153
 368 0128 2B4A     		ldr	r2, .L29+8
 369 012a 546C     		ldr	r4, [r2, #68]
 370 012c 44F48044 		orr	r4, r4, #16384
 371 0130 5464     		str	r4, [r2, #68]
 372              	.LVL42:
ARM GAS  D:\Dev\msys64\tmp\ccnJ960g.s 			page 14


 242:Drivers/STM32F7xx_HAL_Driver/Src/stm32f7xx_hal_gpio.c **** 
 373              		.loc 1 242 9 view .LVU154
 374 0132 526C     		ldr	r2, [r2, #68]
 375 0134 02F48042 		and	r2, r2, #16384
 376 0138 0192     		str	r2, [sp, #4]
 242:Drivers/STM32F7xx_HAL_Driver/Src/stm32f7xx_hal_gpio.c **** 
 377              		.loc 1 242 9 view .LVU155
 378 013a 019A     		ldr	r2, [sp, #4]
 379              	.LBE2:
 242:Drivers/STM32F7xx_HAL_Driver/Src/stm32f7xx_hal_gpio.c **** 
 380              		.loc 1 242 9 view .LVU156
 244:Drivers/STM32F7xx_HAL_Driver/Src/stm32f7xx_hal_gpio.c ****         temp &= ~(((uint32_t)0x0F) << (4 * (position & 0x03)));
 381              		.loc 1 244 9 view .LVU157
 244:Drivers/STM32F7xx_HAL_Driver/Src/stm32f7xx_hal_gpio.c ****         temp &= ~(((uint32_t)0x0F) << (4 * (position & 0x03)));
 382              		.loc 1 244 40 is_stmt 0 view .LVU158
 383 013c 9C08     		lsrs	r4, r3, #2
 244:Drivers/STM32F7xx_HAL_Driver/Src/stm32f7xx_hal_gpio.c ****         temp &= ~(((uint32_t)0x0F) << (4 * (position & 0x03)));
 384              		.loc 1 244 14 view .LVU159
 385 013e A61C     		adds	r6, r4, #2
 386 0140 234A     		ldr	r2, .L29
 387 0142 52F82670 		ldr	r7, [r2, r6, lsl #2]
 388              	.LVL43:
 245:Drivers/STM32F7xx_HAL_Driver/Src/stm32f7xx_hal_gpio.c ****         temp |= ((uint32_t)(GPIO_GET_INDEX(GPIOx)) << (4 * (position & 0x03)));
 389              		.loc 1 245 9 is_stmt 1 view .LVU160
 245:Drivers/STM32F7xx_HAL_Driver/Src/stm32f7xx_hal_gpio.c ****         temp |= ((uint32_t)(GPIO_GET_INDEX(GPIOx)) << (4 * (position & 0x03)));
 390              		.loc 1 245 54 is_stmt 0 view .LVU161
 391 0146 03F00302 		and	r2, r3, #3
 245:Drivers/STM32F7xx_HAL_Driver/Src/stm32f7xx_hal_gpio.c ****         temp |= ((uint32_t)(GPIO_GET_INDEX(GPIOx)) << (4 * (position & 0x03)));
 392              		.loc 1 245 42 view .LVU162
 393 014a 9600     		lsls	r6, r2, #2
 245:Drivers/STM32F7xx_HAL_Driver/Src/stm32f7xx_hal_gpio.c ****         temp |= ((uint32_t)(GPIO_GET_INDEX(GPIOx)) << (4 * (position & 0x03)));
 394              		.loc 1 245 36 view .LVU163
 395 014c 0F22     		movs	r2, #15
 396 014e B240     		lsls	r2, r2, r6
 245:Drivers/STM32F7xx_HAL_Driver/Src/stm32f7xx_hal_gpio.c ****         temp |= ((uint32_t)(GPIO_GET_INDEX(GPIOx)) << (4 * (position & 0x03)));
 397              		.loc 1 245 14 view .LVU164
 398 0150 27EA0207 		bic	r7, r7, r2
 399              	.LVL44:
 246:Drivers/STM32F7xx_HAL_Driver/Src/stm32f7xx_hal_gpio.c ****         SYSCFG->EXTICR[position >> 2] = temp;
 400              		.loc 1 246 9 is_stmt 1 view .LVU165
 246:Drivers/STM32F7xx_HAL_Driver/Src/stm32f7xx_hal_gpio.c ****         SYSCFG->EXTICR[position >> 2] = temp;
 401              		.loc 1 246 18 is_stmt 0 view .LVU166
 402 0154 214A     		ldr	r2, .L29+12
 403 0156 9042     		cmp	r0, r2
 404 0158 3FF45BAF 		beq	.L13
 246:Drivers/STM32F7xx_HAL_Driver/Src/stm32f7xx_hal_gpio.c ****         SYSCFG->EXTICR[position >> 2] = temp;
 405              		.loc 1 246 29 discriminator 1 view .LVU167
 406 015c 02F58062 		add	r2, r2, #1024
 407 0160 9042     		cmp	r0, r2
 408 0162 22D0     		beq	.L14
 246:Drivers/STM32F7xx_HAL_Driver/Src/stm32f7xx_hal_gpio.c ****         SYSCFG->EXTICR[position >> 2] = temp;
 409              		.loc 1 246 29 discriminator 3 view .LVU168
 410 0164 02F58062 		add	r2, r2, #1024
 411 0168 9042     		cmp	r0, r2
 412 016a 20D0     		beq	.L15
 246:Drivers/STM32F7xx_HAL_Driver/Src/stm32f7xx_hal_gpio.c ****         SYSCFG->EXTICR[position >> 2] = temp;
 413              		.loc 1 246 29 discriminator 5 view .LVU169
ARM GAS  D:\Dev\msys64\tmp\ccnJ960g.s 			page 15


 414 016c 02F58062 		add	r2, r2, #1024
 415 0170 9042     		cmp	r0, r2
 416 0172 1ED0     		beq	.L16
 246:Drivers/STM32F7xx_HAL_Driver/Src/stm32f7xx_hal_gpio.c ****         SYSCFG->EXTICR[position >> 2] = temp;
 417              		.loc 1 246 29 discriminator 7 view .LVU170
 418 0174 02F58062 		add	r2, r2, #1024
 419 0178 9042     		cmp	r0, r2
 420 017a 1CD0     		beq	.L17
 246:Drivers/STM32F7xx_HAL_Driver/Src/stm32f7xx_hal_gpio.c ****         SYSCFG->EXTICR[position >> 2] = temp;
 421              		.loc 1 246 29 discriminator 9 view .LVU171
 422 017c 02F58062 		add	r2, r2, #1024
 423 0180 9042     		cmp	r0, r2
 424 0182 1AD0     		beq	.L18
 246:Drivers/STM32F7xx_HAL_Driver/Src/stm32f7xx_hal_gpio.c ****         SYSCFG->EXTICR[position >> 2] = temp;
 425              		.loc 1 246 29 discriminator 11 view .LVU172
 426 0184 02F58062 		add	r2, r2, #1024
 427 0188 9042     		cmp	r0, r2
 428 018a 18D0     		beq	.L19
 246:Drivers/STM32F7xx_HAL_Driver/Src/stm32f7xx_hal_gpio.c ****         SYSCFG->EXTICR[position >> 2] = temp;
 429              		.loc 1 246 29 discriminator 13 view .LVU173
 430 018c 02F58062 		add	r2, r2, #1024
 431 0190 9042     		cmp	r0, r2
 432 0192 16D0     		beq	.L20
 246:Drivers/STM32F7xx_HAL_Driver/Src/stm32f7xx_hal_gpio.c ****         SYSCFG->EXTICR[position >> 2] = temp;
 433              		.loc 1 246 29 discriminator 15 view .LVU174
 434 0194 02F58062 		add	r2, r2, #1024
 435 0198 9042     		cmp	r0, r2
 436 019a 14D0     		beq	.L21
 246:Drivers/STM32F7xx_HAL_Driver/Src/stm32f7xx_hal_gpio.c ****         SYSCFG->EXTICR[position >> 2] = temp;
 437              		.loc 1 246 29 discriminator 17 view .LVU175
 438 019c 02F58062 		add	r2, r2, #1024
 439 01a0 9042     		cmp	r0, r2
 440 01a2 3FF434AF 		beq	.L28
 246:Drivers/STM32F7xx_HAL_Driver/Src/stm32f7xx_hal_gpio.c ****         SYSCFG->EXTICR[position >> 2] = temp;
 441              		.loc 1 246 29 view .LVU176
 442 01a6 0A22     		movs	r2, #10
 443 01a8 34E7     		b	.L7
 444              	.L14:
 445 01aa 0122     		movs	r2, #1
 446              	.LVL45:
 246:Drivers/STM32F7xx_HAL_Driver/Src/stm32f7xx_hal_gpio.c ****         SYSCFG->EXTICR[position >> 2] = temp;
 447              		.loc 1 246 29 view .LVU177
 448 01ac 32E7     		b	.L7
 449              	.LVL46:
 450              	.L15:
 246:Drivers/STM32F7xx_HAL_Driver/Src/stm32f7xx_hal_gpio.c ****         SYSCFG->EXTICR[position >> 2] = temp;
 451              		.loc 1 246 29 view .LVU178
 452 01ae 0222     		movs	r2, #2
 453 01b0 30E7     		b	.L7
 454              	.L16:
 455 01b2 0322     		movs	r2, #3
 456 01b4 2EE7     		b	.L7
 457              	.L17:
 458 01b6 0422     		movs	r2, #4
 459 01b8 2CE7     		b	.L7
 460              	.L18:
 461 01ba 0522     		movs	r2, #5
ARM GAS  D:\Dev\msys64\tmp\ccnJ960g.s 			page 16


 462 01bc 2AE7     		b	.L7
 463              	.L19:
 464 01be 0622     		movs	r2, #6
 465 01c0 28E7     		b	.L7
 466              	.L20:
 467 01c2 0722     		movs	r2, #7
 468 01c4 26E7     		b	.L7
 469              	.L21:
 470 01c6 0822     		movs	r2, #8
 471 01c8 24E7     		b	.L7
 472              	.LVL47:
 473              	.L27:
 282:Drivers/STM32F7xx_HAL_Driver/Src/stm32f7xx_hal_gpio.c ****       }
 283:Drivers/STM32F7xx_HAL_Driver/Src/stm32f7xx_hal_gpio.c ****     }
 284:Drivers/STM32F7xx_HAL_Driver/Src/stm32f7xx_hal_gpio.c ****   }
 285:Drivers/STM32F7xx_HAL_Driver/Src/stm32f7xx_hal_gpio.c **** }
 474              		.loc 1 285 1 view .LVU179
 475 01ca 03B0     		add	sp, sp, #12
 476              	.LCFI2:
 477              		.cfi_def_cfa_offset 20
 478              		@ sp needed
 479 01cc F0BD     		pop	{r4, r5, r6, r7, pc}
 480              	.LVL48:
 481              	.L26:
 482              	.LCFI3:
 483              		.cfi_def_cfa_offset 0
 484              		.cfi_restore 4
 485              		.cfi_restore 5
 486              		.cfi_restore 6
 487              		.cfi_restore 7
 488              		.cfi_restore 14
 489              		.loc 1 285 1 view .LVU180
 490 01ce 7047     		bx	lr
 491              	.L30:
 492              		.align	2
 493              	.L29:
 494 01d0 00380140 		.word	1073821696
 495 01d4 003C0140 		.word	1073822720
 496 01d8 00380240 		.word	1073887232
 497 01dc 00000240 		.word	1073872896
 498              		.cfi_endproc
 499              	.LFE141:
 501              		.section	.text.HAL_GPIO_DeInit,"ax",%progbits
 502              		.align	1
 503              		.global	HAL_GPIO_DeInit
 504              		.syntax unified
 505              		.thumb
 506              		.thumb_func
 507              		.fpu fpv5-sp-d16
 509              	HAL_GPIO_DeInit:
 510              	.LVL49:
 511              	.LFB142:
 286:Drivers/STM32F7xx_HAL_Driver/Src/stm32f7xx_hal_gpio.c **** 
 287:Drivers/STM32F7xx_HAL_Driver/Src/stm32f7xx_hal_gpio.c **** /**
 288:Drivers/STM32F7xx_HAL_Driver/Src/stm32f7xx_hal_gpio.c ****   * @brief  De-initializes the GPIOx peripheral registers to their default reset values.
 289:Drivers/STM32F7xx_HAL_Driver/Src/stm32f7xx_hal_gpio.c ****   * @param  GPIOx where x can be (A..K) to select the GPIO peripheral.
 290:Drivers/STM32F7xx_HAL_Driver/Src/stm32f7xx_hal_gpio.c ****   * @param  GPIO_Pin specifies the port bit to be written.
ARM GAS  D:\Dev\msys64\tmp\ccnJ960g.s 			page 17


 291:Drivers/STM32F7xx_HAL_Driver/Src/stm32f7xx_hal_gpio.c ****   *          This parameter can be one of GPIO_PIN_x where x can be (0..15).
 292:Drivers/STM32F7xx_HAL_Driver/Src/stm32f7xx_hal_gpio.c ****   * @retval None
 293:Drivers/STM32F7xx_HAL_Driver/Src/stm32f7xx_hal_gpio.c ****   */
 294:Drivers/STM32F7xx_HAL_Driver/Src/stm32f7xx_hal_gpio.c **** void HAL_GPIO_DeInit(GPIO_TypeDef  *GPIOx, uint32_t GPIO_Pin)
 295:Drivers/STM32F7xx_HAL_Driver/Src/stm32f7xx_hal_gpio.c **** {
 512              		.loc 1 295 1 is_stmt 1 view -0
 513              		.cfi_startproc
 514              		@ args = 0, pretend = 0, frame = 0
 515              		@ frame_needed = 0, uses_anonymous_args = 0
 296:Drivers/STM32F7xx_HAL_Driver/Src/stm32f7xx_hal_gpio.c ****   uint32_t position;
 516              		.loc 1 296 3 view .LVU182
 297:Drivers/STM32F7xx_HAL_Driver/Src/stm32f7xx_hal_gpio.c ****   uint32_t ioposition = 0x00;
 517              		.loc 1 297 3 view .LVU183
 298:Drivers/STM32F7xx_HAL_Driver/Src/stm32f7xx_hal_gpio.c ****   uint32_t iocurrent = 0x00;
 518              		.loc 1 298 3 view .LVU184
 299:Drivers/STM32F7xx_HAL_Driver/Src/stm32f7xx_hal_gpio.c ****   uint32_t tmp = 0x00;
 519              		.loc 1 299 3 view .LVU185
 300:Drivers/STM32F7xx_HAL_Driver/Src/stm32f7xx_hal_gpio.c **** 
 301:Drivers/STM32F7xx_HAL_Driver/Src/stm32f7xx_hal_gpio.c ****   /* Check the parameters */
 302:Drivers/STM32F7xx_HAL_Driver/Src/stm32f7xx_hal_gpio.c ****   assert_param(IS_GPIO_ALL_INSTANCE(GPIOx));
 520              		.loc 1 302 3 view .LVU186
 303:Drivers/STM32F7xx_HAL_Driver/Src/stm32f7xx_hal_gpio.c **** 
 304:Drivers/STM32F7xx_HAL_Driver/Src/stm32f7xx_hal_gpio.c ****   /* Configure the port pins */
 305:Drivers/STM32F7xx_HAL_Driver/Src/stm32f7xx_hal_gpio.c ****   for(position = 0; position < GPIO_NUMBER; position++)
 521              		.loc 1 305 3 view .LVU187
 522              		.loc 1 305 16 is_stmt 0 view .LVU188
 523 0000 0023     		movs	r3, #0
 524              	.LVL50:
 525              		.loc 1 305 21 is_stmt 1 view .LVU189
 526              		.loc 1 305 3 is_stmt 0 view .LVU190
 527 0002 0F2B     		cmp	r3, #15
 528 0004 00F29B80 		bhi	.L50
 295:Drivers/STM32F7xx_HAL_Driver/Src/stm32f7xx_hal_gpio.c ****   uint32_t position;
 529              		.loc 1 295 1 view .LVU191
 530 0008 F0B5     		push	{r4, r5, r6, r7, lr}
 531              	.LCFI4:
 532              		.cfi_def_cfa_offset 20
 533              		.cfi_offset 4, -20
 534              		.cfi_offset 5, -16
 535              		.cfi_offset 6, -12
 536              		.cfi_offset 7, -8
 537              		.cfi_offset 14, -4
 538 000a 2DE0     		b	.L36
 539              	.LVL51:
 540              	.L53:
 306:Drivers/STM32F7xx_HAL_Driver/Src/stm32f7xx_hal_gpio.c ****   {
 307:Drivers/STM32F7xx_HAL_Driver/Src/stm32f7xx_hal_gpio.c ****     /* Get the IO position */
 308:Drivers/STM32F7xx_HAL_Driver/Src/stm32f7xx_hal_gpio.c ****     ioposition = ((uint32_t)0x01) << position;
 309:Drivers/STM32F7xx_HAL_Driver/Src/stm32f7xx_hal_gpio.c ****     /* Get the current IO position */
 310:Drivers/STM32F7xx_HAL_Driver/Src/stm32f7xx_hal_gpio.c ****     iocurrent = (GPIO_Pin) & ioposition;
 311:Drivers/STM32F7xx_HAL_Driver/Src/stm32f7xx_hal_gpio.c **** 
 312:Drivers/STM32F7xx_HAL_Driver/Src/stm32f7xx_hal_gpio.c ****     if(iocurrent == ioposition)
 313:Drivers/STM32F7xx_HAL_Driver/Src/stm32f7xx_hal_gpio.c ****     {
 314:Drivers/STM32F7xx_HAL_Driver/Src/stm32f7xx_hal_gpio.c ****       /*------------------------- EXTI Mode Configuration --------------------*/
 315:Drivers/STM32F7xx_HAL_Driver/Src/stm32f7xx_hal_gpio.c ****       tmp = SYSCFG->EXTICR[position >> 2];
 316:Drivers/STM32F7xx_HAL_Driver/Src/stm32f7xx_hal_gpio.c ****       tmp &= (((uint32_t)0x0F) << (4 * (position & 0x03)));
 317:Drivers/STM32F7xx_HAL_Driver/Src/stm32f7xx_hal_gpio.c ****       if(tmp == ((uint32_t)(GPIO_GET_INDEX(GPIOx)) << (4 * (position & 0x03))))
ARM GAS  D:\Dev\msys64\tmp\ccnJ960g.s 			page 18


 541              		.loc 1 317 29 view .LVU192
 542 000c 0926     		movs	r6, #9
 543 000e 00E0     		b	.L34
 544              	.L37:
 545              		.loc 1 317 18 view .LVU193
 546 0010 0026     		movs	r6, #0
 547              	.L34:
 548              		.loc 1 317 52 discriminator 40 view .LVU194
 549 0012 06FA04F4 		lsl	r4, r6, r4
 550              		.loc 1 317 9 discriminator 40 view .LVU195
 551 0016 AC42     		cmp	r4, r5
 552 0018 75D0     		beq	.L51
 553              	.LVL52:
 554              	.L35:
 318:Drivers/STM32F7xx_HAL_Driver/Src/stm32f7xx_hal_gpio.c ****       {
 319:Drivers/STM32F7xx_HAL_Driver/Src/stm32f7xx_hal_gpio.c ****         /* Clear EXTI line configuration */
 320:Drivers/STM32F7xx_HAL_Driver/Src/stm32f7xx_hal_gpio.c ****         EXTI->IMR &= ~((uint32_t)iocurrent);
 321:Drivers/STM32F7xx_HAL_Driver/Src/stm32f7xx_hal_gpio.c ****         EXTI->EMR &= ~((uint32_t)iocurrent);
 322:Drivers/STM32F7xx_HAL_Driver/Src/stm32f7xx_hal_gpio.c **** 
 323:Drivers/STM32F7xx_HAL_Driver/Src/stm32f7xx_hal_gpio.c ****         /* Clear Rising Falling edge configuration */
 324:Drivers/STM32F7xx_HAL_Driver/Src/stm32f7xx_hal_gpio.c ****         EXTI->RTSR &= ~((uint32_t)iocurrent);
 325:Drivers/STM32F7xx_HAL_Driver/Src/stm32f7xx_hal_gpio.c ****         EXTI->FTSR &= ~((uint32_t)iocurrent);
 326:Drivers/STM32F7xx_HAL_Driver/Src/stm32f7xx_hal_gpio.c **** 
 327:Drivers/STM32F7xx_HAL_Driver/Src/stm32f7xx_hal_gpio.c ****         /* Configure the External Interrupt or event for the current IO */
 328:Drivers/STM32F7xx_HAL_Driver/Src/stm32f7xx_hal_gpio.c ****         tmp = ((uint32_t)0x0F) << (4 * (position & 0x03));
 329:Drivers/STM32F7xx_HAL_Driver/Src/stm32f7xx_hal_gpio.c ****         SYSCFG->EXTICR[position >> 2] &= ~tmp;
 330:Drivers/STM32F7xx_HAL_Driver/Src/stm32f7xx_hal_gpio.c ****       }
 331:Drivers/STM32F7xx_HAL_Driver/Src/stm32f7xx_hal_gpio.c ****       /*------------------------- GPIO Mode Configuration --------------------*/
 332:Drivers/STM32F7xx_HAL_Driver/Src/stm32f7xx_hal_gpio.c ****       /* Configure IO Direction in Input Floating Mode */
 333:Drivers/STM32F7xx_HAL_Driver/Src/stm32f7xx_hal_gpio.c ****       GPIOx->MODER &= ~(GPIO_MODER_MODER0 << (position * 2));
 555              		.loc 1 333 7 is_stmt 1 view .LVU196
 556              		.loc 1 333 20 is_stmt 0 view .LVU197
 557 001a 0568     		ldr	r5, [r0]
 558              		.loc 1 333 56 view .LVU198
 559 001c 5C00     		lsls	r4, r3, #1
 560              		.loc 1 333 43 view .LVU199
 561 001e 0326     		movs	r6, #3
 562 0020 06FA04F4 		lsl	r4, r6, r4
 563              		.loc 1 333 20 view .LVU200
 564 0024 25EA0405 		bic	r5, r5, r4
 565 0028 0560     		str	r5, [r0]
 334:Drivers/STM32F7xx_HAL_Driver/Src/stm32f7xx_hal_gpio.c **** 
 335:Drivers/STM32F7xx_HAL_Driver/Src/stm32f7xx_hal_gpio.c ****       /* Configure the default Alternate Function in current IO */
 336:Drivers/STM32F7xx_HAL_Driver/Src/stm32f7xx_hal_gpio.c ****       GPIOx->AFR[position >> 3] &= ~((uint32_t)0xF << ((uint32_t)(position & (uint32_t)0x07) * 4)) 
 566              		.loc 1 336 7 is_stmt 1 view .LVU201
 567              		.loc 1 336 33 is_stmt 0 view .LVU202
 568 002a 23FA06F5 		lsr	r5, r3, r6
 569 002e 0835     		adds	r5, r5, #8
 570 0030 50F82560 		ldr	r6, [r0, r5, lsl #2]
 571              		.loc 1 336 56 view .LVU203
 572 0034 03F00707 		and	r7, r3, #7
 573              		.loc 1 336 94 view .LVU204
 574 0038 4FEA870C 		lsl	ip, r7, #2
 575              		.loc 1 336 52 view .LVU205
 576 003c 0F27     		movs	r7, #15
 577 003e 07FA0CF7 		lsl	r7, r7, ip
 578              		.loc 1 336 33 view .LVU206
ARM GAS  D:\Dev\msys64\tmp\ccnJ960g.s 			page 19


 579 0042 26EA0706 		bic	r6, r6, r7
 580 0046 40F82560 		str	r6, [r0, r5, lsl #2]
 337:Drivers/STM32F7xx_HAL_Driver/Src/stm32f7xx_hal_gpio.c **** 
 338:Drivers/STM32F7xx_HAL_Driver/Src/stm32f7xx_hal_gpio.c ****       /* Deactivate the Pull-up and Pull-down resistor for the current IO */
 339:Drivers/STM32F7xx_HAL_Driver/Src/stm32f7xx_hal_gpio.c ****       GPIOx->PUPDR &= ~(GPIO_PUPDR_PUPDR0 << (position * 2));
 581              		.loc 1 339 7 is_stmt 1 view .LVU207
 582              		.loc 1 339 20 is_stmt 0 view .LVU208
 583 004a C568     		ldr	r5, [r0, #12]
 584 004c 25EA0405 		bic	r5, r5, r4
 585 0050 C560     		str	r5, [r0, #12]
 340:Drivers/STM32F7xx_HAL_Driver/Src/stm32f7xx_hal_gpio.c **** 
 341:Drivers/STM32F7xx_HAL_Driver/Src/stm32f7xx_hal_gpio.c ****       /* Configure the default value IO Output Type */
 342:Drivers/STM32F7xx_HAL_Driver/Src/stm32f7xx_hal_gpio.c ****       GPIOx->OTYPER  &= ~(GPIO_OTYPER_OT_0 << position) ;
 586              		.loc 1 342 7 is_stmt 1 view .LVU209
 587              		.loc 1 342 22 is_stmt 0 view .LVU210
 588 0052 4568     		ldr	r5, [r0, #4]
 589 0054 25EA0202 		bic	r2, r5, r2
 590              	.LVL53:
 591              		.loc 1 342 22 view .LVU211
 592 0058 4260     		str	r2, [r0, #4]
 343:Drivers/STM32F7xx_HAL_Driver/Src/stm32f7xx_hal_gpio.c **** 
 344:Drivers/STM32F7xx_HAL_Driver/Src/stm32f7xx_hal_gpio.c ****       /* Configure the default value for IO Speed */
 345:Drivers/STM32F7xx_HAL_Driver/Src/stm32f7xx_hal_gpio.c ****       GPIOx->OSPEEDR &= ~(GPIO_OSPEEDER_OSPEEDR0 << (position * 2));
 593              		.loc 1 345 7 is_stmt 1 view .LVU212
 594              		.loc 1 345 22 is_stmt 0 view .LVU213
 595 005a 8268     		ldr	r2, [r0, #8]
 596 005c 22EA0404 		bic	r4, r2, r4
 597 0060 8460     		str	r4, [r0, #8]
 598              	.L33:
 305:Drivers/STM32F7xx_HAL_Driver/Src/stm32f7xx_hal_gpio.c ****   {
 599              		.loc 1 305 45 is_stmt 1 discriminator 2 view .LVU214
 305:Drivers/STM32F7xx_HAL_Driver/Src/stm32f7xx_hal_gpio.c ****   {
 600              		.loc 1 305 53 is_stmt 0 discriminator 2 view .LVU215
 601 0062 0133     		adds	r3, r3, #1
 602              	.LVL54:
 305:Drivers/STM32F7xx_HAL_Driver/Src/stm32f7xx_hal_gpio.c ****   {
 603              		.loc 1 305 21 is_stmt 1 discriminator 2 view .LVU216
 305:Drivers/STM32F7xx_HAL_Driver/Src/stm32f7xx_hal_gpio.c ****   {
 604              		.loc 1 305 3 is_stmt 0 discriminator 2 view .LVU217
 605 0064 0F2B     		cmp	r3, #15
 606 0066 69D8     		bhi	.L52
 607              	.LVL55:
 608              	.L36:
 308:Drivers/STM32F7xx_HAL_Driver/Src/stm32f7xx_hal_gpio.c ****     /* Get the current IO position */
 609              		.loc 1 308 5 is_stmt 1 view .LVU218
 308:Drivers/STM32F7xx_HAL_Driver/Src/stm32f7xx_hal_gpio.c ****     /* Get the current IO position */
 610              		.loc 1 308 16 is_stmt 0 view .LVU219
 611 0068 0122     		movs	r2, #1
 612 006a 9A40     		lsls	r2, r2, r3
 613              	.LVL56:
 310:Drivers/STM32F7xx_HAL_Driver/Src/stm32f7xx_hal_gpio.c **** 
 614              		.loc 1 310 5 is_stmt 1 view .LVU220
 310:Drivers/STM32F7xx_HAL_Driver/Src/stm32f7xx_hal_gpio.c **** 
 615              		.loc 1 310 15 is_stmt 0 view .LVU221
 616 006c 02EA0107 		and	r7, r2, r1
 617              	.LVL57:
 312:Drivers/STM32F7xx_HAL_Driver/Src/stm32f7xx_hal_gpio.c ****     {
ARM GAS  D:\Dev\msys64\tmp\ccnJ960g.s 			page 20


 618              		.loc 1 312 5 is_stmt 1 view .LVU222
 312:Drivers/STM32F7xx_HAL_Driver/Src/stm32f7xx_hal_gpio.c ****     {
 619              		.loc 1 312 7 is_stmt 0 view .LVU223
 620 0070 32EA0104 		bics	r4, r2, r1
 621 0074 F5D1     		bne	.L33
 315:Drivers/STM32F7xx_HAL_Driver/Src/stm32f7xx_hal_gpio.c ****       tmp &= (((uint32_t)0x0F) << (4 * (position & 0x03)));
 622              		.loc 1 315 7 is_stmt 1 view .LVU224
 315:Drivers/STM32F7xx_HAL_Driver/Src/stm32f7xx_hal_gpio.c ****       tmp &= (((uint32_t)0x0F) << (4 * (position & 0x03)));
 623              		.loc 1 315 37 is_stmt 0 view .LVU225
 624 0076 4FEA930C 		lsr	ip, r3, #2
 315:Drivers/STM32F7xx_HAL_Driver/Src/stm32f7xx_hal_gpio.c ****       tmp &= (((uint32_t)0x0F) << (4 * (position & 0x03)));
 625              		.loc 1 315 11 view .LVU226
 626 007a 0CF10205 		add	r5, ip, #2
 627 007e 304C     		ldr	r4, .L54
 628 0080 54F82550 		ldr	r5, [r4, r5, lsl #2]
 629              	.LVL58:
 316:Drivers/STM32F7xx_HAL_Driver/Src/stm32f7xx_hal_gpio.c ****       if(tmp == ((uint32_t)(GPIO_GET_INDEX(GPIOx)) << (4 * (position & 0x03))))
 630              		.loc 1 316 7 is_stmt 1 view .LVU227
 316:Drivers/STM32F7xx_HAL_Driver/Src/stm32f7xx_hal_gpio.c ****       if(tmp == ((uint32_t)(GPIO_GET_INDEX(GPIOx)) << (4 * (position & 0x03))))
 631              		.loc 1 316 50 is_stmt 0 view .LVU228
 632 0084 03F00304 		and	r4, r3, #3
 316:Drivers/STM32F7xx_HAL_Driver/Src/stm32f7xx_hal_gpio.c ****       if(tmp == ((uint32_t)(GPIO_GET_INDEX(GPIOx)) << (4 * (position & 0x03))))
 633              		.loc 1 316 38 view .LVU229
 634 0088 A400     		lsls	r4, r4, #2
 316:Drivers/STM32F7xx_HAL_Driver/Src/stm32f7xx_hal_gpio.c ****       if(tmp == ((uint32_t)(GPIO_GET_INDEX(GPIOx)) << (4 * (position & 0x03))))
 635              		.loc 1 316 32 view .LVU230
 636 008a 0F26     		movs	r6, #15
 637 008c 06FA04FE 		lsl	lr, r6, r4
 316:Drivers/STM32F7xx_HAL_Driver/Src/stm32f7xx_hal_gpio.c ****       if(tmp == ((uint32_t)(GPIO_GET_INDEX(GPIOx)) << (4 * (position & 0x03))))
 638              		.loc 1 316 11 view .LVU231
 639 0090 0EEA0505 		and	r5, lr, r5
 640              	.LVL59:
 317:Drivers/STM32F7xx_HAL_Driver/Src/stm32f7xx_hal_gpio.c ****       {
 641              		.loc 1 317 7 is_stmt 1 view .LVU232
 317:Drivers/STM32F7xx_HAL_Driver/Src/stm32f7xx_hal_gpio.c ****       {
 642              		.loc 1 317 18 is_stmt 0 view .LVU233
 643 0094 2B4E     		ldr	r6, .L54+4
 644 0096 B042     		cmp	r0, r6
 645 0098 BAD0     		beq	.L37
 317:Drivers/STM32F7xx_HAL_Driver/Src/stm32f7xx_hal_gpio.c ****       {
 646              		.loc 1 317 29 discriminator 1 view .LVU234
 647 009a 06F58066 		add	r6, r6, #1024
 648 009e B042     		cmp	r0, r6
 649 00a0 21D0     		beq	.L38
 317:Drivers/STM32F7xx_HAL_Driver/Src/stm32f7xx_hal_gpio.c ****       {
 650              		.loc 1 317 29 discriminator 3 view .LVU235
 651 00a2 06F58066 		add	r6, r6, #1024
 652 00a6 B042     		cmp	r0, r6
 653 00a8 1FD0     		beq	.L39
 317:Drivers/STM32F7xx_HAL_Driver/Src/stm32f7xx_hal_gpio.c ****       {
 654              		.loc 1 317 29 discriminator 5 view .LVU236
 655 00aa 06F58066 		add	r6, r6, #1024
 656 00ae B042     		cmp	r0, r6
 657 00b0 1DD0     		beq	.L40
 317:Drivers/STM32F7xx_HAL_Driver/Src/stm32f7xx_hal_gpio.c ****       {
 658              		.loc 1 317 29 discriminator 7 view .LVU237
 659 00b2 06F58066 		add	r6, r6, #1024
ARM GAS  D:\Dev\msys64\tmp\ccnJ960g.s 			page 21


 660 00b6 B042     		cmp	r0, r6
 661 00b8 1BD0     		beq	.L41
 317:Drivers/STM32F7xx_HAL_Driver/Src/stm32f7xx_hal_gpio.c ****       {
 662              		.loc 1 317 29 discriminator 9 view .LVU238
 663 00ba 06F58066 		add	r6, r6, #1024
 664 00be B042     		cmp	r0, r6
 665 00c0 19D0     		beq	.L42
 317:Drivers/STM32F7xx_HAL_Driver/Src/stm32f7xx_hal_gpio.c ****       {
 666              		.loc 1 317 29 discriminator 11 view .LVU239
 667 00c2 06F58066 		add	r6, r6, #1024
 668 00c6 B042     		cmp	r0, r6
 669 00c8 17D0     		beq	.L43
 317:Drivers/STM32F7xx_HAL_Driver/Src/stm32f7xx_hal_gpio.c ****       {
 670              		.loc 1 317 29 discriminator 13 view .LVU240
 671 00ca 06F58066 		add	r6, r6, #1024
 672 00ce B042     		cmp	r0, r6
 673 00d0 15D0     		beq	.L44
 317:Drivers/STM32F7xx_HAL_Driver/Src/stm32f7xx_hal_gpio.c ****       {
 674              		.loc 1 317 29 discriminator 15 view .LVU241
 675 00d2 06F58066 		add	r6, r6, #1024
 676 00d6 B042     		cmp	r0, r6
 677 00d8 13D0     		beq	.L45
 317:Drivers/STM32F7xx_HAL_Driver/Src/stm32f7xx_hal_gpio.c ****       {
 678              		.loc 1 317 29 discriminator 17 view .LVU242
 679 00da 06F58066 		add	r6, r6, #1024
 680 00de B042     		cmp	r0, r6
 681 00e0 94D0     		beq	.L53
 317:Drivers/STM32F7xx_HAL_Driver/Src/stm32f7xx_hal_gpio.c ****       {
 682              		.loc 1 317 29 view .LVU243
 683 00e2 0A26     		movs	r6, #10
 684 00e4 95E7     		b	.L34
 685              	.L38:
 686 00e6 0126     		movs	r6, #1
 687 00e8 93E7     		b	.L34
 688              	.L39:
 689 00ea 0226     		movs	r6, #2
 690 00ec 91E7     		b	.L34
 691              	.L40:
 692 00ee 0326     		movs	r6, #3
 693 00f0 8FE7     		b	.L34
 694              	.L41:
 695 00f2 0426     		movs	r6, #4
 696 00f4 8DE7     		b	.L34
 697              	.L42:
 698 00f6 0526     		movs	r6, #5
 699 00f8 8BE7     		b	.L34
 700              	.L43:
 701 00fa 0626     		movs	r6, #6
 702 00fc 89E7     		b	.L34
 703              	.L44:
 704 00fe 0726     		movs	r6, #7
 705 0100 87E7     		b	.L34
 706              	.L45:
 707 0102 0826     		movs	r6, #8
 708 0104 85E7     		b	.L34
 709              	.L51:
 320:Drivers/STM32F7xx_HAL_Driver/Src/stm32f7xx_hal_gpio.c ****         EXTI->EMR &= ~((uint32_t)iocurrent);
ARM GAS  D:\Dev\msys64\tmp\ccnJ960g.s 			page 22


 710              		.loc 1 320 9 is_stmt 1 view .LVU244
 320:Drivers/STM32F7xx_HAL_Driver/Src/stm32f7xx_hal_gpio.c ****         EXTI->EMR &= ~((uint32_t)iocurrent);
 711              		.loc 1 320 19 is_stmt 0 view .LVU245
 712 0106 104C     		ldr	r4, .L54+8
 713 0108 2568     		ldr	r5, [r4]
 714              	.LVL60:
 320:Drivers/STM32F7xx_HAL_Driver/Src/stm32f7xx_hal_gpio.c ****         EXTI->EMR &= ~((uint32_t)iocurrent);
 715              		.loc 1 320 19 view .LVU246
 716 010a 25EA0705 		bic	r5, r5, r7
 717 010e 2560     		str	r5, [r4]
 321:Drivers/STM32F7xx_HAL_Driver/Src/stm32f7xx_hal_gpio.c **** 
 718              		.loc 1 321 9 is_stmt 1 view .LVU247
 321:Drivers/STM32F7xx_HAL_Driver/Src/stm32f7xx_hal_gpio.c **** 
 719              		.loc 1 321 19 is_stmt 0 view .LVU248
 720 0110 6568     		ldr	r5, [r4, #4]
 721 0112 25EA0705 		bic	r5, r5, r7
 722 0116 6560     		str	r5, [r4, #4]
 324:Drivers/STM32F7xx_HAL_Driver/Src/stm32f7xx_hal_gpio.c ****         EXTI->FTSR &= ~((uint32_t)iocurrent);
 723              		.loc 1 324 9 is_stmt 1 view .LVU249
 324:Drivers/STM32F7xx_HAL_Driver/Src/stm32f7xx_hal_gpio.c ****         EXTI->FTSR &= ~((uint32_t)iocurrent);
 724              		.loc 1 324 20 is_stmt 0 view .LVU250
 725 0118 A568     		ldr	r5, [r4, #8]
 726 011a 25EA0705 		bic	r5, r5, r7
 727 011e A560     		str	r5, [r4, #8]
 325:Drivers/STM32F7xx_HAL_Driver/Src/stm32f7xx_hal_gpio.c **** 
 728              		.loc 1 325 9 is_stmt 1 view .LVU251
 325:Drivers/STM32F7xx_HAL_Driver/Src/stm32f7xx_hal_gpio.c **** 
 729              		.loc 1 325 20 is_stmt 0 view .LVU252
 730 0120 E568     		ldr	r5, [r4, #12]
 731 0122 25EA0707 		bic	r7, r5, r7
 732              	.LVL61:
 325:Drivers/STM32F7xx_HAL_Driver/Src/stm32f7xx_hal_gpio.c **** 
 733              		.loc 1 325 20 view .LVU253
 734 0126 E760     		str	r7, [r4, #12]
 328:Drivers/STM32F7xx_HAL_Driver/Src/stm32f7xx_hal_gpio.c ****         SYSCFG->EXTICR[position >> 2] &= ~tmp;
 735              		.loc 1 328 9 is_stmt 1 view .LVU254
 736              	.LVL62:
 329:Drivers/STM32F7xx_HAL_Driver/Src/stm32f7xx_hal_gpio.c ****       }
 737              		.loc 1 329 9 view .LVU255
 329:Drivers/STM32F7xx_HAL_Driver/Src/stm32f7xx_hal_gpio.c ****       }
 738              		.loc 1 329 39 is_stmt 0 view .LVU256
 739 0128 054D     		ldr	r5, .L54
 740 012a 0CF10204 		add	r4, ip, #2
 741 012e 55F82460 		ldr	r6, [r5, r4, lsl #2]
 742 0132 26EA0E06 		bic	r6, r6, lr
 743 0136 45F82460 		str	r6, [r5, r4, lsl #2]
 744 013a 6EE7     		b	.L35
 745              	.LVL63:
 746              	.L52:
 346:Drivers/STM32F7xx_HAL_Driver/Src/stm32f7xx_hal_gpio.c ****     }
 347:Drivers/STM32F7xx_HAL_Driver/Src/stm32f7xx_hal_gpio.c ****   }
 348:Drivers/STM32F7xx_HAL_Driver/Src/stm32f7xx_hal_gpio.c **** }
 747              		.loc 1 348 1 view .LVU257
 748 013c F0BD     		pop	{r4, r5, r6, r7, pc}
 749              	.LVL64:
 750              	.L50:
 751              	.LCFI5:
ARM GAS  D:\Dev\msys64\tmp\ccnJ960g.s 			page 23


 752              		.cfi_def_cfa_offset 0
 753              		.cfi_restore 4
 754              		.cfi_restore 5
 755              		.cfi_restore 6
 756              		.cfi_restore 7
 757              		.cfi_restore 14
 758              		.loc 1 348 1 view .LVU258
 759 013e 7047     		bx	lr
 760              	.L55:
 761              		.align	2
 762              	.L54:
 763 0140 00380140 		.word	1073821696
 764 0144 00000240 		.word	1073872896
 765 0148 003C0140 		.word	1073822720
 766              		.cfi_endproc
 767              	.LFE142:
 769              		.section	.text.HAL_GPIO_ReadPin,"ax",%progbits
 770              		.align	1
 771              		.global	HAL_GPIO_ReadPin
 772              		.syntax unified
 773              		.thumb
 774              		.thumb_func
 775              		.fpu fpv5-sp-d16
 777              	HAL_GPIO_ReadPin:
 778              	.LVL65:
 779              	.LFB143:
 349:Drivers/STM32F7xx_HAL_Driver/Src/stm32f7xx_hal_gpio.c **** 
 350:Drivers/STM32F7xx_HAL_Driver/Src/stm32f7xx_hal_gpio.c **** /**
 351:Drivers/STM32F7xx_HAL_Driver/Src/stm32f7xx_hal_gpio.c ****   * @}
 352:Drivers/STM32F7xx_HAL_Driver/Src/stm32f7xx_hal_gpio.c ****   */
 353:Drivers/STM32F7xx_HAL_Driver/Src/stm32f7xx_hal_gpio.c **** 
 354:Drivers/STM32F7xx_HAL_Driver/Src/stm32f7xx_hal_gpio.c **** /** @defgroup GPIO_Exported_Functions_Group2 IO operation functions 
 355:Drivers/STM32F7xx_HAL_Driver/Src/stm32f7xx_hal_gpio.c ****  *  @brief   GPIO Read and Write
 356:Drivers/STM32F7xx_HAL_Driver/Src/stm32f7xx_hal_gpio.c ****  *
 357:Drivers/STM32F7xx_HAL_Driver/Src/stm32f7xx_hal_gpio.c **** @verbatim
 358:Drivers/STM32F7xx_HAL_Driver/Src/stm32f7xx_hal_gpio.c ****  ===============================================================================
 359:Drivers/STM32F7xx_HAL_Driver/Src/stm32f7xx_hal_gpio.c ****                        ##### IO operation functions #####
 360:Drivers/STM32F7xx_HAL_Driver/Src/stm32f7xx_hal_gpio.c ****  ===============================================================================
 361:Drivers/STM32F7xx_HAL_Driver/Src/stm32f7xx_hal_gpio.c **** 
 362:Drivers/STM32F7xx_HAL_Driver/Src/stm32f7xx_hal_gpio.c **** @endverbatim
 363:Drivers/STM32F7xx_HAL_Driver/Src/stm32f7xx_hal_gpio.c ****   * @{
 364:Drivers/STM32F7xx_HAL_Driver/Src/stm32f7xx_hal_gpio.c ****   */
 365:Drivers/STM32F7xx_HAL_Driver/Src/stm32f7xx_hal_gpio.c **** 
 366:Drivers/STM32F7xx_HAL_Driver/Src/stm32f7xx_hal_gpio.c **** /**
 367:Drivers/STM32F7xx_HAL_Driver/Src/stm32f7xx_hal_gpio.c ****   * @brief  Reads the specified input port pin.
 368:Drivers/STM32F7xx_HAL_Driver/Src/stm32f7xx_hal_gpio.c ****   * @param  GPIOx where x can be (A..K) to select the GPIO peripheral.
 369:Drivers/STM32F7xx_HAL_Driver/Src/stm32f7xx_hal_gpio.c ****   * @param  GPIO_Pin specifies the port bit to read.
 370:Drivers/STM32F7xx_HAL_Driver/Src/stm32f7xx_hal_gpio.c ****   *         This parameter can be GPIO_PIN_x where x can be (0..15).
 371:Drivers/STM32F7xx_HAL_Driver/Src/stm32f7xx_hal_gpio.c ****   * @retval The input port pin value.
 372:Drivers/STM32F7xx_HAL_Driver/Src/stm32f7xx_hal_gpio.c ****   */
 373:Drivers/STM32F7xx_HAL_Driver/Src/stm32f7xx_hal_gpio.c **** GPIO_PinState HAL_GPIO_ReadPin(GPIO_TypeDef* GPIOx, uint16_t GPIO_Pin)
 374:Drivers/STM32F7xx_HAL_Driver/Src/stm32f7xx_hal_gpio.c **** {
 780              		.loc 1 374 1 is_stmt 1 view -0
 781              		.cfi_startproc
 782              		@ args = 0, pretend = 0, frame = 0
 783              		@ frame_needed = 0, uses_anonymous_args = 0
 784              		@ link register save eliminated.
ARM GAS  D:\Dev\msys64\tmp\ccnJ960g.s 			page 24


 375:Drivers/STM32F7xx_HAL_Driver/Src/stm32f7xx_hal_gpio.c ****   GPIO_PinState bitstatus;
 785              		.loc 1 375 3 view .LVU260
 376:Drivers/STM32F7xx_HAL_Driver/Src/stm32f7xx_hal_gpio.c **** 
 377:Drivers/STM32F7xx_HAL_Driver/Src/stm32f7xx_hal_gpio.c ****   /* Check the parameters */
 378:Drivers/STM32F7xx_HAL_Driver/Src/stm32f7xx_hal_gpio.c ****   assert_param(IS_GPIO_PIN(GPIO_Pin));
 786              		.loc 1 378 3 view .LVU261
 379:Drivers/STM32F7xx_HAL_Driver/Src/stm32f7xx_hal_gpio.c **** 
 380:Drivers/STM32F7xx_HAL_Driver/Src/stm32f7xx_hal_gpio.c ****   if((GPIOx->IDR & GPIO_Pin) != (uint32_t)GPIO_PIN_RESET)
 787              		.loc 1 380 3 view .LVU262
 788              		.loc 1 380 12 is_stmt 0 view .LVU263
 789 0000 0369     		ldr	r3, [r0, #16]
 790              		.loc 1 380 5 view .LVU264
 791 0002 1942     		tst	r1, r3
 792 0004 01D0     		beq	.L58
 381:Drivers/STM32F7xx_HAL_Driver/Src/stm32f7xx_hal_gpio.c ****   {
 382:Drivers/STM32F7xx_HAL_Driver/Src/stm32f7xx_hal_gpio.c ****     bitstatus = GPIO_PIN_SET;
 793              		.loc 1 382 15 view .LVU265
 794 0006 0120     		movs	r0, #1
 795              	.LVL66:
 796              		.loc 1 382 15 view .LVU266
 797 0008 7047     		bx	lr
 798              	.LVL67:
 799              	.L58:
 383:Drivers/STM32F7xx_HAL_Driver/Src/stm32f7xx_hal_gpio.c ****   }
 384:Drivers/STM32F7xx_HAL_Driver/Src/stm32f7xx_hal_gpio.c ****   else
 385:Drivers/STM32F7xx_HAL_Driver/Src/stm32f7xx_hal_gpio.c ****   {
 386:Drivers/STM32F7xx_HAL_Driver/Src/stm32f7xx_hal_gpio.c ****     bitstatus = GPIO_PIN_RESET;
 800              		.loc 1 386 15 view .LVU267
 801 000a 0020     		movs	r0, #0
 802              	.LVL68:
 387:Drivers/STM32F7xx_HAL_Driver/Src/stm32f7xx_hal_gpio.c ****   }
 388:Drivers/STM32F7xx_HAL_Driver/Src/stm32f7xx_hal_gpio.c ****   return bitstatus;
 803              		.loc 1 388 3 is_stmt 1 view .LVU268
 389:Drivers/STM32F7xx_HAL_Driver/Src/stm32f7xx_hal_gpio.c **** }
 804              		.loc 1 389 1 is_stmt 0 view .LVU269
 805 000c 7047     		bx	lr
 806              		.cfi_endproc
 807              	.LFE143:
 809              		.section	.text.HAL_GPIO_WritePin,"ax",%progbits
 810              		.align	1
 811              		.global	HAL_GPIO_WritePin
 812              		.syntax unified
 813              		.thumb
 814              		.thumb_func
 815              		.fpu fpv5-sp-d16
 817              	HAL_GPIO_WritePin:
 818              	.LVL69:
 819              	.LFB144:
 390:Drivers/STM32F7xx_HAL_Driver/Src/stm32f7xx_hal_gpio.c **** 
 391:Drivers/STM32F7xx_HAL_Driver/Src/stm32f7xx_hal_gpio.c **** /**
 392:Drivers/STM32F7xx_HAL_Driver/Src/stm32f7xx_hal_gpio.c ****   * @brief  Sets or clears the selected data port bit.
 393:Drivers/STM32F7xx_HAL_Driver/Src/stm32f7xx_hal_gpio.c ****   *
 394:Drivers/STM32F7xx_HAL_Driver/Src/stm32f7xx_hal_gpio.c ****   * @note   This function uses GPIOx_BSRR register to allow atomic read/modify
 395:Drivers/STM32F7xx_HAL_Driver/Src/stm32f7xx_hal_gpio.c ****   *         accesses. In this way, there is no risk of an IRQ occurring between
 396:Drivers/STM32F7xx_HAL_Driver/Src/stm32f7xx_hal_gpio.c ****   *         the read and the modify access.
 397:Drivers/STM32F7xx_HAL_Driver/Src/stm32f7xx_hal_gpio.c ****   *
 398:Drivers/STM32F7xx_HAL_Driver/Src/stm32f7xx_hal_gpio.c ****   * @param  GPIOx where x can be (A..K) to select the GPIO peripheral.
ARM GAS  D:\Dev\msys64\tmp\ccnJ960g.s 			page 25


 399:Drivers/STM32F7xx_HAL_Driver/Src/stm32f7xx_hal_gpio.c ****   * @param  GPIO_Pin specifies the port bit to be written.
 400:Drivers/STM32F7xx_HAL_Driver/Src/stm32f7xx_hal_gpio.c ****   *          This parameter can be one of GPIO_PIN_x where x can be (0..15).
 401:Drivers/STM32F7xx_HAL_Driver/Src/stm32f7xx_hal_gpio.c ****   * @param  PinState specifies the value to be written to the selected bit.
 402:Drivers/STM32F7xx_HAL_Driver/Src/stm32f7xx_hal_gpio.c ****   *          This parameter can be one of the GPIO_PinState enum values:
 403:Drivers/STM32F7xx_HAL_Driver/Src/stm32f7xx_hal_gpio.c ****   *            @arg GPIO_PIN_RESET: to clear the port pin
 404:Drivers/STM32F7xx_HAL_Driver/Src/stm32f7xx_hal_gpio.c ****   *            @arg GPIO_PIN_SET: to set the port pin
 405:Drivers/STM32F7xx_HAL_Driver/Src/stm32f7xx_hal_gpio.c ****   * @retval None
 406:Drivers/STM32F7xx_HAL_Driver/Src/stm32f7xx_hal_gpio.c ****   */
 407:Drivers/STM32F7xx_HAL_Driver/Src/stm32f7xx_hal_gpio.c **** void HAL_GPIO_WritePin(GPIO_TypeDef* GPIOx, uint16_t GPIO_Pin, GPIO_PinState PinState)
 408:Drivers/STM32F7xx_HAL_Driver/Src/stm32f7xx_hal_gpio.c **** {
 820              		.loc 1 408 1 is_stmt 1 view -0
 821              		.cfi_startproc
 822              		@ args = 0, pretend = 0, frame = 0
 823              		@ frame_needed = 0, uses_anonymous_args = 0
 824              		@ link register save eliminated.
 409:Drivers/STM32F7xx_HAL_Driver/Src/stm32f7xx_hal_gpio.c ****   /* Check the parameters */
 410:Drivers/STM32F7xx_HAL_Driver/Src/stm32f7xx_hal_gpio.c ****   assert_param(IS_GPIO_PIN(GPIO_Pin));
 825              		.loc 1 410 3 view .LVU271
 411:Drivers/STM32F7xx_HAL_Driver/Src/stm32f7xx_hal_gpio.c ****   assert_param(IS_GPIO_PIN_ACTION(PinState));
 826              		.loc 1 411 3 view .LVU272
 412:Drivers/STM32F7xx_HAL_Driver/Src/stm32f7xx_hal_gpio.c **** 
 413:Drivers/STM32F7xx_HAL_Driver/Src/stm32f7xx_hal_gpio.c ****   if(PinState != GPIO_PIN_RESET)
 827              		.loc 1 413 3 view .LVU273
 828              		.loc 1 413 5 is_stmt 0 view .LVU274
 829 0000 0AB1     		cbz	r2, .L60
 414:Drivers/STM32F7xx_HAL_Driver/Src/stm32f7xx_hal_gpio.c ****   {
 415:Drivers/STM32F7xx_HAL_Driver/Src/stm32f7xx_hal_gpio.c ****     GPIOx->BSRR = GPIO_Pin;
 830              		.loc 1 415 5 is_stmt 1 view .LVU275
 831              		.loc 1 415 17 is_stmt 0 view .LVU276
 832 0002 8161     		str	r1, [r0, #24]
 833 0004 7047     		bx	lr
 834              	.L60:
 416:Drivers/STM32F7xx_HAL_Driver/Src/stm32f7xx_hal_gpio.c ****   }
 417:Drivers/STM32F7xx_HAL_Driver/Src/stm32f7xx_hal_gpio.c ****   else
 418:Drivers/STM32F7xx_HAL_Driver/Src/stm32f7xx_hal_gpio.c ****   {
 419:Drivers/STM32F7xx_HAL_Driver/Src/stm32f7xx_hal_gpio.c ****     GPIOx->BSRR = (uint32_t)GPIO_Pin << 16;
 835              		.loc 1 419 5 is_stmt 1 view .LVU277
 836              		.loc 1 419 38 is_stmt 0 view .LVU278
 837 0006 0904     		lsls	r1, r1, #16
 838              	.LVL70:
 839              		.loc 1 419 17 view .LVU279
 840 0008 8161     		str	r1, [r0, #24]
 420:Drivers/STM32F7xx_HAL_Driver/Src/stm32f7xx_hal_gpio.c ****   }
 421:Drivers/STM32F7xx_HAL_Driver/Src/stm32f7xx_hal_gpio.c **** }
 841              		.loc 1 421 1 view .LVU280
 842 000a 7047     		bx	lr
 843              		.cfi_endproc
 844              	.LFE144:
 846              		.section	.text.HAL_GPIO_TogglePin,"ax",%progbits
 847              		.align	1
 848              		.global	HAL_GPIO_TogglePin
 849              		.syntax unified
 850              		.thumb
 851              		.thumb_func
 852              		.fpu fpv5-sp-d16
 854              	HAL_GPIO_TogglePin:
 855              	.LVL71:
ARM GAS  D:\Dev\msys64\tmp\ccnJ960g.s 			page 26


 856              	.LFB145:
 422:Drivers/STM32F7xx_HAL_Driver/Src/stm32f7xx_hal_gpio.c **** 
 423:Drivers/STM32F7xx_HAL_Driver/Src/stm32f7xx_hal_gpio.c **** /**
 424:Drivers/STM32F7xx_HAL_Driver/Src/stm32f7xx_hal_gpio.c ****   * @brief  Toggles the specified GPIO pins.
 425:Drivers/STM32F7xx_HAL_Driver/Src/stm32f7xx_hal_gpio.c ****   * @param  GPIOx Where x can be (A..I) to select the GPIO peripheral.
 426:Drivers/STM32F7xx_HAL_Driver/Src/stm32f7xx_hal_gpio.c ****   * @param  GPIO_Pin Specifies the pins to be toggled.
 427:Drivers/STM32F7xx_HAL_Driver/Src/stm32f7xx_hal_gpio.c ****   * @retval None
 428:Drivers/STM32F7xx_HAL_Driver/Src/stm32f7xx_hal_gpio.c ****   */
 429:Drivers/STM32F7xx_HAL_Driver/Src/stm32f7xx_hal_gpio.c **** void HAL_GPIO_TogglePin(GPIO_TypeDef* GPIOx, uint16_t GPIO_Pin)
 430:Drivers/STM32F7xx_HAL_Driver/Src/stm32f7xx_hal_gpio.c **** {
 857              		.loc 1 430 1 is_stmt 1 view -0
 858              		.cfi_startproc
 859              		@ args = 0, pretend = 0, frame = 0
 860              		@ frame_needed = 0, uses_anonymous_args = 0
 861              		@ link register save eliminated.
 431:Drivers/STM32F7xx_HAL_Driver/Src/stm32f7xx_hal_gpio.c ****   /* Check the parameters */
 432:Drivers/STM32F7xx_HAL_Driver/Src/stm32f7xx_hal_gpio.c ****   assert_param(IS_GPIO_PIN(GPIO_Pin));
 862              		.loc 1 432 3 view .LVU282
 433:Drivers/STM32F7xx_HAL_Driver/Src/stm32f7xx_hal_gpio.c **** 
 434:Drivers/STM32F7xx_HAL_Driver/Src/stm32f7xx_hal_gpio.c ****   if ((GPIOx->ODR & GPIO_Pin) != 0X00u)
 863              		.loc 1 434 3 view .LVU283
 864              		.loc 1 434 13 is_stmt 0 view .LVU284
 865 0000 4369     		ldr	r3, [r0, #20]
 866              		.loc 1 434 6 view .LVU285
 867 0002 0B42     		tst	r3, r1
 868 0004 02D0     		beq	.L63
 435:Drivers/STM32F7xx_HAL_Driver/Src/stm32f7xx_hal_gpio.c ****   {
 436:Drivers/STM32F7xx_HAL_Driver/Src/stm32f7xx_hal_gpio.c ****     GPIOx->BSRR = (uint32_t)GPIO_Pin << GPIO_NUMBER;
 869              		.loc 1 436 5 is_stmt 1 view .LVU286
 870              		.loc 1 436 38 is_stmt 0 view .LVU287
 871 0006 0904     		lsls	r1, r1, #16
 872              	.LVL72:
 873              		.loc 1 436 17 view .LVU288
 874 0008 8161     		str	r1, [r0, #24]
 875 000a 7047     		bx	lr
 876              	.LVL73:
 877              	.L63:
 437:Drivers/STM32F7xx_HAL_Driver/Src/stm32f7xx_hal_gpio.c ****   }
 438:Drivers/STM32F7xx_HAL_Driver/Src/stm32f7xx_hal_gpio.c ****   else
 439:Drivers/STM32F7xx_HAL_Driver/Src/stm32f7xx_hal_gpio.c ****   {
 440:Drivers/STM32F7xx_HAL_Driver/Src/stm32f7xx_hal_gpio.c ****     GPIOx->BSRR = (uint32_t)GPIO_Pin;
 878              		.loc 1 440 5 is_stmt 1 view .LVU289
 879              		.loc 1 440 17 is_stmt 0 view .LVU290
 880 000c 8161     		str	r1, [r0, #24]
 441:Drivers/STM32F7xx_HAL_Driver/Src/stm32f7xx_hal_gpio.c ****   }
 442:Drivers/STM32F7xx_HAL_Driver/Src/stm32f7xx_hal_gpio.c **** }
 881              		.loc 1 442 1 view .LVU291
 882 000e 7047     		bx	lr
 883              		.cfi_endproc
 884              	.LFE145:
 886              		.section	.text.HAL_GPIO_LockPin,"ax",%progbits
 887              		.align	1
 888              		.global	HAL_GPIO_LockPin
 889              		.syntax unified
 890              		.thumb
 891              		.thumb_func
 892              		.fpu fpv5-sp-d16
ARM GAS  D:\Dev\msys64\tmp\ccnJ960g.s 			page 27


 894              	HAL_GPIO_LockPin:
 895              	.LVL74:
 896              	.LFB146:
 443:Drivers/STM32F7xx_HAL_Driver/Src/stm32f7xx_hal_gpio.c **** 
 444:Drivers/STM32F7xx_HAL_Driver/Src/stm32f7xx_hal_gpio.c **** /**
 445:Drivers/STM32F7xx_HAL_Driver/Src/stm32f7xx_hal_gpio.c ****   * @brief  Locks GPIO Pins configuration registers.
 446:Drivers/STM32F7xx_HAL_Driver/Src/stm32f7xx_hal_gpio.c ****   * @note   The locked registers are GPIOx_MODER, GPIOx_OTYPER, GPIOx_OSPEEDR,
 447:Drivers/STM32F7xx_HAL_Driver/Src/stm32f7xx_hal_gpio.c ****   *         GPIOx_PUPDR, GPIOx_AFRL and GPIOx_AFRH.
 448:Drivers/STM32F7xx_HAL_Driver/Src/stm32f7xx_hal_gpio.c ****   * @note   The configuration of the locked GPIO pins can no longer be modified
 449:Drivers/STM32F7xx_HAL_Driver/Src/stm32f7xx_hal_gpio.c ****   *         until the next reset.
 450:Drivers/STM32F7xx_HAL_Driver/Src/stm32f7xx_hal_gpio.c ****   * @param  GPIOx where x can be (A..F) to select the GPIO peripheral for STM32F7 family
 451:Drivers/STM32F7xx_HAL_Driver/Src/stm32f7xx_hal_gpio.c ****   * @param  GPIO_Pin specifies the port bit to be locked.
 452:Drivers/STM32F7xx_HAL_Driver/Src/stm32f7xx_hal_gpio.c ****   *         This parameter can be any combination of GPIO_PIN_x where x can be (0..15).
 453:Drivers/STM32F7xx_HAL_Driver/Src/stm32f7xx_hal_gpio.c ****   * @retval None
 454:Drivers/STM32F7xx_HAL_Driver/Src/stm32f7xx_hal_gpio.c ****   */
 455:Drivers/STM32F7xx_HAL_Driver/Src/stm32f7xx_hal_gpio.c **** HAL_StatusTypeDef HAL_GPIO_LockPin(GPIO_TypeDef* GPIOx, uint16_t GPIO_Pin)
 456:Drivers/STM32F7xx_HAL_Driver/Src/stm32f7xx_hal_gpio.c **** {
 897              		.loc 1 456 1 is_stmt 1 view -0
 898              		.cfi_startproc
 899              		@ args = 0, pretend = 0, frame = 8
 900              		@ frame_needed = 0, uses_anonymous_args = 0
 901              		@ link register save eliminated.
 902              		.loc 1 456 1 is_stmt 0 view .LVU293
 903 0000 82B0     		sub	sp, sp, #8
 904              	.LCFI6:
 905              		.cfi_def_cfa_offset 8
 457:Drivers/STM32F7xx_HAL_Driver/Src/stm32f7xx_hal_gpio.c ****   __IO uint32_t tmp = GPIO_LCKR_LCKK;
 906              		.loc 1 457 3 is_stmt 1 view .LVU294
 907              		.loc 1 457 17 is_stmt 0 view .LVU295
 908 0002 4FF48033 		mov	r3, #65536
 909 0006 0193     		str	r3, [sp, #4]
 458:Drivers/STM32F7xx_HAL_Driver/Src/stm32f7xx_hal_gpio.c **** 
 459:Drivers/STM32F7xx_HAL_Driver/Src/stm32f7xx_hal_gpio.c ****   /* Check the parameters */
 460:Drivers/STM32F7xx_HAL_Driver/Src/stm32f7xx_hal_gpio.c ****   assert_param(IS_GPIO_PIN(GPIO_Pin));
 910              		.loc 1 460 3 is_stmt 1 view .LVU296
 461:Drivers/STM32F7xx_HAL_Driver/Src/stm32f7xx_hal_gpio.c **** 
 462:Drivers/STM32F7xx_HAL_Driver/Src/stm32f7xx_hal_gpio.c ****   /* Apply lock key write sequence */
 463:Drivers/STM32F7xx_HAL_Driver/Src/stm32f7xx_hal_gpio.c ****   tmp |= GPIO_Pin;
 911              		.loc 1 463 3 view .LVU297
 912              		.loc 1 463 7 is_stmt 0 view .LVU298
 913 0008 019B     		ldr	r3, [sp, #4]
 914 000a 0B43     		orrs	r3, r3, r1
 915 000c 0193     		str	r3, [sp, #4]
 464:Drivers/STM32F7xx_HAL_Driver/Src/stm32f7xx_hal_gpio.c ****   /* Set LCKx bit(s): LCKK='1' + LCK[15-0] */
 465:Drivers/STM32F7xx_HAL_Driver/Src/stm32f7xx_hal_gpio.c ****   GPIOx->LCKR = tmp;
 916              		.loc 1 465 3 is_stmt 1 view .LVU299
 917              		.loc 1 465 15 is_stmt 0 view .LVU300
 918 000e 019B     		ldr	r3, [sp, #4]
 919 0010 C361     		str	r3, [r0, #28]
 466:Drivers/STM32F7xx_HAL_Driver/Src/stm32f7xx_hal_gpio.c ****   /* Reset LCKx bit(s): LCKK='0' + LCK[15-0] */
 467:Drivers/STM32F7xx_HAL_Driver/Src/stm32f7xx_hal_gpio.c ****   GPIOx->LCKR = GPIO_Pin;
 920              		.loc 1 467 3 is_stmt 1 view .LVU301
 921              		.loc 1 467 15 is_stmt 0 view .LVU302
 922 0012 C161     		str	r1, [r0, #28]
 468:Drivers/STM32F7xx_HAL_Driver/Src/stm32f7xx_hal_gpio.c ****   /* Set LCKx bit(s): LCKK='1' + LCK[15-0] */
 469:Drivers/STM32F7xx_HAL_Driver/Src/stm32f7xx_hal_gpio.c ****   GPIOx->LCKR = tmp;
 923              		.loc 1 469 3 is_stmt 1 view .LVU303
ARM GAS  D:\Dev\msys64\tmp\ccnJ960g.s 			page 28


 924              		.loc 1 469 15 is_stmt 0 view .LVU304
 925 0014 019B     		ldr	r3, [sp, #4]
 926 0016 C361     		str	r3, [r0, #28]
 470:Drivers/STM32F7xx_HAL_Driver/Src/stm32f7xx_hal_gpio.c ****   /* Read LCKR register. This read is mandatory to complete key lock sequence */
 471:Drivers/STM32F7xx_HAL_Driver/Src/stm32f7xx_hal_gpio.c ****   tmp = GPIOx->LCKR;
 927              		.loc 1 471 3 is_stmt 1 view .LVU305
 928              		.loc 1 471 14 is_stmt 0 view .LVU306
 929 0018 C369     		ldr	r3, [r0, #28]
 930              		.loc 1 471 7 view .LVU307
 931 001a 0193     		str	r3, [sp, #4]
 472:Drivers/STM32F7xx_HAL_Driver/Src/stm32f7xx_hal_gpio.c **** 
 473:Drivers/STM32F7xx_HAL_Driver/Src/stm32f7xx_hal_gpio.c ****   /* Read again in order to confirm lock is active */
 474:Drivers/STM32F7xx_HAL_Driver/Src/stm32f7xx_hal_gpio.c ****   if((GPIOx->LCKR & GPIO_LCKR_LCKK) != RESET)
 932              		.loc 1 474 3 is_stmt 1 view .LVU308
 933              		.loc 1 474 12 is_stmt 0 view .LVU309
 934 001c C369     		ldr	r3, [r0, #28]
 935              		.loc 1 474 5 view .LVU310
 936 001e 13F4803F 		tst	r3, #65536
 937 0022 02D0     		beq	.L67
 475:Drivers/STM32F7xx_HAL_Driver/Src/stm32f7xx_hal_gpio.c ****   {
 476:Drivers/STM32F7xx_HAL_Driver/Src/stm32f7xx_hal_gpio.c ****     return HAL_OK;
 938              		.loc 1 476 12 view .LVU311
 939 0024 0020     		movs	r0, #0
 940              	.LVL75:
 941              	.L66:
 477:Drivers/STM32F7xx_HAL_Driver/Src/stm32f7xx_hal_gpio.c ****   }
 478:Drivers/STM32F7xx_HAL_Driver/Src/stm32f7xx_hal_gpio.c ****   else
 479:Drivers/STM32F7xx_HAL_Driver/Src/stm32f7xx_hal_gpio.c ****   {
 480:Drivers/STM32F7xx_HAL_Driver/Src/stm32f7xx_hal_gpio.c ****     return HAL_ERROR;
 481:Drivers/STM32F7xx_HAL_Driver/Src/stm32f7xx_hal_gpio.c ****   }
 482:Drivers/STM32F7xx_HAL_Driver/Src/stm32f7xx_hal_gpio.c **** }
 942              		.loc 1 482 1 view .LVU312
 943 0026 02B0     		add	sp, sp, #8
 944              	.LCFI7:
 945              		.cfi_remember_state
 946              		.cfi_def_cfa_offset 0
 947              		@ sp needed
 948 0028 7047     		bx	lr
 949              	.LVL76:
 950              	.L67:
 951              	.LCFI8:
 952              		.cfi_restore_state
 480:Drivers/STM32F7xx_HAL_Driver/Src/stm32f7xx_hal_gpio.c ****   }
 953              		.loc 1 480 12 view .LVU313
 954 002a 0120     		movs	r0, #1
 955              	.LVL77:
 480:Drivers/STM32F7xx_HAL_Driver/Src/stm32f7xx_hal_gpio.c ****   }
 956              		.loc 1 480 12 view .LVU314
 957 002c FBE7     		b	.L66
 958              		.cfi_endproc
 959              	.LFE146:
 961              		.section	.text.HAL_GPIO_EXTI_Callback,"ax",%progbits
 962              		.align	1
 963              		.weak	HAL_GPIO_EXTI_Callback
 964              		.syntax unified
 965              		.thumb
 966              		.thumb_func
ARM GAS  D:\Dev\msys64\tmp\ccnJ960g.s 			page 29


 967              		.fpu fpv5-sp-d16
 969              	HAL_GPIO_EXTI_Callback:
 970              	.LVL78:
 971              	.LFB148:
 483:Drivers/STM32F7xx_HAL_Driver/Src/stm32f7xx_hal_gpio.c **** 
 484:Drivers/STM32F7xx_HAL_Driver/Src/stm32f7xx_hal_gpio.c **** /**
 485:Drivers/STM32F7xx_HAL_Driver/Src/stm32f7xx_hal_gpio.c ****   * @brief  This function handles EXTI interrupt request.
 486:Drivers/STM32F7xx_HAL_Driver/Src/stm32f7xx_hal_gpio.c ****   * @param  GPIO_Pin Specifies the pins connected EXTI line
 487:Drivers/STM32F7xx_HAL_Driver/Src/stm32f7xx_hal_gpio.c ****   * @retval None
 488:Drivers/STM32F7xx_HAL_Driver/Src/stm32f7xx_hal_gpio.c ****   */
 489:Drivers/STM32F7xx_HAL_Driver/Src/stm32f7xx_hal_gpio.c **** void HAL_GPIO_EXTI_IRQHandler(uint16_t GPIO_Pin)
 490:Drivers/STM32F7xx_HAL_Driver/Src/stm32f7xx_hal_gpio.c **** {
 491:Drivers/STM32F7xx_HAL_Driver/Src/stm32f7xx_hal_gpio.c ****   /* EXTI line interrupt detected */
 492:Drivers/STM32F7xx_HAL_Driver/Src/stm32f7xx_hal_gpio.c ****   if(__HAL_GPIO_EXTI_GET_IT(GPIO_Pin) != RESET)
 493:Drivers/STM32F7xx_HAL_Driver/Src/stm32f7xx_hal_gpio.c ****   {
 494:Drivers/STM32F7xx_HAL_Driver/Src/stm32f7xx_hal_gpio.c ****     __HAL_GPIO_EXTI_CLEAR_IT(GPIO_Pin);
 495:Drivers/STM32F7xx_HAL_Driver/Src/stm32f7xx_hal_gpio.c ****     HAL_GPIO_EXTI_Callback(GPIO_Pin);
 496:Drivers/STM32F7xx_HAL_Driver/Src/stm32f7xx_hal_gpio.c ****   }
 497:Drivers/STM32F7xx_HAL_Driver/Src/stm32f7xx_hal_gpio.c **** }
 498:Drivers/STM32F7xx_HAL_Driver/Src/stm32f7xx_hal_gpio.c **** 
 499:Drivers/STM32F7xx_HAL_Driver/Src/stm32f7xx_hal_gpio.c **** /**
 500:Drivers/STM32F7xx_HAL_Driver/Src/stm32f7xx_hal_gpio.c ****   * @brief  EXTI line detection callbacks.
 501:Drivers/STM32F7xx_HAL_Driver/Src/stm32f7xx_hal_gpio.c ****   * @param  GPIO_Pin Specifies the pins connected EXTI line
 502:Drivers/STM32F7xx_HAL_Driver/Src/stm32f7xx_hal_gpio.c ****   * @retval None
 503:Drivers/STM32F7xx_HAL_Driver/Src/stm32f7xx_hal_gpio.c ****   */
 504:Drivers/STM32F7xx_HAL_Driver/Src/stm32f7xx_hal_gpio.c **** __weak void HAL_GPIO_EXTI_Callback(uint16_t GPIO_Pin)
 505:Drivers/STM32F7xx_HAL_Driver/Src/stm32f7xx_hal_gpio.c **** {
 972              		.loc 1 505 1 is_stmt 1 view -0
 973              		.cfi_startproc
 974              		@ args = 0, pretend = 0, frame = 0
 975              		@ frame_needed = 0, uses_anonymous_args = 0
 976              		@ link register save eliminated.
 506:Drivers/STM32F7xx_HAL_Driver/Src/stm32f7xx_hal_gpio.c ****   /* Prevent unused argument(s) compilation warning */
 507:Drivers/STM32F7xx_HAL_Driver/Src/stm32f7xx_hal_gpio.c ****   UNUSED(GPIO_Pin);
 977              		.loc 1 507 3 view .LVU316
 508:Drivers/STM32F7xx_HAL_Driver/Src/stm32f7xx_hal_gpio.c ****   
 509:Drivers/STM32F7xx_HAL_Driver/Src/stm32f7xx_hal_gpio.c ****   /* NOTE: This function Should not be modified, when the callback is needed,
 510:Drivers/STM32F7xx_HAL_Driver/Src/stm32f7xx_hal_gpio.c ****            the HAL_GPIO_EXTI_Callback could be implemented in the user file
 511:Drivers/STM32F7xx_HAL_Driver/Src/stm32f7xx_hal_gpio.c ****    */
 512:Drivers/STM32F7xx_HAL_Driver/Src/stm32f7xx_hal_gpio.c **** }
 978              		.loc 1 512 1 is_stmt 0 view .LVU317
 979 0000 7047     		bx	lr
 980              		.cfi_endproc
 981              	.LFE148:
 983              		.section	.text.HAL_GPIO_EXTI_IRQHandler,"ax",%progbits
 984              		.align	1
 985              		.global	HAL_GPIO_EXTI_IRQHandler
 986              		.syntax unified
 987              		.thumb
 988              		.thumb_func
 989              		.fpu fpv5-sp-d16
 991              	HAL_GPIO_EXTI_IRQHandler:
 992              	.LVL79:
 993              	.LFB147:
 490:Drivers/STM32F7xx_HAL_Driver/Src/stm32f7xx_hal_gpio.c ****   /* EXTI line interrupt detected */
 994              		.loc 1 490 1 is_stmt 1 view -0
 995              		.cfi_startproc
ARM GAS  D:\Dev\msys64\tmp\ccnJ960g.s 			page 30


 996              		@ args = 0, pretend = 0, frame = 0
 997              		@ frame_needed = 0, uses_anonymous_args = 0
 490:Drivers/STM32F7xx_HAL_Driver/Src/stm32f7xx_hal_gpio.c ****   /* EXTI line interrupt detected */
 998              		.loc 1 490 1 is_stmt 0 view .LVU319
 999 0000 08B5     		push	{r3, lr}
 1000              	.LCFI9:
 1001              		.cfi_def_cfa_offset 8
 1002              		.cfi_offset 3, -8
 1003              		.cfi_offset 14, -4
 492:Drivers/STM32F7xx_HAL_Driver/Src/stm32f7xx_hal_gpio.c ****   {
 1004              		.loc 1 492 3 is_stmt 1 view .LVU320
 492:Drivers/STM32F7xx_HAL_Driver/Src/stm32f7xx_hal_gpio.c ****   {
 1005              		.loc 1 492 6 is_stmt 0 view .LVU321
 1006 0002 054B     		ldr	r3, .L74
 1007 0004 5B69     		ldr	r3, [r3, #20]
 492:Drivers/STM32F7xx_HAL_Driver/Src/stm32f7xx_hal_gpio.c ****   {
 1008              		.loc 1 492 5 view .LVU322
 1009 0006 0342     		tst	r3, r0
 1010 0008 00D1     		bne	.L73
 1011              	.LVL80:
 1012              	.L70:
 497:Drivers/STM32F7xx_HAL_Driver/Src/stm32f7xx_hal_gpio.c **** 
 1013              		.loc 1 497 1 view .LVU323
 1014 000a 08BD     		pop	{r3, pc}
 1015              	.LVL81:
 1016              	.L73:
 494:Drivers/STM32F7xx_HAL_Driver/Src/stm32f7xx_hal_gpio.c ****     HAL_GPIO_EXTI_Callback(GPIO_Pin);
 1017              		.loc 1 494 5 is_stmt 1 view .LVU324
 1018 000c 024B     		ldr	r3, .L74
 1019 000e 5861     		str	r0, [r3, #20]
 495:Drivers/STM32F7xx_HAL_Driver/Src/stm32f7xx_hal_gpio.c ****   }
 1020              		.loc 1 495 5 view .LVU325
 1021 0010 FFF7FEFF 		bl	HAL_GPIO_EXTI_Callback
 1022              	.LVL82:
 497:Drivers/STM32F7xx_HAL_Driver/Src/stm32f7xx_hal_gpio.c **** 
 1023              		.loc 1 497 1 is_stmt 0 view .LVU326
 1024 0014 F9E7     		b	.L70
 1025              	.L75:
 1026 0016 00BF     		.align	2
 1027              	.L74:
 1028 0018 003C0140 		.word	1073822720
 1029              		.cfi_endproc
 1030              	.LFE147:
 1032              		.text
 1033              	.Letext0:
 1034              		.file 2 "d:\\dev\\gcc-arm-none-eabi\\9_2019_q4-major\\arm-none-eabi\\include\\machine\\_default_ty
 1035              		.file 3 "d:\\dev\\gcc-arm-none-eabi\\9_2019_q4-major\\arm-none-eabi\\include\\sys\\_stdint.h"
 1036              		.file 4 "Drivers/CMSIS/Include/core_cm7.h"
 1037              		.file 5 "Drivers/CMSIS/Device/ST/STM32F7xx/Include/system_stm32f7xx.h"
 1038              		.file 6 "Drivers/CMSIS/Device/ST/STM32F7xx/Include/stm32f746xx.h"
 1039              		.file 7 "Drivers/CMSIS/Device/ST/STM32F7xx/Include/stm32f7xx.h"
 1040              		.file 8 "Drivers/STM32F7xx_HAL_Driver/Inc/stm32f7xx_hal_def.h"
 1041              		.file 9 "Drivers/STM32F7xx_HAL_Driver/Inc/stm32f7xx_hal_gpio.h"
 1042              		.file 10 "Drivers/STM32F7xx_HAL_Driver/Inc/stm32f7xx_hal.h"
ARM GAS  D:\Dev\msys64\tmp\ccnJ960g.s 			page 31

