ARM GAS  D:\Dev\msys64\tmp\ccLEQPHe.s 			page 1


   1              		.cpu cortex-m7
   2              		.eabi_attribute 27, 1
   3              		.eabi_attribute 28, 1
   4              		.eabi_attribute 20, 1
   5              		.eabi_attribute 21, 1
   6              		.eabi_attribute 23, 3
   7              		.eabi_attribute 24, 1
   8              		.eabi_attribute 25, 1
   9              		.eabi_attribute 26, 1
  10              		.eabi_attribute 30, 1
  11              		.eabi_attribute 34, 1
  12              		.eabi_attribute 18, 4
  13              		.file	"tcpip.c"
  14              		.text
  15              	.Ltext0:
  16              		.cfi_sections	.debug_frame
  17              		.section	.text.tcpip_timeouts_mbox_fetch,"ax",%progbits
  18              		.align	1
  19              		.arch armv7e-m
  20              		.syntax unified
  21              		.thumb
  22              		.thumb_func
  23              		.fpu fpv5-sp-d16
  25              	tcpip_timeouts_mbox_fetch:
  26              	.LVL0:
  27              	.LFB30:
  28              		.file 1 "Middlewares/Third_Party/LwIP/src/api/tcpip.c"
   1:Middlewares/Third_Party/LwIP/src/api/tcpip.c **** /**
   2:Middlewares/Third_Party/LwIP/src/api/tcpip.c ****  * @file
   3:Middlewares/Third_Party/LwIP/src/api/tcpip.c ****  * Sequential API Main thread module
   4:Middlewares/Third_Party/LwIP/src/api/tcpip.c ****  *
   5:Middlewares/Third_Party/LwIP/src/api/tcpip.c ****  */
   6:Middlewares/Third_Party/LwIP/src/api/tcpip.c **** 
   7:Middlewares/Third_Party/LwIP/src/api/tcpip.c **** /*
   8:Middlewares/Third_Party/LwIP/src/api/tcpip.c ****  * Copyright (c) 2001-2004 Swedish Institute of Computer Science.
   9:Middlewares/Third_Party/LwIP/src/api/tcpip.c ****  * All rights reserved.
  10:Middlewares/Third_Party/LwIP/src/api/tcpip.c ****  *
  11:Middlewares/Third_Party/LwIP/src/api/tcpip.c ****  * Redistribution and use in source and binary forms, with or without modification,
  12:Middlewares/Third_Party/LwIP/src/api/tcpip.c ****  * are permitted provided that the following conditions are met:
  13:Middlewares/Third_Party/LwIP/src/api/tcpip.c ****  *
  14:Middlewares/Third_Party/LwIP/src/api/tcpip.c ****  * 1. Redistributions of source code must retain the above copyright notice,
  15:Middlewares/Third_Party/LwIP/src/api/tcpip.c ****  *    this list of conditions and the following disclaimer.
  16:Middlewares/Third_Party/LwIP/src/api/tcpip.c ****  * 2. Redistributions in binary form must reproduce the above copyright notice,
  17:Middlewares/Third_Party/LwIP/src/api/tcpip.c ****  *    this list of conditions and the following disclaimer in the documentation
  18:Middlewares/Third_Party/LwIP/src/api/tcpip.c ****  *    and/or other materials provided with the distribution.
  19:Middlewares/Third_Party/LwIP/src/api/tcpip.c ****  * 3. The name of the author may not be used to endorse or promote products
  20:Middlewares/Third_Party/LwIP/src/api/tcpip.c ****  *    derived from this software without specific prior written permission.
  21:Middlewares/Third_Party/LwIP/src/api/tcpip.c ****  *
  22:Middlewares/Third_Party/LwIP/src/api/tcpip.c ****  * THIS SOFTWARE IS PROVIDED BY THE AUTHOR ``AS IS'' AND ANY EXPRESS OR IMPLIED
  23:Middlewares/Third_Party/LwIP/src/api/tcpip.c ****  * WARRANTIES, INCLUDING, BUT NOT LIMITED TO, THE IMPLIED WARRANTIES OF
  24:Middlewares/Third_Party/LwIP/src/api/tcpip.c ****  * MERCHANTABILITY AND FITNESS FOR A PARTICULAR PURPOSE ARE DISCLAIMED. IN NO EVENT
  25:Middlewares/Third_Party/LwIP/src/api/tcpip.c ****  * SHALL THE AUTHOR BE LIABLE FOR ANY DIRECT, INDIRECT, INCIDENTAL, SPECIAL,
  26:Middlewares/Third_Party/LwIP/src/api/tcpip.c ****  * EXEMPLARY, OR CONSEQUENTIAL DAMAGES (INCLUDING, BUT NOT LIMITED TO, PROCUREMENT
  27:Middlewares/Third_Party/LwIP/src/api/tcpip.c ****  * OF SUBSTITUTE GOODS OR SERVICES; LOSS OF USE, DATA, OR PROFITS; OR BUSINESS
  28:Middlewares/Third_Party/LwIP/src/api/tcpip.c ****  * INTERRUPTION) HOWEVER CAUSED AND ON ANY THEORY OF LIABILITY, WHETHER IN
  29:Middlewares/Third_Party/LwIP/src/api/tcpip.c ****  * CONTRACT, STRICT LIABILITY, OR TORT (INCLUDING NEGLIGENCE OR OTHERWISE) ARISING
  30:Middlewares/Third_Party/LwIP/src/api/tcpip.c ****  * IN ANY WAY OUT OF THE USE OF THIS SOFTWARE, EVEN IF ADVISED OF THE POSSIBILITY
ARM GAS  D:\Dev\msys64\tmp\ccLEQPHe.s 			page 2


  31:Middlewares/Third_Party/LwIP/src/api/tcpip.c ****  * OF SUCH DAMAGE.
  32:Middlewares/Third_Party/LwIP/src/api/tcpip.c ****  *
  33:Middlewares/Third_Party/LwIP/src/api/tcpip.c ****  * This file is part of the lwIP TCP/IP stack.
  34:Middlewares/Third_Party/LwIP/src/api/tcpip.c ****  *
  35:Middlewares/Third_Party/LwIP/src/api/tcpip.c ****  * Author: Adam Dunkels <adam@sics.se>
  36:Middlewares/Third_Party/LwIP/src/api/tcpip.c ****  *
  37:Middlewares/Third_Party/LwIP/src/api/tcpip.c ****  */
  38:Middlewares/Third_Party/LwIP/src/api/tcpip.c **** 
  39:Middlewares/Third_Party/LwIP/src/api/tcpip.c **** #include "lwip/opt.h"
  40:Middlewares/Third_Party/LwIP/src/api/tcpip.c **** 
  41:Middlewares/Third_Party/LwIP/src/api/tcpip.c **** #if !NO_SYS /* don't build if not configured for use in lwipopts.h */
  42:Middlewares/Third_Party/LwIP/src/api/tcpip.c **** 
  43:Middlewares/Third_Party/LwIP/src/api/tcpip.c **** #include "lwip/priv/tcpip_priv.h"
  44:Middlewares/Third_Party/LwIP/src/api/tcpip.c **** #include "lwip/sys.h"
  45:Middlewares/Third_Party/LwIP/src/api/tcpip.c **** #include "lwip/memp.h"
  46:Middlewares/Third_Party/LwIP/src/api/tcpip.c **** #include "lwip/mem.h"
  47:Middlewares/Third_Party/LwIP/src/api/tcpip.c **** #include "lwip/init.h"
  48:Middlewares/Third_Party/LwIP/src/api/tcpip.c **** #include "lwip/ip.h"
  49:Middlewares/Third_Party/LwIP/src/api/tcpip.c **** #include "lwip/pbuf.h"
  50:Middlewares/Third_Party/LwIP/src/api/tcpip.c **** #include "lwip/etharp.h"
  51:Middlewares/Third_Party/LwIP/src/api/tcpip.c **** #include "netif/ethernet.h"
  52:Middlewares/Third_Party/LwIP/src/api/tcpip.c **** 
  53:Middlewares/Third_Party/LwIP/src/api/tcpip.c **** #define TCPIP_MSG_VAR_REF(name)     API_VAR_REF(name)
  54:Middlewares/Third_Party/LwIP/src/api/tcpip.c **** #define TCPIP_MSG_VAR_DECLARE(name) API_VAR_DECLARE(struct tcpip_msg, name)
  55:Middlewares/Third_Party/LwIP/src/api/tcpip.c **** #define TCPIP_MSG_VAR_ALLOC(name)   API_VAR_ALLOC(struct tcpip_msg, MEMP_TCPIP_MSG_API, name, ERR_M
  56:Middlewares/Third_Party/LwIP/src/api/tcpip.c **** #define TCPIP_MSG_VAR_FREE(name)    API_VAR_FREE(MEMP_TCPIP_MSG_API, name)
  57:Middlewares/Third_Party/LwIP/src/api/tcpip.c **** 
  58:Middlewares/Third_Party/LwIP/src/api/tcpip.c **** /* global variables */
  59:Middlewares/Third_Party/LwIP/src/api/tcpip.c **** static tcpip_init_done_fn tcpip_init_done;
  60:Middlewares/Third_Party/LwIP/src/api/tcpip.c **** static void *tcpip_init_done_arg;
  61:Middlewares/Third_Party/LwIP/src/api/tcpip.c **** static sys_mbox_t tcpip_mbox;
  62:Middlewares/Third_Party/LwIP/src/api/tcpip.c **** 
  63:Middlewares/Third_Party/LwIP/src/api/tcpip.c **** #if LWIP_TCPIP_CORE_LOCKING
  64:Middlewares/Third_Party/LwIP/src/api/tcpip.c **** /** The global semaphore to lock the stack. */
  65:Middlewares/Third_Party/LwIP/src/api/tcpip.c **** sys_mutex_t lock_tcpip_core;
  66:Middlewares/Third_Party/LwIP/src/api/tcpip.c **** #endif /* LWIP_TCPIP_CORE_LOCKING */
  67:Middlewares/Third_Party/LwIP/src/api/tcpip.c **** 
  68:Middlewares/Third_Party/LwIP/src/api/tcpip.c **** static void tcpip_thread_handle_msg(struct tcpip_msg *msg);
  69:Middlewares/Third_Party/LwIP/src/api/tcpip.c **** 
  70:Middlewares/Third_Party/LwIP/src/api/tcpip.c **** #if !LWIP_TIMERS
  71:Middlewares/Third_Party/LwIP/src/api/tcpip.c **** /* wait for a message with timers disabled (e.g. pass a timer-check trigger into tcpip_thread) */
  72:Middlewares/Third_Party/LwIP/src/api/tcpip.c **** #define TCPIP_MBOX_FETCH(mbox, msg) sys_mbox_fetch(mbox, msg)
  73:Middlewares/Third_Party/LwIP/src/api/tcpip.c **** #else /* !LWIP_TIMERS */
  74:Middlewares/Third_Party/LwIP/src/api/tcpip.c **** /* wait for a message, timeouts are processed while waiting */
  75:Middlewares/Third_Party/LwIP/src/api/tcpip.c **** #define TCPIP_MBOX_FETCH(mbox, msg) tcpip_timeouts_mbox_fetch(mbox, msg)
  76:Middlewares/Third_Party/LwIP/src/api/tcpip.c **** /**
  77:Middlewares/Third_Party/LwIP/src/api/tcpip.c ****  * Wait (forever) for a message to arrive in an mbox.
  78:Middlewares/Third_Party/LwIP/src/api/tcpip.c ****  * While waiting, timeouts are processed.
  79:Middlewares/Third_Party/LwIP/src/api/tcpip.c ****  *
  80:Middlewares/Third_Party/LwIP/src/api/tcpip.c ****  * @param mbox the mbox to fetch the message from
  81:Middlewares/Third_Party/LwIP/src/api/tcpip.c ****  * @param msg the place to store the message
  82:Middlewares/Third_Party/LwIP/src/api/tcpip.c ****  */
  83:Middlewares/Third_Party/LwIP/src/api/tcpip.c **** static void
  84:Middlewares/Third_Party/LwIP/src/api/tcpip.c **** tcpip_timeouts_mbox_fetch(sys_mbox_t *mbox, void **msg)
  85:Middlewares/Third_Party/LwIP/src/api/tcpip.c **** {
  29              		.loc 1 85 1 view -0
  30              		.cfi_startproc
ARM GAS  D:\Dev\msys64\tmp\ccLEQPHe.s 			page 3


  31              		@ args = 0, pretend = 0, frame = 0
  32              		@ frame_needed = 0, uses_anonymous_args = 0
  33              		.loc 1 85 1 is_stmt 0 view .LVU1
  34 0000 F8B5     		push	{r3, r4, r5, r6, r7, lr}
  35              	.LCFI0:
  36              		.cfi_def_cfa_offset 24
  37              		.cfi_offset 3, -24
  38              		.cfi_offset 4, -20
  39              		.cfi_offset 5, -16
  40              		.cfi_offset 6, -12
  41              		.cfi_offset 7, -8
  42              		.cfi_offset 14, -4
  43 0002 0646     		mov	r6, r0
  44 0004 0F46     		mov	r7, r1
  45 0006 0EE0     		b	.L2
  46              	.LVL1:
  47              	.L8:
  86:Middlewares/Third_Party/LwIP/src/api/tcpip.c ****   u32_t sleeptime, res;
  87:Middlewares/Third_Party/LwIP/src/api/tcpip.c **** 
  88:Middlewares/Third_Party/LwIP/src/api/tcpip.c **** again:
  89:Middlewares/Third_Party/LwIP/src/api/tcpip.c ****   LWIP_ASSERT_CORE_LOCKED();
  90:Middlewares/Third_Party/LwIP/src/api/tcpip.c **** 
  91:Middlewares/Third_Party/LwIP/src/api/tcpip.c ****   sleeptime = sys_timeouts_sleeptime();
  92:Middlewares/Third_Party/LwIP/src/api/tcpip.c ****   if (sleeptime == SYS_TIMEOUTS_SLEEPTIME_INFINITE) {
  93:Middlewares/Third_Party/LwIP/src/api/tcpip.c ****     UNLOCK_TCPIP_CORE();
  48              		.loc 1 93 5 is_stmt 1 view .LVU2
  49 0008 144C     		ldr	r4, .L10
  50 000a 2046     		mov	r0, r4
  51              	.LVL2:
  52              		.loc 1 93 5 is_stmt 0 view .LVU3
  53 000c FFF7FEFF 		bl	sys_mutex_unlock
  54              	.LVL3:
  94:Middlewares/Third_Party/LwIP/src/api/tcpip.c ****     sys_arch_mbox_fetch(mbox, msg, 0);
  55              		.loc 1 94 5 is_stmt 1 view .LVU4
  56 0010 0022     		movs	r2, #0
  57 0012 3946     		mov	r1, r7
  58 0014 3046     		mov	r0, r6
  59 0016 FFF7FEFF 		bl	sys_arch_mbox_fetch
  60              	.LVL4:
  95:Middlewares/Third_Party/LwIP/src/api/tcpip.c ****     LOCK_TCPIP_CORE();
  61              		.loc 1 95 5 view .LVU5
  62 001a 2046     		mov	r0, r4
  63 001c FFF7FEFF 		bl	sys_mutex_lock
  64              	.LVL5:
  96:Middlewares/Third_Party/LwIP/src/api/tcpip.c ****     return;
  65              		.loc 1 96 5 view .LVU6
  66              	.L1:
  97:Middlewares/Third_Party/LwIP/src/api/tcpip.c ****   } else if (sleeptime == 0) {
  98:Middlewares/Third_Party/LwIP/src/api/tcpip.c ****     sys_check_timeouts();
  99:Middlewares/Third_Party/LwIP/src/api/tcpip.c ****     /* We try again to fetch a message from the mbox. */
 100:Middlewares/Third_Party/LwIP/src/api/tcpip.c ****     goto again;
 101:Middlewares/Third_Party/LwIP/src/api/tcpip.c ****   }
 102:Middlewares/Third_Party/LwIP/src/api/tcpip.c **** 
 103:Middlewares/Third_Party/LwIP/src/api/tcpip.c ****   UNLOCK_TCPIP_CORE();
 104:Middlewares/Third_Party/LwIP/src/api/tcpip.c ****   res = sys_arch_mbox_fetch(mbox, msg, sleeptime);
 105:Middlewares/Third_Party/LwIP/src/api/tcpip.c ****   LOCK_TCPIP_CORE();
 106:Middlewares/Third_Party/LwIP/src/api/tcpip.c ****   if (res == SYS_ARCH_TIMEOUT) {
ARM GAS  D:\Dev\msys64\tmp\ccLEQPHe.s 			page 4


 107:Middlewares/Third_Party/LwIP/src/api/tcpip.c ****     /* If a SYS_ARCH_TIMEOUT value is returned, a timeout occurred
 108:Middlewares/Third_Party/LwIP/src/api/tcpip.c ****        before a message could be fetched. */
 109:Middlewares/Third_Party/LwIP/src/api/tcpip.c ****     sys_check_timeouts();
 110:Middlewares/Third_Party/LwIP/src/api/tcpip.c ****     /* We try again to fetch a message from the mbox. */
 111:Middlewares/Third_Party/LwIP/src/api/tcpip.c ****     goto again;
 112:Middlewares/Third_Party/LwIP/src/api/tcpip.c ****   }
 113:Middlewares/Third_Party/LwIP/src/api/tcpip.c **** }
  67              		.loc 1 113 1 is_stmt 0 view .LVU7
  68 0020 F8BD     		pop	{r3, r4, r5, r6, r7, pc}
  69              	.LVL6:
  70              	.L9:
  98:Middlewares/Third_Party/LwIP/src/api/tcpip.c ****     /* We try again to fetch a message from the mbox. */
  71              		.loc 1 98 5 is_stmt 1 view .LVU8
  72 0022 FFF7FEFF 		bl	sys_check_timeouts
  73              	.LVL7:
 100:Middlewares/Third_Party/LwIP/src/api/tcpip.c ****   }
  74              		.loc 1 100 5 view .LVU9
  75              	.L2:
  86:Middlewares/Third_Party/LwIP/src/api/tcpip.c **** 
  76              		.loc 1 86 3 view .LVU10
  89:Middlewares/Third_Party/LwIP/src/api/tcpip.c **** 
  77              		.loc 1 89 28 view .LVU11
  91:Middlewares/Third_Party/LwIP/src/api/tcpip.c ****   if (sleeptime == SYS_TIMEOUTS_SLEEPTIME_INFINITE) {
  78              		.loc 1 91 3 view .LVU12
  91:Middlewares/Third_Party/LwIP/src/api/tcpip.c ****   if (sleeptime == SYS_TIMEOUTS_SLEEPTIME_INFINITE) {
  79              		.loc 1 91 15 is_stmt 0 view .LVU13
  80 0026 FFF7FEFF 		bl	sys_timeouts_sleeptime
  81              	.LVL8:
  82 002a 0446     		mov	r4, r0
  83              	.LVL9:
  92:Middlewares/Third_Party/LwIP/src/api/tcpip.c ****     UNLOCK_TCPIP_CORE();
  84              		.loc 1 92 3 is_stmt 1 view .LVU14
  92:Middlewares/Third_Party/LwIP/src/api/tcpip.c ****     UNLOCK_TCPIP_CORE();
  85              		.loc 1 92 6 is_stmt 0 view .LVU15
  86 002c B0F1FF3F 		cmp	r0, #-1
  87 0030 EAD0     		beq	.L8
  97:Middlewares/Third_Party/LwIP/src/api/tcpip.c ****     sys_check_timeouts();
  88              		.loc 1 97 10 is_stmt 1 view .LVU16
  97:Middlewares/Third_Party/LwIP/src/api/tcpip.c ****     sys_check_timeouts();
  89              		.loc 1 97 13 is_stmt 0 view .LVU17
  90 0032 0028     		cmp	r0, #0
  91 0034 F5D0     		beq	.L9
 103:Middlewares/Third_Party/LwIP/src/api/tcpip.c ****   res = sys_arch_mbox_fetch(mbox, msg, sleeptime);
  92              		.loc 1 103 3 is_stmt 1 view .LVU18
  93 0036 094D     		ldr	r5, .L10
  94 0038 2846     		mov	r0, r5
  95              	.LVL10:
 103:Middlewares/Third_Party/LwIP/src/api/tcpip.c ****   res = sys_arch_mbox_fetch(mbox, msg, sleeptime);
  96              		.loc 1 103 3 is_stmt 0 view .LVU19
  97 003a FFF7FEFF 		bl	sys_mutex_unlock
  98              	.LVL11:
 104:Middlewares/Third_Party/LwIP/src/api/tcpip.c ****   LOCK_TCPIP_CORE();
  99              		.loc 1 104 3 is_stmt 1 view .LVU20
 104:Middlewares/Third_Party/LwIP/src/api/tcpip.c ****   LOCK_TCPIP_CORE();
 100              		.loc 1 104 9 is_stmt 0 view .LVU21
 101 003e 2246     		mov	r2, r4
 102 0040 3946     		mov	r1, r7
ARM GAS  D:\Dev\msys64\tmp\ccLEQPHe.s 			page 5


 103 0042 3046     		mov	r0, r6
 104 0044 FFF7FEFF 		bl	sys_arch_mbox_fetch
 105              	.LVL12:
 106 0048 0446     		mov	r4, r0
 107              	.LVL13:
 105:Middlewares/Third_Party/LwIP/src/api/tcpip.c ****   if (res == SYS_ARCH_TIMEOUT) {
 108              		.loc 1 105 3 is_stmt 1 view .LVU22
 109 004a 2846     		mov	r0, r5
 110              	.LVL14:
 105:Middlewares/Third_Party/LwIP/src/api/tcpip.c ****   if (res == SYS_ARCH_TIMEOUT) {
 111              		.loc 1 105 3 is_stmt 0 view .LVU23
 112 004c FFF7FEFF 		bl	sys_mutex_lock
 113              	.LVL15:
 106:Middlewares/Third_Party/LwIP/src/api/tcpip.c ****     /* If a SYS_ARCH_TIMEOUT value is returned, a timeout occurred
 114              		.loc 1 106 3 is_stmt 1 view .LVU24
 106:Middlewares/Third_Party/LwIP/src/api/tcpip.c ****     /* If a SYS_ARCH_TIMEOUT value is returned, a timeout occurred
 115              		.loc 1 106 6 is_stmt 0 view .LVU25
 116 0050 B4F1FF3F 		cmp	r4, #-1
 117 0054 E4D1     		bne	.L1
 109:Middlewares/Third_Party/LwIP/src/api/tcpip.c ****     /* We try again to fetch a message from the mbox. */
 118              		.loc 1 109 5 is_stmt 1 view .LVU26
 119 0056 FFF7FEFF 		bl	sys_check_timeouts
 120              	.LVL16:
 111:Middlewares/Third_Party/LwIP/src/api/tcpip.c ****   }
 121              		.loc 1 111 5 view .LVU27
 122              	.L3:
 123 005a E4E7     		b	.L2
 124              	.L11:
 125              		.align	2
 126              	.L10:
 127 005c 00000000 		.word	lock_tcpip_core
 128              		.cfi_endproc
 129              	.LFE30:
 131              		.section	.rodata.tcpip_thread_handle_msg.str1.4,"aMS",%progbits,1
 132              		.align	2
 133              	.LC0:
 134 0000 4D696464 		.ascii	"Middlewares/Third_Party/LwIP/src/api/tcpip.c\000"
 134      6C657761 
 134      7265732F 
 134      54686972 
 134      645F5061 
 135 002d 000000   		.align	2
 136              	.LC1:
 137 0030 74637069 		.ascii	"tcpip_thread: invalid message\000"
 137      705F7468 
 137      72656164 
 137      3A20696E 
 137      76616C69 
 138 004e 0000     		.align	2
 139              	.LC2:
 140 0050 41737365 		.ascii	"Assertion \"%s\" failed at line %d in %s\012\000"
 140      7274696F 
 140      6E202225 
 140      73222066 
 140      61696C65 
 141              		.section	.text.tcpip_thread_handle_msg,"ax",%progbits
 142              		.align	1
ARM GAS  D:\Dev\msys64\tmp\ccLEQPHe.s 			page 6


 143              		.syntax unified
 144              		.thumb
 145              		.thumb_func
 146              		.fpu fpv5-sp-d16
 148              	tcpip_thread_handle_msg:
 149              	.LVL17:
 150              	.LFB32:
 114:Middlewares/Third_Party/LwIP/src/api/tcpip.c **** #endif /* !LWIP_TIMERS */
 115:Middlewares/Third_Party/LwIP/src/api/tcpip.c **** 
 116:Middlewares/Third_Party/LwIP/src/api/tcpip.c **** /**
 117:Middlewares/Third_Party/LwIP/src/api/tcpip.c ****  * The main lwIP thread. This thread has exclusive access to lwIP core functions
 118:Middlewares/Third_Party/LwIP/src/api/tcpip.c ****  * (unless access to them is not locked). Other threads communicate with this
 119:Middlewares/Third_Party/LwIP/src/api/tcpip.c ****  * thread using message boxes.
 120:Middlewares/Third_Party/LwIP/src/api/tcpip.c ****  *
 121:Middlewares/Third_Party/LwIP/src/api/tcpip.c ****  * It also starts all the timers to make sure they are running in the right
 122:Middlewares/Third_Party/LwIP/src/api/tcpip.c ****  * thread context.
 123:Middlewares/Third_Party/LwIP/src/api/tcpip.c ****  *
 124:Middlewares/Third_Party/LwIP/src/api/tcpip.c ****  * @param arg unused argument
 125:Middlewares/Third_Party/LwIP/src/api/tcpip.c ****  */
 126:Middlewares/Third_Party/LwIP/src/api/tcpip.c **** static void
 127:Middlewares/Third_Party/LwIP/src/api/tcpip.c **** tcpip_thread(void *arg)
 128:Middlewares/Third_Party/LwIP/src/api/tcpip.c **** {
 129:Middlewares/Third_Party/LwIP/src/api/tcpip.c ****   struct tcpip_msg *msg;
 130:Middlewares/Third_Party/LwIP/src/api/tcpip.c ****   LWIP_UNUSED_ARG(arg);
 131:Middlewares/Third_Party/LwIP/src/api/tcpip.c **** 
 132:Middlewares/Third_Party/LwIP/src/api/tcpip.c ****   LWIP_MARK_TCPIP_THREAD();
 133:Middlewares/Third_Party/LwIP/src/api/tcpip.c **** 
 134:Middlewares/Third_Party/LwIP/src/api/tcpip.c ****   LOCK_TCPIP_CORE();
 135:Middlewares/Third_Party/LwIP/src/api/tcpip.c ****   if (tcpip_init_done != NULL) {
 136:Middlewares/Third_Party/LwIP/src/api/tcpip.c ****     tcpip_init_done(tcpip_init_done_arg);
 137:Middlewares/Third_Party/LwIP/src/api/tcpip.c ****   }
 138:Middlewares/Third_Party/LwIP/src/api/tcpip.c **** 
 139:Middlewares/Third_Party/LwIP/src/api/tcpip.c ****   while (1) {                          /* MAIN Loop */
 140:Middlewares/Third_Party/LwIP/src/api/tcpip.c ****     LWIP_TCPIP_THREAD_ALIVE();
 141:Middlewares/Third_Party/LwIP/src/api/tcpip.c ****     /* wait for a message, timeouts are processed while waiting */
 142:Middlewares/Third_Party/LwIP/src/api/tcpip.c ****     TCPIP_MBOX_FETCH(&tcpip_mbox, (void **)&msg);
 143:Middlewares/Third_Party/LwIP/src/api/tcpip.c ****     if (msg == NULL) {
 144:Middlewares/Third_Party/LwIP/src/api/tcpip.c ****       LWIP_DEBUGF(TCPIP_DEBUG, ("tcpip_thread: invalid message: NULL\n"));
 145:Middlewares/Third_Party/LwIP/src/api/tcpip.c ****       LWIP_ASSERT("tcpip_thread: invalid message", 0);
 146:Middlewares/Third_Party/LwIP/src/api/tcpip.c ****       continue;
 147:Middlewares/Third_Party/LwIP/src/api/tcpip.c ****     }
 148:Middlewares/Third_Party/LwIP/src/api/tcpip.c ****     tcpip_thread_handle_msg(msg);
 149:Middlewares/Third_Party/LwIP/src/api/tcpip.c ****   }
 150:Middlewares/Third_Party/LwIP/src/api/tcpip.c **** }
 151:Middlewares/Third_Party/LwIP/src/api/tcpip.c **** 
 152:Middlewares/Third_Party/LwIP/src/api/tcpip.c **** /* Handle a single tcpip_msg
 153:Middlewares/Third_Party/LwIP/src/api/tcpip.c ****  * This is in its own function for access by tests only.
 154:Middlewares/Third_Party/LwIP/src/api/tcpip.c ****  */
 155:Middlewares/Third_Party/LwIP/src/api/tcpip.c **** static void
 156:Middlewares/Third_Party/LwIP/src/api/tcpip.c **** tcpip_thread_handle_msg(struct tcpip_msg *msg)
 157:Middlewares/Third_Party/LwIP/src/api/tcpip.c **** {
 151              		.loc 1 157 1 view -0
 152              		.cfi_startproc
 153              		@ args = 0, pretend = 0, frame = 0
 154              		@ frame_needed = 0, uses_anonymous_args = 0
 155              		.loc 1 157 1 is_stmt 0 view .LVU29
 156 0000 10B5     		push	{r4, lr}
ARM GAS  D:\Dev\msys64\tmp\ccLEQPHe.s 			page 7


 157              	.LCFI1:
 158              		.cfi_def_cfa_offset 8
 159              		.cfi_offset 4, -8
 160              		.cfi_offset 14, -4
 161 0002 0446     		mov	r4, r0
 158:Middlewares/Third_Party/LwIP/src/api/tcpip.c ****   switch (msg->type) {
 162              		.loc 1 158 3 is_stmt 1 view .LVU30
 163              		.loc 1 158 14 is_stmt 0 view .LVU31
 164 0004 0378     		ldrb	r3, [r0]	@ zero_extendqisi2
 165              		.loc 1 158 3 view .LVU32
 166 0006 012B     		cmp	r3, #1
 167 0008 17D0     		beq	.L13
 168 000a 022B     		cmp	r3, #2
 169 000c 1DD0     		beq	.L14
 170 000e 33B1     		cbz	r3, .L19
 159:Middlewares/Third_Party/LwIP/src/api/tcpip.c **** #if !LWIP_TCPIP_CORE_LOCKING
 160:Middlewares/Third_Party/LwIP/src/api/tcpip.c ****     case TCPIP_MSG_API:
 161:Middlewares/Third_Party/LwIP/src/api/tcpip.c ****       LWIP_DEBUGF(TCPIP_DEBUG, ("tcpip_thread: API message %p\n", (void *)msg));
 162:Middlewares/Third_Party/LwIP/src/api/tcpip.c ****       msg->msg.api_msg.function(msg->msg.api_msg.msg);
 163:Middlewares/Third_Party/LwIP/src/api/tcpip.c ****       break;
 164:Middlewares/Third_Party/LwIP/src/api/tcpip.c ****     case TCPIP_MSG_API_CALL:
 165:Middlewares/Third_Party/LwIP/src/api/tcpip.c ****       LWIP_DEBUGF(TCPIP_DEBUG, ("tcpip_thread: API CALL message %p\n", (void *)msg));
 166:Middlewares/Third_Party/LwIP/src/api/tcpip.c ****       msg->msg.api_call.arg->err = msg->msg.api_call.function(msg->msg.api_call.arg);
 167:Middlewares/Third_Party/LwIP/src/api/tcpip.c ****       sys_sem_signal(msg->msg.api_call.sem);
 168:Middlewares/Third_Party/LwIP/src/api/tcpip.c ****       break;
 169:Middlewares/Third_Party/LwIP/src/api/tcpip.c **** #endif /* !LWIP_TCPIP_CORE_LOCKING */
 170:Middlewares/Third_Party/LwIP/src/api/tcpip.c **** 
 171:Middlewares/Third_Party/LwIP/src/api/tcpip.c **** #if !LWIP_TCPIP_CORE_LOCKING_INPUT
 172:Middlewares/Third_Party/LwIP/src/api/tcpip.c ****     case TCPIP_MSG_INPKT:
 173:Middlewares/Third_Party/LwIP/src/api/tcpip.c ****       LWIP_DEBUGF(TCPIP_DEBUG, ("tcpip_thread: PACKET %p\n", (void *)msg));
 174:Middlewares/Third_Party/LwIP/src/api/tcpip.c ****       if (msg->msg.inp.input_fn(msg->msg.inp.p, msg->msg.inp.netif) != ERR_OK) {
 175:Middlewares/Third_Party/LwIP/src/api/tcpip.c ****         pbuf_free(msg->msg.inp.p);
 176:Middlewares/Third_Party/LwIP/src/api/tcpip.c ****       }
 177:Middlewares/Third_Party/LwIP/src/api/tcpip.c ****       memp_free(MEMP_TCPIP_MSG_INPKT, msg);
 178:Middlewares/Third_Party/LwIP/src/api/tcpip.c ****       break;
 179:Middlewares/Third_Party/LwIP/src/api/tcpip.c **** #endif /* !LWIP_TCPIP_CORE_LOCKING_INPUT */
 180:Middlewares/Third_Party/LwIP/src/api/tcpip.c **** 
 181:Middlewares/Third_Party/LwIP/src/api/tcpip.c **** #if LWIP_TCPIP_TIMEOUT && LWIP_TIMERS
 182:Middlewares/Third_Party/LwIP/src/api/tcpip.c ****     case TCPIP_MSG_TIMEOUT:
 183:Middlewares/Third_Party/LwIP/src/api/tcpip.c ****       LWIP_DEBUGF(TCPIP_DEBUG, ("tcpip_thread: TIMEOUT %p\n", (void *)msg));
 184:Middlewares/Third_Party/LwIP/src/api/tcpip.c ****       sys_timeout(msg->msg.tmo.msecs, msg->msg.tmo.h, msg->msg.tmo.arg);
 185:Middlewares/Third_Party/LwIP/src/api/tcpip.c ****       memp_free(MEMP_TCPIP_MSG_API, msg);
 186:Middlewares/Third_Party/LwIP/src/api/tcpip.c ****       break;
 187:Middlewares/Third_Party/LwIP/src/api/tcpip.c ****     case TCPIP_MSG_UNTIMEOUT:
 188:Middlewares/Third_Party/LwIP/src/api/tcpip.c ****       LWIP_DEBUGF(TCPIP_DEBUG, ("tcpip_thread: UNTIMEOUT %p\n", (void *)msg));
 189:Middlewares/Third_Party/LwIP/src/api/tcpip.c ****       sys_untimeout(msg->msg.tmo.h, msg->msg.tmo.arg);
 190:Middlewares/Third_Party/LwIP/src/api/tcpip.c ****       memp_free(MEMP_TCPIP_MSG_API, msg);
 191:Middlewares/Third_Party/LwIP/src/api/tcpip.c ****       break;
 192:Middlewares/Third_Party/LwIP/src/api/tcpip.c **** #endif /* LWIP_TCPIP_TIMEOUT && LWIP_TIMERS */
 193:Middlewares/Third_Party/LwIP/src/api/tcpip.c **** 
 194:Middlewares/Third_Party/LwIP/src/api/tcpip.c ****     case TCPIP_MSG_CALLBACK:
 195:Middlewares/Third_Party/LwIP/src/api/tcpip.c ****       LWIP_DEBUGF(TCPIP_DEBUG, ("tcpip_thread: CALLBACK %p\n", (void *)msg));
 196:Middlewares/Third_Party/LwIP/src/api/tcpip.c ****       msg->msg.cb.function(msg->msg.cb.ctx);
 197:Middlewares/Third_Party/LwIP/src/api/tcpip.c ****       memp_free(MEMP_TCPIP_MSG_API, msg);
 198:Middlewares/Third_Party/LwIP/src/api/tcpip.c ****       break;
 199:Middlewares/Third_Party/LwIP/src/api/tcpip.c **** 
 200:Middlewares/Third_Party/LwIP/src/api/tcpip.c ****     case TCPIP_MSG_CALLBACK_STATIC:
ARM GAS  D:\Dev\msys64\tmp\ccLEQPHe.s 			page 8


 201:Middlewares/Third_Party/LwIP/src/api/tcpip.c ****       LWIP_DEBUGF(TCPIP_DEBUG, ("tcpip_thread: CALLBACK_STATIC %p\n", (void *)msg));
 202:Middlewares/Third_Party/LwIP/src/api/tcpip.c ****       msg->msg.cb.function(msg->msg.cb.ctx);
 203:Middlewares/Third_Party/LwIP/src/api/tcpip.c ****       break;
 204:Middlewares/Third_Party/LwIP/src/api/tcpip.c **** 
 205:Middlewares/Third_Party/LwIP/src/api/tcpip.c ****     default:
 206:Middlewares/Third_Party/LwIP/src/api/tcpip.c ****       LWIP_DEBUGF(TCPIP_DEBUG, ("tcpip_thread: invalid message: %d\n", msg->type));
 171              		.loc 1 206 83 is_stmt 1 discriminator 1 view .LVU33
 207:Middlewares/Third_Party/LwIP/src/api/tcpip.c ****       LWIP_ASSERT("tcpip_thread: invalid message", 0);
 172              		.loc 1 207 7 discriminator 1 view .LVU34
 173              		.loc 1 207 7 discriminator 1 view .LVU35
 174              		.loc 1 207 7 discriminator 1 view .LVU36
 175              		.loc 1 207 7 discriminator 1 view .LVU37
 176 0010 104B     		ldr	r3, .L21
 177 0012 CF22     		movs	r2, #207
 178 0014 1049     		ldr	r1, .L21+4
 179 0016 1148     		ldr	r0, .L21+8
 180              	.LVL18:
 181              		.loc 1 207 7 is_stmt 0 discriminator 1 view .LVU38
 182 0018 FFF7FEFF 		bl	printf
 183              	.LVL19:
 184              		.loc 1 207 7 is_stmt 1 discriminator 1 view .LVU39
 185              		.loc 1 207 7 discriminator 1 view .LVU40
 208:Middlewares/Third_Party/LwIP/src/api/tcpip.c ****       break;
 186              		.loc 1 208 7 discriminator 1 view .LVU41
 209:Middlewares/Third_Party/LwIP/src/api/tcpip.c ****   }
 210:Middlewares/Third_Party/LwIP/src/api/tcpip.c **** }
 187              		.loc 1 210 1 is_stmt 0 discriminator 1 view .LVU42
 188 001c 08E0     		b	.L12
 189              	.LVL20:
 190              	.L19:
 173:Middlewares/Third_Party/LwIP/src/api/tcpip.c ****       if (msg->msg.inp.input_fn(msg->msg.inp.p, msg->msg.inp.netif) != ERR_OK) {
 191              		.loc 1 173 75 is_stmt 1 view .LVU43
 174:Middlewares/Third_Party/LwIP/src/api/tcpip.c ****         pbuf_free(msg->msg.inp.p);
 192              		.loc 1 174 7 view .LVU44
 174:Middlewares/Third_Party/LwIP/src/api/tcpip.c ****         pbuf_free(msg->msg.inp.p);
 193              		.loc 1 174 23 is_stmt 0 view .LVU45
 194 001e C368     		ldr	r3, [r0, #12]
 174:Middlewares/Third_Party/LwIP/src/api/tcpip.c ****         pbuf_free(msg->msg.inp.p);
 195              		.loc 1 174 11 view .LVU46
 196 0020 8168     		ldr	r1, [r0, #8]
 197 0022 4068     		ldr	r0, [r0, #4]
 198              	.LVL21:
 174:Middlewares/Third_Party/LwIP/src/api/tcpip.c ****         pbuf_free(msg->msg.inp.p);
 199              		.loc 1 174 11 view .LVU47
 200 0024 9847     		blx	r3
 201              	.LVL22:
 174:Middlewares/Third_Party/LwIP/src/api/tcpip.c ****         pbuf_free(msg->msg.inp.p);
 202              		.loc 1 174 10 view .LVU48
 203 0026 20B9     		cbnz	r0, .L20
 204              	.L16:
 177:Middlewares/Third_Party/LwIP/src/api/tcpip.c ****       break;
 205              		.loc 1 177 7 is_stmt 1 view .LVU49
 206 0028 2146     		mov	r1, r4
 207 002a 0920     		movs	r0, #9
 208 002c FFF7FEFF 		bl	memp_free
 209              	.LVL23:
 178:Middlewares/Third_Party/LwIP/src/api/tcpip.c **** #endif /* !LWIP_TCPIP_CORE_LOCKING_INPUT */
ARM GAS  D:\Dev\msys64\tmp\ccLEQPHe.s 			page 9


 210              		.loc 1 178 7 view .LVU50
 211              	.L12:
 212              		.loc 1 210 1 is_stmt 0 view .LVU51
 213 0030 10BD     		pop	{r4, pc}
 214              	.LVL24:
 215              	.L20:
 175:Middlewares/Third_Party/LwIP/src/api/tcpip.c ****       }
 216              		.loc 1 175 9 is_stmt 1 view .LVU52
 217 0032 6068     		ldr	r0, [r4, #4]
 218 0034 FFF7FEFF 		bl	pbuf_free
 219              	.LVL25:
 220 0038 F6E7     		b	.L16
 221              	.LVL26:
 222              	.L13:
 195:Middlewares/Third_Party/LwIP/src/api/tcpip.c ****       msg->msg.cb.function(msg->msg.cb.ctx);
 223              		.loc 1 195 77 view .LVU53
 196:Middlewares/Third_Party/LwIP/src/api/tcpip.c ****       memp_free(MEMP_TCPIP_MSG_API, msg);
 224              		.loc 1 196 7 view .LVU54
 196:Middlewares/Third_Party/LwIP/src/api/tcpip.c ****       memp_free(MEMP_TCPIP_MSG_API, msg);
 225              		.loc 1 196 18 is_stmt 0 view .LVU55
 226 003a 4368     		ldr	r3, [r0, #4]
 196:Middlewares/Third_Party/LwIP/src/api/tcpip.c ****       memp_free(MEMP_TCPIP_MSG_API, msg);
 227              		.loc 1 196 7 view .LVU56
 228 003c 8068     		ldr	r0, [r0, #8]
 229              	.LVL27:
 196:Middlewares/Third_Party/LwIP/src/api/tcpip.c ****       memp_free(MEMP_TCPIP_MSG_API, msg);
 230              		.loc 1 196 7 view .LVU57
 231 003e 9847     		blx	r3
 232              	.LVL28:
 197:Middlewares/Third_Party/LwIP/src/api/tcpip.c ****       break;
 233              		.loc 1 197 7 is_stmt 1 view .LVU58
 234 0040 2146     		mov	r1, r4
 235 0042 0820     		movs	r0, #8
 236 0044 FFF7FEFF 		bl	memp_free
 237              	.LVL29:
 198:Middlewares/Third_Party/LwIP/src/api/tcpip.c **** 
 238              		.loc 1 198 7 view .LVU59
 239 0048 F2E7     		b	.L12
 240              	.LVL30:
 241              	.L14:
 201:Middlewares/Third_Party/LwIP/src/api/tcpip.c ****       msg->msg.cb.function(msg->msg.cb.ctx);
 242              		.loc 1 201 84 view .LVU60
 202:Middlewares/Third_Party/LwIP/src/api/tcpip.c ****       break;
 243              		.loc 1 202 7 view .LVU61
 202:Middlewares/Third_Party/LwIP/src/api/tcpip.c ****       break;
 244              		.loc 1 202 18 is_stmt 0 view .LVU62
 245 004a 4368     		ldr	r3, [r0, #4]
 202:Middlewares/Third_Party/LwIP/src/api/tcpip.c ****       break;
 246              		.loc 1 202 7 view .LVU63
 247 004c 8068     		ldr	r0, [r0, #8]
 248              	.LVL31:
 202:Middlewares/Third_Party/LwIP/src/api/tcpip.c ****       break;
 249              		.loc 1 202 7 view .LVU64
 250 004e 9847     		blx	r3
 251              	.LVL32:
 203:Middlewares/Third_Party/LwIP/src/api/tcpip.c **** 
 252              		.loc 1 203 7 is_stmt 1 view .LVU65
ARM GAS  D:\Dev\msys64\tmp\ccLEQPHe.s 			page 10


 253 0050 EEE7     		b	.L12
 254              	.L22:
 255 0052 00BF     		.align	2
 256              	.L21:
 257 0054 00000000 		.word	.LC0
 258 0058 30000000 		.word	.LC1
 259 005c 50000000 		.word	.LC2
 260              		.cfi_endproc
 261              	.LFE32:
 263              		.section	.text.tcpip_thread,"ax",%progbits
 264              		.align	1
 265              		.syntax unified
 266              		.thumb
 267              		.thumb_func
 268              		.fpu fpv5-sp-d16
 270              	tcpip_thread:
 271              	.LVL33:
 272              	.LFB31:
 128:Middlewares/Third_Party/LwIP/src/api/tcpip.c ****   struct tcpip_msg *msg;
 273              		.loc 1 128 1 view -0
 274              		.cfi_startproc
 275              		@ Volatile: function does not return.
 276              		@ args = 0, pretend = 0, frame = 8
 277              		@ frame_needed = 0, uses_anonymous_args = 0
 128:Middlewares/Third_Party/LwIP/src/api/tcpip.c ****   struct tcpip_msg *msg;
 278              		.loc 1 128 1 is_stmt 0 view .LVU67
 279 0000 00B5     		push	{lr}
 280              	.LCFI2:
 281              		.cfi_def_cfa_offset 4
 282              		.cfi_offset 14, -4
 283 0002 83B0     		sub	sp, sp, #12
 284              	.LCFI3:
 285              		.cfi_def_cfa_offset 16
 129:Middlewares/Third_Party/LwIP/src/api/tcpip.c ****   LWIP_UNUSED_ARG(arg);
 286              		.loc 1 129 3 is_stmt 1 view .LVU68
 130:Middlewares/Third_Party/LwIP/src/api/tcpip.c **** 
 287              		.loc 1 130 3 view .LVU69
 132:Middlewares/Third_Party/LwIP/src/api/tcpip.c **** 
 288              		.loc 1 132 27 view .LVU70
 134:Middlewares/Third_Party/LwIP/src/api/tcpip.c ****   if (tcpip_init_done != NULL) {
 289              		.loc 1 134 3 view .LVU71
 290 0004 0C48     		ldr	r0, .L29
 291              	.LVL34:
 134:Middlewares/Third_Party/LwIP/src/api/tcpip.c ****   if (tcpip_init_done != NULL) {
 292              		.loc 1 134 3 is_stmt 0 view .LVU72
 293 0006 FFF7FEFF 		bl	sys_mutex_lock
 294              	.LVL35:
 135:Middlewares/Third_Party/LwIP/src/api/tcpip.c ****     tcpip_init_done(tcpip_init_done_arg);
 295              		.loc 1 135 3 is_stmt 1 view .LVU73
 135:Middlewares/Third_Party/LwIP/src/api/tcpip.c ****     tcpip_init_done(tcpip_init_done_arg);
 296              		.loc 1 135 23 is_stmt 0 view .LVU74
 297 000a 0C4B     		ldr	r3, .L29+4
 298 000c 1B68     		ldr	r3, [r3]
 135:Middlewares/Third_Party/LwIP/src/api/tcpip.c ****     tcpip_init_done(tcpip_init_done_arg);
 299              		.loc 1 135 6 view .LVU75
 300 000e 2BB1     		cbz	r3, .L25
 136:Middlewares/Third_Party/LwIP/src/api/tcpip.c ****   }
ARM GAS  D:\Dev\msys64\tmp\ccLEQPHe.s 			page 11


 301              		.loc 1 136 5 is_stmt 1 view .LVU76
 302 0010 0B4A     		ldr	r2, .L29+8
 303 0012 1068     		ldr	r0, [r2]
 304 0014 9847     		blx	r3
 305              	.LVL36:
 306 0016 01E0     		b	.L25
 307              	.L26:
 148:Middlewares/Third_Party/LwIP/src/api/tcpip.c ****   }
 308              		.loc 1 148 5 view .LVU77
 309 0018 FFF7FEFF 		bl	tcpip_thread_handle_msg
 310              	.LVL37:
 311              	.L25:
 139:Middlewares/Third_Party/LwIP/src/api/tcpip.c ****     LWIP_TCPIP_THREAD_ALIVE();
 312              		.loc 1 139 3 view .LVU78
 140:Middlewares/Third_Party/LwIP/src/api/tcpip.c ****     /* wait for a message, timeouts are processed while waiting */
 313              		.loc 1 140 30 view .LVU79
 142:Middlewares/Third_Party/LwIP/src/api/tcpip.c ****     if (msg == NULL) {
 314              		.loc 1 142 5 view .LVU80
 315 001c 01A9     		add	r1, sp, #4
 316 001e 0948     		ldr	r0, .L29+12
 317 0020 FFF7FEFF 		bl	tcpip_timeouts_mbox_fetch
 318              	.LVL38:
 143:Middlewares/Third_Party/LwIP/src/api/tcpip.c ****       LWIP_DEBUGF(TCPIP_DEBUG, ("tcpip_thread: invalid message: NULL\n"));
 319              		.loc 1 143 5 view .LVU81
 143:Middlewares/Third_Party/LwIP/src/api/tcpip.c ****       LWIP_DEBUGF(TCPIP_DEBUG, ("tcpip_thread: invalid message: NULL\n"));
 320              		.loc 1 143 13 is_stmt 0 view .LVU82
 321 0024 0198     		ldr	r0, [sp, #4]
 143:Middlewares/Third_Party/LwIP/src/api/tcpip.c ****       LWIP_DEBUGF(TCPIP_DEBUG, ("tcpip_thread: invalid message: NULL\n"));
 322              		.loc 1 143 8 view .LVU83
 323 0026 0028     		cmp	r0, #0
 324 0028 F6D1     		bne	.L26
 144:Middlewares/Third_Party/LwIP/src/api/tcpip.c ****       LWIP_ASSERT("tcpip_thread: invalid message", 0);
 325              		.loc 1 144 74 is_stmt 1 discriminator 1 view .LVU84
 145:Middlewares/Third_Party/LwIP/src/api/tcpip.c ****       continue;
 326              		.loc 1 145 7 discriminator 1 view .LVU85
 145:Middlewares/Third_Party/LwIP/src/api/tcpip.c ****       continue;
 327              		.loc 1 145 7 discriminator 1 view .LVU86
 145:Middlewares/Third_Party/LwIP/src/api/tcpip.c ****       continue;
 328              		.loc 1 145 7 discriminator 1 view .LVU87
 145:Middlewares/Third_Party/LwIP/src/api/tcpip.c ****       continue;
 329              		.loc 1 145 7 discriminator 1 view .LVU88
 330 002a 074B     		ldr	r3, .L29+16
 331 002c 9122     		movs	r2, #145
 332 002e 0749     		ldr	r1, .L29+20
 333 0030 0748     		ldr	r0, .L29+24
 334 0032 FFF7FEFF 		bl	printf
 335              	.LVL39:
 145:Middlewares/Third_Party/LwIP/src/api/tcpip.c ****       continue;
 336              		.loc 1 145 7 discriminator 1 view .LVU89
 145:Middlewares/Third_Party/LwIP/src/api/tcpip.c ****       continue;
 337              		.loc 1 145 7 discriminator 1 view .LVU90
 146:Middlewares/Third_Party/LwIP/src/api/tcpip.c ****     }
 338              		.loc 1 146 7 discriminator 1 view .LVU91
 339 0036 F1E7     		b	.L25
 340              	.L30:
 341              		.align	2
 342              	.L29:
ARM GAS  D:\Dev\msys64\tmp\ccLEQPHe.s 			page 12


 343 0038 00000000 		.word	lock_tcpip_core
 344 003c 00000000 		.word	.LANCHOR0
 345 0040 00000000 		.word	.LANCHOR1
 346 0044 00000000 		.word	.LANCHOR2
 347 0048 00000000 		.word	.LC0
 348 004c 30000000 		.word	.LC1
 349 0050 50000000 		.word	.LC2
 350              		.cfi_endproc
 351              	.LFE31:
 353              		.section	.text.pbuf_free_int,"ax",%progbits
 354              		.align	1
 355              		.syntax unified
 356              		.thumb
 357              		.thumb_func
 358              		.fpu fpv5-sp-d16
 360              	pbuf_free_int:
 361              	.LVL40:
 362              	.LFB44:
 211:Middlewares/Third_Party/LwIP/src/api/tcpip.c **** 
 212:Middlewares/Third_Party/LwIP/src/api/tcpip.c **** #ifdef TCPIP_THREAD_TEST
 213:Middlewares/Third_Party/LwIP/src/api/tcpip.c **** /** Work on queued items in single-threaded test mode */
 214:Middlewares/Third_Party/LwIP/src/api/tcpip.c **** int
 215:Middlewares/Third_Party/LwIP/src/api/tcpip.c **** tcpip_thread_poll_one(void)
 216:Middlewares/Third_Party/LwIP/src/api/tcpip.c **** {
 217:Middlewares/Third_Party/LwIP/src/api/tcpip.c ****   int ret = 0;
 218:Middlewares/Third_Party/LwIP/src/api/tcpip.c ****   struct tcpip_msg *msg;
 219:Middlewares/Third_Party/LwIP/src/api/tcpip.c **** 
 220:Middlewares/Third_Party/LwIP/src/api/tcpip.c ****   if (sys_arch_mbox_tryfetch(&tcpip_mbox, (void **)&msg) != SYS_ARCH_TIMEOUT) {
 221:Middlewares/Third_Party/LwIP/src/api/tcpip.c ****     LOCK_TCPIP_CORE();
 222:Middlewares/Third_Party/LwIP/src/api/tcpip.c ****     if (msg != NULL) {
 223:Middlewares/Third_Party/LwIP/src/api/tcpip.c ****       tcpip_thread_handle_msg(msg);
 224:Middlewares/Third_Party/LwIP/src/api/tcpip.c ****       ret = 1;
 225:Middlewares/Third_Party/LwIP/src/api/tcpip.c ****     }
 226:Middlewares/Third_Party/LwIP/src/api/tcpip.c ****     UNLOCK_TCPIP_CORE();
 227:Middlewares/Third_Party/LwIP/src/api/tcpip.c ****   }
 228:Middlewares/Third_Party/LwIP/src/api/tcpip.c ****   return ret;
 229:Middlewares/Third_Party/LwIP/src/api/tcpip.c **** }
 230:Middlewares/Third_Party/LwIP/src/api/tcpip.c **** #endif
 231:Middlewares/Third_Party/LwIP/src/api/tcpip.c **** 
 232:Middlewares/Third_Party/LwIP/src/api/tcpip.c **** /**
 233:Middlewares/Third_Party/LwIP/src/api/tcpip.c ****  * Pass a received packet to tcpip_thread for input processing
 234:Middlewares/Third_Party/LwIP/src/api/tcpip.c ****  *
 235:Middlewares/Third_Party/LwIP/src/api/tcpip.c ****  * @param p the received packet
 236:Middlewares/Third_Party/LwIP/src/api/tcpip.c ****  * @param inp the network interface on which the packet was received
 237:Middlewares/Third_Party/LwIP/src/api/tcpip.c ****  * @param input_fn input function to call
 238:Middlewares/Third_Party/LwIP/src/api/tcpip.c ****  */
 239:Middlewares/Third_Party/LwIP/src/api/tcpip.c **** err_t
 240:Middlewares/Third_Party/LwIP/src/api/tcpip.c **** tcpip_inpkt(struct pbuf *p, struct netif *inp, netif_input_fn input_fn)
 241:Middlewares/Third_Party/LwIP/src/api/tcpip.c **** {
 242:Middlewares/Third_Party/LwIP/src/api/tcpip.c **** #if LWIP_TCPIP_CORE_LOCKING_INPUT
 243:Middlewares/Third_Party/LwIP/src/api/tcpip.c ****   err_t ret;
 244:Middlewares/Third_Party/LwIP/src/api/tcpip.c ****   LWIP_DEBUGF(TCPIP_DEBUG, ("tcpip_inpkt: PACKET %p/%p\n", (void *)p, (void *)inp));
 245:Middlewares/Third_Party/LwIP/src/api/tcpip.c ****   LOCK_TCPIP_CORE();
 246:Middlewares/Third_Party/LwIP/src/api/tcpip.c ****   ret = input_fn(p, inp);
 247:Middlewares/Third_Party/LwIP/src/api/tcpip.c ****   UNLOCK_TCPIP_CORE();
 248:Middlewares/Third_Party/LwIP/src/api/tcpip.c ****   return ret;
 249:Middlewares/Third_Party/LwIP/src/api/tcpip.c **** #else /* LWIP_TCPIP_CORE_LOCKING_INPUT */
ARM GAS  D:\Dev\msys64\tmp\ccLEQPHe.s 			page 13


 250:Middlewares/Third_Party/LwIP/src/api/tcpip.c ****   struct tcpip_msg *msg;
 251:Middlewares/Third_Party/LwIP/src/api/tcpip.c **** 
 252:Middlewares/Third_Party/LwIP/src/api/tcpip.c ****   LWIP_ASSERT("Invalid mbox", sys_mbox_valid_val(tcpip_mbox));
 253:Middlewares/Third_Party/LwIP/src/api/tcpip.c **** 
 254:Middlewares/Third_Party/LwIP/src/api/tcpip.c ****   msg = (struct tcpip_msg *)memp_malloc(MEMP_TCPIP_MSG_INPKT);
 255:Middlewares/Third_Party/LwIP/src/api/tcpip.c ****   if (msg == NULL) {
 256:Middlewares/Third_Party/LwIP/src/api/tcpip.c ****     return ERR_MEM;
 257:Middlewares/Third_Party/LwIP/src/api/tcpip.c ****   }
 258:Middlewares/Third_Party/LwIP/src/api/tcpip.c **** 
 259:Middlewares/Third_Party/LwIP/src/api/tcpip.c ****   msg->type = TCPIP_MSG_INPKT;
 260:Middlewares/Third_Party/LwIP/src/api/tcpip.c ****   msg->msg.inp.p = p;
 261:Middlewares/Third_Party/LwIP/src/api/tcpip.c ****   msg->msg.inp.netif = inp;
 262:Middlewares/Third_Party/LwIP/src/api/tcpip.c ****   msg->msg.inp.input_fn = input_fn;
 263:Middlewares/Third_Party/LwIP/src/api/tcpip.c ****   if (sys_mbox_trypost(&tcpip_mbox, msg) != ERR_OK) {
 264:Middlewares/Third_Party/LwIP/src/api/tcpip.c ****     memp_free(MEMP_TCPIP_MSG_INPKT, msg);
 265:Middlewares/Third_Party/LwIP/src/api/tcpip.c ****     return ERR_MEM;
 266:Middlewares/Third_Party/LwIP/src/api/tcpip.c ****   }
 267:Middlewares/Third_Party/LwIP/src/api/tcpip.c ****   return ERR_OK;
 268:Middlewares/Third_Party/LwIP/src/api/tcpip.c **** #endif /* LWIP_TCPIP_CORE_LOCKING_INPUT */
 269:Middlewares/Third_Party/LwIP/src/api/tcpip.c **** }
 270:Middlewares/Third_Party/LwIP/src/api/tcpip.c **** 
 271:Middlewares/Third_Party/LwIP/src/api/tcpip.c **** /**
 272:Middlewares/Third_Party/LwIP/src/api/tcpip.c ****  * @ingroup lwip_os
 273:Middlewares/Third_Party/LwIP/src/api/tcpip.c ****  * Pass a received packet to tcpip_thread for input processing with
 274:Middlewares/Third_Party/LwIP/src/api/tcpip.c ****  * ethernet_input or ip_input. Don't call directly, pass to netif_add()
 275:Middlewares/Third_Party/LwIP/src/api/tcpip.c ****  * and call netif->input().
 276:Middlewares/Third_Party/LwIP/src/api/tcpip.c ****  *
 277:Middlewares/Third_Party/LwIP/src/api/tcpip.c ****  * @param p the received packet, p->payload pointing to the Ethernet header or
 278:Middlewares/Third_Party/LwIP/src/api/tcpip.c ****  *          to an IP header (if inp doesn't have NETIF_FLAG_ETHARP or
 279:Middlewares/Third_Party/LwIP/src/api/tcpip.c ****  *          NETIF_FLAG_ETHERNET flags)
 280:Middlewares/Third_Party/LwIP/src/api/tcpip.c ****  * @param inp the network interface on which the packet was received
 281:Middlewares/Third_Party/LwIP/src/api/tcpip.c ****  */
 282:Middlewares/Third_Party/LwIP/src/api/tcpip.c **** err_t
 283:Middlewares/Third_Party/LwIP/src/api/tcpip.c **** tcpip_input(struct pbuf *p, struct netif *inp)
 284:Middlewares/Third_Party/LwIP/src/api/tcpip.c **** {
 285:Middlewares/Third_Party/LwIP/src/api/tcpip.c **** #if LWIP_ETHERNET
 286:Middlewares/Third_Party/LwIP/src/api/tcpip.c ****   if (inp->flags & (NETIF_FLAG_ETHARP | NETIF_FLAG_ETHERNET)) {
 287:Middlewares/Third_Party/LwIP/src/api/tcpip.c ****     return tcpip_inpkt(p, inp, ethernet_input);
 288:Middlewares/Third_Party/LwIP/src/api/tcpip.c ****   } else
 289:Middlewares/Third_Party/LwIP/src/api/tcpip.c **** #endif /* LWIP_ETHERNET */
 290:Middlewares/Third_Party/LwIP/src/api/tcpip.c ****     return tcpip_inpkt(p, inp, ip_input);
 291:Middlewares/Third_Party/LwIP/src/api/tcpip.c **** }
 292:Middlewares/Third_Party/LwIP/src/api/tcpip.c **** 
 293:Middlewares/Third_Party/LwIP/src/api/tcpip.c **** /**
 294:Middlewares/Third_Party/LwIP/src/api/tcpip.c ****  * @ingroup lwip_os
 295:Middlewares/Third_Party/LwIP/src/api/tcpip.c ****  * Call a specific function in the thread context of
 296:Middlewares/Third_Party/LwIP/src/api/tcpip.c ****  * tcpip_thread for easy access synchronization.
 297:Middlewares/Third_Party/LwIP/src/api/tcpip.c ****  * A function called in that way may access lwIP core code
 298:Middlewares/Third_Party/LwIP/src/api/tcpip.c ****  * without fearing concurrent access.
 299:Middlewares/Third_Party/LwIP/src/api/tcpip.c ****  * Blocks until the request is posted.
 300:Middlewares/Third_Party/LwIP/src/api/tcpip.c ****  * Must not be called from interrupt context!
 301:Middlewares/Third_Party/LwIP/src/api/tcpip.c ****  *
 302:Middlewares/Third_Party/LwIP/src/api/tcpip.c ****  * @param function the function to call
 303:Middlewares/Third_Party/LwIP/src/api/tcpip.c ****  * @param ctx parameter passed to f
 304:Middlewares/Third_Party/LwIP/src/api/tcpip.c ****  * @return ERR_OK if the function was called, another err_t if not
 305:Middlewares/Third_Party/LwIP/src/api/tcpip.c ****  *
 306:Middlewares/Third_Party/LwIP/src/api/tcpip.c ****  * @see tcpip_try_callback
ARM GAS  D:\Dev\msys64\tmp\ccLEQPHe.s 			page 14


 307:Middlewares/Third_Party/LwIP/src/api/tcpip.c ****  */
 308:Middlewares/Third_Party/LwIP/src/api/tcpip.c **** err_t
 309:Middlewares/Third_Party/LwIP/src/api/tcpip.c **** tcpip_callback(tcpip_callback_fn function, void *ctx)
 310:Middlewares/Third_Party/LwIP/src/api/tcpip.c **** {
 311:Middlewares/Third_Party/LwIP/src/api/tcpip.c ****   struct tcpip_msg *msg;
 312:Middlewares/Third_Party/LwIP/src/api/tcpip.c **** 
 313:Middlewares/Third_Party/LwIP/src/api/tcpip.c ****   LWIP_ASSERT("Invalid mbox", sys_mbox_valid_val(tcpip_mbox));
 314:Middlewares/Third_Party/LwIP/src/api/tcpip.c **** 
 315:Middlewares/Third_Party/LwIP/src/api/tcpip.c ****   msg = (struct tcpip_msg *)memp_malloc(MEMP_TCPIP_MSG_API);
 316:Middlewares/Third_Party/LwIP/src/api/tcpip.c ****   if (msg == NULL) {
 317:Middlewares/Third_Party/LwIP/src/api/tcpip.c ****     return ERR_MEM;
 318:Middlewares/Third_Party/LwIP/src/api/tcpip.c ****   }
 319:Middlewares/Third_Party/LwIP/src/api/tcpip.c **** 
 320:Middlewares/Third_Party/LwIP/src/api/tcpip.c ****   msg->type = TCPIP_MSG_CALLBACK;
 321:Middlewares/Third_Party/LwIP/src/api/tcpip.c ****   msg->msg.cb.function = function;
 322:Middlewares/Third_Party/LwIP/src/api/tcpip.c ****   msg->msg.cb.ctx = ctx;
 323:Middlewares/Third_Party/LwIP/src/api/tcpip.c **** 
 324:Middlewares/Third_Party/LwIP/src/api/tcpip.c ****   sys_mbox_post(&tcpip_mbox, msg);
 325:Middlewares/Third_Party/LwIP/src/api/tcpip.c ****   return ERR_OK;
 326:Middlewares/Third_Party/LwIP/src/api/tcpip.c **** }
 327:Middlewares/Third_Party/LwIP/src/api/tcpip.c **** 
 328:Middlewares/Third_Party/LwIP/src/api/tcpip.c **** /**
 329:Middlewares/Third_Party/LwIP/src/api/tcpip.c ****  * @ingroup lwip_os
 330:Middlewares/Third_Party/LwIP/src/api/tcpip.c ****  * Call a specific function in the thread context of
 331:Middlewares/Third_Party/LwIP/src/api/tcpip.c ****  * tcpip_thread for easy access synchronization.
 332:Middlewares/Third_Party/LwIP/src/api/tcpip.c ****  * A function called in that way may access lwIP core code
 333:Middlewares/Third_Party/LwIP/src/api/tcpip.c ****  * without fearing concurrent access.
 334:Middlewares/Third_Party/LwIP/src/api/tcpip.c ****  * Does NOT block when the request cannot be posted because the
 335:Middlewares/Third_Party/LwIP/src/api/tcpip.c ****  * tcpip_mbox is full, but returns ERR_MEM instead.
 336:Middlewares/Third_Party/LwIP/src/api/tcpip.c ****  * Can be called from interrupt context.
 337:Middlewares/Third_Party/LwIP/src/api/tcpip.c ****  *
 338:Middlewares/Third_Party/LwIP/src/api/tcpip.c ****  * @param function the function to call
 339:Middlewares/Third_Party/LwIP/src/api/tcpip.c ****  * @param ctx parameter passed to f
 340:Middlewares/Third_Party/LwIP/src/api/tcpip.c ****  * @return ERR_OK if the function was called, another err_t if not
 341:Middlewares/Third_Party/LwIP/src/api/tcpip.c ****  *
 342:Middlewares/Third_Party/LwIP/src/api/tcpip.c ****  * @see tcpip_callback
 343:Middlewares/Third_Party/LwIP/src/api/tcpip.c ****  */
 344:Middlewares/Third_Party/LwIP/src/api/tcpip.c **** err_t
 345:Middlewares/Third_Party/LwIP/src/api/tcpip.c **** tcpip_try_callback(tcpip_callback_fn function, void *ctx)
 346:Middlewares/Third_Party/LwIP/src/api/tcpip.c **** {
 347:Middlewares/Third_Party/LwIP/src/api/tcpip.c ****   struct tcpip_msg *msg;
 348:Middlewares/Third_Party/LwIP/src/api/tcpip.c **** 
 349:Middlewares/Third_Party/LwIP/src/api/tcpip.c ****   LWIP_ASSERT("Invalid mbox", sys_mbox_valid_val(tcpip_mbox));
 350:Middlewares/Third_Party/LwIP/src/api/tcpip.c **** 
 351:Middlewares/Third_Party/LwIP/src/api/tcpip.c ****   msg = (struct tcpip_msg *)memp_malloc(MEMP_TCPIP_MSG_API);
 352:Middlewares/Third_Party/LwIP/src/api/tcpip.c ****   if (msg == NULL) {
 353:Middlewares/Third_Party/LwIP/src/api/tcpip.c ****     return ERR_MEM;
 354:Middlewares/Third_Party/LwIP/src/api/tcpip.c ****   }
 355:Middlewares/Third_Party/LwIP/src/api/tcpip.c **** 
 356:Middlewares/Third_Party/LwIP/src/api/tcpip.c ****   msg->type = TCPIP_MSG_CALLBACK;
 357:Middlewares/Third_Party/LwIP/src/api/tcpip.c ****   msg->msg.cb.function = function;
 358:Middlewares/Third_Party/LwIP/src/api/tcpip.c ****   msg->msg.cb.ctx = ctx;
 359:Middlewares/Third_Party/LwIP/src/api/tcpip.c **** 
 360:Middlewares/Third_Party/LwIP/src/api/tcpip.c ****   if (sys_mbox_trypost(&tcpip_mbox, msg) != ERR_OK) {
 361:Middlewares/Third_Party/LwIP/src/api/tcpip.c ****     memp_free(MEMP_TCPIP_MSG_API, msg);
 362:Middlewares/Third_Party/LwIP/src/api/tcpip.c ****     return ERR_MEM;
 363:Middlewares/Third_Party/LwIP/src/api/tcpip.c ****   }
ARM GAS  D:\Dev\msys64\tmp\ccLEQPHe.s 			page 15


 364:Middlewares/Third_Party/LwIP/src/api/tcpip.c ****   return ERR_OK;
 365:Middlewares/Third_Party/LwIP/src/api/tcpip.c **** }
 366:Middlewares/Third_Party/LwIP/src/api/tcpip.c **** 
 367:Middlewares/Third_Party/LwIP/src/api/tcpip.c **** #if LWIP_TCPIP_TIMEOUT && LWIP_TIMERS
 368:Middlewares/Third_Party/LwIP/src/api/tcpip.c **** /**
 369:Middlewares/Third_Party/LwIP/src/api/tcpip.c ****  * call sys_timeout in tcpip_thread
 370:Middlewares/Third_Party/LwIP/src/api/tcpip.c ****  *
 371:Middlewares/Third_Party/LwIP/src/api/tcpip.c ****  * @param msecs time in milliseconds for timeout
 372:Middlewares/Third_Party/LwIP/src/api/tcpip.c ****  * @param h function to be called on timeout
 373:Middlewares/Third_Party/LwIP/src/api/tcpip.c ****  * @param arg argument to pass to timeout function h
 374:Middlewares/Third_Party/LwIP/src/api/tcpip.c ****  * @return ERR_MEM on memory error, ERR_OK otherwise
 375:Middlewares/Third_Party/LwIP/src/api/tcpip.c ****  */
 376:Middlewares/Third_Party/LwIP/src/api/tcpip.c **** err_t
 377:Middlewares/Third_Party/LwIP/src/api/tcpip.c **** tcpip_timeout(u32_t msecs, sys_timeout_handler h, void *arg)
 378:Middlewares/Third_Party/LwIP/src/api/tcpip.c **** {
 379:Middlewares/Third_Party/LwIP/src/api/tcpip.c ****   struct tcpip_msg *msg;
 380:Middlewares/Third_Party/LwIP/src/api/tcpip.c **** 
 381:Middlewares/Third_Party/LwIP/src/api/tcpip.c ****   LWIP_ASSERT("Invalid mbox", sys_mbox_valid_val(tcpip_mbox));
 382:Middlewares/Third_Party/LwIP/src/api/tcpip.c **** 
 383:Middlewares/Third_Party/LwIP/src/api/tcpip.c ****   msg = (struct tcpip_msg *)memp_malloc(MEMP_TCPIP_MSG_API);
 384:Middlewares/Third_Party/LwIP/src/api/tcpip.c ****   if (msg == NULL) {
 385:Middlewares/Third_Party/LwIP/src/api/tcpip.c ****     return ERR_MEM;
 386:Middlewares/Third_Party/LwIP/src/api/tcpip.c ****   }
 387:Middlewares/Third_Party/LwIP/src/api/tcpip.c **** 
 388:Middlewares/Third_Party/LwIP/src/api/tcpip.c ****   msg->type = TCPIP_MSG_TIMEOUT;
 389:Middlewares/Third_Party/LwIP/src/api/tcpip.c ****   msg->msg.tmo.msecs = msecs;
 390:Middlewares/Third_Party/LwIP/src/api/tcpip.c ****   msg->msg.tmo.h = h;
 391:Middlewares/Third_Party/LwIP/src/api/tcpip.c ****   msg->msg.tmo.arg = arg;
 392:Middlewares/Third_Party/LwIP/src/api/tcpip.c ****   sys_mbox_post(&tcpip_mbox, msg);
 393:Middlewares/Third_Party/LwIP/src/api/tcpip.c ****   return ERR_OK;
 394:Middlewares/Third_Party/LwIP/src/api/tcpip.c **** }
 395:Middlewares/Third_Party/LwIP/src/api/tcpip.c **** 
 396:Middlewares/Third_Party/LwIP/src/api/tcpip.c **** /**
 397:Middlewares/Third_Party/LwIP/src/api/tcpip.c ****  * call sys_untimeout in tcpip_thread
 398:Middlewares/Third_Party/LwIP/src/api/tcpip.c ****  *
 399:Middlewares/Third_Party/LwIP/src/api/tcpip.c ****  * @param h function to be called on timeout
 400:Middlewares/Third_Party/LwIP/src/api/tcpip.c ****  * @param arg argument to pass to timeout function h
 401:Middlewares/Third_Party/LwIP/src/api/tcpip.c ****  * @return ERR_MEM on memory error, ERR_OK otherwise
 402:Middlewares/Third_Party/LwIP/src/api/tcpip.c ****  */
 403:Middlewares/Third_Party/LwIP/src/api/tcpip.c **** err_t
 404:Middlewares/Third_Party/LwIP/src/api/tcpip.c **** tcpip_untimeout(sys_timeout_handler h, void *arg)
 405:Middlewares/Third_Party/LwIP/src/api/tcpip.c **** {
 406:Middlewares/Third_Party/LwIP/src/api/tcpip.c ****   struct tcpip_msg *msg;
 407:Middlewares/Third_Party/LwIP/src/api/tcpip.c **** 
 408:Middlewares/Third_Party/LwIP/src/api/tcpip.c ****   LWIP_ASSERT("Invalid mbox", sys_mbox_valid_val(tcpip_mbox));
 409:Middlewares/Third_Party/LwIP/src/api/tcpip.c **** 
 410:Middlewares/Third_Party/LwIP/src/api/tcpip.c ****   msg = (struct tcpip_msg *)memp_malloc(MEMP_TCPIP_MSG_API);
 411:Middlewares/Third_Party/LwIP/src/api/tcpip.c ****   if (msg == NULL) {
 412:Middlewares/Third_Party/LwIP/src/api/tcpip.c ****     return ERR_MEM;
 413:Middlewares/Third_Party/LwIP/src/api/tcpip.c ****   }
 414:Middlewares/Third_Party/LwIP/src/api/tcpip.c **** 
 415:Middlewares/Third_Party/LwIP/src/api/tcpip.c ****   msg->type = TCPIP_MSG_UNTIMEOUT;
 416:Middlewares/Third_Party/LwIP/src/api/tcpip.c ****   msg->msg.tmo.h = h;
 417:Middlewares/Third_Party/LwIP/src/api/tcpip.c ****   msg->msg.tmo.arg = arg;
 418:Middlewares/Third_Party/LwIP/src/api/tcpip.c ****   sys_mbox_post(&tcpip_mbox, msg);
 419:Middlewares/Third_Party/LwIP/src/api/tcpip.c ****   return ERR_OK;
 420:Middlewares/Third_Party/LwIP/src/api/tcpip.c **** }
ARM GAS  D:\Dev\msys64\tmp\ccLEQPHe.s 			page 16


 421:Middlewares/Third_Party/LwIP/src/api/tcpip.c **** #endif /* LWIP_TCPIP_TIMEOUT && LWIP_TIMERS */
 422:Middlewares/Third_Party/LwIP/src/api/tcpip.c **** 
 423:Middlewares/Third_Party/LwIP/src/api/tcpip.c **** 
 424:Middlewares/Third_Party/LwIP/src/api/tcpip.c **** /**
 425:Middlewares/Third_Party/LwIP/src/api/tcpip.c ****  * Sends a message to TCPIP thread to call a function. Caller thread blocks on
 426:Middlewares/Third_Party/LwIP/src/api/tcpip.c ****  * on a provided semaphore, which ist NOT automatically signalled by TCPIP thread,
 427:Middlewares/Third_Party/LwIP/src/api/tcpip.c ****  * this has to be done by the user.
 428:Middlewares/Third_Party/LwIP/src/api/tcpip.c ****  * It is recommended to use LWIP_TCPIP_CORE_LOCKING since this is the way
 429:Middlewares/Third_Party/LwIP/src/api/tcpip.c ****  * with least runtime overhead.
 430:Middlewares/Third_Party/LwIP/src/api/tcpip.c ****  *
 431:Middlewares/Third_Party/LwIP/src/api/tcpip.c ****  * @param fn function to be called from TCPIP thread
 432:Middlewares/Third_Party/LwIP/src/api/tcpip.c ****  * @param apimsg argument to API function
 433:Middlewares/Third_Party/LwIP/src/api/tcpip.c ****  * @param sem semaphore to wait on
 434:Middlewares/Third_Party/LwIP/src/api/tcpip.c ****  * @return ERR_OK if the function was called, another err_t if not
 435:Middlewares/Third_Party/LwIP/src/api/tcpip.c ****  */
 436:Middlewares/Third_Party/LwIP/src/api/tcpip.c **** err_t
 437:Middlewares/Third_Party/LwIP/src/api/tcpip.c **** tcpip_send_msg_wait_sem(tcpip_callback_fn fn, void *apimsg, sys_sem_t *sem)
 438:Middlewares/Third_Party/LwIP/src/api/tcpip.c **** {
 439:Middlewares/Third_Party/LwIP/src/api/tcpip.c **** #if LWIP_TCPIP_CORE_LOCKING
 440:Middlewares/Third_Party/LwIP/src/api/tcpip.c ****   LWIP_UNUSED_ARG(sem);
 441:Middlewares/Third_Party/LwIP/src/api/tcpip.c ****   LOCK_TCPIP_CORE();
 442:Middlewares/Third_Party/LwIP/src/api/tcpip.c ****   fn(apimsg);
 443:Middlewares/Third_Party/LwIP/src/api/tcpip.c ****   UNLOCK_TCPIP_CORE();
 444:Middlewares/Third_Party/LwIP/src/api/tcpip.c ****   return ERR_OK;
 445:Middlewares/Third_Party/LwIP/src/api/tcpip.c **** #else /* LWIP_TCPIP_CORE_LOCKING */
 446:Middlewares/Third_Party/LwIP/src/api/tcpip.c ****   TCPIP_MSG_VAR_DECLARE(msg);
 447:Middlewares/Third_Party/LwIP/src/api/tcpip.c **** 
 448:Middlewares/Third_Party/LwIP/src/api/tcpip.c ****   LWIP_ASSERT("semaphore not initialized", sys_sem_valid(sem));
 449:Middlewares/Third_Party/LwIP/src/api/tcpip.c ****   LWIP_ASSERT("Invalid mbox", sys_mbox_valid_val(tcpip_mbox));
 450:Middlewares/Third_Party/LwIP/src/api/tcpip.c **** 
 451:Middlewares/Third_Party/LwIP/src/api/tcpip.c ****   TCPIP_MSG_VAR_ALLOC(msg);
 452:Middlewares/Third_Party/LwIP/src/api/tcpip.c ****   TCPIP_MSG_VAR_REF(msg).type = TCPIP_MSG_API;
 453:Middlewares/Third_Party/LwIP/src/api/tcpip.c ****   TCPIP_MSG_VAR_REF(msg).msg.api_msg.function = fn;
 454:Middlewares/Third_Party/LwIP/src/api/tcpip.c ****   TCPIP_MSG_VAR_REF(msg).msg.api_msg.msg = apimsg;
 455:Middlewares/Third_Party/LwIP/src/api/tcpip.c ****   sys_mbox_post(&tcpip_mbox, &TCPIP_MSG_VAR_REF(msg));
 456:Middlewares/Third_Party/LwIP/src/api/tcpip.c ****   sys_arch_sem_wait(sem, 0);
 457:Middlewares/Third_Party/LwIP/src/api/tcpip.c ****   TCPIP_MSG_VAR_FREE(msg);
 458:Middlewares/Third_Party/LwIP/src/api/tcpip.c ****   return ERR_OK;
 459:Middlewares/Third_Party/LwIP/src/api/tcpip.c **** #endif /* LWIP_TCPIP_CORE_LOCKING */
 460:Middlewares/Third_Party/LwIP/src/api/tcpip.c **** }
 461:Middlewares/Third_Party/LwIP/src/api/tcpip.c **** 
 462:Middlewares/Third_Party/LwIP/src/api/tcpip.c **** /**
 463:Middlewares/Third_Party/LwIP/src/api/tcpip.c ****  * Synchronously calls function in TCPIP thread and waits for its completion.
 464:Middlewares/Third_Party/LwIP/src/api/tcpip.c ****  * It is recommended to use LWIP_TCPIP_CORE_LOCKING (preferred) or
 465:Middlewares/Third_Party/LwIP/src/api/tcpip.c ****  * LWIP_NETCONN_SEM_PER_THREAD.
 466:Middlewares/Third_Party/LwIP/src/api/tcpip.c ****  * If not, a semaphore is created and destroyed on every call which is usually
 467:Middlewares/Third_Party/LwIP/src/api/tcpip.c ****  * an expensive/slow operation.
 468:Middlewares/Third_Party/LwIP/src/api/tcpip.c ****  * @param fn Function to call
 469:Middlewares/Third_Party/LwIP/src/api/tcpip.c ****  * @param call Call parameters
 470:Middlewares/Third_Party/LwIP/src/api/tcpip.c ****  * @return Return value from tcpip_api_call_fn
 471:Middlewares/Third_Party/LwIP/src/api/tcpip.c ****  */
 472:Middlewares/Third_Party/LwIP/src/api/tcpip.c **** err_t
 473:Middlewares/Third_Party/LwIP/src/api/tcpip.c **** tcpip_api_call(tcpip_api_call_fn fn, struct tcpip_api_call_data *call)
 474:Middlewares/Third_Party/LwIP/src/api/tcpip.c **** {
 475:Middlewares/Third_Party/LwIP/src/api/tcpip.c **** #if LWIP_TCPIP_CORE_LOCKING
 476:Middlewares/Third_Party/LwIP/src/api/tcpip.c ****   err_t err;
 477:Middlewares/Third_Party/LwIP/src/api/tcpip.c ****   LOCK_TCPIP_CORE();
ARM GAS  D:\Dev\msys64\tmp\ccLEQPHe.s 			page 17


 478:Middlewares/Third_Party/LwIP/src/api/tcpip.c ****   err = fn(call);
 479:Middlewares/Third_Party/LwIP/src/api/tcpip.c ****   UNLOCK_TCPIP_CORE();
 480:Middlewares/Third_Party/LwIP/src/api/tcpip.c ****   return err;
 481:Middlewares/Third_Party/LwIP/src/api/tcpip.c **** #else /* LWIP_TCPIP_CORE_LOCKING */
 482:Middlewares/Third_Party/LwIP/src/api/tcpip.c ****   TCPIP_MSG_VAR_DECLARE(msg);
 483:Middlewares/Third_Party/LwIP/src/api/tcpip.c **** 
 484:Middlewares/Third_Party/LwIP/src/api/tcpip.c **** #if !LWIP_NETCONN_SEM_PER_THREAD
 485:Middlewares/Third_Party/LwIP/src/api/tcpip.c ****   err_t err = sys_sem_new(&call->sem, 0);
 486:Middlewares/Third_Party/LwIP/src/api/tcpip.c ****   if (err != ERR_OK) {
 487:Middlewares/Third_Party/LwIP/src/api/tcpip.c ****     return err;
 488:Middlewares/Third_Party/LwIP/src/api/tcpip.c ****   }
 489:Middlewares/Third_Party/LwIP/src/api/tcpip.c **** #endif /* LWIP_NETCONN_SEM_PER_THREAD */
 490:Middlewares/Third_Party/LwIP/src/api/tcpip.c **** 
 491:Middlewares/Third_Party/LwIP/src/api/tcpip.c ****   LWIP_ASSERT("Invalid mbox", sys_mbox_valid_val(tcpip_mbox));
 492:Middlewares/Third_Party/LwIP/src/api/tcpip.c **** 
 493:Middlewares/Third_Party/LwIP/src/api/tcpip.c ****   TCPIP_MSG_VAR_ALLOC(msg);
 494:Middlewares/Third_Party/LwIP/src/api/tcpip.c ****   TCPIP_MSG_VAR_REF(msg).type = TCPIP_MSG_API_CALL;
 495:Middlewares/Third_Party/LwIP/src/api/tcpip.c ****   TCPIP_MSG_VAR_REF(msg).msg.api_call.arg = call;
 496:Middlewares/Third_Party/LwIP/src/api/tcpip.c ****   TCPIP_MSG_VAR_REF(msg).msg.api_call.function = fn;
 497:Middlewares/Third_Party/LwIP/src/api/tcpip.c **** #if LWIP_NETCONN_SEM_PER_THREAD
 498:Middlewares/Third_Party/LwIP/src/api/tcpip.c ****   TCPIP_MSG_VAR_REF(msg).msg.api_call.sem = LWIP_NETCONN_THREAD_SEM_GET();
 499:Middlewares/Third_Party/LwIP/src/api/tcpip.c **** #else /* LWIP_NETCONN_SEM_PER_THREAD */
 500:Middlewares/Third_Party/LwIP/src/api/tcpip.c ****   TCPIP_MSG_VAR_REF(msg).msg.api_call.sem = &call->sem;
 501:Middlewares/Third_Party/LwIP/src/api/tcpip.c **** #endif /* LWIP_NETCONN_SEM_PER_THREAD */
 502:Middlewares/Third_Party/LwIP/src/api/tcpip.c ****   sys_mbox_post(&tcpip_mbox, &TCPIP_MSG_VAR_REF(msg));
 503:Middlewares/Third_Party/LwIP/src/api/tcpip.c ****   sys_arch_sem_wait(TCPIP_MSG_VAR_REF(msg).msg.api_call.sem, 0);
 504:Middlewares/Third_Party/LwIP/src/api/tcpip.c ****   TCPIP_MSG_VAR_FREE(msg);
 505:Middlewares/Third_Party/LwIP/src/api/tcpip.c **** 
 506:Middlewares/Third_Party/LwIP/src/api/tcpip.c **** #if !LWIP_NETCONN_SEM_PER_THREAD
 507:Middlewares/Third_Party/LwIP/src/api/tcpip.c ****   sys_sem_free(&call->sem);
 508:Middlewares/Third_Party/LwIP/src/api/tcpip.c **** #endif /* LWIP_NETCONN_SEM_PER_THREAD */
 509:Middlewares/Third_Party/LwIP/src/api/tcpip.c **** 
 510:Middlewares/Third_Party/LwIP/src/api/tcpip.c ****   return call->err;
 511:Middlewares/Third_Party/LwIP/src/api/tcpip.c **** #endif /* LWIP_TCPIP_CORE_LOCKING */
 512:Middlewares/Third_Party/LwIP/src/api/tcpip.c **** }
 513:Middlewares/Third_Party/LwIP/src/api/tcpip.c **** 
 514:Middlewares/Third_Party/LwIP/src/api/tcpip.c **** /**
 515:Middlewares/Third_Party/LwIP/src/api/tcpip.c ****  * @ingroup lwip_os
 516:Middlewares/Third_Party/LwIP/src/api/tcpip.c ****  * Allocate a structure for a static callback message and initialize it.
 517:Middlewares/Third_Party/LwIP/src/api/tcpip.c ****  * The message has a special type such that lwIP never frees it.
 518:Middlewares/Third_Party/LwIP/src/api/tcpip.c ****  * This is intended to be used to send "static" messages from interrupt context,
 519:Middlewares/Third_Party/LwIP/src/api/tcpip.c ****  * e.g. the message is allocated once and posted several times from an IRQ
 520:Middlewares/Third_Party/LwIP/src/api/tcpip.c ****  * using tcpip_callbackmsg_trycallback().
 521:Middlewares/Third_Party/LwIP/src/api/tcpip.c ****  * Example usage: Trigger execution of an ethernet IRQ DPC routine in lwIP thread context.
 522:Middlewares/Third_Party/LwIP/src/api/tcpip.c ****  * 
 523:Middlewares/Third_Party/LwIP/src/api/tcpip.c ****  * @param function the function to call
 524:Middlewares/Third_Party/LwIP/src/api/tcpip.c ****  * @param ctx parameter passed to function
 525:Middlewares/Third_Party/LwIP/src/api/tcpip.c ****  * @return a struct pointer to pass to tcpip_callbackmsg_trycallback().
 526:Middlewares/Third_Party/LwIP/src/api/tcpip.c ****  *
 527:Middlewares/Third_Party/LwIP/src/api/tcpip.c ****  * @see tcpip_callbackmsg_trycallback()
 528:Middlewares/Third_Party/LwIP/src/api/tcpip.c ****  * @see tcpip_callbackmsg_delete()
 529:Middlewares/Third_Party/LwIP/src/api/tcpip.c ****  */
 530:Middlewares/Third_Party/LwIP/src/api/tcpip.c **** struct tcpip_callback_msg *
 531:Middlewares/Third_Party/LwIP/src/api/tcpip.c **** tcpip_callbackmsg_new(tcpip_callback_fn function, void *ctx)
 532:Middlewares/Third_Party/LwIP/src/api/tcpip.c **** {
 533:Middlewares/Third_Party/LwIP/src/api/tcpip.c ****   struct tcpip_msg *msg = (struct tcpip_msg *)memp_malloc(MEMP_TCPIP_MSG_API);
 534:Middlewares/Third_Party/LwIP/src/api/tcpip.c ****   if (msg == NULL) {
ARM GAS  D:\Dev\msys64\tmp\ccLEQPHe.s 			page 18


 535:Middlewares/Third_Party/LwIP/src/api/tcpip.c ****     return NULL;
 536:Middlewares/Third_Party/LwIP/src/api/tcpip.c ****   }
 537:Middlewares/Third_Party/LwIP/src/api/tcpip.c ****   msg->type = TCPIP_MSG_CALLBACK_STATIC;
 538:Middlewares/Third_Party/LwIP/src/api/tcpip.c ****   msg->msg.cb.function = function;
 539:Middlewares/Third_Party/LwIP/src/api/tcpip.c ****   msg->msg.cb.ctx = ctx;
 540:Middlewares/Third_Party/LwIP/src/api/tcpip.c ****   return (struct tcpip_callback_msg *)msg;
 541:Middlewares/Third_Party/LwIP/src/api/tcpip.c **** }
 542:Middlewares/Third_Party/LwIP/src/api/tcpip.c **** 
 543:Middlewares/Third_Party/LwIP/src/api/tcpip.c **** /**
 544:Middlewares/Third_Party/LwIP/src/api/tcpip.c ****  * @ingroup lwip_os
 545:Middlewares/Third_Party/LwIP/src/api/tcpip.c ****  * Free a callback message allocated by tcpip_callbackmsg_new().
 546:Middlewares/Third_Party/LwIP/src/api/tcpip.c ****  *
 547:Middlewares/Third_Party/LwIP/src/api/tcpip.c ****  * @param msg the message to free
 548:Middlewares/Third_Party/LwIP/src/api/tcpip.c ****  *
 549:Middlewares/Third_Party/LwIP/src/api/tcpip.c ****  * @see tcpip_callbackmsg_new()
 550:Middlewares/Third_Party/LwIP/src/api/tcpip.c ****  */
 551:Middlewares/Third_Party/LwIP/src/api/tcpip.c **** void
 552:Middlewares/Third_Party/LwIP/src/api/tcpip.c **** tcpip_callbackmsg_delete(struct tcpip_callback_msg *msg)
 553:Middlewares/Third_Party/LwIP/src/api/tcpip.c **** {
 554:Middlewares/Third_Party/LwIP/src/api/tcpip.c ****   memp_free(MEMP_TCPIP_MSG_API, msg);
 555:Middlewares/Third_Party/LwIP/src/api/tcpip.c **** }
 556:Middlewares/Third_Party/LwIP/src/api/tcpip.c **** 
 557:Middlewares/Third_Party/LwIP/src/api/tcpip.c **** /**
 558:Middlewares/Third_Party/LwIP/src/api/tcpip.c ****  * @ingroup lwip_os
 559:Middlewares/Third_Party/LwIP/src/api/tcpip.c ****  * Try to post a callback-message to the tcpip_thread tcpip_mbox.
 560:Middlewares/Third_Party/LwIP/src/api/tcpip.c ****  *
 561:Middlewares/Third_Party/LwIP/src/api/tcpip.c ****  * @param msg pointer to the message to post
 562:Middlewares/Third_Party/LwIP/src/api/tcpip.c ****  * @return sys_mbox_trypost() return code
 563:Middlewares/Third_Party/LwIP/src/api/tcpip.c ****  *
 564:Middlewares/Third_Party/LwIP/src/api/tcpip.c ****  * @see tcpip_callbackmsg_new()
 565:Middlewares/Third_Party/LwIP/src/api/tcpip.c ****  */
 566:Middlewares/Third_Party/LwIP/src/api/tcpip.c **** err_t
 567:Middlewares/Third_Party/LwIP/src/api/tcpip.c **** tcpip_callbackmsg_trycallback(struct tcpip_callback_msg *msg)
 568:Middlewares/Third_Party/LwIP/src/api/tcpip.c **** {
 569:Middlewares/Third_Party/LwIP/src/api/tcpip.c ****   LWIP_ASSERT("Invalid mbox", sys_mbox_valid_val(tcpip_mbox));
 570:Middlewares/Third_Party/LwIP/src/api/tcpip.c ****   return sys_mbox_trypost(&tcpip_mbox, msg);
 571:Middlewares/Third_Party/LwIP/src/api/tcpip.c **** }
 572:Middlewares/Third_Party/LwIP/src/api/tcpip.c **** 
 573:Middlewares/Third_Party/LwIP/src/api/tcpip.c **** /**
 574:Middlewares/Third_Party/LwIP/src/api/tcpip.c ****  * @ingroup lwip_os
 575:Middlewares/Third_Party/LwIP/src/api/tcpip.c ****  * Try to post a callback-message to the tcpip_thread mbox.
 576:Middlewares/Third_Party/LwIP/src/api/tcpip.c ****  * Same as @ref tcpip_callbackmsg_trycallback but calls sys_mbox_trypost_fromisr(),
 577:Middlewares/Third_Party/LwIP/src/api/tcpip.c ****  * mainly to help FreeRTOS, where calls differ between task level and ISR level.
 578:Middlewares/Third_Party/LwIP/src/api/tcpip.c ****  *
 579:Middlewares/Third_Party/LwIP/src/api/tcpip.c ****  * @param msg pointer to the message to post
 580:Middlewares/Third_Party/LwIP/src/api/tcpip.c ****  * @return sys_mbox_trypost_fromisr() return code (without change, so this
 581:Middlewares/Third_Party/LwIP/src/api/tcpip.c ****  *         knowledge can be used to e.g. propagate "bool needs_scheduling")
 582:Middlewares/Third_Party/LwIP/src/api/tcpip.c ****  *
 583:Middlewares/Third_Party/LwIP/src/api/tcpip.c ****  * @see tcpip_callbackmsg_new()
 584:Middlewares/Third_Party/LwIP/src/api/tcpip.c ****  */
 585:Middlewares/Third_Party/LwIP/src/api/tcpip.c **** err_t
 586:Middlewares/Third_Party/LwIP/src/api/tcpip.c **** tcpip_callbackmsg_trycallback_fromisr(struct tcpip_callback_msg *msg)
 587:Middlewares/Third_Party/LwIP/src/api/tcpip.c **** {
 588:Middlewares/Third_Party/LwIP/src/api/tcpip.c ****   LWIP_ASSERT("Invalid mbox", sys_mbox_valid_val(tcpip_mbox));
 589:Middlewares/Third_Party/LwIP/src/api/tcpip.c ****   return sys_mbox_trypost_fromisr(&tcpip_mbox, msg);
 590:Middlewares/Third_Party/LwIP/src/api/tcpip.c **** }
 591:Middlewares/Third_Party/LwIP/src/api/tcpip.c **** 
ARM GAS  D:\Dev\msys64\tmp\ccLEQPHe.s 			page 19


 592:Middlewares/Third_Party/LwIP/src/api/tcpip.c **** /**
 593:Middlewares/Third_Party/LwIP/src/api/tcpip.c ****  * @ingroup lwip_os
 594:Middlewares/Third_Party/LwIP/src/api/tcpip.c ****  * Initialize this module:
 595:Middlewares/Third_Party/LwIP/src/api/tcpip.c ****  * - initialize all sub modules
 596:Middlewares/Third_Party/LwIP/src/api/tcpip.c ****  * - start the tcpip_thread
 597:Middlewares/Third_Party/LwIP/src/api/tcpip.c ****  *
 598:Middlewares/Third_Party/LwIP/src/api/tcpip.c ****  * @param initfunc a function to call when tcpip_thread is running and finished initializing
 599:Middlewares/Third_Party/LwIP/src/api/tcpip.c ****  * @param arg argument to pass to initfunc
 600:Middlewares/Third_Party/LwIP/src/api/tcpip.c ****  */
 601:Middlewares/Third_Party/LwIP/src/api/tcpip.c **** void
 602:Middlewares/Third_Party/LwIP/src/api/tcpip.c **** tcpip_init(tcpip_init_done_fn initfunc, void *arg)
 603:Middlewares/Third_Party/LwIP/src/api/tcpip.c **** {
 604:Middlewares/Third_Party/LwIP/src/api/tcpip.c ****   lwip_init();
 605:Middlewares/Third_Party/LwIP/src/api/tcpip.c **** 
 606:Middlewares/Third_Party/LwIP/src/api/tcpip.c ****   tcpip_init_done = initfunc;
 607:Middlewares/Third_Party/LwIP/src/api/tcpip.c ****   tcpip_init_done_arg = arg;
 608:Middlewares/Third_Party/LwIP/src/api/tcpip.c ****   if (sys_mbox_new(&tcpip_mbox, TCPIP_MBOX_SIZE) != ERR_OK) {
 609:Middlewares/Third_Party/LwIP/src/api/tcpip.c ****     LWIP_ASSERT("failed to create tcpip_thread mbox", 0);
 610:Middlewares/Third_Party/LwIP/src/api/tcpip.c ****   }
 611:Middlewares/Third_Party/LwIP/src/api/tcpip.c **** #if LWIP_TCPIP_CORE_LOCKING
 612:Middlewares/Third_Party/LwIP/src/api/tcpip.c ****   if (sys_mutex_new(&lock_tcpip_core) != ERR_OK) {
 613:Middlewares/Third_Party/LwIP/src/api/tcpip.c ****     LWIP_ASSERT("failed to create lock_tcpip_core", 0);
 614:Middlewares/Third_Party/LwIP/src/api/tcpip.c ****   }
 615:Middlewares/Third_Party/LwIP/src/api/tcpip.c **** #endif /* LWIP_TCPIP_CORE_LOCKING */
 616:Middlewares/Third_Party/LwIP/src/api/tcpip.c **** 
 617:Middlewares/Third_Party/LwIP/src/api/tcpip.c ****   sys_thread_new(TCPIP_THREAD_NAME, tcpip_thread, NULL, TCPIP_THREAD_STACKSIZE, TCPIP_THREAD_PRIO);
 618:Middlewares/Third_Party/LwIP/src/api/tcpip.c **** }
 619:Middlewares/Third_Party/LwIP/src/api/tcpip.c **** 
 620:Middlewares/Third_Party/LwIP/src/api/tcpip.c **** /**
 621:Middlewares/Third_Party/LwIP/src/api/tcpip.c ****  * Simple callback function used with tcpip_callback to free a pbuf
 622:Middlewares/Third_Party/LwIP/src/api/tcpip.c ****  * (pbuf_free has a wrong signature for tcpip_callback)
 623:Middlewares/Third_Party/LwIP/src/api/tcpip.c ****  *
 624:Middlewares/Third_Party/LwIP/src/api/tcpip.c ****  * @param p The pbuf (chain) to be dereferenced.
 625:Middlewares/Third_Party/LwIP/src/api/tcpip.c ****  */
 626:Middlewares/Third_Party/LwIP/src/api/tcpip.c **** static void
 627:Middlewares/Third_Party/LwIP/src/api/tcpip.c **** pbuf_free_int(void *p)
 628:Middlewares/Third_Party/LwIP/src/api/tcpip.c **** {
 363              		.loc 1 628 1 view -0
 364              		.cfi_startproc
 365              		@ args = 0, pretend = 0, frame = 0
 366              		@ frame_needed = 0, uses_anonymous_args = 0
 367              		.loc 1 628 1 is_stmt 0 view .LVU93
 368 0000 08B5     		push	{r3, lr}
 369              	.LCFI4:
 370              		.cfi_def_cfa_offset 8
 371              		.cfi_offset 3, -8
 372              		.cfi_offset 14, -4
 629:Middlewares/Third_Party/LwIP/src/api/tcpip.c ****   struct pbuf *q = (struct pbuf *)p;
 373              		.loc 1 629 3 is_stmt 1 view .LVU94
 374              	.LVL41:
 630:Middlewares/Third_Party/LwIP/src/api/tcpip.c ****   pbuf_free(q);
 375              		.loc 1 630 3 view .LVU95
 376 0002 FFF7FEFF 		bl	pbuf_free
 377              	.LVL42:
 631:Middlewares/Third_Party/LwIP/src/api/tcpip.c **** }
 378              		.loc 1 631 1 is_stmt 0 view .LVU96
 379 0006 08BD     		pop	{r3, pc}
ARM GAS  D:\Dev\msys64\tmp\ccLEQPHe.s 			page 20


 380              		.cfi_endproc
 381              	.LFE44:
 383              		.section	.rodata.tcpip_inpkt.str1.4,"aMS",%progbits,1
 384              		.align	2
 385              	.LC3:
 386 0000 496E7661 		.ascii	"Invalid mbox\000"
 386      6C696420 
 386      6D626F78 
 386      00
 387              		.section	.text.tcpip_inpkt,"ax",%progbits
 388              		.align	1
 389              		.global	tcpip_inpkt
 390              		.syntax unified
 391              		.thumb
 392              		.thumb_func
 393              		.fpu fpv5-sp-d16
 395              	tcpip_inpkt:
 396              	.LVL43:
 397              	.LFB33:
 241:Middlewares/Third_Party/LwIP/src/api/tcpip.c **** #if LWIP_TCPIP_CORE_LOCKING_INPUT
 398              		.loc 1 241 1 is_stmt 1 view -0
 399              		.cfi_startproc
 400              		@ args = 0, pretend = 0, frame = 0
 401              		@ frame_needed = 0, uses_anonymous_args = 0
 241:Middlewares/Third_Party/LwIP/src/api/tcpip.c **** #if LWIP_TCPIP_CORE_LOCKING_INPUT
 402              		.loc 1 241 1 is_stmt 0 view .LVU98
 403 0000 F8B5     		push	{r3, r4, r5, r6, r7, lr}
 404              	.LCFI5:
 405              		.cfi_def_cfa_offset 24
 406              		.cfi_offset 3, -24
 407              		.cfi_offset 4, -20
 408              		.cfi_offset 5, -16
 409              		.cfi_offset 6, -12
 410              		.cfi_offset 7, -8
 411              		.cfi_offset 14, -4
 412 0002 0746     		mov	r7, r0
 413 0004 0E46     		mov	r6, r1
 414 0006 1546     		mov	r5, r2
 250:Middlewares/Third_Party/LwIP/src/api/tcpip.c **** 
 415              		.loc 1 250 3 is_stmt 1 view .LVU99
 252:Middlewares/Third_Party/LwIP/src/api/tcpip.c **** 
 416              		.loc 1 252 3 view .LVU100
 252:Middlewares/Third_Party/LwIP/src/api/tcpip.c **** 
 417              		.loc 1 252 3 view .LVU101
 418 0008 1248     		ldr	r0, .L40
 419              	.LVL44:
 252:Middlewares/Third_Party/LwIP/src/api/tcpip.c **** 
 420              		.loc 1 252 3 is_stmt 0 view .LVU102
 421 000a FFF7FEFF 		bl	sys_mbox_valid
 422              	.LVL45:
 252:Middlewares/Third_Party/LwIP/src/api/tcpip.c **** 
 423              		.loc 1 252 3 view .LVU103
 424 000e 78B1     		cbz	r0, .L38
 425              	.L34:
 252:Middlewares/Third_Party/LwIP/src/api/tcpip.c **** 
 426              		.loc 1 252 3 is_stmt 1 discriminator 3 view .LVU104
 252:Middlewares/Third_Party/LwIP/src/api/tcpip.c **** 
ARM GAS  D:\Dev\msys64\tmp\ccLEQPHe.s 			page 21


 427              		.loc 1 252 3 discriminator 3 view .LVU105
 254:Middlewares/Third_Party/LwIP/src/api/tcpip.c ****   if (msg == NULL) {
 428              		.loc 1 254 3 discriminator 3 view .LVU106
 254:Middlewares/Third_Party/LwIP/src/api/tcpip.c ****   if (msg == NULL) {
 429              		.loc 1 254 29 is_stmt 0 discriminator 3 view .LVU107
 430 0010 0920     		movs	r0, #9
 431 0012 FFF7FEFF 		bl	memp_malloc
 432              	.LVL46:
 255:Middlewares/Third_Party/LwIP/src/api/tcpip.c ****     return ERR_MEM;
 433              		.loc 1 255 3 is_stmt 1 discriminator 3 view .LVU108
 255:Middlewares/Third_Party/LwIP/src/api/tcpip.c ****     return ERR_MEM;
 434              		.loc 1 255 6 is_stmt 0 discriminator 3 view .LVU109
 435 0016 0446     		mov	r4, r0
 436 0018 C0B1     		cbz	r0, .L36
 259:Middlewares/Third_Party/LwIP/src/api/tcpip.c ****   msg->msg.inp.p = p;
 437              		.loc 1 259 3 is_stmt 1 view .LVU110
 259:Middlewares/Third_Party/LwIP/src/api/tcpip.c ****   msg->msg.inp.p = p;
 438              		.loc 1 259 13 is_stmt 0 view .LVU111
 439 001a 0023     		movs	r3, #0
 440 001c 0370     		strb	r3, [r0]
 260:Middlewares/Third_Party/LwIP/src/api/tcpip.c ****   msg->msg.inp.netif = inp;
 441              		.loc 1 260 3 is_stmt 1 view .LVU112
 260:Middlewares/Third_Party/LwIP/src/api/tcpip.c ****   msg->msg.inp.netif = inp;
 442              		.loc 1 260 18 is_stmt 0 view .LVU113
 443 001e 4760     		str	r7, [r0, #4]
 261:Middlewares/Third_Party/LwIP/src/api/tcpip.c ****   msg->msg.inp.input_fn = input_fn;
 444              		.loc 1 261 3 is_stmt 1 view .LVU114
 261:Middlewares/Third_Party/LwIP/src/api/tcpip.c ****   msg->msg.inp.input_fn = input_fn;
 445              		.loc 1 261 22 is_stmt 0 view .LVU115
 446 0020 8660     		str	r6, [r0, #8]
 262:Middlewares/Third_Party/LwIP/src/api/tcpip.c ****   if (sys_mbox_trypost(&tcpip_mbox, msg) != ERR_OK) {
 447              		.loc 1 262 3 is_stmt 1 view .LVU116
 262:Middlewares/Third_Party/LwIP/src/api/tcpip.c ****   if (sys_mbox_trypost(&tcpip_mbox, msg) != ERR_OK) {
 448              		.loc 1 262 25 is_stmt 0 view .LVU117
 449 0022 C560     		str	r5, [r0, #12]
 263:Middlewares/Third_Party/LwIP/src/api/tcpip.c ****     memp_free(MEMP_TCPIP_MSG_INPKT, msg);
 450              		.loc 1 263 3 is_stmt 1 view .LVU118
 263:Middlewares/Third_Party/LwIP/src/api/tcpip.c ****     memp_free(MEMP_TCPIP_MSG_INPKT, msg);
 451              		.loc 1 263 7 is_stmt 0 view .LVU119
 452 0024 0146     		mov	r1, r0
 453 0026 0B48     		ldr	r0, .L40
 454              	.LVL47:
 263:Middlewares/Third_Party/LwIP/src/api/tcpip.c ****     memp_free(MEMP_TCPIP_MSG_INPKT, msg);
 455              		.loc 1 263 7 view .LVU120
 456 0028 FFF7FEFF 		bl	sys_mbox_trypost
 457              	.LVL48:
 263:Middlewares/Third_Party/LwIP/src/api/tcpip.c ****     memp_free(MEMP_TCPIP_MSG_INPKT, msg);
 458              		.loc 1 263 6 view .LVU121
 459 002c 38B9     		cbnz	r0, .L39
 460              	.L35:
 269:Middlewares/Third_Party/LwIP/src/api/tcpip.c **** 
 461              		.loc 1 269 1 view .LVU122
 462 002e F8BD     		pop	{r3, r4, r5, r6, r7, pc}
 463              	.LVL49:
 464              	.L38:
 252:Middlewares/Third_Party/LwIP/src/api/tcpip.c **** 
 465              		.loc 1 252 3 is_stmt 1 discriminator 1 view .LVU123
ARM GAS  D:\Dev\msys64\tmp\ccLEQPHe.s 			page 22


 252:Middlewares/Third_Party/LwIP/src/api/tcpip.c **** 
 466              		.loc 1 252 3 discriminator 1 view .LVU124
 467 0030 094B     		ldr	r3, .L40+4
 468 0032 FC22     		movs	r2, #252
 469 0034 0949     		ldr	r1, .L40+8
 470 0036 0A48     		ldr	r0, .L40+12
 471 0038 FFF7FEFF 		bl	printf
 472              	.LVL50:
 473 003c E8E7     		b	.L34
 474              	.LVL51:
 475              	.L39:
 264:Middlewares/Third_Party/LwIP/src/api/tcpip.c ****     return ERR_MEM;
 476              		.loc 1 264 5 view .LVU125
 477 003e 2146     		mov	r1, r4
 478 0040 0920     		movs	r0, #9
 479 0042 FFF7FEFF 		bl	memp_free
 480              	.LVL52:
 265:Middlewares/Third_Party/LwIP/src/api/tcpip.c ****   }
 481              		.loc 1 265 5 view .LVU126
 265:Middlewares/Third_Party/LwIP/src/api/tcpip.c ****   }
 482              		.loc 1 265 12 is_stmt 0 view .LVU127
 483 0046 4FF0FF30 		mov	r0, #-1
 484 004a F0E7     		b	.L35
 485              	.LVL53:
 486              	.L36:
 256:Middlewares/Third_Party/LwIP/src/api/tcpip.c ****   }
 487              		.loc 1 256 12 view .LVU128
 488 004c 4FF0FF30 		mov	r0, #-1
 489              	.LVL54:
 256:Middlewares/Third_Party/LwIP/src/api/tcpip.c ****   }
 490              		.loc 1 256 12 view .LVU129
 491 0050 EDE7     		b	.L35
 492              	.L41:
 493 0052 00BF     		.align	2
 494              	.L40:
 495 0054 00000000 		.word	.LANCHOR2
 496 0058 00000000 		.word	.LC0
 497 005c 00000000 		.word	.LC3
 498 0060 50000000 		.word	.LC2
 499              		.cfi_endproc
 500              	.LFE33:
 502              		.section	.text.tcpip_input,"ax",%progbits
 503              		.align	1
 504              		.global	tcpip_input
 505              		.syntax unified
 506              		.thumb
 507              		.thumb_func
 508              		.fpu fpv5-sp-d16
 510              	tcpip_input:
 511              	.LVL55:
 512              	.LFB34:
 284:Middlewares/Third_Party/LwIP/src/api/tcpip.c **** #if LWIP_ETHERNET
 513              		.loc 1 284 1 is_stmt 1 view -0
 514              		.cfi_startproc
 515              		@ args = 0, pretend = 0, frame = 0
 516              		@ frame_needed = 0, uses_anonymous_args = 0
 284:Middlewares/Third_Party/LwIP/src/api/tcpip.c **** #if LWIP_ETHERNET
ARM GAS  D:\Dev\msys64\tmp\ccLEQPHe.s 			page 23


 517              		.loc 1 284 1 is_stmt 0 view .LVU131
 518 0000 08B5     		push	{r3, lr}
 519              	.LCFI6:
 520              		.cfi_def_cfa_offset 8
 521              		.cfi_offset 3, -8
 522              		.cfi_offset 14, -4
 286:Middlewares/Third_Party/LwIP/src/api/tcpip.c ****     return tcpip_inpkt(p, inp, ethernet_input);
 523              		.loc 1 286 3 is_stmt 1 view .LVU132
 286:Middlewares/Third_Party/LwIP/src/api/tcpip.c ****     return tcpip_inpkt(p, inp, ethernet_input);
 524              		.loc 1 286 10 is_stmt 0 view .LVU133
 525 0002 91F83130 		ldrb	r3, [r1, #49]	@ zero_extendqisi2
 286:Middlewares/Third_Party/LwIP/src/api/tcpip.c ****     return tcpip_inpkt(p, inp, ethernet_input);
 526              		.loc 1 286 6 view .LVU134
 527 0006 13F0180F 		tst	r3, #24
 528 000a 03D0     		beq	.L43
 287:Middlewares/Third_Party/LwIP/src/api/tcpip.c ****   } else
 529              		.loc 1 287 5 is_stmt 1 view .LVU135
 287:Middlewares/Third_Party/LwIP/src/api/tcpip.c ****   } else
 530              		.loc 1 287 12 is_stmt 0 view .LVU136
 531 000c 034A     		ldr	r2, .L46
 532 000e FFF7FEFF 		bl	tcpip_inpkt
 533              	.LVL56:
 534              	.L44:
 291:Middlewares/Third_Party/LwIP/src/api/tcpip.c **** 
 535              		.loc 1 291 1 view .LVU137
 536 0012 08BD     		pop	{r3, pc}
 537              	.LVL57:
 538              	.L43:
 290:Middlewares/Third_Party/LwIP/src/api/tcpip.c **** }
 539              		.loc 1 290 5 is_stmt 1 view .LVU138
 290:Middlewares/Third_Party/LwIP/src/api/tcpip.c **** }
 540              		.loc 1 290 12 is_stmt 0 view .LVU139
 541 0014 024A     		ldr	r2, .L46+4
 542 0016 FFF7FEFF 		bl	tcpip_inpkt
 543              	.LVL58:
 290:Middlewares/Third_Party/LwIP/src/api/tcpip.c **** }
 544              		.loc 1 290 12 view .LVU140
 545 001a FAE7     		b	.L44
 546              	.L47:
 547              		.align	2
 548              	.L46:
 549 001c 00000000 		.word	ethernet_input
 550 0020 00000000 		.word	ip4_input
 551              		.cfi_endproc
 552              	.LFE34:
 554              		.section	.text.tcpip_callback,"ax",%progbits
 555              		.align	1
 556              		.global	tcpip_callback
 557              		.syntax unified
 558              		.thumb
 559              		.thumb_func
 560              		.fpu fpv5-sp-d16
 562              	tcpip_callback:
 563              	.LVL59:
 564              	.LFB35:
 310:Middlewares/Third_Party/LwIP/src/api/tcpip.c ****   struct tcpip_msg *msg;
 565              		.loc 1 310 1 is_stmt 1 view -0
ARM GAS  D:\Dev\msys64\tmp\ccLEQPHe.s 			page 24


 566              		.cfi_startproc
 567              		@ args = 0, pretend = 0, frame = 0
 568              		@ frame_needed = 0, uses_anonymous_args = 0
 310:Middlewares/Third_Party/LwIP/src/api/tcpip.c ****   struct tcpip_msg *msg;
 569              		.loc 1 310 1 is_stmt 0 view .LVU142
 570 0000 38B5     		push	{r3, r4, r5, lr}
 571              	.LCFI7:
 572              		.cfi_def_cfa_offset 16
 573              		.cfi_offset 3, -16
 574              		.cfi_offset 4, -12
 575              		.cfi_offset 5, -8
 576              		.cfi_offset 14, -4
 577 0002 0546     		mov	r5, r0
 578 0004 0C46     		mov	r4, r1
 311:Middlewares/Third_Party/LwIP/src/api/tcpip.c **** 
 579              		.loc 1 311 3 is_stmt 1 view .LVU143
 313:Middlewares/Third_Party/LwIP/src/api/tcpip.c **** 
 580              		.loc 1 313 3 view .LVU144
 313:Middlewares/Third_Party/LwIP/src/api/tcpip.c **** 
 581              		.loc 1 313 3 view .LVU145
 582 0006 0E48     		ldr	r0, .L54
 583              	.LVL60:
 313:Middlewares/Third_Party/LwIP/src/api/tcpip.c **** 
 584              		.loc 1 313 3 is_stmt 0 view .LVU146
 585 0008 FFF7FEFF 		bl	sys_mbox_valid
 586              	.LVL61:
 313:Middlewares/Third_Party/LwIP/src/api/tcpip.c **** 
 587              		.loc 1 313 3 view .LVU147
 588 000c 68B1     		cbz	r0, .L53
 589              	.L49:
 313:Middlewares/Third_Party/LwIP/src/api/tcpip.c **** 
 590              		.loc 1 313 3 is_stmt 1 discriminator 3 view .LVU148
 313:Middlewares/Third_Party/LwIP/src/api/tcpip.c **** 
 591              		.loc 1 313 3 discriminator 3 view .LVU149
 315:Middlewares/Third_Party/LwIP/src/api/tcpip.c ****   if (msg == NULL) {
 592              		.loc 1 315 3 discriminator 3 view .LVU150
 315:Middlewares/Third_Party/LwIP/src/api/tcpip.c ****   if (msg == NULL) {
 593              		.loc 1 315 29 is_stmt 0 discriminator 3 view .LVU151
 594 000e 0820     		movs	r0, #8
 595 0010 FFF7FEFF 		bl	memp_malloc
 596              	.LVL62:
 316:Middlewares/Third_Party/LwIP/src/api/tcpip.c ****     return ERR_MEM;
 597              		.loc 1 316 3 is_stmt 1 discriminator 3 view .LVU152
 316:Middlewares/Third_Party/LwIP/src/api/tcpip.c ****     return ERR_MEM;
 598              		.loc 1 316 6 is_stmt 0 discriminator 3 view .LVU153
 599 0014 0146     		mov	r1, r0
 600 0016 80B1     		cbz	r0, .L51
 320:Middlewares/Third_Party/LwIP/src/api/tcpip.c ****   msg->msg.cb.function = function;
 601              		.loc 1 320 3 is_stmt 1 view .LVU154
 320:Middlewares/Third_Party/LwIP/src/api/tcpip.c ****   msg->msg.cb.function = function;
 602              		.loc 1 320 13 is_stmt 0 view .LVU155
 603 0018 0123     		movs	r3, #1
 604 001a 0370     		strb	r3, [r0]
 321:Middlewares/Third_Party/LwIP/src/api/tcpip.c ****   msg->msg.cb.ctx = ctx;
 605              		.loc 1 321 3 is_stmt 1 view .LVU156
 321:Middlewares/Third_Party/LwIP/src/api/tcpip.c ****   msg->msg.cb.ctx = ctx;
 606              		.loc 1 321 24 is_stmt 0 view .LVU157
ARM GAS  D:\Dev\msys64\tmp\ccLEQPHe.s 			page 25


 607 001c 4560     		str	r5, [r0, #4]
 322:Middlewares/Third_Party/LwIP/src/api/tcpip.c **** 
 608              		.loc 1 322 3 is_stmt 1 view .LVU158
 322:Middlewares/Third_Party/LwIP/src/api/tcpip.c **** 
 609              		.loc 1 322 19 is_stmt 0 view .LVU159
 610 001e 8460     		str	r4, [r0, #8]
 324:Middlewares/Third_Party/LwIP/src/api/tcpip.c ****   return ERR_OK;
 611              		.loc 1 324 3 is_stmt 1 view .LVU160
 612 0020 0748     		ldr	r0, .L54
 613              	.LVL63:
 324:Middlewares/Third_Party/LwIP/src/api/tcpip.c ****   return ERR_OK;
 614              		.loc 1 324 3 is_stmt 0 view .LVU161
 615 0022 FFF7FEFF 		bl	sys_mbox_post
 616              	.LVL64:
 325:Middlewares/Third_Party/LwIP/src/api/tcpip.c **** }
 617              		.loc 1 325 3 is_stmt 1 view .LVU162
 325:Middlewares/Third_Party/LwIP/src/api/tcpip.c **** }
 618              		.loc 1 325 10 is_stmt 0 view .LVU163
 619 0026 0020     		movs	r0, #0
 620              	.L50:
 326:Middlewares/Third_Party/LwIP/src/api/tcpip.c **** 
 621              		.loc 1 326 1 view .LVU164
 622 0028 38BD     		pop	{r3, r4, r5, pc}
 623              	.LVL65:
 624              	.L53:
 313:Middlewares/Third_Party/LwIP/src/api/tcpip.c **** 
 625              		.loc 1 313 3 is_stmt 1 discriminator 1 view .LVU165
 313:Middlewares/Third_Party/LwIP/src/api/tcpip.c **** 
 626              		.loc 1 313 3 discriminator 1 view .LVU166
 627 002a 064B     		ldr	r3, .L54+4
 628 002c 40F23912 		movw	r2, #313
 629 0030 0549     		ldr	r1, .L54+8
 630 0032 0648     		ldr	r0, .L54+12
 631 0034 FFF7FEFF 		bl	printf
 632              	.LVL66:
 633 0038 E9E7     		b	.L49
 634              	.LVL67:
 635              	.L51:
 317:Middlewares/Third_Party/LwIP/src/api/tcpip.c ****   }
 636              		.loc 1 317 12 is_stmt 0 view .LVU167
 637 003a 4FF0FF30 		mov	r0, #-1
 638              	.LVL68:
 317:Middlewares/Third_Party/LwIP/src/api/tcpip.c ****   }
 639              		.loc 1 317 12 view .LVU168
 640 003e F3E7     		b	.L50
 641              	.L55:
 642              		.align	2
 643              	.L54:
 644 0040 00000000 		.word	.LANCHOR2
 645 0044 00000000 		.word	.LC0
 646 0048 00000000 		.word	.LC3
 647 004c 50000000 		.word	.LC2
 648              		.cfi_endproc
 649              	.LFE35:
 651              		.section	.text.tcpip_try_callback,"ax",%progbits
 652              		.align	1
 653              		.global	tcpip_try_callback
ARM GAS  D:\Dev\msys64\tmp\ccLEQPHe.s 			page 26


 654              		.syntax unified
 655              		.thumb
 656              		.thumb_func
 657              		.fpu fpv5-sp-d16
 659              	tcpip_try_callback:
 660              	.LVL69:
 661              	.LFB36:
 346:Middlewares/Third_Party/LwIP/src/api/tcpip.c ****   struct tcpip_msg *msg;
 662              		.loc 1 346 1 is_stmt 1 view -0
 663              		.cfi_startproc
 664              		@ args = 0, pretend = 0, frame = 0
 665              		@ frame_needed = 0, uses_anonymous_args = 0
 346:Middlewares/Third_Party/LwIP/src/api/tcpip.c ****   struct tcpip_msg *msg;
 666              		.loc 1 346 1 is_stmt 0 view .LVU170
 667 0000 70B5     		push	{r4, r5, r6, lr}
 668              	.LCFI8:
 669              		.cfi_def_cfa_offset 16
 670              		.cfi_offset 4, -16
 671              		.cfi_offset 5, -12
 672              		.cfi_offset 6, -8
 673              		.cfi_offset 14, -4
 674 0002 0646     		mov	r6, r0
 675 0004 0D46     		mov	r5, r1
 347:Middlewares/Third_Party/LwIP/src/api/tcpip.c **** 
 676              		.loc 1 347 3 is_stmt 1 view .LVU171
 349:Middlewares/Third_Party/LwIP/src/api/tcpip.c **** 
 677              		.loc 1 349 3 view .LVU172
 349:Middlewares/Third_Party/LwIP/src/api/tcpip.c **** 
 678              		.loc 1 349 3 view .LVU173
 679 0006 1248     		ldr	r0, .L63
 680              	.LVL70:
 349:Middlewares/Third_Party/LwIP/src/api/tcpip.c **** 
 681              		.loc 1 349 3 is_stmt 0 view .LVU174
 682 0008 FFF7FEFF 		bl	sys_mbox_valid
 683              	.LVL71:
 349:Middlewares/Third_Party/LwIP/src/api/tcpip.c **** 
 684              		.loc 1 349 3 view .LVU175
 685 000c 70B1     		cbz	r0, .L61
 686              	.L57:
 349:Middlewares/Third_Party/LwIP/src/api/tcpip.c **** 
 687              		.loc 1 349 3 is_stmt 1 discriminator 3 view .LVU176
 349:Middlewares/Third_Party/LwIP/src/api/tcpip.c **** 
 688              		.loc 1 349 3 discriminator 3 view .LVU177
 351:Middlewares/Third_Party/LwIP/src/api/tcpip.c ****   if (msg == NULL) {
 689              		.loc 1 351 3 discriminator 3 view .LVU178
 351:Middlewares/Third_Party/LwIP/src/api/tcpip.c ****   if (msg == NULL) {
 690              		.loc 1 351 29 is_stmt 0 discriminator 3 view .LVU179
 691 000e 0820     		movs	r0, #8
 692 0010 FFF7FEFF 		bl	memp_malloc
 693              	.LVL72:
 352:Middlewares/Third_Party/LwIP/src/api/tcpip.c ****     return ERR_MEM;
 694              		.loc 1 352 3 is_stmt 1 discriminator 3 view .LVU180
 352:Middlewares/Third_Party/LwIP/src/api/tcpip.c ****     return ERR_MEM;
 695              		.loc 1 352 6 is_stmt 0 discriminator 3 view .LVU181
 696 0014 0446     		mov	r4, r0
 697 0016 C0B1     		cbz	r0, .L59
 356:Middlewares/Third_Party/LwIP/src/api/tcpip.c ****   msg->msg.cb.function = function;
ARM GAS  D:\Dev\msys64\tmp\ccLEQPHe.s 			page 27


 698              		.loc 1 356 3 is_stmt 1 view .LVU182
 356:Middlewares/Third_Party/LwIP/src/api/tcpip.c ****   msg->msg.cb.function = function;
 699              		.loc 1 356 13 is_stmt 0 view .LVU183
 700 0018 0123     		movs	r3, #1
 701 001a 0370     		strb	r3, [r0]
 357:Middlewares/Third_Party/LwIP/src/api/tcpip.c ****   msg->msg.cb.ctx = ctx;
 702              		.loc 1 357 3 is_stmt 1 view .LVU184
 357:Middlewares/Third_Party/LwIP/src/api/tcpip.c ****   msg->msg.cb.ctx = ctx;
 703              		.loc 1 357 24 is_stmt 0 view .LVU185
 704 001c 4660     		str	r6, [r0, #4]
 358:Middlewares/Third_Party/LwIP/src/api/tcpip.c **** 
 705              		.loc 1 358 3 is_stmt 1 view .LVU186
 358:Middlewares/Third_Party/LwIP/src/api/tcpip.c **** 
 706              		.loc 1 358 19 is_stmt 0 view .LVU187
 707 001e 8560     		str	r5, [r0, #8]
 360:Middlewares/Third_Party/LwIP/src/api/tcpip.c ****     memp_free(MEMP_TCPIP_MSG_API, msg);
 708              		.loc 1 360 3 is_stmt 1 view .LVU188
 360:Middlewares/Third_Party/LwIP/src/api/tcpip.c ****     memp_free(MEMP_TCPIP_MSG_API, msg);
 709              		.loc 1 360 7 is_stmt 0 view .LVU189
 710 0020 0146     		mov	r1, r0
 711 0022 0B48     		ldr	r0, .L63
 712              	.LVL73:
 360:Middlewares/Third_Party/LwIP/src/api/tcpip.c ****     memp_free(MEMP_TCPIP_MSG_API, msg);
 713              		.loc 1 360 7 view .LVU190
 714 0024 FFF7FEFF 		bl	sys_mbox_trypost
 715              	.LVL74:
 360:Middlewares/Third_Party/LwIP/src/api/tcpip.c ****     memp_free(MEMP_TCPIP_MSG_API, msg);
 716              		.loc 1 360 6 view .LVU191
 717 0028 40B9     		cbnz	r0, .L62
 718              	.L58:
 365:Middlewares/Third_Party/LwIP/src/api/tcpip.c **** 
 719              		.loc 1 365 1 view .LVU192
 720 002a 70BD     		pop	{r4, r5, r6, pc}
 721              	.LVL75:
 722              	.L61:
 349:Middlewares/Third_Party/LwIP/src/api/tcpip.c **** 
 723              		.loc 1 349 3 is_stmt 1 discriminator 1 view .LVU193
 349:Middlewares/Third_Party/LwIP/src/api/tcpip.c **** 
 724              		.loc 1 349 3 discriminator 1 view .LVU194
 725 002c 094B     		ldr	r3, .L63+4
 726 002e 40F25D12 		movw	r2, #349
 727 0032 0949     		ldr	r1, .L63+8
 728 0034 0948     		ldr	r0, .L63+12
 729 0036 FFF7FEFF 		bl	printf
 730              	.LVL76:
 731 003a E8E7     		b	.L57
 732              	.LVL77:
 733              	.L62:
 361:Middlewares/Third_Party/LwIP/src/api/tcpip.c ****     return ERR_MEM;
 734              		.loc 1 361 5 view .LVU195
 735 003c 2146     		mov	r1, r4
 736 003e 0820     		movs	r0, #8
 737 0040 FFF7FEFF 		bl	memp_free
 738              	.LVL78:
 362:Middlewares/Third_Party/LwIP/src/api/tcpip.c ****   }
 739              		.loc 1 362 5 view .LVU196
 362:Middlewares/Third_Party/LwIP/src/api/tcpip.c ****   }
ARM GAS  D:\Dev\msys64\tmp\ccLEQPHe.s 			page 28


 740              		.loc 1 362 12 is_stmt 0 view .LVU197
 741 0044 4FF0FF30 		mov	r0, #-1
 742 0048 EFE7     		b	.L58
 743              	.LVL79:
 744              	.L59:
 353:Middlewares/Third_Party/LwIP/src/api/tcpip.c ****   }
 745              		.loc 1 353 12 view .LVU198
 746 004a 4FF0FF30 		mov	r0, #-1
 747              	.LVL80:
 353:Middlewares/Third_Party/LwIP/src/api/tcpip.c ****   }
 748              		.loc 1 353 12 view .LVU199
 749 004e ECE7     		b	.L58
 750              	.L64:
 751              		.align	2
 752              	.L63:
 753 0050 00000000 		.word	.LANCHOR2
 754 0054 00000000 		.word	.LC0
 755 0058 00000000 		.word	.LC3
 756 005c 50000000 		.word	.LC2
 757              		.cfi_endproc
 758              	.LFE36:
 760              		.section	.text.tcpip_send_msg_wait_sem,"ax",%progbits
 761              		.align	1
 762              		.global	tcpip_send_msg_wait_sem
 763              		.syntax unified
 764              		.thumb
 765              		.thumb_func
 766              		.fpu fpv5-sp-d16
 768              	tcpip_send_msg_wait_sem:
 769              	.LVL81:
 770              	.LFB37:
 438:Middlewares/Third_Party/LwIP/src/api/tcpip.c **** #if LWIP_TCPIP_CORE_LOCKING
 771              		.loc 1 438 1 is_stmt 1 view -0
 772              		.cfi_startproc
 773              		@ args = 0, pretend = 0, frame = 0
 774              		@ frame_needed = 0, uses_anonymous_args = 0
 438:Middlewares/Third_Party/LwIP/src/api/tcpip.c **** #if LWIP_TCPIP_CORE_LOCKING
 775              		.loc 1 438 1 is_stmt 0 view .LVU201
 776 0000 70B5     		push	{r4, r5, r6, lr}
 777              	.LCFI9:
 778              		.cfi_def_cfa_offset 16
 779              		.cfi_offset 4, -16
 780              		.cfi_offset 5, -12
 781              		.cfi_offset 6, -8
 782              		.cfi_offset 14, -4
 783 0002 0446     		mov	r4, r0
 784 0004 0D46     		mov	r5, r1
 440:Middlewares/Third_Party/LwIP/src/api/tcpip.c ****   LOCK_TCPIP_CORE();
 785              		.loc 1 440 3 is_stmt 1 view .LVU202
 441:Middlewares/Third_Party/LwIP/src/api/tcpip.c ****   fn(apimsg);
 786              		.loc 1 441 3 view .LVU203
 787 0006 054E     		ldr	r6, .L67
 788 0008 3046     		mov	r0, r6
 789              	.LVL82:
 441:Middlewares/Third_Party/LwIP/src/api/tcpip.c ****   fn(apimsg);
 790              		.loc 1 441 3 is_stmt 0 view .LVU204
 791 000a FFF7FEFF 		bl	sys_mutex_lock
ARM GAS  D:\Dev\msys64\tmp\ccLEQPHe.s 			page 29


 792              	.LVL83:
 442:Middlewares/Third_Party/LwIP/src/api/tcpip.c ****   UNLOCK_TCPIP_CORE();
 793              		.loc 1 442 3 is_stmt 1 view .LVU205
 794 000e 2846     		mov	r0, r5
 795 0010 A047     		blx	r4
 796              	.LVL84:
 443:Middlewares/Third_Party/LwIP/src/api/tcpip.c ****   return ERR_OK;
 797              		.loc 1 443 3 view .LVU206
 798 0012 3046     		mov	r0, r6
 799 0014 FFF7FEFF 		bl	sys_mutex_unlock
 800              	.LVL85:
 444:Middlewares/Third_Party/LwIP/src/api/tcpip.c **** #else /* LWIP_TCPIP_CORE_LOCKING */
 801              		.loc 1 444 3 view .LVU207
 460:Middlewares/Third_Party/LwIP/src/api/tcpip.c **** 
 802              		.loc 1 460 1 is_stmt 0 view .LVU208
 803 0018 0020     		movs	r0, #0
 804 001a 70BD     		pop	{r4, r5, r6, pc}
 805              	.LVL86:
 806              	.L68:
 460:Middlewares/Third_Party/LwIP/src/api/tcpip.c **** 
 807              		.loc 1 460 1 view .LVU209
 808              		.align	2
 809              	.L67:
 810 001c 00000000 		.word	lock_tcpip_core
 811              		.cfi_endproc
 812              	.LFE37:
 814              		.section	.text.tcpip_api_call,"ax",%progbits
 815              		.align	1
 816              		.global	tcpip_api_call
 817              		.syntax unified
 818              		.thumb
 819              		.thumb_func
 820              		.fpu fpv5-sp-d16
 822              	tcpip_api_call:
 823              	.LVL87:
 824              	.LFB38:
 474:Middlewares/Third_Party/LwIP/src/api/tcpip.c **** #if LWIP_TCPIP_CORE_LOCKING
 825              		.loc 1 474 1 is_stmt 1 view -0
 826              		.cfi_startproc
 827              		@ args = 0, pretend = 0, frame = 0
 828              		@ frame_needed = 0, uses_anonymous_args = 0
 474:Middlewares/Third_Party/LwIP/src/api/tcpip.c **** #if LWIP_TCPIP_CORE_LOCKING
 829              		.loc 1 474 1 is_stmt 0 view .LVU211
 830 0000 70B5     		push	{r4, r5, r6, lr}
 831              	.LCFI10:
 832              		.cfi_def_cfa_offset 16
 833              		.cfi_offset 4, -16
 834              		.cfi_offset 5, -12
 835              		.cfi_offset 6, -8
 836              		.cfi_offset 14, -4
 837 0002 0446     		mov	r4, r0
 838 0004 0D46     		mov	r5, r1
 476:Middlewares/Third_Party/LwIP/src/api/tcpip.c ****   LOCK_TCPIP_CORE();
 839              		.loc 1 476 3 is_stmt 1 view .LVU212
 477:Middlewares/Third_Party/LwIP/src/api/tcpip.c ****   err = fn(call);
 840              		.loc 1 477 3 view .LVU213
 841 0006 064E     		ldr	r6, .L71
ARM GAS  D:\Dev\msys64\tmp\ccLEQPHe.s 			page 30


 842 0008 3046     		mov	r0, r6
 843              	.LVL88:
 477:Middlewares/Third_Party/LwIP/src/api/tcpip.c ****   err = fn(call);
 844              		.loc 1 477 3 is_stmt 0 view .LVU214
 845 000a FFF7FEFF 		bl	sys_mutex_lock
 846              	.LVL89:
 478:Middlewares/Third_Party/LwIP/src/api/tcpip.c ****   UNLOCK_TCPIP_CORE();
 847              		.loc 1 478 3 is_stmt 1 view .LVU215
 478:Middlewares/Third_Party/LwIP/src/api/tcpip.c ****   UNLOCK_TCPIP_CORE();
 848              		.loc 1 478 9 is_stmt 0 view .LVU216
 849 000e 2846     		mov	r0, r5
 850 0010 A047     		blx	r4
 851              	.LVL90:
 852 0012 0446     		mov	r4, r0
 853              	.LVL91:
 479:Middlewares/Third_Party/LwIP/src/api/tcpip.c ****   return err;
 854              		.loc 1 479 3 is_stmt 1 view .LVU217
 855 0014 3046     		mov	r0, r6
 856 0016 FFF7FEFF 		bl	sys_mutex_unlock
 857              	.LVL92:
 480:Middlewares/Third_Party/LwIP/src/api/tcpip.c **** #else /* LWIP_TCPIP_CORE_LOCKING */
 858              		.loc 1 480 3 view .LVU218
 512:Middlewares/Third_Party/LwIP/src/api/tcpip.c **** 
 859              		.loc 1 512 1 is_stmt 0 view .LVU219
 860 001a 2046     		mov	r0, r4
 861 001c 70BD     		pop	{r4, r5, r6, pc}
 862              	.LVL93:
 863              	.L72:
 512:Middlewares/Third_Party/LwIP/src/api/tcpip.c **** 
 864              		.loc 1 512 1 view .LVU220
 865 001e 00BF     		.align	2
 866              	.L71:
 867 0020 00000000 		.word	lock_tcpip_core
 868              		.cfi_endproc
 869              	.LFE38:
 871              		.section	.text.tcpip_callbackmsg_new,"ax",%progbits
 872              		.align	1
 873              		.global	tcpip_callbackmsg_new
 874              		.syntax unified
 875              		.thumb
 876              		.thumb_func
 877              		.fpu fpv5-sp-d16
 879              	tcpip_callbackmsg_new:
 880              	.LVL94:
 881              	.LFB39:
 532:Middlewares/Third_Party/LwIP/src/api/tcpip.c ****   struct tcpip_msg *msg = (struct tcpip_msg *)memp_malloc(MEMP_TCPIP_MSG_API);
 882              		.loc 1 532 1 is_stmt 1 view -0
 883              		.cfi_startproc
 884              		@ args = 0, pretend = 0, frame = 0
 885              		@ frame_needed = 0, uses_anonymous_args = 0
 532:Middlewares/Third_Party/LwIP/src/api/tcpip.c ****   struct tcpip_msg *msg = (struct tcpip_msg *)memp_malloc(MEMP_TCPIP_MSG_API);
 886              		.loc 1 532 1 is_stmt 0 view .LVU222
 887 0000 38B5     		push	{r3, r4, r5, lr}
 888              	.LCFI11:
 889              		.cfi_def_cfa_offset 16
 890              		.cfi_offset 3, -16
 891              		.cfi_offset 4, -12
ARM GAS  D:\Dev\msys64\tmp\ccLEQPHe.s 			page 31


 892              		.cfi_offset 5, -8
 893              		.cfi_offset 14, -4
 894 0002 0546     		mov	r5, r0
 895 0004 0C46     		mov	r4, r1
 533:Middlewares/Third_Party/LwIP/src/api/tcpip.c ****   if (msg == NULL) {
 896              		.loc 1 533 3 is_stmt 1 view .LVU223
 533:Middlewares/Third_Party/LwIP/src/api/tcpip.c ****   if (msg == NULL) {
 897              		.loc 1 533 47 is_stmt 0 view .LVU224
 898 0006 0820     		movs	r0, #8
 899              	.LVL95:
 533:Middlewares/Third_Party/LwIP/src/api/tcpip.c ****   if (msg == NULL) {
 900              		.loc 1 533 47 view .LVU225
 901 0008 FFF7FEFF 		bl	memp_malloc
 902              	.LVL96:
 534:Middlewares/Third_Party/LwIP/src/api/tcpip.c ****     return NULL;
 903              		.loc 1 534 3 is_stmt 1 view .LVU226
 534:Middlewares/Third_Party/LwIP/src/api/tcpip.c ****     return NULL;
 904              		.loc 1 534 6 is_stmt 0 view .LVU227
 905 000c 0346     		mov	r3, r0
 906 000e 18B1     		cbz	r0, .L73
 537:Middlewares/Third_Party/LwIP/src/api/tcpip.c ****   msg->msg.cb.function = function;
 907              		.loc 1 537 3 is_stmt 1 view .LVU228
 537:Middlewares/Third_Party/LwIP/src/api/tcpip.c ****   msg->msg.cb.function = function;
 908              		.loc 1 537 13 is_stmt 0 view .LVU229
 909 0010 0222     		movs	r2, #2
 910 0012 0270     		strb	r2, [r0]
 538:Middlewares/Third_Party/LwIP/src/api/tcpip.c ****   msg->msg.cb.ctx = ctx;
 911              		.loc 1 538 3 is_stmt 1 view .LVU230
 538:Middlewares/Third_Party/LwIP/src/api/tcpip.c ****   msg->msg.cb.ctx = ctx;
 912              		.loc 1 538 24 is_stmt 0 view .LVU231
 913 0014 4560     		str	r5, [r0, #4]
 539:Middlewares/Third_Party/LwIP/src/api/tcpip.c ****   return (struct tcpip_callback_msg *)msg;
 914              		.loc 1 539 3 is_stmt 1 view .LVU232
 539:Middlewares/Third_Party/LwIP/src/api/tcpip.c ****   return (struct tcpip_callback_msg *)msg;
 915              		.loc 1 539 19 is_stmt 0 view .LVU233
 916 0016 8460     		str	r4, [r0, #8]
 540:Middlewares/Third_Party/LwIP/src/api/tcpip.c **** }
 917              		.loc 1 540 3 is_stmt 1 view .LVU234
 918              	.L73:
 541:Middlewares/Third_Party/LwIP/src/api/tcpip.c **** 
 919              		.loc 1 541 1 is_stmt 0 view .LVU235
 920 0018 1846     		mov	r0, r3
 921              	.LVL97:
 541:Middlewares/Third_Party/LwIP/src/api/tcpip.c **** 
 922              		.loc 1 541 1 view .LVU236
 923 001a 38BD     		pop	{r3, r4, r5, pc}
 541:Middlewares/Third_Party/LwIP/src/api/tcpip.c **** 
 924              		.loc 1 541 1 view .LVU237
 925              		.cfi_endproc
 926              	.LFE39:
 928              		.section	.text.tcpip_callbackmsg_delete,"ax",%progbits
 929              		.align	1
 930              		.global	tcpip_callbackmsg_delete
 931              		.syntax unified
 932              		.thumb
 933              		.thumb_func
 934              		.fpu fpv5-sp-d16
ARM GAS  D:\Dev\msys64\tmp\ccLEQPHe.s 			page 32


 936              	tcpip_callbackmsg_delete:
 937              	.LVL98:
 938              	.LFB40:
 553:Middlewares/Third_Party/LwIP/src/api/tcpip.c ****   memp_free(MEMP_TCPIP_MSG_API, msg);
 939              		.loc 1 553 1 is_stmt 1 view -0
 940              		.cfi_startproc
 941              		@ args = 0, pretend = 0, frame = 0
 942              		@ frame_needed = 0, uses_anonymous_args = 0
 553:Middlewares/Third_Party/LwIP/src/api/tcpip.c ****   memp_free(MEMP_TCPIP_MSG_API, msg);
 943              		.loc 1 553 1 is_stmt 0 view .LVU239
 944 0000 08B5     		push	{r3, lr}
 945              	.LCFI12:
 946              		.cfi_def_cfa_offset 8
 947              		.cfi_offset 3, -8
 948              		.cfi_offset 14, -4
 949 0002 0146     		mov	r1, r0
 554:Middlewares/Third_Party/LwIP/src/api/tcpip.c **** }
 950              		.loc 1 554 3 is_stmt 1 view .LVU240
 951 0004 0820     		movs	r0, #8
 952              	.LVL99:
 554:Middlewares/Third_Party/LwIP/src/api/tcpip.c **** }
 953              		.loc 1 554 3 is_stmt 0 view .LVU241
 954 0006 FFF7FEFF 		bl	memp_free
 955              	.LVL100:
 555:Middlewares/Third_Party/LwIP/src/api/tcpip.c **** 
 956              		.loc 1 555 1 view .LVU242
 957 000a 08BD     		pop	{r3, pc}
 958              		.cfi_endproc
 959              	.LFE40:
 961              		.section	.text.tcpip_callbackmsg_trycallback,"ax",%progbits
 962              		.align	1
 963              		.global	tcpip_callbackmsg_trycallback
 964              		.syntax unified
 965              		.thumb
 966              		.thumb_func
 967              		.fpu fpv5-sp-d16
 969              	tcpip_callbackmsg_trycallback:
 970              	.LVL101:
 971              	.LFB41:
 568:Middlewares/Third_Party/LwIP/src/api/tcpip.c ****   LWIP_ASSERT("Invalid mbox", sys_mbox_valid_val(tcpip_mbox));
 972              		.loc 1 568 1 is_stmt 1 view -0
 973              		.cfi_startproc
 974              		@ args = 0, pretend = 0, frame = 0
 975              		@ frame_needed = 0, uses_anonymous_args = 0
 568:Middlewares/Third_Party/LwIP/src/api/tcpip.c ****   LWIP_ASSERT("Invalid mbox", sys_mbox_valid_val(tcpip_mbox));
 976              		.loc 1 568 1 is_stmt 0 view .LVU244
 977 0000 10B5     		push	{r4, lr}
 978              	.LCFI13:
 979              		.cfi_def_cfa_offset 8
 980              		.cfi_offset 4, -8
 981              		.cfi_offset 14, -4
 982 0002 0446     		mov	r4, r0
 569:Middlewares/Third_Party/LwIP/src/api/tcpip.c ****   return sys_mbox_trypost(&tcpip_mbox, msg);
 983              		.loc 1 569 3 is_stmt 1 view .LVU245
 569:Middlewares/Third_Party/LwIP/src/api/tcpip.c ****   return sys_mbox_trypost(&tcpip_mbox, msg);
 984              		.loc 1 569 3 view .LVU246
 985 0004 0848     		ldr	r0, .L82
ARM GAS  D:\Dev\msys64\tmp\ccLEQPHe.s 			page 33


 986              	.LVL102:
 569:Middlewares/Third_Party/LwIP/src/api/tcpip.c ****   return sys_mbox_trypost(&tcpip_mbox, msg);
 987              		.loc 1 569 3 is_stmt 0 view .LVU247
 988 0006 FFF7FEFF 		bl	sys_mbox_valid
 989              	.LVL103:
 990 000a 20B1     		cbz	r0, .L81
 991              	.L79:
 569:Middlewares/Third_Party/LwIP/src/api/tcpip.c ****   return sys_mbox_trypost(&tcpip_mbox, msg);
 992              		.loc 1 569 3 is_stmt 1 discriminator 3 view .LVU248
 569:Middlewares/Third_Party/LwIP/src/api/tcpip.c ****   return sys_mbox_trypost(&tcpip_mbox, msg);
 993              		.loc 1 569 3 discriminator 3 view .LVU249
 570:Middlewares/Third_Party/LwIP/src/api/tcpip.c **** }
 994              		.loc 1 570 3 discriminator 3 view .LVU250
 570:Middlewares/Third_Party/LwIP/src/api/tcpip.c **** }
 995              		.loc 1 570 10 is_stmt 0 discriminator 3 view .LVU251
 996 000c 2146     		mov	r1, r4
 997 000e 0648     		ldr	r0, .L82
 998 0010 FFF7FEFF 		bl	sys_mbox_trypost
 999              	.LVL104:
 571:Middlewares/Third_Party/LwIP/src/api/tcpip.c **** 
 1000              		.loc 1 571 1 discriminator 3 view .LVU252
 1001 0014 10BD     		pop	{r4, pc}
 1002              	.LVL105:
 1003              	.L81:
 569:Middlewares/Third_Party/LwIP/src/api/tcpip.c ****   return sys_mbox_trypost(&tcpip_mbox, msg);
 1004              		.loc 1 569 3 is_stmt 1 discriminator 1 view .LVU253
 569:Middlewares/Third_Party/LwIP/src/api/tcpip.c ****   return sys_mbox_trypost(&tcpip_mbox, msg);
 1005              		.loc 1 569 3 discriminator 1 view .LVU254
 1006 0016 054B     		ldr	r3, .L82+4
 1007 0018 40F23922 		movw	r2, #569
 1008 001c 0449     		ldr	r1, .L82+8
 1009 001e 0548     		ldr	r0, .L82+12
 1010 0020 FFF7FEFF 		bl	printf
 1011              	.LVL106:
 1012 0024 F2E7     		b	.L79
 1013              	.L83:
 1014 0026 00BF     		.align	2
 1015              	.L82:
 1016 0028 00000000 		.word	.LANCHOR2
 1017 002c 00000000 		.word	.LC0
 1018 0030 00000000 		.word	.LC3
 1019 0034 50000000 		.word	.LC2
 1020              		.cfi_endproc
 1021              	.LFE41:
 1023              		.section	.text.tcpip_callbackmsg_trycallback_fromisr,"ax",%progbits
 1024              		.align	1
 1025              		.global	tcpip_callbackmsg_trycallback_fromisr
 1026              		.syntax unified
 1027              		.thumb
 1028              		.thumb_func
 1029              		.fpu fpv5-sp-d16
 1031              	tcpip_callbackmsg_trycallback_fromisr:
 1032              	.LVL107:
 1033              	.LFB42:
 587:Middlewares/Third_Party/LwIP/src/api/tcpip.c ****   LWIP_ASSERT("Invalid mbox", sys_mbox_valid_val(tcpip_mbox));
 1034              		.loc 1 587 1 view -0
 1035              		.cfi_startproc
ARM GAS  D:\Dev\msys64\tmp\ccLEQPHe.s 			page 34


 1036              		@ args = 0, pretend = 0, frame = 0
 1037              		@ frame_needed = 0, uses_anonymous_args = 0
 587:Middlewares/Third_Party/LwIP/src/api/tcpip.c ****   LWIP_ASSERT("Invalid mbox", sys_mbox_valid_val(tcpip_mbox));
 1038              		.loc 1 587 1 is_stmt 0 view .LVU256
 1039 0000 10B5     		push	{r4, lr}
 1040              	.LCFI14:
 1041              		.cfi_def_cfa_offset 8
 1042              		.cfi_offset 4, -8
 1043              		.cfi_offset 14, -4
 1044 0002 0446     		mov	r4, r0
 588:Middlewares/Third_Party/LwIP/src/api/tcpip.c ****   return sys_mbox_trypost_fromisr(&tcpip_mbox, msg);
 1045              		.loc 1 588 3 is_stmt 1 view .LVU257
 588:Middlewares/Third_Party/LwIP/src/api/tcpip.c ****   return sys_mbox_trypost_fromisr(&tcpip_mbox, msg);
 1046              		.loc 1 588 3 view .LVU258
 1047 0004 0848     		ldr	r0, .L88
 1048              	.LVL108:
 588:Middlewares/Third_Party/LwIP/src/api/tcpip.c ****   return sys_mbox_trypost_fromisr(&tcpip_mbox, msg);
 1049              		.loc 1 588 3 is_stmt 0 view .LVU259
 1050 0006 FFF7FEFF 		bl	sys_mbox_valid
 1051              	.LVL109:
 1052 000a 20B1     		cbz	r0, .L87
 1053              	.L85:
 588:Middlewares/Third_Party/LwIP/src/api/tcpip.c ****   return sys_mbox_trypost_fromisr(&tcpip_mbox, msg);
 1054              		.loc 1 588 3 is_stmt 1 discriminator 3 view .LVU260
 588:Middlewares/Third_Party/LwIP/src/api/tcpip.c ****   return sys_mbox_trypost_fromisr(&tcpip_mbox, msg);
 1055              		.loc 1 588 3 discriminator 3 view .LVU261
 589:Middlewares/Third_Party/LwIP/src/api/tcpip.c **** }
 1056              		.loc 1 589 3 discriminator 3 view .LVU262
 589:Middlewares/Third_Party/LwIP/src/api/tcpip.c **** }
 1057              		.loc 1 589 10 is_stmt 0 discriminator 3 view .LVU263
 1058 000c 2146     		mov	r1, r4
 1059 000e 0648     		ldr	r0, .L88
 1060 0010 FFF7FEFF 		bl	sys_mbox_trypost_fromisr
 1061              	.LVL110:
 590:Middlewares/Third_Party/LwIP/src/api/tcpip.c **** 
 1062              		.loc 1 590 1 discriminator 3 view .LVU264
 1063 0014 10BD     		pop	{r4, pc}
 1064              	.LVL111:
 1065              	.L87:
 588:Middlewares/Third_Party/LwIP/src/api/tcpip.c ****   return sys_mbox_trypost_fromisr(&tcpip_mbox, msg);
 1066              		.loc 1 588 3 is_stmt 1 discriminator 1 view .LVU265
 588:Middlewares/Third_Party/LwIP/src/api/tcpip.c ****   return sys_mbox_trypost_fromisr(&tcpip_mbox, msg);
 1067              		.loc 1 588 3 discriminator 1 view .LVU266
 1068 0016 054B     		ldr	r3, .L88+4
 1069 0018 4FF41372 		mov	r2, #588
 1070 001c 0449     		ldr	r1, .L88+8
 1071 001e 0548     		ldr	r0, .L88+12
 1072 0020 FFF7FEFF 		bl	printf
 1073              	.LVL112:
 1074 0024 F2E7     		b	.L85
 1075              	.L89:
 1076 0026 00BF     		.align	2
 1077              	.L88:
 1078 0028 00000000 		.word	.LANCHOR2
 1079 002c 00000000 		.word	.LC0
 1080 0030 00000000 		.word	.LC3
 1081 0034 50000000 		.word	.LC2
ARM GAS  D:\Dev\msys64\tmp\ccLEQPHe.s 			page 35


 1082              		.cfi_endproc
 1083              	.LFE42:
 1085              		.section	.rodata.tcpip_init.str1.4,"aMS",%progbits,1
 1086              		.align	2
 1087              	.LC4:
 1088 0000 6661696C 		.ascii	"failed to create tcpip_thread mbox\000"
 1088      65642074 
 1088      6F206372 
 1088      65617465 
 1088      20746370 
 1089 0023 00       		.align	2
 1090              	.LC5:
 1091 0024 6661696C 		.ascii	"failed to create lock_tcpip_core\000"
 1091      65642074 
 1091      6F206372 
 1091      65617465 
 1091      206C6F63 
 1092 0045 000000   		.align	2
 1093              	.LC6:
 1094 0048 5443502F 		.ascii	"TCP/IP\000"
 1094      495000
 1095              		.section	.text.tcpip_init,"ax",%progbits
 1096              		.align	1
 1097              		.global	tcpip_init
 1098              		.syntax unified
 1099              		.thumb
 1100              		.thumb_func
 1101              		.fpu fpv5-sp-d16
 1103              	tcpip_init:
 1104              	.LVL113:
 1105              	.LFB43:
 603:Middlewares/Third_Party/LwIP/src/api/tcpip.c ****   lwip_init();
 1106              		.loc 1 603 1 view -0
 1107              		.cfi_startproc
 1108              		@ args = 0, pretend = 0, frame = 0
 1109              		@ frame_needed = 0, uses_anonymous_args = 0
 603:Middlewares/Third_Party/LwIP/src/api/tcpip.c ****   lwip_init();
 1110              		.loc 1 603 1 is_stmt 0 view .LVU268
 1111 0000 30B5     		push	{r4, r5, lr}
 1112              	.LCFI15:
 1113              		.cfi_def_cfa_offset 12
 1114              		.cfi_offset 4, -12
 1115              		.cfi_offset 5, -8
 1116              		.cfi_offset 14, -4
 1117 0002 83B0     		sub	sp, sp, #12
 1118              	.LCFI16:
 1119              		.cfi_def_cfa_offset 24
 1120 0004 0546     		mov	r5, r0
 1121 0006 0C46     		mov	r4, r1
 604:Middlewares/Third_Party/LwIP/src/api/tcpip.c **** 
 1122              		.loc 1 604 3 is_stmt 1 view .LVU269
 1123 0008 FFF7FEFF 		bl	lwip_init
 1124              	.LVL114:
 606:Middlewares/Third_Party/LwIP/src/api/tcpip.c ****   tcpip_init_done_arg = arg;
 1125              		.loc 1 606 3 view .LVU270
 606:Middlewares/Third_Party/LwIP/src/api/tcpip.c ****   tcpip_init_done_arg = arg;
 1126              		.loc 1 606 19 is_stmt 0 view .LVU271
ARM GAS  D:\Dev\msys64\tmp\ccLEQPHe.s 			page 36


 1127 000c 134B     		ldr	r3, .L96
 1128 000e 1D60     		str	r5, [r3]
 607:Middlewares/Third_Party/LwIP/src/api/tcpip.c ****   if (sys_mbox_new(&tcpip_mbox, TCPIP_MBOX_SIZE) != ERR_OK) {
 1129              		.loc 1 607 3 is_stmt 1 view .LVU272
 607:Middlewares/Third_Party/LwIP/src/api/tcpip.c ****   if (sys_mbox_new(&tcpip_mbox, TCPIP_MBOX_SIZE) != ERR_OK) {
 1130              		.loc 1 607 23 is_stmt 0 view .LVU273
 1131 0010 134B     		ldr	r3, .L96+4
 1132 0012 1C60     		str	r4, [r3]
 608:Middlewares/Third_Party/LwIP/src/api/tcpip.c ****     LWIP_ASSERT("failed to create tcpip_thread mbox", 0);
 1133              		.loc 1 608 3 is_stmt 1 view .LVU274
 608:Middlewares/Third_Party/LwIP/src/api/tcpip.c ****     LWIP_ASSERT("failed to create tcpip_thread mbox", 0);
 1134              		.loc 1 608 7 is_stmt 0 view .LVU275
 1135 0014 0621     		movs	r1, #6
 1136 0016 1348     		ldr	r0, .L96+8
 1137 0018 FFF7FEFF 		bl	sys_mbox_new
 1138              	.LVL115:
 608:Middlewares/Third_Party/LwIP/src/api/tcpip.c ****     LWIP_ASSERT("failed to create tcpip_thread mbox", 0);
 1139              		.loc 1 608 6 view .LVU276
 1140 001c 70B9     		cbnz	r0, .L94
 1141              	.L91:
 609:Middlewares/Third_Party/LwIP/src/api/tcpip.c ****   }
 1142              		.loc 1 609 5 is_stmt 1 discriminator 3 view .LVU277
 609:Middlewares/Third_Party/LwIP/src/api/tcpip.c ****   }
 1143              		.loc 1 609 5 discriminator 3 view .LVU278
 612:Middlewares/Third_Party/LwIP/src/api/tcpip.c ****     LWIP_ASSERT("failed to create lock_tcpip_core", 0);
 1144              		.loc 1 612 3 discriminator 3 view .LVU279
 612:Middlewares/Third_Party/LwIP/src/api/tcpip.c ****     LWIP_ASSERT("failed to create lock_tcpip_core", 0);
 1145              		.loc 1 612 7 is_stmt 0 discriminator 3 view .LVU280
 1146 001e 1248     		ldr	r0, .L96+12
 1147 0020 FFF7FEFF 		bl	sys_mutex_new
 1148              	.LVL116:
 612:Middlewares/Third_Party/LwIP/src/api/tcpip.c ****     LWIP_ASSERT("failed to create lock_tcpip_core", 0);
 1149              		.loc 1 612 6 discriminator 3 view .LVU281
 1150 0024 90B9     		cbnz	r0, .L95
 1151              	.L92:
 613:Middlewares/Third_Party/LwIP/src/api/tcpip.c ****   }
 1152              		.loc 1 613 5 is_stmt 1 discriminator 3 view .LVU282
 613:Middlewares/Third_Party/LwIP/src/api/tcpip.c ****   }
 1153              		.loc 1 613 5 discriminator 3 view .LVU283
 617:Middlewares/Third_Party/LwIP/src/api/tcpip.c **** }
 1154              		.loc 1 617 3 discriminator 3 view .LVU284
 1155 0026 0223     		movs	r3, #2
 1156 0028 0093     		str	r3, [sp]
 1157 002a 4FF47A73 		mov	r3, #1000
 1158 002e 0022     		movs	r2, #0
 1159 0030 0E49     		ldr	r1, .L96+16
 1160 0032 0F48     		ldr	r0, .L96+20
 1161 0034 FFF7FEFF 		bl	sys_thread_new
 1162              	.LVL117:
 618:Middlewares/Third_Party/LwIP/src/api/tcpip.c **** 
 1163              		.loc 1 618 1 is_stmt 0 discriminator 3 view .LVU285
 1164 0038 03B0     		add	sp, sp, #12
 1165              	.LCFI17:
 1166              		.cfi_remember_state
 1167              		.cfi_def_cfa_offset 12
 1168              		@ sp needed
 1169 003a 30BD     		pop	{r4, r5, pc}
ARM GAS  D:\Dev\msys64\tmp\ccLEQPHe.s 			page 37


 1170              	.LVL118:
 1171              	.L94:
 1172              	.LCFI18:
 1173              		.cfi_restore_state
 609:Middlewares/Third_Party/LwIP/src/api/tcpip.c ****   }
 1174              		.loc 1 609 5 is_stmt 1 discriminator 1 view .LVU286
 609:Middlewares/Third_Party/LwIP/src/api/tcpip.c ****   }
 1175              		.loc 1 609 5 discriminator 1 view .LVU287
 609:Middlewares/Third_Party/LwIP/src/api/tcpip.c ****   }
 1176              		.loc 1 609 5 discriminator 1 view .LVU288
 609:Middlewares/Third_Party/LwIP/src/api/tcpip.c ****   }
 1177              		.loc 1 609 5 discriminator 1 view .LVU289
 1178 003c 0D4B     		ldr	r3, .L96+24
 1179 003e 40F26122 		movw	r2, #609
 1180 0042 0D49     		ldr	r1, .L96+28
 1181 0044 0D48     		ldr	r0, .L96+32
 1182 0046 FFF7FEFF 		bl	printf
 1183              	.LVL119:
 1184 004a E8E7     		b	.L91
 1185              	.L95:
 613:Middlewares/Third_Party/LwIP/src/api/tcpip.c ****   }
 1186              		.loc 1 613 5 discriminator 1 view .LVU290
 613:Middlewares/Third_Party/LwIP/src/api/tcpip.c ****   }
 1187              		.loc 1 613 5 discriminator 1 view .LVU291
 613:Middlewares/Third_Party/LwIP/src/api/tcpip.c ****   }
 1188              		.loc 1 613 5 discriminator 1 view .LVU292
 613:Middlewares/Third_Party/LwIP/src/api/tcpip.c ****   }
 1189              		.loc 1 613 5 discriminator 1 view .LVU293
 1190 004c 094B     		ldr	r3, .L96+24
 1191 004e 40F26522 		movw	r2, #613
 1192 0052 0B49     		ldr	r1, .L96+36
 1193 0054 0948     		ldr	r0, .L96+32
 1194 0056 FFF7FEFF 		bl	printf
 1195              	.LVL120:
 1196 005a E4E7     		b	.L92
 1197              	.L97:
 1198              		.align	2
 1199              	.L96:
 1200 005c 00000000 		.word	.LANCHOR0
 1201 0060 00000000 		.word	.LANCHOR1
 1202 0064 00000000 		.word	.LANCHOR2
 1203 0068 00000000 		.word	lock_tcpip_core
 1204 006c 00000000 		.word	tcpip_thread
 1205 0070 48000000 		.word	.LC6
 1206 0074 00000000 		.word	.LC0
 1207 0078 00000000 		.word	.LC4
 1208 007c 50000000 		.word	.LC2
 1209 0080 24000000 		.word	.LC5
 1210              		.cfi_endproc
 1211              	.LFE43:
 1213              		.section	.text.pbuf_free_callback,"ax",%progbits
 1214              		.align	1
 1215              		.global	pbuf_free_callback
 1216              		.syntax unified
 1217              		.thumb
 1218              		.thumb_func
 1219              		.fpu fpv5-sp-d16
ARM GAS  D:\Dev\msys64\tmp\ccLEQPHe.s 			page 38


 1221              	pbuf_free_callback:
 1222              	.LVL121:
 1223              	.LFB45:
 632:Middlewares/Third_Party/LwIP/src/api/tcpip.c **** 
 633:Middlewares/Third_Party/LwIP/src/api/tcpip.c **** /**
 634:Middlewares/Third_Party/LwIP/src/api/tcpip.c ****  * A simple wrapper function that allows you to free a pbuf from interrupt context.
 635:Middlewares/Third_Party/LwIP/src/api/tcpip.c ****  *
 636:Middlewares/Third_Party/LwIP/src/api/tcpip.c ****  * @param p The pbuf (chain) to be dereferenced.
 637:Middlewares/Third_Party/LwIP/src/api/tcpip.c ****  * @return ERR_OK if callback could be enqueued, an err_t if not
 638:Middlewares/Third_Party/LwIP/src/api/tcpip.c ****  */
 639:Middlewares/Third_Party/LwIP/src/api/tcpip.c **** err_t
 640:Middlewares/Third_Party/LwIP/src/api/tcpip.c **** pbuf_free_callback(struct pbuf *p)
 641:Middlewares/Third_Party/LwIP/src/api/tcpip.c **** {
 1224              		.loc 1 641 1 view -0
 1225              		.cfi_startproc
 1226              		@ args = 0, pretend = 0, frame = 0
 1227              		@ frame_needed = 0, uses_anonymous_args = 0
 1228              		.loc 1 641 1 is_stmt 0 view .LVU295
 1229 0000 08B5     		push	{r3, lr}
 1230              	.LCFI19:
 1231              		.cfi_def_cfa_offset 8
 1232              		.cfi_offset 3, -8
 1233              		.cfi_offset 14, -4
 1234 0002 0146     		mov	r1, r0
 642:Middlewares/Third_Party/LwIP/src/api/tcpip.c ****   return tcpip_try_callback(pbuf_free_int, p);
 1235              		.loc 1 642 3 is_stmt 1 view .LVU296
 1236              		.loc 1 642 10 is_stmt 0 view .LVU297
 1237 0004 0148     		ldr	r0, .L100
 1238              	.LVL122:
 1239              		.loc 1 642 10 view .LVU298
 1240 0006 FFF7FEFF 		bl	tcpip_try_callback
 1241              	.LVL123:
 643:Middlewares/Third_Party/LwIP/src/api/tcpip.c **** }
 1242              		.loc 1 643 1 view .LVU299
 1243 000a 08BD     		pop	{r3, pc}
 1244              	.L101:
 1245              		.align	2
 1246              	.L100:
 1247 000c 00000000 		.word	pbuf_free_int
 1248              		.cfi_endproc
 1249              	.LFE45:
 1251              		.section	.text.mem_free_callback,"ax",%progbits
 1252              		.align	1
 1253              		.global	mem_free_callback
 1254              		.syntax unified
 1255              		.thumb
 1256              		.thumb_func
 1257              		.fpu fpv5-sp-d16
 1259              	mem_free_callback:
 1260              	.LVL124:
 1261              	.LFB46:
 644:Middlewares/Third_Party/LwIP/src/api/tcpip.c **** 
 645:Middlewares/Third_Party/LwIP/src/api/tcpip.c **** /**
 646:Middlewares/Third_Party/LwIP/src/api/tcpip.c ****  * A simple wrapper function that allows you to free heap memory from
 647:Middlewares/Third_Party/LwIP/src/api/tcpip.c ****  * interrupt context.
 648:Middlewares/Third_Party/LwIP/src/api/tcpip.c ****  *
 649:Middlewares/Third_Party/LwIP/src/api/tcpip.c ****  * @param m the heap memory to free
ARM GAS  D:\Dev\msys64\tmp\ccLEQPHe.s 			page 39


 650:Middlewares/Third_Party/LwIP/src/api/tcpip.c ****  * @return ERR_OK if callback could be enqueued, an err_t if not
 651:Middlewares/Third_Party/LwIP/src/api/tcpip.c ****  */
 652:Middlewares/Third_Party/LwIP/src/api/tcpip.c **** err_t
 653:Middlewares/Third_Party/LwIP/src/api/tcpip.c **** mem_free_callback(void *m)
 654:Middlewares/Third_Party/LwIP/src/api/tcpip.c **** {
 1262              		.loc 1 654 1 is_stmt 1 view -0
 1263              		.cfi_startproc
 1264              		@ args = 0, pretend = 0, frame = 0
 1265              		@ frame_needed = 0, uses_anonymous_args = 0
 1266              		.loc 1 654 1 is_stmt 0 view .LVU301
 1267 0000 08B5     		push	{r3, lr}
 1268              	.LCFI20:
 1269              		.cfi_def_cfa_offset 8
 1270              		.cfi_offset 3, -8
 1271              		.cfi_offset 14, -4
 1272 0002 0146     		mov	r1, r0
 655:Middlewares/Third_Party/LwIP/src/api/tcpip.c ****   return tcpip_try_callback(mem_free, m);
 1273              		.loc 1 655 3 is_stmt 1 view .LVU302
 1274              		.loc 1 655 10 is_stmt 0 view .LVU303
 1275 0004 0148     		ldr	r0, .L104
 1276              	.LVL125:
 1277              		.loc 1 655 10 view .LVU304
 1278 0006 FFF7FEFF 		bl	tcpip_try_callback
 1279              	.LVL126:
 656:Middlewares/Third_Party/LwIP/src/api/tcpip.c **** }
 1280              		.loc 1 656 1 view .LVU305
 1281 000a 08BD     		pop	{r3, pc}
 1282              	.L105:
 1283              		.align	2
 1284              	.L104:
 1285 000c 00000000 		.word	mem_free
 1286              		.cfi_endproc
 1287              	.LFE46:
 1289              		.comm	lock_tcpip_core,4,4
 1290              		.section	.bss.tcpip_init_done,"aw",%nobits
 1291              		.align	2
 1292              		.set	.LANCHOR0,. + 0
 1295              	tcpip_init_done:
 1296 0000 00000000 		.space	4
 1297              		.section	.bss.tcpip_init_done_arg,"aw",%nobits
 1298              		.align	2
 1299              		.set	.LANCHOR1,. + 0
 1302              	tcpip_init_done_arg:
 1303 0000 00000000 		.space	4
 1304              		.section	.bss.tcpip_mbox,"aw",%nobits
 1305              		.align	2
 1306              		.set	.LANCHOR2,. + 0
 1309              	tcpip_mbox:
 1310 0000 00000000 		.space	4
 1311              		.text
 1312              	.Letext0:
 1313              		.file 2 "d:\\dev\\gcc-arm-none-eabi\\9_2019_q4-major\\arm-none-eabi\\include\\machine\\_default_ty
 1314              		.file 3 "d:\\dev\\gcc-arm-none-eabi\\9_2019_q4-major\\arm-none-eabi\\include\\sys\\lock.h"
 1315              		.file 4 "d:\\dev\\gcc-arm-none-eabi\\9_2019_q4-major\\arm-none-eabi\\include\\sys\\_types.h"
 1316              		.file 5 "d:\\dev\\gcc-arm-none-eabi\\9_2019_q4-major\\lib\\gcc\\arm-none-eabi\\9.2.1\\include\\std
 1317              		.file 6 "d:\\dev\\gcc-arm-none-eabi\\9_2019_q4-major\\arm-none-eabi\\include\\sys\\reent.h"
 1318              		.file 7 "d:\\dev\\gcc-arm-none-eabi\\9_2019_q4-major\\arm-none-eabi\\include\\stdlib.h"
ARM GAS  D:\Dev\msys64\tmp\ccLEQPHe.s 			page 40


 1319              		.file 8 "d:\\dev\\gcc-arm-none-eabi\\9_2019_q4-major\\arm-none-eabi\\include\\sys\\_stdint.h"
 1320              		.file 9 "d:\\dev\\gcc-arm-none-eabi\\9_2019_q4-major\\arm-none-eabi\\include\\time.h"
 1321              		.file 10 "Middlewares/Third_Party/LwIP/src/include/lwip/arch.h"
 1322              		.file 11 "d:\\dev\\gcc-arm-none-eabi\\9_2019_q4-major\\arm-none-eabi\\include\\ctype.h"
 1323              		.file 12 "Middlewares/Third_Party/LwIP/src/include/lwip/err.h"
 1324              		.file 13 "Core/Inc/FreeRTOSConfig.h"
 1325              		.file 14 "Middlewares/Third_Party/FreeRTOS/Source/include/queue.h"
 1326              		.file 15 "Middlewares/Third_Party/FreeRTOS/Source/include/semphr.h"
 1327              		.file 16 "Middlewares/Third_Party/FreeRTOS/Source/CMSIS_RTOS/cmsis_os.h"
 1328              		.file 17 "Middlewares/Third_Party/LwIP/system/arch/sys_arch.h"
 1329              		.file 18 "Middlewares/Third_Party/LwIP/src/include/lwip/timeouts.h"
 1330              		.file 19 "Middlewares/Third_Party/LwIP/src/include/lwip/ip4_addr.h"
 1331              		.file 20 "Middlewares/Third_Party/LwIP/src/include/lwip/ip_addr.h"
 1332              		.file 21 "Middlewares/Third_Party/LwIP/src/include/lwip/pbuf.h"
 1333              		.file 22 "Middlewares/Third_Party/LwIP/src/include/lwip/memp.h"
 1334              		.file 23 "Middlewares/Third_Party/LwIP/src/include/lwip/priv/memp_priv.h"
 1335              		.file 24 "Middlewares/Third_Party/LwIP/src/include/lwip/netif.h"
 1336              		.file 25 "Middlewares/Third_Party/LwIP/src/include/lwip/tcpip.h"
 1337              		.file 26 "Middlewares/Third_Party/LwIP/src/include/lwip/priv/tcpip_priv.h"
 1338              		.file 27 "Middlewares/Third_Party/LwIP/src/include/lwip/prot/ip4.h"
 1339              		.file 28 "Middlewares/Third_Party/LwIP/src/include/lwip/ip.h"
 1340              		.file 29 "Middlewares/Third_Party/LwIP/src/include/lwip/prot/ethernet.h"
 1341              		.file 30 "Middlewares/Third_Party/LwIP/src/include/netif/ethernet.h"
 1342              		.file 31 "Middlewares/Third_Party/LwIP/src/include/lwip/init.h"
 1343              		.file 32 "Middlewares/Third_Party/LwIP/src/include/lwip/sys.h"
 1344              		.file 33 "d:\\dev\\gcc-arm-none-eabi\\9_2019_q4-major\\arm-none-eabi\\include\\stdio.h"
ARM GAS  D:\Dev\msys64\tmp\ccLEQPHe.s 			page 41

