ARM GAS  D:\Dev\msys64\tmp\cc8YIWiN.s 			page 1


   1              		.cpu cortex-m7
   2              		.eabi_attribute 27, 1
   3              		.eabi_attribute 28, 1
   4              		.eabi_attribute 20, 1
   5              		.eabi_attribute 21, 1
   6              		.eabi_attribute 23, 3
   7              		.eabi_attribute 24, 1
   8              		.eabi_attribute 25, 1
   9              		.eabi_attribute 26, 1
  10              		.eabi_attribute 30, 1
  11              		.eabi_attribute 34, 1
  12              		.eabi_attribute 18, 4
  13              		.file	"timeouts.c"
  14              		.text
  15              	.Ltext0:
  16              		.cfi_sections	.debug_frame
  17              		.section	.rodata.sys_timeout_abs.str1.4,"aMS",%progbits,1
  18              		.align	2
  19              	.LC0:
  20 0000 4D696464 		.ascii	"Middlewares/Third_Party/LwIP/src/core/timeouts.c\000"
  20      6C657761 
  20      7265732F 
  20      54686972 
  20      645F5061 
  21 0031 000000   		.align	2
  22              	.LC1:
  23 0034 7379735F 		.ascii	"sys_timeout: timeout != NULL, pool MEMP_SYS_TIMEOUT"
  23      74696D65 
  23      6F75743A 
  23      2074696D 
  23      656F7574 
  24 0067 20697320 		.ascii	" is empty\000"
  24      656D7074 
  24      7900
  25 0071 000000   		.align	2
  26              	.LC2:
  27 0074 41737365 		.ascii	"Assertion \"%s\" failed at line %d in %s\012\000"
  27      7274696F 
  27      6E202225 
  27      73222066 
  27      61696C65 
  28              		.section	.text.sys_timeout_abs,"ax",%progbits
  29              		.align	1
  30              		.arch armv7e-m
  31              		.syntax unified
  32              		.thumb
  33              		.thumb_func
  34              		.fpu fpv5-sp-d16
  36              	sys_timeout_abs:
  37              	.LVL0:
  38              	.LFB32:
  39              		.file 1 "Middlewares/Third_Party/LwIP/src/core/timeouts.c"
   1:Middlewares/Third_Party/LwIP/src/core/timeouts.c **** /**
   2:Middlewares/Third_Party/LwIP/src/core/timeouts.c ****  * @file
   3:Middlewares/Third_Party/LwIP/src/core/timeouts.c ****  * Stack-internal timers implementation.
   4:Middlewares/Third_Party/LwIP/src/core/timeouts.c ****  * This file includes timer callbacks for stack-internal timers as well as
   5:Middlewares/Third_Party/LwIP/src/core/timeouts.c ****  * functions to set up or stop timers and check for expired timers.
ARM GAS  D:\Dev\msys64\tmp\cc8YIWiN.s 			page 2


   6:Middlewares/Third_Party/LwIP/src/core/timeouts.c ****  *
   7:Middlewares/Third_Party/LwIP/src/core/timeouts.c ****  */
   8:Middlewares/Third_Party/LwIP/src/core/timeouts.c **** 
   9:Middlewares/Third_Party/LwIP/src/core/timeouts.c **** /*
  10:Middlewares/Third_Party/LwIP/src/core/timeouts.c ****  * Copyright (c) 2001-2004 Swedish Institute of Computer Science.
  11:Middlewares/Third_Party/LwIP/src/core/timeouts.c ****  * All rights reserved.
  12:Middlewares/Third_Party/LwIP/src/core/timeouts.c ****  *
  13:Middlewares/Third_Party/LwIP/src/core/timeouts.c ****  * Redistribution and use in source and binary forms, with or without modification,
  14:Middlewares/Third_Party/LwIP/src/core/timeouts.c ****  * are permitted provided that the following conditions are met:
  15:Middlewares/Third_Party/LwIP/src/core/timeouts.c ****  *
  16:Middlewares/Third_Party/LwIP/src/core/timeouts.c ****  * 1. Redistributions of source code must retain the above copyright notice,
  17:Middlewares/Third_Party/LwIP/src/core/timeouts.c ****  *    this list of conditions and the following disclaimer.
  18:Middlewares/Third_Party/LwIP/src/core/timeouts.c ****  * 2. Redistributions in binary form must reproduce the above copyright notice,
  19:Middlewares/Third_Party/LwIP/src/core/timeouts.c ****  *    this list of conditions and the following disclaimer in the documentation
  20:Middlewares/Third_Party/LwIP/src/core/timeouts.c ****  *    and/or other materials provided with the distribution.
  21:Middlewares/Third_Party/LwIP/src/core/timeouts.c ****  * 3. The name of the author may not be used to endorse or promote products
  22:Middlewares/Third_Party/LwIP/src/core/timeouts.c ****  *    derived from this software without specific prior written permission.
  23:Middlewares/Third_Party/LwIP/src/core/timeouts.c ****  *
  24:Middlewares/Third_Party/LwIP/src/core/timeouts.c ****  * THIS SOFTWARE IS PROVIDED BY THE AUTHOR ``AS IS'' AND ANY EXPRESS OR IMPLIED
  25:Middlewares/Third_Party/LwIP/src/core/timeouts.c ****  * WARRANTIES, INCLUDING, BUT NOT LIMITED TO, THE IMPLIED WARRANTIES OF
  26:Middlewares/Third_Party/LwIP/src/core/timeouts.c ****  * MERCHANTABILITY AND FITNESS FOR A PARTICULAR PURPOSE ARE DISCLAIMED. IN NO EVENT
  27:Middlewares/Third_Party/LwIP/src/core/timeouts.c ****  * SHALL THE AUTHOR BE LIABLE FOR ANY DIRECT, INDIRECT, INCIDENTAL, SPECIAL,
  28:Middlewares/Third_Party/LwIP/src/core/timeouts.c ****  * EXEMPLARY, OR CONSEQUENTIAL DAMAGES (INCLUDING, BUT NOT LIMITED TO, PROCUREMENT
  29:Middlewares/Third_Party/LwIP/src/core/timeouts.c ****  * OF SUBSTITUTE GOODS OR SERVICES; LOSS OF USE, DATA, OR PROFITS; OR BUSINESS
  30:Middlewares/Third_Party/LwIP/src/core/timeouts.c ****  * INTERRUPTION) HOWEVER CAUSED AND ON ANY THEORY OF LIABILITY, WHETHER IN
  31:Middlewares/Third_Party/LwIP/src/core/timeouts.c ****  * CONTRACT, STRICT LIABILITY, OR TORT (INCLUDING NEGLIGENCE OR OTHERWISE) ARISING
  32:Middlewares/Third_Party/LwIP/src/core/timeouts.c ****  * IN ANY WAY OUT OF THE USE OF THIS SOFTWARE, EVEN IF ADVISED OF THE POSSIBILITY
  33:Middlewares/Third_Party/LwIP/src/core/timeouts.c ****  * OF SUCH DAMAGE.
  34:Middlewares/Third_Party/LwIP/src/core/timeouts.c ****  *
  35:Middlewares/Third_Party/LwIP/src/core/timeouts.c ****  * This file is part of the lwIP TCP/IP stack.
  36:Middlewares/Third_Party/LwIP/src/core/timeouts.c ****  *
  37:Middlewares/Third_Party/LwIP/src/core/timeouts.c ****  * Author: Adam Dunkels <adam@sics.se>
  38:Middlewares/Third_Party/LwIP/src/core/timeouts.c ****  *         Simon Goldschmidt
  39:Middlewares/Third_Party/LwIP/src/core/timeouts.c ****  *
  40:Middlewares/Third_Party/LwIP/src/core/timeouts.c ****  */
  41:Middlewares/Third_Party/LwIP/src/core/timeouts.c **** 
  42:Middlewares/Third_Party/LwIP/src/core/timeouts.c **** #include "lwip/opt.h"
  43:Middlewares/Third_Party/LwIP/src/core/timeouts.c **** 
  44:Middlewares/Third_Party/LwIP/src/core/timeouts.c **** #include "lwip/timeouts.h"
  45:Middlewares/Third_Party/LwIP/src/core/timeouts.c **** #include "lwip/priv/tcp_priv.h"
  46:Middlewares/Third_Party/LwIP/src/core/timeouts.c **** 
  47:Middlewares/Third_Party/LwIP/src/core/timeouts.c **** #include "lwip/def.h"
  48:Middlewares/Third_Party/LwIP/src/core/timeouts.c **** #include "lwip/memp.h"
  49:Middlewares/Third_Party/LwIP/src/core/timeouts.c **** #include "lwip/priv/tcpip_priv.h"
  50:Middlewares/Third_Party/LwIP/src/core/timeouts.c **** 
  51:Middlewares/Third_Party/LwIP/src/core/timeouts.c **** #include "lwip/ip4_frag.h"
  52:Middlewares/Third_Party/LwIP/src/core/timeouts.c **** #include "lwip/etharp.h"
  53:Middlewares/Third_Party/LwIP/src/core/timeouts.c **** #include "lwip/dhcp.h"
  54:Middlewares/Third_Party/LwIP/src/core/timeouts.c **** #include "lwip/autoip.h"
  55:Middlewares/Third_Party/LwIP/src/core/timeouts.c **** #include "lwip/igmp.h"
  56:Middlewares/Third_Party/LwIP/src/core/timeouts.c **** #include "lwip/dns.h"
  57:Middlewares/Third_Party/LwIP/src/core/timeouts.c **** #include "lwip/nd6.h"
  58:Middlewares/Third_Party/LwIP/src/core/timeouts.c **** #include "lwip/ip6_frag.h"
  59:Middlewares/Third_Party/LwIP/src/core/timeouts.c **** #include "lwip/mld6.h"
  60:Middlewares/Third_Party/LwIP/src/core/timeouts.c **** #include "lwip/dhcp6.h"
  61:Middlewares/Third_Party/LwIP/src/core/timeouts.c **** #include "lwip/sys.h"
  62:Middlewares/Third_Party/LwIP/src/core/timeouts.c **** #include "lwip/pbuf.h"
ARM GAS  D:\Dev\msys64\tmp\cc8YIWiN.s 			page 3


  63:Middlewares/Third_Party/LwIP/src/core/timeouts.c **** 
  64:Middlewares/Third_Party/LwIP/src/core/timeouts.c **** #if LWIP_DEBUG_TIMERNAMES
  65:Middlewares/Third_Party/LwIP/src/core/timeouts.c **** #define HANDLER(x) x, #x
  66:Middlewares/Third_Party/LwIP/src/core/timeouts.c **** #else /* LWIP_DEBUG_TIMERNAMES */
  67:Middlewares/Third_Party/LwIP/src/core/timeouts.c **** #define HANDLER(x) x
  68:Middlewares/Third_Party/LwIP/src/core/timeouts.c **** #endif /* LWIP_DEBUG_TIMERNAMES */
  69:Middlewares/Third_Party/LwIP/src/core/timeouts.c **** 
  70:Middlewares/Third_Party/LwIP/src/core/timeouts.c **** #define LWIP_MAX_TIMEOUT  0x7fffffff
  71:Middlewares/Third_Party/LwIP/src/core/timeouts.c **** 
  72:Middlewares/Third_Party/LwIP/src/core/timeouts.c **** /* Check if timer's expiry time is greater than time and care about u32_t wraparounds */
  73:Middlewares/Third_Party/LwIP/src/core/timeouts.c **** #define TIME_LESS_THAN(t, compare_to) ( (((u32_t)((t)-(compare_to))) > LWIP_MAX_TIMEOUT) ? 1 : 0 )
  74:Middlewares/Third_Party/LwIP/src/core/timeouts.c **** 
  75:Middlewares/Third_Party/LwIP/src/core/timeouts.c **** /** This array contains all stack-internal cyclic timers. To get the number of
  76:Middlewares/Third_Party/LwIP/src/core/timeouts.c ****  * timers, use LWIP_ARRAYSIZE() */
  77:Middlewares/Third_Party/LwIP/src/core/timeouts.c **** const struct lwip_cyclic_timer lwip_cyclic_timers[] = {
  78:Middlewares/Third_Party/LwIP/src/core/timeouts.c **** #if LWIP_TCP
  79:Middlewares/Third_Party/LwIP/src/core/timeouts.c ****   /* The TCP timer is a special case: it does not have to run always and
  80:Middlewares/Third_Party/LwIP/src/core/timeouts.c ****      is triggered to start from TCP using tcp_timer_needed() */
  81:Middlewares/Third_Party/LwIP/src/core/timeouts.c ****   {TCP_TMR_INTERVAL, HANDLER(tcp_tmr)},
  82:Middlewares/Third_Party/LwIP/src/core/timeouts.c **** #endif /* LWIP_TCP */
  83:Middlewares/Third_Party/LwIP/src/core/timeouts.c **** #if LWIP_IPV4
  84:Middlewares/Third_Party/LwIP/src/core/timeouts.c **** #if IP_REASSEMBLY
  85:Middlewares/Third_Party/LwIP/src/core/timeouts.c ****   {IP_TMR_INTERVAL, HANDLER(ip_reass_tmr)},
  86:Middlewares/Third_Party/LwIP/src/core/timeouts.c **** #endif /* IP_REASSEMBLY */
  87:Middlewares/Third_Party/LwIP/src/core/timeouts.c **** #if LWIP_ARP
  88:Middlewares/Third_Party/LwIP/src/core/timeouts.c ****   {ARP_TMR_INTERVAL, HANDLER(etharp_tmr)},
  89:Middlewares/Third_Party/LwIP/src/core/timeouts.c **** #endif /* LWIP_ARP */
  90:Middlewares/Third_Party/LwIP/src/core/timeouts.c **** #if LWIP_DHCP
  91:Middlewares/Third_Party/LwIP/src/core/timeouts.c ****   {DHCP_COARSE_TIMER_MSECS, HANDLER(dhcp_coarse_tmr)},
  92:Middlewares/Third_Party/LwIP/src/core/timeouts.c ****   {DHCP_FINE_TIMER_MSECS, HANDLER(dhcp_fine_tmr)},
  93:Middlewares/Third_Party/LwIP/src/core/timeouts.c **** #endif /* LWIP_DHCP */
  94:Middlewares/Third_Party/LwIP/src/core/timeouts.c **** #if LWIP_AUTOIP
  95:Middlewares/Third_Party/LwIP/src/core/timeouts.c ****   {AUTOIP_TMR_INTERVAL, HANDLER(autoip_tmr)},
  96:Middlewares/Third_Party/LwIP/src/core/timeouts.c **** #endif /* LWIP_AUTOIP */
  97:Middlewares/Third_Party/LwIP/src/core/timeouts.c **** #if LWIP_IGMP
  98:Middlewares/Third_Party/LwIP/src/core/timeouts.c ****   {IGMP_TMR_INTERVAL, HANDLER(igmp_tmr)},
  99:Middlewares/Third_Party/LwIP/src/core/timeouts.c **** #endif /* LWIP_IGMP */
 100:Middlewares/Third_Party/LwIP/src/core/timeouts.c **** #endif /* LWIP_IPV4 */
 101:Middlewares/Third_Party/LwIP/src/core/timeouts.c **** #if LWIP_DNS
 102:Middlewares/Third_Party/LwIP/src/core/timeouts.c ****   {DNS_TMR_INTERVAL, HANDLER(dns_tmr)},
 103:Middlewares/Third_Party/LwIP/src/core/timeouts.c **** #endif /* LWIP_DNS */
 104:Middlewares/Third_Party/LwIP/src/core/timeouts.c **** #if LWIP_IPV6
 105:Middlewares/Third_Party/LwIP/src/core/timeouts.c ****   {ND6_TMR_INTERVAL, HANDLER(nd6_tmr)},
 106:Middlewares/Third_Party/LwIP/src/core/timeouts.c **** #if LWIP_IPV6_REASS
 107:Middlewares/Third_Party/LwIP/src/core/timeouts.c ****   {IP6_REASS_TMR_INTERVAL, HANDLER(ip6_reass_tmr)},
 108:Middlewares/Third_Party/LwIP/src/core/timeouts.c **** #endif /* LWIP_IPV6_REASS */
 109:Middlewares/Third_Party/LwIP/src/core/timeouts.c **** #if LWIP_IPV6_MLD
 110:Middlewares/Third_Party/LwIP/src/core/timeouts.c ****   {MLD6_TMR_INTERVAL, HANDLER(mld6_tmr)},
 111:Middlewares/Third_Party/LwIP/src/core/timeouts.c **** #endif /* LWIP_IPV6_MLD */
 112:Middlewares/Third_Party/LwIP/src/core/timeouts.c **** #if LWIP_IPV6_DHCP6
 113:Middlewares/Third_Party/LwIP/src/core/timeouts.c ****   {DHCP6_TIMER_MSECS, HANDLER(dhcp6_tmr)},
 114:Middlewares/Third_Party/LwIP/src/core/timeouts.c **** #endif /* LWIP_IPV6_DHCP6 */
 115:Middlewares/Third_Party/LwIP/src/core/timeouts.c **** #endif /* LWIP_IPV6 */
 116:Middlewares/Third_Party/LwIP/src/core/timeouts.c **** };
 117:Middlewares/Third_Party/LwIP/src/core/timeouts.c **** const int lwip_num_cyclic_timers = LWIP_ARRAYSIZE(lwip_cyclic_timers);
 118:Middlewares/Third_Party/LwIP/src/core/timeouts.c **** 
 119:Middlewares/Third_Party/LwIP/src/core/timeouts.c **** #if LWIP_TIMERS && !LWIP_TIMERS_CUSTOM
ARM GAS  D:\Dev\msys64\tmp\cc8YIWiN.s 			page 4


 120:Middlewares/Third_Party/LwIP/src/core/timeouts.c **** 
 121:Middlewares/Third_Party/LwIP/src/core/timeouts.c **** /** The one and only timeout list */
 122:Middlewares/Third_Party/LwIP/src/core/timeouts.c **** static struct sys_timeo *next_timeout;
 123:Middlewares/Third_Party/LwIP/src/core/timeouts.c **** 
 124:Middlewares/Third_Party/LwIP/src/core/timeouts.c **** static u32_t current_timeout_due_time;
 125:Middlewares/Third_Party/LwIP/src/core/timeouts.c **** 
 126:Middlewares/Third_Party/LwIP/src/core/timeouts.c **** #if LWIP_TESTMODE
 127:Middlewares/Third_Party/LwIP/src/core/timeouts.c **** struct sys_timeo**
 128:Middlewares/Third_Party/LwIP/src/core/timeouts.c **** sys_timeouts_get_next_timeout(void)
 129:Middlewares/Third_Party/LwIP/src/core/timeouts.c **** {
 130:Middlewares/Third_Party/LwIP/src/core/timeouts.c ****   return &next_timeout;
 131:Middlewares/Third_Party/LwIP/src/core/timeouts.c **** }
 132:Middlewares/Third_Party/LwIP/src/core/timeouts.c **** #endif
 133:Middlewares/Third_Party/LwIP/src/core/timeouts.c **** 
 134:Middlewares/Third_Party/LwIP/src/core/timeouts.c **** #if LWIP_TCP
 135:Middlewares/Third_Party/LwIP/src/core/timeouts.c **** /** global variable that shows if the tcp timer is currently scheduled or not */
 136:Middlewares/Third_Party/LwIP/src/core/timeouts.c **** static int tcpip_tcp_timer_active;
 137:Middlewares/Third_Party/LwIP/src/core/timeouts.c **** 
 138:Middlewares/Third_Party/LwIP/src/core/timeouts.c **** /**
 139:Middlewares/Third_Party/LwIP/src/core/timeouts.c ****  * Timer callback function that calls tcp_tmr() and reschedules itself.
 140:Middlewares/Third_Party/LwIP/src/core/timeouts.c ****  *
 141:Middlewares/Third_Party/LwIP/src/core/timeouts.c ****  * @param arg unused argument
 142:Middlewares/Third_Party/LwIP/src/core/timeouts.c ****  */
 143:Middlewares/Third_Party/LwIP/src/core/timeouts.c **** static void
 144:Middlewares/Third_Party/LwIP/src/core/timeouts.c **** tcpip_tcp_timer(void *arg)
 145:Middlewares/Third_Party/LwIP/src/core/timeouts.c **** {
 146:Middlewares/Third_Party/LwIP/src/core/timeouts.c ****   LWIP_UNUSED_ARG(arg);
 147:Middlewares/Third_Party/LwIP/src/core/timeouts.c **** 
 148:Middlewares/Third_Party/LwIP/src/core/timeouts.c ****   /* call TCP timer handler */
 149:Middlewares/Third_Party/LwIP/src/core/timeouts.c ****   tcp_tmr();
 150:Middlewares/Third_Party/LwIP/src/core/timeouts.c ****   /* timer still needed? */
 151:Middlewares/Third_Party/LwIP/src/core/timeouts.c ****   if (tcp_active_pcbs || tcp_tw_pcbs) {
 152:Middlewares/Third_Party/LwIP/src/core/timeouts.c ****     /* restart timer */
 153:Middlewares/Third_Party/LwIP/src/core/timeouts.c ****     sys_timeout(TCP_TMR_INTERVAL, tcpip_tcp_timer, NULL);
 154:Middlewares/Third_Party/LwIP/src/core/timeouts.c ****   } else {
 155:Middlewares/Third_Party/LwIP/src/core/timeouts.c ****     /* disable timer */
 156:Middlewares/Third_Party/LwIP/src/core/timeouts.c ****     tcpip_tcp_timer_active = 0;
 157:Middlewares/Third_Party/LwIP/src/core/timeouts.c ****   }
 158:Middlewares/Third_Party/LwIP/src/core/timeouts.c **** }
 159:Middlewares/Third_Party/LwIP/src/core/timeouts.c **** 
 160:Middlewares/Third_Party/LwIP/src/core/timeouts.c **** /**
 161:Middlewares/Third_Party/LwIP/src/core/timeouts.c ****  * Called from TCP_REG when registering a new PCB:
 162:Middlewares/Third_Party/LwIP/src/core/timeouts.c ****  * the reason is to have the TCP timer only running when
 163:Middlewares/Third_Party/LwIP/src/core/timeouts.c ****  * there are active (or time-wait) PCBs.
 164:Middlewares/Third_Party/LwIP/src/core/timeouts.c ****  */
 165:Middlewares/Third_Party/LwIP/src/core/timeouts.c **** void
 166:Middlewares/Third_Party/LwIP/src/core/timeouts.c **** tcp_timer_needed(void)
 167:Middlewares/Third_Party/LwIP/src/core/timeouts.c **** {
 168:Middlewares/Third_Party/LwIP/src/core/timeouts.c ****   LWIP_ASSERT_CORE_LOCKED();
 169:Middlewares/Third_Party/LwIP/src/core/timeouts.c **** 
 170:Middlewares/Third_Party/LwIP/src/core/timeouts.c ****   /* timer is off but needed again? */
 171:Middlewares/Third_Party/LwIP/src/core/timeouts.c ****   if (!tcpip_tcp_timer_active && (tcp_active_pcbs || tcp_tw_pcbs)) {
 172:Middlewares/Third_Party/LwIP/src/core/timeouts.c ****     /* enable and start timer */
 173:Middlewares/Third_Party/LwIP/src/core/timeouts.c ****     tcpip_tcp_timer_active = 1;
 174:Middlewares/Third_Party/LwIP/src/core/timeouts.c ****     sys_timeout(TCP_TMR_INTERVAL, tcpip_tcp_timer, NULL);
 175:Middlewares/Third_Party/LwIP/src/core/timeouts.c ****   }
 176:Middlewares/Third_Party/LwIP/src/core/timeouts.c **** }
ARM GAS  D:\Dev\msys64\tmp\cc8YIWiN.s 			page 5


 177:Middlewares/Third_Party/LwIP/src/core/timeouts.c **** #endif /* LWIP_TCP */
 178:Middlewares/Third_Party/LwIP/src/core/timeouts.c **** 
 179:Middlewares/Third_Party/LwIP/src/core/timeouts.c **** static void
 180:Middlewares/Third_Party/LwIP/src/core/timeouts.c **** #if LWIP_DEBUG_TIMERNAMES
 181:Middlewares/Third_Party/LwIP/src/core/timeouts.c **** sys_timeout_abs(u32_t abs_time, sys_timeout_handler handler, void *arg, const char *handler_name)
 182:Middlewares/Third_Party/LwIP/src/core/timeouts.c **** #else /* LWIP_DEBUG_TIMERNAMES */
 183:Middlewares/Third_Party/LwIP/src/core/timeouts.c **** sys_timeout_abs(u32_t abs_time, sys_timeout_handler handler, void *arg)
 184:Middlewares/Third_Party/LwIP/src/core/timeouts.c **** #endif
 185:Middlewares/Third_Party/LwIP/src/core/timeouts.c **** {
  40              		.loc 1 185 1 view -0
  41              		.cfi_startproc
  42              		@ args = 0, pretend = 0, frame = 0
  43              		@ frame_needed = 0, uses_anonymous_args = 0
  44              		.loc 1 185 1 is_stmt 0 view .LVU1
  45 0000 F8B5     		push	{r3, r4, r5, r6, r7, lr}
  46              	.LCFI0:
  47              		.cfi_def_cfa_offset 24
  48              		.cfi_offset 3, -24
  49              		.cfi_offset 4, -20
  50              		.cfi_offset 5, -16
  51              		.cfi_offset 6, -12
  52              		.cfi_offset 7, -8
  53              		.cfi_offset 14, -4
  54 0002 0446     		mov	r4, r0
  55 0004 0F46     		mov	r7, r1
  56 0006 1646     		mov	r6, r2
 186:Middlewares/Third_Party/LwIP/src/core/timeouts.c ****   struct sys_timeo *timeout, *t;
  57              		.loc 1 186 3 is_stmt 1 view .LVU2
 187:Middlewares/Third_Party/LwIP/src/core/timeouts.c **** 
 188:Middlewares/Third_Party/LwIP/src/core/timeouts.c ****   timeout = (struct sys_timeo *)memp_malloc(MEMP_SYS_TIMEOUT);
  58              		.loc 1 188 3 view .LVU3
  59              		.loc 1 188 33 is_stmt 0 view .LVU4
  60 0008 0A20     		movs	r0, #10
  61              	.LVL1:
  62              		.loc 1 188 33 view .LVU5
  63 000a FFF7FEFF 		bl	memp_malloc
  64              	.LVL2:
 189:Middlewares/Third_Party/LwIP/src/core/timeouts.c ****   if (timeout == NULL) {
  65              		.loc 1 189 3 is_stmt 1 view .LVU6
  66              		.loc 1 189 6 is_stmt 0 view .LVU7
  67 000e 80B1     		cbz	r0, .L10
  68 0010 0546     		mov	r5, r0
 190:Middlewares/Third_Party/LwIP/src/core/timeouts.c ****     LWIP_ASSERT("sys_timeout: timeout != NULL, pool MEMP_SYS_TIMEOUT is empty", timeout != NULL);
 191:Middlewares/Third_Party/LwIP/src/core/timeouts.c ****     return;
 192:Middlewares/Third_Party/LwIP/src/core/timeouts.c ****   }
 193:Middlewares/Third_Party/LwIP/src/core/timeouts.c **** 
 194:Middlewares/Third_Party/LwIP/src/core/timeouts.c ****   timeout->next = NULL;
  69              		.loc 1 194 3 is_stmt 1 view .LVU8
  70              		.loc 1 194 17 is_stmt 0 view .LVU9
  71 0012 0023     		movs	r3, #0
  72 0014 0360     		str	r3, [r0]
 195:Middlewares/Third_Party/LwIP/src/core/timeouts.c ****   timeout->h = handler;
  73              		.loc 1 195 3 is_stmt 1 view .LVU10
  74              		.loc 1 195 14 is_stmt 0 view .LVU11
  75 0016 8760     		str	r7, [r0, #8]
 196:Middlewares/Third_Party/LwIP/src/core/timeouts.c ****   timeout->arg = arg;
  76              		.loc 1 196 3 is_stmt 1 view .LVU12
ARM GAS  D:\Dev\msys64\tmp\cc8YIWiN.s 			page 6


  77              		.loc 1 196 16 is_stmt 0 view .LVU13
  78 0018 C660     		str	r6, [r0, #12]
 197:Middlewares/Third_Party/LwIP/src/core/timeouts.c ****   timeout->time = abs_time;
  79              		.loc 1 197 3 is_stmt 1 view .LVU14
  80              		.loc 1 197 17 is_stmt 0 view .LVU15
  81 001a 4460     		str	r4, [r0, #4]
 198:Middlewares/Third_Party/LwIP/src/core/timeouts.c **** 
 199:Middlewares/Third_Party/LwIP/src/core/timeouts.c **** #if LWIP_DEBUG_TIMERNAMES
 200:Middlewares/Third_Party/LwIP/src/core/timeouts.c ****   timeout->handler_name = handler_name;
 201:Middlewares/Third_Party/LwIP/src/core/timeouts.c ****   LWIP_DEBUGF(TIMERS_DEBUG, ("sys_timeout: %p abs_time=%"U32_F" handler=%s arg=%p\n",
 202:Middlewares/Third_Party/LwIP/src/core/timeouts.c ****                              (void *)timeout, abs_time, handler_name, (void *)arg));
 203:Middlewares/Third_Party/LwIP/src/core/timeouts.c **** #endif /* LWIP_DEBUG_TIMERNAMES */
 204:Middlewares/Third_Party/LwIP/src/core/timeouts.c **** 
 205:Middlewares/Third_Party/LwIP/src/core/timeouts.c ****   if (next_timeout == NULL) {
  82              		.loc 1 205 3 is_stmt 1 view .LVU16
  83              		.loc 1 205 20 is_stmt 0 view .LVU17
  84 001c 104B     		ldr	r3, .L12
  85 001e 1A68     		ldr	r2, [r3]
  86              		.loc 1 205 6 view .LVU18
  87 0020 72B1     		cbz	r2, .L11
 206:Middlewares/Third_Party/LwIP/src/core/timeouts.c ****     next_timeout = timeout;
 207:Middlewares/Third_Party/LwIP/src/core/timeouts.c ****     return;
 208:Middlewares/Third_Party/LwIP/src/core/timeouts.c ****   }
 209:Middlewares/Third_Party/LwIP/src/core/timeouts.c ****   if (TIME_LESS_THAN(timeout->time, next_timeout->time)) {
  88              		.loc 1 209 3 is_stmt 1 view .LVU19
  89              		.loc 1 209 7 is_stmt 0 view .LVU20
  90 0022 5368     		ldr	r3, [r2, #4]
  91 0024 E31A     		subs	r3, r4, r3
  92              		.loc 1 209 6 view .LVU21
  93 0026 002B     		cmp	r3, #0
  94 0028 0FDA     		bge	.L5
 210:Middlewares/Third_Party/LwIP/src/core/timeouts.c ****     timeout->next = next_timeout;
  95              		.loc 1 210 5 is_stmt 1 view .LVU22
  96              		.loc 1 210 19 is_stmt 0 view .LVU23
  97 002a 0260     		str	r2, [r0]
 211:Middlewares/Third_Party/LwIP/src/core/timeouts.c ****     next_timeout = timeout;
  98              		.loc 1 211 5 is_stmt 1 view .LVU24
  99              		.loc 1 211 18 is_stmt 0 view .LVU25
 100 002c 0C4B     		ldr	r3, .L12
 101 002e 1860     		str	r0, [r3]
 102              	.LVL3:
 103              	.L1:
 212:Middlewares/Third_Party/LwIP/src/core/timeouts.c ****   } else {
 213:Middlewares/Third_Party/LwIP/src/core/timeouts.c ****     for (t = next_timeout; t != NULL; t = t->next) {
 214:Middlewares/Third_Party/LwIP/src/core/timeouts.c ****       if ((t->next == NULL) || TIME_LESS_THAN(timeout->time, t->next->time)) {
 215:Middlewares/Third_Party/LwIP/src/core/timeouts.c ****         timeout->next = t->next;
 216:Middlewares/Third_Party/LwIP/src/core/timeouts.c ****         t->next = timeout;
 217:Middlewares/Third_Party/LwIP/src/core/timeouts.c ****         break;
 218:Middlewares/Third_Party/LwIP/src/core/timeouts.c ****       }
 219:Middlewares/Third_Party/LwIP/src/core/timeouts.c ****     }
 220:Middlewares/Third_Party/LwIP/src/core/timeouts.c ****   }
 221:Middlewares/Third_Party/LwIP/src/core/timeouts.c **** }
 104              		.loc 1 221 1 view .LVU26
 105 0030 F8BD     		pop	{r3, r4, r5, r6, r7, pc}
 106              	.LVL4:
 107              	.L10:
 190:Middlewares/Third_Party/LwIP/src/core/timeouts.c ****     return;
ARM GAS  D:\Dev\msys64\tmp\cc8YIWiN.s 			page 7


 108              		.loc 1 190 5 is_stmt 1 discriminator 1 view .LVU27
 190:Middlewares/Third_Party/LwIP/src/core/timeouts.c ****     return;
 109              		.loc 1 190 5 discriminator 1 view .LVU28
 190:Middlewares/Third_Party/LwIP/src/core/timeouts.c ****     return;
 110              		.loc 1 190 5 discriminator 1 view .LVU29
 190:Middlewares/Third_Party/LwIP/src/core/timeouts.c ****     return;
 111              		.loc 1 190 5 discriminator 1 view .LVU30
 112 0032 0C4B     		ldr	r3, .L12+4
 113 0034 BE22     		movs	r2, #190
 114 0036 0C49     		ldr	r1, .L12+8
 115 0038 0C48     		ldr	r0, .L12+12
 116              	.LVL5:
 190:Middlewares/Third_Party/LwIP/src/core/timeouts.c ****     return;
 117              		.loc 1 190 5 is_stmt 0 discriminator 1 view .LVU31
 118 003a FFF7FEFF 		bl	printf
 119              	.LVL6:
 190:Middlewares/Third_Party/LwIP/src/core/timeouts.c ****     return;
 120              		.loc 1 190 5 is_stmt 1 discriminator 1 view .LVU32
 190:Middlewares/Third_Party/LwIP/src/core/timeouts.c ****     return;
 121              		.loc 1 190 5 discriminator 1 view .LVU33
 191:Middlewares/Third_Party/LwIP/src/core/timeouts.c ****   }
 122              		.loc 1 191 5 discriminator 1 view .LVU34
 123 003e F7E7     		b	.L1
 124              	.LVL7:
 125              	.L11:
 206:Middlewares/Third_Party/LwIP/src/core/timeouts.c ****     return;
 126              		.loc 1 206 5 view .LVU35
 206:Middlewares/Third_Party/LwIP/src/core/timeouts.c ****     return;
 127              		.loc 1 206 18 is_stmt 0 view .LVU36
 128 0040 1860     		str	r0, [r3]
 207:Middlewares/Third_Party/LwIP/src/core/timeouts.c ****   }
 129              		.loc 1 207 5 is_stmt 1 view .LVU37
 130 0042 F5E7     		b	.L1
 131              	.LVL8:
 132              	.L6:
 215:Middlewares/Third_Party/LwIP/src/core/timeouts.c ****         t->next = timeout;
 133              		.loc 1 215 9 view .LVU38
 215:Middlewares/Third_Party/LwIP/src/core/timeouts.c ****         t->next = timeout;
 134              		.loc 1 215 23 is_stmt 0 view .LVU39
 135 0044 2B60     		str	r3, [r5]
 216:Middlewares/Third_Party/LwIP/src/core/timeouts.c ****         break;
 136              		.loc 1 216 9 is_stmt 1 view .LVU40
 216:Middlewares/Third_Party/LwIP/src/core/timeouts.c ****         break;
 137              		.loc 1 216 17 is_stmt 0 view .LVU41
 138 0046 1560     		str	r5, [r2]
 217:Middlewares/Third_Party/LwIP/src/core/timeouts.c ****       }
 139              		.loc 1 217 9 is_stmt 1 view .LVU42
 140 0048 F2E7     		b	.L1
 141              	.LVL9:
 142              	.L5:
 213:Middlewares/Third_Party/LwIP/src/core/timeouts.c ****       if ((t->next == NULL) || TIME_LESS_THAN(timeout->time, t->next->time)) {
 143              		.loc 1 213 28 discriminator 1 view .LVU43
 213:Middlewares/Third_Party/LwIP/src/core/timeouts.c ****       if ((t->next == NULL) || TIME_LESS_THAN(timeout->time, t->next->time)) {
 144              		.loc 1 213 5 is_stmt 0 discriminator 1 view .LVU44
 145 004a 002A     		cmp	r2, #0
 146 004c F0D0     		beq	.L1
 214:Middlewares/Third_Party/LwIP/src/core/timeouts.c ****         timeout->next = t->next;
ARM GAS  D:\Dev\msys64\tmp\cc8YIWiN.s 			page 8


 147              		.loc 1 214 7 is_stmt 1 view .LVU45
 214:Middlewares/Third_Party/LwIP/src/core/timeouts.c ****         timeout->next = t->next;
 148              		.loc 1 214 13 is_stmt 0 view .LVU46
 149 004e 1368     		ldr	r3, [r2]
 214:Middlewares/Third_Party/LwIP/src/core/timeouts.c ****         timeout->next = t->next;
 150              		.loc 1 214 10 view .LVU47
 151 0050 002B     		cmp	r3, #0
 152 0052 F7D0     		beq	.L6
 214:Middlewares/Third_Party/LwIP/src/core/timeouts.c ****         timeout->next = t->next;
 153              		.loc 1 214 32 discriminator 1 view .LVU48
 154 0054 5968     		ldr	r1, [r3, #4]
 155 0056 611A     		subs	r1, r4, r1
 214:Middlewares/Third_Party/LwIP/src/core/timeouts.c ****         timeout->next = t->next;
 156              		.loc 1 214 29 discriminator 1 view .LVU49
 157 0058 0029     		cmp	r1, #0
 158 005a F3DB     		blt	.L6
 213:Middlewares/Third_Party/LwIP/src/core/timeouts.c ****       if ((t->next == NULL) || TIME_LESS_THAN(timeout->time, t->next->time)) {
 159              		.loc 1 213 41 view .LVU50
 160 005c 1A46     		mov	r2, r3
 161              	.LVL10:
 213:Middlewares/Third_Party/LwIP/src/core/timeouts.c ****       if ((t->next == NULL) || TIME_LESS_THAN(timeout->time, t->next->time)) {
 162              		.loc 1 213 41 view .LVU51
 163 005e F4E7     		b	.L5
 164              	.L13:
 165              		.align	2
 166              	.L12:
 167 0060 00000000 		.word	.LANCHOR0
 168 0064 00000000 		.word	.LC0
 169 0068 34000000 		.word	.LC1
 170 006c 74000000 		.word	.LC2
 171              		.cfi_endproc
 172              	.LFE32:
 174              		.section	.text.lwip_cyclic_timer,"ax",%progbits
 175              		.align	1
 176              		.syntax unified
 177              		.thumb
 178              		.thumb_func
 179              		.fpu fpv5-sp-d16
 181              	lwip_cyclic_timer:
 182              	.LVL11:
 183              	.LFB33:
 222:Middlewares/Third_Party/LwIP/src/core/timeouts.c **** 
 223:Middlewares/Third_Party/LwIP/src/core/timeouts.c **** /**
 224:Middlewares/Third_Party/LwIP/src/core/timeouts.c ****  * Timer callback function that calls cyclic->handler() and reschedules itself.
 225:Middlewares/Third_Party/LwIP/src/core/timeouts.c ****  *
 226:Middlewares/Third_Party/LwIP/src/core/timeouts.c ****  * @param arg unused argument
 227:Middlewares/Third_Party/LwIP/src/core/timeouts.c ****  */
 228:Middlewares/Third_Party/LwIP/src/core/timeouts.c **** #if !LWIP_TESTMODE
 229:Middlewares/Third_Party/LwIP/src/core/timeouts.c **** static
 230:Middlewares/Third_Party/LwIP/src/core/timeouts.c **** #endif
 231:Middlewares/Third_Party/LwIP/src/core/timeouts.c **** void
 232:Middlewares/Third_Party/LwIP/src/core/timeouts.c **** lwip_cyclic_timer(void *arg)
 233:Middlewares/Third_Party/LwIP/src/core/timeouts.c **** {
 184              		.loc 1 233 1 is_stmt 1 view -0
 185              		.cfi_startproc
 186              		@ args = 0, pretend = 0, frame = 0
 187              		@ frame_needed = 0, uses_anonymous_args = 0
ARM GAS  D:\Dev\msys64\tmp\cc8YIWiN.s 			page 9


 188              		.loc 1 233 1 is_stmt 0 view .LVU53
 189 0000 70B5     		push	{r4, r5, r6, lr}
 190              	.LCFI1:
 191              		.cfi_def_cfa_offset 16
 192              		.cfi_offset 4, -16
 193              		.cfi_offset 5, -12
 194              		.cfi_offset 6, -8
 195              		.cfi_offset 14, -4
 196 0002 0446     		mov	r4, r0
 234:Middlewares/Third_Party/LwIP/src/core/timeouts.c ****   u32_t now;
 197              		.loc 1 234 3 is_stmt 1 view .LVU54
 235:Middlewares/Third_Party/LwIP/src/core/timeouts.c ****   u32_t next_timeout_time;
 198              		.loc 1 235 3 view .LVU55
 236:Middlewares/Third_Party/LwIP/src/core/timeouts.c ****   const struct lwip_cyclic_timer *cyclic = (const struct lwip_cyclic_timer *)arg;
 199              		.loc 1 236 3 view .LVU56
 200              	.LVL12:
 237:Middlewares/Third_Party/LwIP/src/core/timeouts.c **** 
 238:Middlewares/Third_Party/LwIP/src/core/timeouts.c **** #if LWIP_DEBUG_TIMERNAMES
 239:Middlewares/Third_Party/LwIP/src/core/timeouts.c ****   LWIP_DEBUGF(TIMERS_DEBUG, ("tcpip: %s()\n", cyclic->handler_name));
 240:Middlewares/Third_Party/LwIP/src/core/timeouts.c **** #endif
 241:Middlewares/Third_Party/LwIP/src/core/timeouts.c ****   cyclic->handler();
 201              		.loc 1 241 3 view .LVU57
 202              		.loc 1 241 9 is_stmt 0 view .LVU58
 203 0004 4368     		ldr	r3, [r0, #4]
 204              		.loc 1 241 3 view .LVU59
 205 0006 9847     		blx	r3
 206              	.LVL13:
 242:Middlewares/Third_Party/LwIP/src/core/timeouts.c **** 
 243:Middlewares/Third_Party/LwIP/src/core/timeouts.c ****   now = sys_now();
 207              		.loc 1 243 3 is_stmt 1 view .LVU60
 208              		.loc 1 243 9 is_stmt 0 view .LVU61
 209 0008 FFF7FEFF 		bl	sys_now
 210              	.LVL14:
 211 000c 0546     		mov	r5, r0
 212              	.LVL15:
 244:Middlewares/Third_Party/LwIP/src/core/timeouts.c ****   next_timeout_time = (u32_t)(current_timeout_due_time + cyclic->interval_ms);  /* overflow handled
 213              		.loc 1 244 3 is_stmt 1 view .LVU62
 214              		.loc 1 244 64 is_stmt 0 view .LVU63
 215 000e 2668     		ldr	r6, [r4]
 216              		.loc 1 244 23 view .LVU64
 217 0010 084B     		ldr	r3, .L18
 218 0012 1868     		ldr	r0, [r3]
 219              	.LVL16:
 220              		.loc 1 244 21 view .LVU65
 221 0014 3044     		add	r0, r0, r6
 222              	.LVL17:
 245:Middlewares/Third_Party/LwIP/src/core/timeouts.c ****   if (TIME_LESS_THAN(next_timeout_time, now)) {
 223              		.loc 1 245 3 is_stmt 1 view .LVU66
 224              		.loc 1 245 7 is_stmt 0 view .LVU67
 225 0016 431B     		subs	r3, r0, r5
 226              		.loc 1 245 6 view .LVU68
 227 0018 002B     		cmp	r3, #0
 228 001a 05DA     		bge	.L15
 246:Middlewares/Third_Party/LwIP/src/core/timeouts.c ****     /* timer would immediately expire again -> "overload" -> restart without any correction */
 247:Middlewares/Third_Party/LwIP/src/core/timeouts.c **** #if LWIP_DEBUG_TIMERNAMES
 248:Middlewares/Third_Party/LwIP/src/core/timeouts.c ****     sys_timeout_abs((u32_t)(now + cyclic->interval_ms), lwip_cyclic_timer, arg, cyclic->handler_nam
 249:Middlewares/Third_Party/LwIP/src/core/timeouts.c **** #else
ARM GAS  D:\Dev\msys64\tmp\cc8YIWiN.s 			page 10


 250:Middlewares/Third_Party/LwIP/src/core/timeouts.c ****     sys_timeout_abs((u32_t)(now + cyclic->interval_ms), lwip_cyclic_timer, arg);
 229              		.loc 1 250 5 is_stmt 1 view .LVU69
 230 001c 2246     		mov	r2, r4
 231 001e 0649     		ldr	r1, .L18+4
 232 0020 7019     		adds	r0, r6, r5
 233              	.LVL18:
 234              		.loc 1 250 5 is_stmt 0 view .LVU70
 235 0022 FFF7FEFF 		bl	sys_timeout_abs
 236              	.LVL19:
 237              	.L14:
 251:Middlewares/Third_Party/LwIP/src/core/timeouts.c **** #endif
 252:Middlewares/Third_Party/LwIP/src/core/timeouts.c **** 
 253:Middlewares/Third_Party/LwIP/src/core/timeouts.c ****   } else {
 254:Middlewares/Third_Party/LwIP/src/core/timeouts.c ****     /* correct cyclic interval with handler execution delay and sys_check_timeouts jitter */
 255:Middlewares/Third_Party/LwIP/src/core/timeouts.c **** #if LWIP_DEBUG_TIMERNAMES
 256:Middlewares/Third_Party/LwIP/src/core/timeouts.c ****     sys_timeout_abs(next_timeout_time, lwip_cyclic_timer, arg, cyclic->handler_name);
 257:Middlewares/Third_Party/LwIP/src/core/timeouts.c **** #else
 258:Middlewares/Third_Party/LwIP/src/core/timeouts.c ****     sys_timeout_abs(next_timeout_time, lwip_cyclic_timer, arg);
 259:Middlewares/Third_Party/LwIP/src/core/timeouts.c **** #endif
 260:Middlewares/Third_Party/LwIP/src/core/timeouts.c ****   }
 261:Middlewares/Third_Party/LwIP/src/core/timeouts.c **** }
 238              		.loc 1 261 1 view .LVU71
 239 0026 70BD     		pop	{r4, r5, r6, pc}
 240              	.LVL20:
 241              	.L15:
 258:Middlewares/Third_Party/LwIP/src/core/timeouts.c **** #endif
 242              		.loc 1 258 5 is_stmt 1 view .LVU72
 243 0028 2246     		mov	r2, r4
 244 002a 0349     		ldr	r1, .L18+4
 245 002c FFF7FEFF 		bl	sys_timeout_abs
 246              	.LVL21:
 247              		.loc 1 261 1 is_stmt 0 view .LVU73
 248 0030 F9E7     		b	.L14
 249              	.L19:
 250 0032 00BF     		.align	2
 251              	.L18:
 252 0034 00000000 		.word	.LANCHOR1
 253 0038 00000000 		.word	lwip_cyclic_timer
 254              		.cfi_endproc
 255              	.LFE33:
 257              		.section	.rodata.sys_timeout.str1.4,"aMS",%progbits,1
 258              		.align	2
 259              	.LC3:
 260 0000 54696D65 		.ascii	"Timeout time too long, max is LWIP_UINT32_MAX/4 mse"
 260      6F757420 
 260      74696D65 
 260      20746F6F 
 260      206C6F6E 
 261 0033 637300   		.ascii	"cs\000"
 262              		.section	.text.sys_timeout,"ax",%progbits
 263              		.align	1
 264              		.global	sys_timeout
 265              		.syntax unified
 266              		.thumb
 267              		.thumb_func
 268              		.fpu fpv5-sp-d16
 270              	sys_timeout:
ARM GAS  D:\Dev\msys64\tmp\cc8YIWiN.s 			page 11


 271              	.LVL22:
 272              	.LFB35:
 262:Middlewares/Third_Party/LwIP/src/core/timeouts.c **** 
 263:Middlewares/Third_Party/LwIP/src/core/timeouts.c **** /** Initialize this module */
 264:Middlewares/Third_Party/LwIP/src/core/timeouts.c **** void sys_timeouts_init(void)
 265:Middlewares/Third_Party/LwIP/src/core/timeouts.c **** {
 266:Middlewares/Third_Party/LwIP/src/core/timeouts.c ****   size_t i;
 267:Middlewares/Third_Party/LwIP/src/core/timeouts.c ****   /* tcp_tmr() at index 0 is started on demand */
 268:Middlewares/Third_Party/LwIP/src/core/timeouts.c ****   for (i = (LWIP_TCP ? 1 : 0); i < LWIP_ARRAYSIZE(lwip_cyclic_timers); i++) {
 269:Middlewares/Third_Party/LwIP/src/core/timeouts.c ****     /* we have to cast via size_t to get rid of const warning
 270:Middlewares/Third_Party/LwIP/src/core/timeouts.c ****       (this is OK as cyclic_timer() casts back to const* */
 271:Middlewares/Third_Party/LwIP/src/core/timeouts.c ****     sys_timeout(lwip_cyclic_timers[i].interval_ms, lwip_cyclic_timer, LWIP_CONST_CAST(void *, &lwip
 272:Middlewares/Third_Party/LwIP/src/core/timeouts.c ****   }
 273:Middlewares/Third_Party/LwIP/src/core/timeouts.c **** }
 274:Middlewares/Third_Party/LwIP/src/core/timeouts.c **** 
 275:Middlewares/Third_Party/LwIP/src/core/timeouts.c **** /**
 276:Middlewares/Third_Party/LwIP/src/core/timeouts.c ****  * Create a one-shot timer (aka timeout). Timeouts are processed in the
 277:Middlewares/Third_Party/LwIP/src/core/timeouts.c ****  * following cases:
 278:Middlewares/Third_Party/LwIP/src/core/timeouts.c ****  * - while waiting for a message using sys_timeouts_mbox_fetch()
 279:Middlewares/Third_Party/LwIP/src/core/timeouts.c ****  * - by calling sys_check_timeouts() (NO_SYS==1 only)
 280:Middlewares/Third_Party/LwIP/src/core/timeouts.c ****  *
 281:Middlewares/Third_Party/LwIP/src/core/timeouts.c ****  * @param msecs time in milliseconds after that the timer should expire
 282:Middlewares/Third_Party/LwIP/src/core/timeouts.c ****  * @param handler callback function to call when msecs have elapsed
 283:Middlewares/Third_Party/LwIP/src/core/timeouts.c ****  * @param arg argument to pass to the callback function
 284:Middlewares/Third_Party/LwIP/src/core/timeouts.c ****  */
 285:Middlewares/Third_Party/LwIP/src/core/timeouts.c **** #if LWIP_DEBUG_TIMERNAMES
 286:Middlewares/Third_Party/LwIP/src/core/timeouts.c **** void
 287:Middlewares/Third_Party/LwIP/src/core/timeouts.c **** sys_timeout_debug(u32_t msecs, sys_timeout_handler handler, void *arg, const char *handler_name)
 288:Middlewares/Third_Party/LwIP/src/core/timeouts.c **** #else /* LWIP_DEBUG_TIMERNAMES */
 289:Middlewares/Third_Party/LwIP/src/core/timeouts.c **** void
 290:Middlewares/Third_Party/LwIP/src/core/timeouts.c **** sys_timeout(u32_t msecs, sys_timeout_handler handler, void *arg)
 291:Middlewares/Third_Party/LwIP/src/core/timeouts.c **** #endif /* LWIP_DEBUG_TIMERNAMES */
 292:Middlewares/Third_Party/LwIP/src/core/timeouts.c **** {
 273              		.loc 1 292 1 is_stmt 1 view -0
 274              		.cfi_startproc
 275              		@ args = 0, pretend = 0, frame = 0
 276              		@ frame_needed = 0, uses_anonymous_args = 0
 277              		.loc 1 292 1 is_stmt 0 view .LVU75
 278 0000 70B5     		push	{r4, r5, r6, lr}
 279              	.LCFI2:
 280              		.cfi_def_cfa_offset 16
 281              		.cfi_offset 4, -16
 282              		.cfi_offset 5, -12
 283              		.cfi_offset 6, -8
 284              		.cfi_offset 14, -4
 285 0002 0446     		mov	r4, r0
 286 0004 0D46     		mov	r5, r1
 287 0006 1646     		mov	r6, r2
 293:Middlewares/Third_Party/LwIP/src/core/timeouts.c ****   u32_t next_timeout_time;
 288              		.loc 1 293 3 is_stmt 1 view .LVU76
 294:Middlewares/Third_Party/LwIP/src/core/timeouts.c **** 
 295:Middlewares/Third_Party/LwIP/src/core/timeouts.c ****   LWIP_ASSERT_CORE_LOCKED();
 289              		.loc 1 295 28 view .LVU77
 296:Middlewares/Third_Party/LwIP/src/core/timeouts.c **** 
 297:Middlewares/Third_Party/LwIP/src/core/timeouts.c ****   LWIP_ASSERT("Timeout time too long, max is LWIP_UINT32_MAX/4 msecs", msecs <= (LWIP_UINT32_MAX / 
 290              		.loc 1 297 3 view .LVU78
 291              		.loc 1 297 3 view .LVU79
ARM GAS  D:\Dev\msys64\tmp\cc8YIWiN.s 			page 12


 292 0008 B0F1804F 		cmp	r0, #1073741824
 293 000c 07D2     		bcs	.L23
 294              	.LVL23:
 295              	.L21:
 296              		.loc 1 297 3 discriminator 3 view .LVU80
 297              		.loc 1 297 3 discriminator 3 view .LVU81
 298:Middlewares/Third_Party/LwIP/src/core/timeouts.c **** 
 299:Middlewares/Third_Party/LwIP/src/core/timeouts.c ****   next_timeout_time = (u32_t)(sys_now() + msecs); /* overflow handled by TIME_LESS_THAN macro */ 
 298              		.loc 1 299 3 discriminator 3 view .LVU82
 299              		.loc 1 299 31 is_stmt 0 discriminator 3 view .LVU83
 300 000e FFF7FEFF 		bl	sys_now
 301              	.LVL24:
 300:Middlewares/Third_Party/LwIP/src/core/timeouts.c **** 
 301:Middlewares/Third_Party/LwIP/src/core/timeouts.c **** #if LWIP_DEBUG_TIMERNAMES
 302:Middlewares/Third_Party/LwIP/src/core/timeouts.c ****   sys_timeout_abs(next_timeout_time, handler, arg, handler_name);
 303:Middlewares/Third_Party/LwIP/src/core/timeouts.c **** #else
 304:Middlewares/Third_Party/LwIP/src/core/timeouts.c ****   sys_timeout_abs(next_timeout_time, handler, arg);
 302              		.loc 1 304 3 is_stmt 1 discriminator 3 view .LVU84
 303 0012 3246     		mov	r2, r6
 304 0014 2946     		mov	r1, r5
 305 0016 2044     		add	r0, r0, r4
 306              	.LVL25:
 307              		.loc 1 304 3 is_stmt 0 discriminator 3 view .LVU85
 308 0018 FFF7FEFF 		bl	sys_timeout_abs
 309              	.LVL26:
 305:Middlewares/Third_Party/LwIP/src/core/timeouts.c **** #endif
 306:Middlewares/Third_Party/LwIP/src/core/timeouts.c **** }
 310              		.loc 1 306 1 discriminator 3 view .LVU86
 311 001c 70BD     		pop	{r4, r5, r6, pc}
 312              	.LVL27:
 313              	.L23:
 297:Middlewares/Third_Party/LwIP/src/core/timeouts.c **** 
 314              		.loc 1 297 3 is_stmt 1 discriminator 1 view .LVU87
 297:Middlewares/Third_Party/LwIP/src/core/timeouts.c **** 
 315              		.loc 1 297 3 discriminator 1 view .LVU88
 316 001e 044B     		ldr	r3, .L24
 317 0020 40F22912 		movw	r2, #297
 318              	.LVL28:
 297:Middlewares/Third_Party/LwIP/src/core/timeouts.c **** 
 319              		.loc 1 297 3 is_stmt 0 discriminator 1 view .LVU89
 320 0024 0349     		ldr	r1, .L24+4
 321              	.LVL29:
 297:Middlewares/Third_Party/LwIP/src/core/timeouts.c **** 
 322              		.loc 1 297 3 discriminator 1 view .LVU90
 323 0026 0448     		ldr	r0, .L24+8
 324              	.LVL30:
 297:Middlewares/Third_Party/LwIP/src/core/timeouts.c **** 
 325              		.loc 1 297 3 discriminator 1 view .LVU91
 326 0028 FFF7FEFF 		bl	printf
 327              	.LVL31:
 328 002c EFE7     		b	.L21
 329              	.L25:
 330 002e 00BF     		.align	2
 331              	.L24:
 332 0030 00000000 		.word	.LC0
 333 0034 00000000 		.word	.LC3
 334 0038 74000000 		.word	.LC2
ARM GAS  D:\Dev\msys64\tmp\cc8YIWiN.s 			page 13


 335              		.cfi_endproc
 336              	.LFE35:
 338              		.section	.text.tcp_timer_needed,"ax",%progbits
 339              		.align	1
 340              		.global	tcp_timer_needed
 341              		.syntax unified
 342              		.thumb
 343              		.thumb_func
 344              		.fpu fpv5-sp-d16
 346              	tcp_timer_needed:
 347              	.LFB31:
 167:Middlewares/Third_Party/LwIP/src/core/timeouts.c ****   LWIP_ASSERT_CORE_LOCKED();
 348              		.loc 1 167 1 is_stmt 1 view -0
 349              		.cfi_startproc
 350              		@ args = 0, pretend = 0, frame = 0
 351              		@ frame_needed = 0, uses_anonymous_args = 0
 352 0000 08B5     		push	{r3, lr}
 353              	.LCFI3:
 354              		.cfi_def_cfa_offset 8
 355              		.cfi_offset 3, -8
 356              		.cfi_offset 14, -4
 168:Middlewares/Third_Party/LwIP/src/core/timeouts.c **** 
 357              		.loc 1 168 28 view .LVU93
 171:Middlewares/Third_Party/LwIP/src/core/timeouts.c ****     /* enable and start timer */
 358              		.loc 1 171 3 view .LVU94
 171:Middlewares/Third_Party/LwIP/src/core/timeouts.c ****     /* enable and start timer */
 359              		.loc 1 171 7 is_stmt 0 view .LVU95
 360 0002 0A4B     		ldr	r3, .L31
 361 0004 1B68     		ldr	r3, [r3]
 171:Middlewares/Third_Party/LwIP/src/core/timeouts.c ****     /* enable and start timer */
 362              		.loc 1 171 6 view .LVU96
 363 0006 53B9     		cbnz	r3, .L26
 171:Middlewares/Third_Party/LwIP/src/core/timeouts.c ****     /* enable and start timer */
 364              		.loc 1 171 35 discriminator 1 view .LVU97
 365 0008 094B     		ldr	r3, .L31+4
 366 000a 1B68     		ldr	r3, [r3]
 171:Middlewares/Third_Party/LwIP/src/core/timeouts.c ****     /* enable and start timer */
 367              		.loc 1 171 31 discriminator 1 view .LVU98
 368 000c 43B1     		cbz	r3, .L30
 369              	.L28:
 173:Middlewares/Third_Party/LwIP/src/core/timeouts.c ****     sys_timeout(TCP_TMR_INTERVAL, tcpip_tcp_timer, NULL);
 370              		.loc 1 173 5 is_stmt 1 view .LVU99
 173:Middlewares/Third_Party/LwIP/src/core/timeouts.c ****     sys_timeout(TCP_TMR_INTERVAL, tcpip_tcp_timer, NULL);
 371              		.loc 1 173 28 is_stmt 0 view .LVU100
 372 000e 074B     		ldr	r3, .L31
 373 0010 0122     		movs	r2, #1
 374 0012 1A60     		str	r2, [r3]
 174:Middlewares/Third_Party/LwIP/src/core/timeouts.c ****   }
 375              		.loc 1 174 5 is_stmt 1 view .LVU101
 376 0014 0022     		movs	r2, #0
 377 0016 0749     		ldr	r1, .L31+8
 378 0018 FA20     		movs	r0, #250
 379 001a FFF7FEFF 		bl	sys_timeout
 380              	.LVL32:
 381              	.L26:
 176:Middlewares/Third_Party/LwIP/src/core/timeouts.c **** #endif /* LWIP_TCP */
 382              		.loc 1 176 1 is_stmt 0 view .LVU102
ARM GAS  D:\Dev\msys64\tmp\cc8YIWiN.s 			page 14


 383 001e 08BD     		pop	{r3, pc}
 384              	.L30:
 171:Middlewares/Third_Party/LwIP/src/core/timeouts.c ****     /* enable and start timer */
 385              		.loc 1 171 51 discriminator 2 view .LVU103
 386 0020 054B     		ldr	r3, .L31+12
 387 0022 1B68     		ldr	r3, [r3]
 388 0024 002B     		cmp	r3, #0
 389 0026 F2D1     		bne	.L28
 390 0028 F9E7     		b	.L26
 391              	.L32:
 392 002a 00BF     		.align	2
 393              	.L31:
 394 002c 00000000 		.word	.LANCHOR2
 395 0030 00000000 		.word	tcp_active_pcbs
 396 0034 00000000 		.word	tcpip_tcp_timer
 397 0038 00000000 		.word	tcp_tw_pcbs
 398              		.cfi_endproc
 399              	.LFE31:
 401              		.section	.text.tcpip_tcp_timer,"ax",%progbits
 402              		.align	1
 403              		.syntax unified
 404              		.thumb
 405              		.thumb_func
 406              		.fpu fpv5-sp-d16
 408              	tcpip_tcp_timer:
 409              	.LVL33:
 410              	.LFB30:
 145:Middlewares/Third_Party/LwIP/src/core/timeouts.c ****   LWIP_UNUSED_ARG(arg);
 411              		.loc 1 145 1 is_stmt 1 view -0
 412              		.cfi_startproc
 413              		@ args = 0, pretend = 0, frame = 0
 414              		@ frame_needed = 0, uses_anonymous_args = 0
 145:Middlewares/Third_Party/LwIP/src/core/timeouts.c ****   LWIP_UNUSED_ARG(arg);
 415              		.loc 1 145 1 is_stmt 0 view .LVU105
 416 0000 08B5     		push	{r3, lr}
 417              	.LCFI4:
 418              		.cfi_def_cfa_offset 8
 419              		.cfi_offset 3, -8
 420              		.cfi_offset 14, -4
 146:Middlewares/Third_Party/LwIP/src/core/timeouts.c **** 
 421              		.loc 1 146 3 is_stmt 1 view .LVU106
 149:Middlewares/Third_Party/LwIP/src/core/timeouts.c ****   /* timer still needed? */
 422              		.loc 1 149 3 view .LVU107
 423 0002 FFF7FEFF 		bl	tcp_tmr
 424              	.LVL34:
 151:Middlewares/Third_Party/LwIP/src/core/timeouts.c ****     /* restart timer */
 425              		.loc 1 151 3 view .LVU108
 151:Middlewares/Third_Party/LwIP/src/core/timeouts.c ****     /* restart timer */
 426              		.loc 1 151 7 is_stmt 0 view .LVU109
 427 0006 084B     		ldr	r3, .L39
 428 0008 1B68     		ldr	r3, [r3]
 151:Middlewares/Third_Party/LwIP/src/core/timeouts.c ****     /* restart timer */
 429              		.loc 1 151 6 view .LVU110
 430 000a 2BB1     		cbz	r3, .L38
 431              	.L34:
 153:Middlewares/Third_Party/LwIP/src/core/timeouts.c ****   } else {
 432              		.loc 1 153 5 is_stmt 1 view .LVU111
ARM GAS  D:\Dev\msys64\tmp\cc8YIWiN.s 			page 15


 433 000c 0022     		movs	r2, #0
 434 000e 0749     		ldr	r1, .L39+4
 435 0010 FA20     		movs	r0, #250
 436 0012 FFF7FEFF 		bl	sys_timeout
 437              	.LVL35:
 438              	.L33:
 158:Middlewares/Third_Party/LwIP/src/core/timeouts.c **** 
 439              		.loc 1 158 1 is_stmt 0 view .LVU112
 440 0016 08BD     		pop	{r3, pc}
 441              	.L38:
 151:Middlewares/Third_Party/LwIP/src/core/timeouts.c ****     /* restart timer */
 442              		.loc 1 151 23 discriminator 1 view .LVU113
 443 0018 054B     		ldr	r3, .L39+8
 444 001a 1B68     		ldr	r3, [r3]
 445 001c 002B     		cmp	r3, #0
 446 001e F5D1     		bne	.L34
 156:Middlewares/Third_Party/LwIP/src/core/timeouts.c ****   }
 447              		.loc 1 156 5 is_stmt 1 view .LVU114
 156:Middlewares/Third_Party/LwIP/src/core/timeouts.c ****   }
 448              		.loc 1 156 28 is_stmt 0 view .LVU115
 449 0020 044B     		ldr	r3, .L39+12
 450 0022 0022     		movs	r2, #0
 451 0024 1A60     		str	r2, [r3]
 158:Middlewares/Third_Party/LwIP/src/core/timeouts.c **** 
 452              		.loc 1 158 1 view .LVU116
 453 0026 F6E7     		b	.L33
 454              	.L40:
 455              		.align	2
 456              	.L39:
 457 0028 00000000 		.word	tcp_active_pcbs
 458 002c 00000000 		.word	tcpip_tcp_timer
 459 0030 00000000 		.word	tcp_tw_pcbs
 460 0034 00000000 		.word	.LANCHOR2
 461              		.cfi_endproc
 462              	.LFE30:
 464              		.section	.text.sys_timeouts_init,"ax",%progbits
 465              		.align	1
 466              		.global	sys_timeouts_init
 467              		.syntax unified
 468              		.thumb
 469              		.thumb_func
 470              		.fpu fpv5-sp-d16
 472              	sys_timeouts_init:
 473              	.LFB34:
 265:Middlewares/Third_Party/LwIP/src/core/timeouts.c ****   size_t i;
 474              		.loc 1 265 1 is_stmt 1 view -0
 475              		.cfi_startproc
 476              		@ args = 0, pretend = 0, frame = 0
 477              		@ frame_needed = 0, uses_anonymous_args = 0
 478 0000 10B5     		push	{r4, lr}
 479              	.LCFI5:
 480              		.cfi_def_cfa_offset 8
 481              		.cfi_offset 4, -8
 482              		.cfi_offset 14, -4
 266:Middlewares/Third_Party/LwIP/src/core/timeouts.c ****   /* tcp_tmr() at index 0 is started on demand */
 483              		.loc 1 266 3 view .LVU118
 268:Middlewares/Third_Party/LwIP/src/core/timeouts.c ****     /* we have to cast via size_t to get rid of const warning
ARM GAS  D:\Dev\msys64\tmp\cc8YIWiN.s 			page 16


 484              		.loc 1 268 3 view .LVU119
 485              	.LVL36:
 268:Middlewares/Third_Party/LwIP/src/core/timeouts.c ****     /* we have to cast via size_t to get rid of const warning
 486              		.loc 1 268 10 is_stmt 0 view .LVU120
 487 0002 0124     		movs	r4, #1
 268:Middlewares/Third_Party/LwIP/src/core/timeouts.c ****     /* we have to cast via size_t to get rid of const warning
 488              		.loc 1 268 3 view .LVU121
 489 0004 08E0     		b	.L42
 490              	.LVL37:
 491              	.L43:
 271:Middlewares/Third_Party/LwIP/src/core/timeouts.c ****   }
 492              		.loc 1 271 5 is_stmt 1 discriminator 3 view .LVU122
 271:Middlewares/Third_Party/LwIP/src/core/timeouts.c ****   }
 493              		.loc 1 271 71 is_stmt 0 discriminator 3 view .LVU123
 494 0006 064B     		ldr	r3, .L45
 271:Middlewares/Third_Party/LwIP/src/core/timeouts.c ****   }
 495              		.loc 1 271 5 discriminator 3 view .LVU124
 496 0008 03EBC402 		add	r2, r3, r4, lsl #3
 497 000c 0549     		ldr	r1, .L45+4
 498 000e 53F83400 		ldr	r0, [r3, r4, lsl #3]
 499 0012 FFF7FEFF 		bl	sys_timeout
 500              	.LVL38:
 268:Middlewares/Third_Party/LwIP/src/core/timeouts.c ****     /* we have to cast via size_t to get rid of const warning
 501              		.loc 1 268 72 is_stmt 1 discriminator 3 view .LVU125
 268:Middlewares/Third_Party/LwIP/src/core/timeouts.c ****     /* we have to cast via size_t to get rid of const warning
 502              		.loc 1 268 73 is_stmt 0 discriminator 3 view .LVU126
 503 0016 0134     		adds	r4, r4, #1
 504              	.LVL39:
 505              	.L42:
 268:Middlewares/Third_Party/LwIP/src/core/timeouts.c ****     /* we have to cast via size_t to get rid of const warning
 506              		.loc 1 268 32 is_stmt 1 discriminator 1 view .LVU127
 268:Middlewares/Third_Party/LwIP/src/core/timeouts.c ****     /* we have to cast via size_t to get rid of const warning
 507              		.loc 1 268 3 is_stmt 0 discriminator 1 view .LVU128
 508 0018 042C     		cmp	r4, #4
 509 001a F4D9     		bls	.L43
 273:Middlewares/Third_Party/LwIP/src/core/timeouts.c **** 
 510              		.loc 1 273 1 view .LVU129
 511 001c 10BD     		pop	{r4, pc}
 512              	.LVL40:
 513              	.L46:
 273:Middlewares/Third_Party/LwIP/src/core/timeouts.c **** 
 514              		.loc 1 273 1 view .LVU130
 515 001e 00BF     		.align	2
 516              	.L45:
 517 0020 00000000 		.word	.LANCHOR3
 518 0024 00000000 		.word	lwip_cyclic_timer
 519              		.cfi_endproc
 520              	.LFE34:
 522              		.section	.text.sys_untimeout,"ax",%progbits
 523              		.align	1
 524              		.global	sys_untimeout
 525              		.syntax unified
 526              		.thumb
 527              		.thumb_func
 528              		.fpu fpv5-sp-d16
 530              	sys_untimeout:
 531              	.LVL41:
ARM GAS  D:\Dev\msys64\tmp\cc8YIWiN.s 			page 17


 532              	.LFB36:
 307:Middlewares/Third_Party/LwIP/src/core/timeouts.c **** 
 308:Middlewares/Third_Party/LwIP/src/core/timeouts.c **** /**
 309:Middlewares/Third_Party/LwIP/src/core/timeouts.c ****  * Go through timeout list (for this task only) and remove the first matching
 310:Middlewares/Third_Party/LwIP/src/core/timeouts.c ****  * entry (subsequent entries remain untouched), even though the timeout has not
 311:Middlewares/Third_Party/LwIP/src/core/timeouts.c ****  * triggered yet.
 312:Middlewares/Third_Party/LwIP/src/core/timeouts.c ****  *
 313:Middlewares/Third_Party/LwIP/src/core/timeouts.c ****  * @param handler callback function that would be called by the timeout
 314:Middlewares/Third_Party/LwIP/src/core/timeouts.c ****  * @param arg callback argument that would be passed to handler
 315:Middlewares/Third_Party/LwIP/src/core/timeouts.c **** */
 316:Middlewares/Third_Party/LwIP/src/core/timeouts.c **** void
 317:Middlewares/Third_Party/LwIP/src/core/timeouts.c **** sys_untimeout(sys_timeout_handler handler, void *arg)
 318:Middlewares/Third_Party/LwIP/src/core/timeouts.c **** {
 533              		.loc 1 318 1 is_stmt 1 view -0
 534              		.cfi_startproc
 535              		@ args = 0, pretend = 0, frame = 0
 536              		@ frame_needed = 0, uses_anonymous_args = 0
 537              		.loc 1 318 1 is_stmt 0 view .LVU132
 538 0000 10B5     		push	{r4, lr}
 539              	.LCFI6:
 540              		.cfi_def_cfa_offset 8
 541              		.cfi_offset 4, -8
 542              		.cfi_offset 14, -4
 543 0002 0C46     		mov	r4, r1
 319:Middlewares/Third_Party/LwIP/src/core/timeouts.c ****   struct sys_timeo *prev_t, *t;
 544              		.loc 1 319 3 is_stmt 1 view .LVU133
 320:Middlewares/Third_Party/LwIP/src/core/timeouts.c **** 
 321:Middlewares/Third_Party/LwIP/src/core/timeouts.c ****   LWIP_ASSERT_CORE_LOCKED();
 545              		.loc 1 321 28 view .LVU134
 322:Middlewares/Third_Party/LwIP/src/core/timeouts.c **** 
 323:Middlewares/Third_Party/LwIP/src/core/timeouts.c ****   if (next_timeout == NULL) {
 546              		.loc 1 323 3 view .LVU135
 547              		.loc 1 323 20 is_stmt 0 view .LVU136
 548 0004 0C4B     		ldr	r3, .L56
 549 0006 1968     		ldr	r1, [r3]
 550              	.LVL42:
 551              		.loc 1 323 6 view .LVU137
 552 0008 A9B1     		cbz	r1, .L47
 324:Middlewares/Third_Party/LwIP/src/core/timeouts.c ****     return;
 325:Middlewares/Third_Party/LwIP/src/core/timeouts.c ****   }
 326:Middlewares/Third_Party/LwIP/src/core/timeouts.c **** 
 327:Middlewares/Third_Party/LwIP/src/core/timeouts.c ****   for (t = next_timeout, prev_t = NULL; t != NULL; prev_t = t, t = t->next) {
 553              		.loc 1 327 33 view .LVU138
 554 000a 0022     		movs	r2, #0
 555 000c 05E0     		b	.L49
 556              	.LVL43:
 557              	.L55:
 328:Middlewares/Third_Party/LwIP/src/core/timeouts.c ****     if ((t->h == handler) && (t->arg == arg)) {
 329:Middlewares/Third_Party/LwIP/src/core/timeouts.c ****       /* We have a match */
 330:Middlewares/Third_Party/LwIP/src/core/timeouts.c ****       /* Unlink from previous in list */
 331:Middlewares/Third_Party/LwIP/src/core/timeouts.c ****       if (prev_t == NULL) {
 332:Middlewares/Third_Party/LwIP/src/core/timeouts.c ****         next_timeout = t->next;
 558              		.loc 1 332 9 is_stmt 1 view .LVU139
 559              		.loc 1 332 25 is_stmt 0 view .LVU140
 560 000e 0A68     		ldr	r2, [r1]
 561              	.LVL44:
 562              		.loc 1 332 22 view .LVU141
ARM GAS  D:\Dev\msys64\tmp\cc8YIWiN.s 			page 18


 563 0010 094B     		ldr	r3, .L56
 564 0012 1A60     		str	r2, [r3]
 565 0014 0CE0     		b	.L52
 566              	.LVL45:
 567              	.L50:
 327:Middlewares/Third_Party/LwIP/src/core/timeouts.c ****     if ((t->h == handler) && (t->arg == arg)) {
 568              		.loc 1 327 52 is_stmt 1 discriminator 2 view .LVU142
 327:Middlewares/Third_Party/LwIP/src/core/timeouts.c ****     if ((t->h == handler) && (t->arg == arg)) {
 569              		.loc 1 327 59 is_stmt 0 discriminator 2 view .LVU143
 570 0016 0A46     		mov	r2, r1
 327:Middlewares/Third_Party/LwIP/src/core/timeouts.c ****     if ((t->h == handler) && (t->arg == arg)) {
 571              		.loc 1 327 66 discriminator 2 view .LVU144
 572 0018 0968     		ldr	r1, [r1]
 573              	.LVL46:
 574              	.L49:
 327:Middlewares/Third_Party/LwIP/src/core/timeouts.c ****     if ((t->h == handler) && (t->arg == arg)) {
 575              		.loc 1 327 41 is_stmt 1 discriminator 1 view .LVU145
 327:Middlewares/Third_Party/LwIP/src/core/timeouts.c ****     if ((t->h == handler) && (t->arg == arg)) {
 576              		.loc 1 327 3 is_stmt 0 discriminator 1 view .LVU146
 577 001a 61B1     		cbz	r1, .L47
 328:Middlewares/Third_Party/LwIP/src/core/timeouts.c ****     if ((t->h == handler) && (t->arg == arg)) {
 578              		.loc 1 328 5 is_stmt 1 view .LVU147
 328:Middlewares/Third_Party/LwIP/src/core/timeouts.c ****     if ((t->h == handler) && (t->arg == arg)) {
 579              		.loc 1 328 11 is_stmt 0 view .LVU148
 580 001c 8B68     		ldr	r3, [r1, #8]
 328:Middlewares/Third_Party/LwIP/src/core/timeouts.c ****     if ((t->h == handler) && (t->arg == arg)) {
 581              		.loc 1 328 8 view .LVU149
 582 001e 8342     		cmp	r3, r0
 583 0020 F9D1     		bne	.L50
 328:Middlewares/Third_Party/LwIP/src/core/timeouts.c ****     if ((t->h == handler) && (t->arg == arg)) {
 584              		.loc 1 328 32 discriminator 1 view .LVU150
 585 0022 CB68     		ldr	r3, [r1, #12]
 328:Middlewares/Third_Party/LwIP/src/core/timeouts.c ****     if ((t->h == handler) && (t->arg == arg)) {
 586              		.loc 1 328 27 discriminator 1 view .LVU151
 587 0024 A342     		cmp	r3, r4
 588 0026 F6D1     		bne	.L50
 331:Middlewares/Third_Party/LwIP/src/core/timeouts.c ****         next_timeout = t->next;
 589              		.loc 1 331 7 is_stmt 1 view .LVU152
 331:Middlewares/Third_Party/LwIP/src/core/timeouts.c ****         next_timeout = t->next;
 590              		.loc 1 331 10 is_stmt 0 view .LVU153
 591 0028 002A     		cmp	r2, #0
 592 002a F0D0     		beq	.L55
 333:Middlewares/Third_Party/LwIP/src/core/timeouts.c ****       } else {
 334:Middlewares/Third_Party/LwIP/src/core/timeouts.c ****         prev_t->next = t->next;
 593              		.loc 1 334 9 is_stmt 1 view .LVU154
 594              		.loc 1 334 25 is_stmt 0 view .LVU155
 595 002c 0B68     		ldr	r3, [r1]
 596              		.loc 1 334 22 view .LVU156
 597 002e 1360     		str	r3, [r2]
 598              	.LVL47:
 599              	.L52:
 335:Middlewares/Third_Party/LwIP/src/core/timeouts.c ****       }
 336:Middlewares/Third_Party/LwIP/src/core/timeouts.c ****       memp_free(MEMP_SYS_TIMEOUT, t);
 600              		.loc 1 336 7 is_stmt 1 view .LVU157
 601 0030 0A20     		movs	r0, #10
 602              	.LVL48:
 603              		.loc 1 336 7 is_stmt 0 view .LVU158
ARM GAS  D:\Dev\msys64\tmp\cc8YIWiN.s 			page 19


 604 0032 FFF7FEFF 		bl	memp_free
 605              	.LVL49:
 337:Middlewares/Third_Party/LwIP/src/core/timeouts.c ****       return;
 606              		.loc 1 337 7 is_stmt 1 view .LVU159
 607              	.L47:
 338:Middlewares/Third_Party/LwIP/src/core/timeouts.c ****     }
 339:Middlewares/Third_Party/LwIP/src/core/timeouts.c ****   }
 340:Middlewares/Third_Party/LwIP/src/core/timeouts.c ****   return;
 341:Middlewares/Third_Party/LwIP/src/core/timeouts.c **** }
 608              		.loc 1 341 1 is_stmt 0 view .LVU160
 609 0036 10BD     		pop	{r4, pc}
 610              	.LVL50:
 611              	.L57:
 612              		.loc 1 341 1 view .LVU161
 613              		.align	2
 614              	.L56:
 615 0038 00000000 		.word	.LANCHOR0
 616              		.cfi_endproc
 617              	.LFE36:
 619              		.section	.text.sys_check_timeouts,"ax",%progbits
 620              		.align	1
 621              		.global	sys_check_timeouts
 622              		.syntax unified
 623              		.thumb
 624              		.thumb_func
 625              		.fpu fpv5-sp-d16
 627              	sys_check_timeouts:
 628              	.LFB37:
 342:Middlewares/Third_Party/LwIP/src/core/timeouts.c **** 
 343:Middlewares/Third_Party/LwIP/src/core/timeouts.c **** /**
 344:Middlewares/Third_Party/LwIP/src/core/timeouts.c ****  * @ingroup lwip_nosys
 345:Middlewares/Third_Party/LwIP/src/core/timeouts.c ****  * Handle timeouts for NO_SYS==1 (i.e. without using
 346:Middlewares/Third_Party/LwIP/src/core/timeouts.c ****  * tcpip_thread/sys_timeouts_mbox_fetch(). Uses sys_now() to call timeout
 347:Middlewares/Third_Party/LwIP/src/core/timeouts.c ****  * handler functions when timeouts expire.
 348:Middlewares/Third_Party/LwIP/src/core/timeouts.c ****  *
 349:Middlewares/Third_Party/LwIP/src/core/timeouts.c ****  * Must be called periodically from your main loop.
 350:Middlewares/Third_Party/LwIP/src/core/timeouts.c ****  */
 351:Middlewares/Third_Party/LwIP/src/core/timeouts.c **** void
 352:Middlewares/Third_Party/LwIP/src/core/timeouts.c **** sys_check_timeouts(void)
 353:Middlewares/Third_Party/LwIP/src/core/timeouts.c **** {
 629              		.loc 1 353 1 is_stmt 1 view -0
 630              		.cfi_startproc
 631              		@ args = 0, pretend = 0, frame = 0
 632              		@ frame_needed = 0, uses_anonymous_args = 0
 633 0000 70B5     		push	{r4, r5, r6, lr}
 634              	.LCFI7:
 635              		.cfi_def_cfa_offset 16
 636              		.cfi_offset 4, -16
 637              		.cfi_offset 5, -12
 638              		.cfi_offset 6, -8
 639              		.cfi_offset 14, -4
 354:Middlewares/Third_Party/LwIP/src/core/timeouts.c ****   u32_t now;
 640              		.loc 1 354 3 view .LVU163
 355:Middlewares/Third_Party/LwIP/src/core/timeouts.c **** 
 356:Middlewares/Third_Party/LwIP/src/core/timeouts.c ****   LWIP_ASSERT_CORE_LOCKED();
 641              		.loc 1 356 28 view .LVU164
 357:Middlewares/Third_Party/LwIP/src/core/timeouts.c **** 
ARM GAS  D:\Dev\msys64\tmp\cc8YIWiN.s 			page 20


 358:Middlewares/Third_Party/LwIP/src/core/timeouts.c ****   /* Process only timers expired at the start of the function. */
 359:Middlewares/Third_Party/LwIP/src/core/timeouts.c ****   now = sys_now();
 642              		.loc 1 359 3 view .LVU165
 643              		.loc 1 359 9 is_stmt 0 view .LVU166
 644 0002 FFF7FEFF 		bl	sys_now
 645              	.LVL51:
 646 0006 0546     		mov	r5, r0
 647              	.LVL52:
 648              	.L60:
 360:Middlewares/Third_Party/LwIP/src/core/timeouts.c **** 
 361:Middlewares/Third_Party/LwIP/src/core/timeouts.c ****   do {
 649              		.loc 1 361 3 is_stmt 1 view .LVU167
 650              	.LBB2:
 362:Middlewares/Third_Party/LwIP/src/core/timeouts.c ****     struct sys_timeo *tmptimeout;
 651              		.loc 1 362 5 view .LVU168
 363:Middlewares/Third_Party/LwIP/src/core/timeouts.c ****     sys_timeout_handler handler;
 652              		.loc 1 363 5 view .LVU169
 364:Middlewares/Third_Party/LwIP/src/core/timeouts.c ****     void *arg;
 653              		.loc 1 364 5 view .LVU170
 365:Middlewares/Third_Party/LwIP/src/core/timeouts.c **** 
 366:Middlewares/Third_Party/LwIP/src/core/timeouts.c ****     PBUF_CHECK_FREE_OOSEQ();
 654              		.loc 1 366 28 view .LVU171
 367:Middlewares/Third_Party/LwIP/src/core/timeouts.c **** 
 368:Middlewares/Third_Party/LwIP/src/core/timeouts.c ****     tmptimeout = next_timeout;
 655              		.loc 1 368 5 view .LVU172
 656              		.loc 1 368 16 is_stmt 0 view .LVU173
 657 0008 0B4B     		ldr	r3, .L63
 658 000a 1968     		ldr	r1, [r3]
 659              	.LVL53:
 369:Middlewares/Third_Party/LwIP/src/core/timeouts.c ****     if (tmptimeout == NULL) {
 660              		.loc 1 369 5 is_stmt 1 view .LVU174
 661              		.loc 1 369 8 is_stmt 0 view .LVU175
 662 000c 91B1     		cbz	r1, .L58
 370:Middlewares/Third_Party/LwIP/src/core/timeouts.c ****       return;
 371:Middlewares/Third_Party/LwIP/src/core/timeouts.c ****     }
 372:Middlewares/Third_Party/LwIP/src/core/timeouts.c **** 
 373:Middlewares/Third_Party/LwIP/src/core/timeouts.c ****     if (TIME_LESS_THAN(now, tmptimeout->time)) {
 663              		.loc 1 373 5 is_stmt 1 view .LVU176
 664              		.loc 1 373 9 is_stmt 0 view .LVU177
 665 000e 4B68     		ldr	r3, [r1, #4]
 666 0010 EA1A     		subs	r2, r5, r3
 667              		.loc 1 373 8 view .LVU178
 668 0012 002A     		cmp	r2, #0
 669 0014 0EDB     		blt	.L58
 374:Middlewares/Third_Party/LwIP/src/core/timeouts.c ****       return;
 375:Middlewares/Third_Party/LwIP/src/core/timeouts.c ****     }
 376:Middlewares/Third_Party/LwIP/src/core/timeouts.c **** 
 377:Middlewares/Third_Party/LwIP/src/core/timeouts.c ****     /* Timeout has expired */
 378:Middlewares/Third_Party/LwIP/src/core/timeouts.c ****     next_timeout = tmptimeout->next;
 670              		.loc 1 378 5 is_stmt 1 view .LVU179
 671              		.loc 1 378 30 is_stmt 0 view .LVU180
 672 0016 0868     		ldr	r0, [r1]
 673              		.loc 1 378 18 view .LVU181
 674 0018 074A     		ldr	r2, .L63
 675 001a 1060     		str	r0, [r2]
 379:Middlewares/Third_Party/LwIP/src/core/timeouts.c ****     handler = tmptimeout->h;
 676              		.loc 1 379 5 is_stmt 1 view .LVU182
ARM GAS  D:\Dev\msys64\tmp\cc8YIWiN.s 			page 21


 677              		.loc 1 379 13 is_stmt 0 view .LVU183
 678 001c 8C68     		ldr	r4, [r1, #8]
 679              	.LVL54:
 380:Middlewares/Third_Party/LwIP/src/core/timeouts.c ****     arg = tmptimeout->arg;
 680              		.loc 1 380 5 is_stmt 1 view .LVU184
 681              		.loc 1 380 9 is_stmt 0 view .LVU185
 682 001e CE68     		ldr	r6, [r1, #12]
 683              	.LVL55:
 381:Middlewares/Third_Party/LwIP/src/core/timeouts.c ****     current_timeout_due_time = tmptimeout->time;
 684              		.loc 1 381 5 is_stmt 1 view .LVU186
 685              		.loc 1 381 30 is_stmt 0 view .LVU187
 686 0020 064A     		ldr	r2, .L63+4
 687 0022 1360     		str	r3, [r2]
 382:Middlewares/Third_Party/LwIP/src/core/timeouts.c **** #if LWIP_DEBUG_TIMERNAMES
 383:Middlewares/Third_Party/LwIP/src/core/timeouts.c ****     if (handler != NULL) {
 384:Middlewares/Third_Party/LwIP/src/core/timeouts.c ****       LWIP_DEBUGF(TIMERS_DEBUG, ("sct calling h=%s t=%"U32_F" arg=%p\n",
 385:Middlewares/Third_Party/LwIP/src/core/timeouts.c ****                                  tmptimeout->handler_name, sys_now() - tmptimeout->time, arg));
 386:Middlewares/Third_Party/LwIP/src/core/timeouts.c ****     }
 387:Middlewares/Third_Party/LwIP/src/core/timeouts.c **** #endif /* LWIP_DEBUG_TIMERNAMES */
 388:Middlewares/Third_Party/LwIP/src/core/timeouts.c ****     memp_free(MEMP_SYS_TIMEOUT, tmptimeout);
 688              		.loc 1 388 5 is_stmt 1 view .LVU188
 689 0024 0A20     		movs	r0, #10
 690 0026 FFF7FEFF 		bl	memp_free
 691              	.LVL56:
 389:Middlewares/Third_Party/LwIP/src/core/timeouts.c ****     if (handler != NULL) {
 692              		.loc 1 389 5 view .LVU189
 693              		.loc 1 389 8 is_stmt 0 view .LVU190
 694 002a 002C     		cmp	r4, #0
 695 002c ECD0     		beq	.L60
 390:Middlewares/Third_Party/LwIP/src/core/timeouts.c ****       handler(arg);
 696              		.loc 1 390 7 is_stmt 1 view .LVU191
 697 002e 3046     		mov	r0, r6
 698 0030 A047     		blx	r4
 699              	.LVL57:
 700 0032 E9E7     		b	.L60
 701              	.LVL58:
 702              	.L58:
 703              		.loc 1 390 7 is_stmt 0 view .LVU192
 704              	.LBE2:
 391:Middlewares/Third_Party/LwIP/src/core/timeouts.c ****     }
 392:Middlewares/Third_Party/LwIP/src/core/timeouts.c ****     LWIP_TCPIP_THREAD_ALIVE();
 393:Middlewares/Third_Party/LwIP/src/core/timeouts.c **** 
 394:Middlewares/Third_Party/LwIP/src/core/timeouts.c ****     /* Repeat until all expired timers have been called */
 395:Middlewares/Third_Party/LwIP/src/core/timeouts.c ****   } while (1);
 396:Middlewares/Third_Party/LwIP/src/core/timeouts.c **** }
 705              		.loc 1 396 1 view .LVU193
 706 0034 70BD     		pop	{r4, r5, r6, pc}
 707              	.LVL59:
 708              	.L64:
 709              		.loc 1 396 1 view .LVU194
 710 0036 00BF     		.align	2
 711              	.L63:
 712 0038 00000000 		.word	.LANCHOR0
 713 003c 00000000 		.word	.LANCHOR1
 714              		.cfi_endproc
 715              	.LFE37:
 717              		.section	.text.sys_restart_timeouts,"ax",%progbits
ARM GAS  D:\Dev\msys64\tmp\cc8YIWiN.s 			page 22


 718              		.align	1
 719              		.global	sys_restart_timeouts
 720              		.syntax unified
 721              		.thumb
 722              		.thumb_func
 723              		.fpu fpv5-sp-d16
 725              	sys_restart_timeouts:
 726              	.LFB38:
 397:Middlewares/Third_Party/LwIP/src/core/timeouts.c **** 
 398:Middlewares/Third_Party/LwIP/src/core/timeouts.c **** /** Rebase the timeout times to the current time.
 399:Middlewares/Third_Party/LwIP/src/core/timeouts.c ****  * This is necessary if sys_check_timeouts() hasn't been called for a long
 400:Middlewares/Third_Party/LwIP/src/core/timeouts.c ****  * time (e.g. while saving energy) to prevent all timer functions of that
 401:Middlewares/Third_Party/LwIP/src/core/timeouts.c ****  * period being called.
 402:Middlewares/Third_Party/LwIP/src/core/timeouts.c ****  */
 403:Middlewares/Third_Party/LwIP/src/core/timeouts.c **** void
 404:Middlewares/Third_Party/LwIP/src/core/timeouts.c **** sys_restart_timeouts(void)
 405:Middlewares/Third_Party/LwIP/src/core/timeouts.c **** {
 727              		.loc 1 405 1 is_stmt 1 view -0
 728              		.cfi_startproc
 729              		@ args = 0, pretend = 0, frame = 0
 730              		@ frame_needed = 0, uses_anonymous_args = 0
 731 0000 08B5     		push	{r3, lr}
 732              	.LCFI8:
 733              		.cfi_def_cfa_offset 8
 734              		.cfi_offset 3, -8
 735              		.cfi_offset 14, -4
 406:Middlewares/Third_Party/LwIP/src/core/timeouts.c ****   u32_t now;
 736              		.loc 1 406 3 view .LVU196
 407:Middlewares/Third_Party/LwIP/src/core/timeouts.c ****   u32_t base;
 737              		.loc 1 407 3 view .LVU197
 408:Middlewares/Third_Party/LwIP/src/core/timeouts.c ****   struct sys_timeo *t;
 738              		.loc 1 408 3 view .LVU198
 409:Middlewares/Third_Party/LwIP/src/core/timeouts.c **** 
 410:Middlewares/Third_Party/LwIP/src/core/timeouts.c ****   if (next_timeout == NULL) {
 739              		.loc 1 410 3 view .LVU199
 740              		.loc 1 410 20 is_stmt 0 view .LVU200
 741 0002 084B     		ldr	r3, .L70
 742 0004 1B68     		ldr	r3, [r3]
 743              		.loc 1 410 6 view .LVU201
 744 0006 5BB1     		cbz	r3, .L65
 411:Middlewares/Third_Party/LwIP/src/core/timeouts.c ****     return;
 412:Middlewares/Third_Party/LwIP/src/core/timeouts.c ****   }
 413:Middlewares/Third_Party/LwIP/src/core/timeouts.c **** 
 414:Middlewares/Third_Party/LwIP/src/core/timeouts.c ****   now = sys_now();
 745              		.loc 1 414 3 is_stmt 1 view .LVU202
 746              		.loc 1 414 9 is_stmt 0 view .LVU203
 747 0008 FFF7FEFF 		bl	sys_now
 748              	.LVL60:
 415:Middlewares/Third_Party/LwIP/src/core/timeouts.c ****   base = next_timeout->time;
 749              		.loc 1 415 3 is_stmt 1 view .LVU204
 750              		.loc 1 415 22 is_stmt 0 view .LVU205
 751 000c 054B     		ldr	r3, .L70
 752 000e 1A68     		ldr	r2, [r3]
 753              		.loc 1 415 8 view .LVU206
 754 0010 5168     		ldr	r1, [r2, #4]
 755              	.LVL61:
 416:Middlewares/Third_Party/LwIP/src/core/timeouts.c **** 
ARM GAS  D:\Dev\msys64\tmp\cc8YIWiN.s 			page 23


 417:Middlewares/Third_Party/LwIP/src/core/timeouts.c ****   for (t = next_timeout; t != NULL; t = t->next) {
 756              		.loc 1 417 3 is_stmt 1 view .LVU207
 757              	.L67:
 758              		.loc 1 417 26 discriminator 1 view .LVU208
 759              		.loc 1 417 3 is_stmt 0 discriminator 1 view .LVU209
 760 0012 2AB1     		cbz	r2, .L65
 418:Middlewares/Third_Party/LwIP/src/core/timeouts.c ****     t->time = (t->time - base) + now;
 761              		.loc 1 418 5 is_stmt 1 discriminator 3 view .LVU210
 762              		.loc 1 418 17 is_stmt 0 discriminator 3 view .LVU211
 763 0014 5368     		ldr	r3, [r2, #4]
 764              		.loc 1 418 24 discriminator 3 view .LVU212
 765 0016 5B1A     		subs	r3, r3, r1
 766              		.loc 1 418 32 discriminator 3 view .LVU213
 767 0018 0344     		add	r3, r3, r0
 768              		.loc 1 418 13 discriminator 3 view .LVU214
 769 001a 5360     		str	r3, [r2, #4]
 417:Middlewares/Third_Party/LwIP/src/core/timeouts.c ****     t->time = (t->time - base) + now;
 770              		.loc 1 417 37 is_stmt 1 discriminator 3 view .LVU215
 417:Middlewares/Third_Party/LwIP/src/core/timeouts.c ****     t->time = (t->time - base) + now;
 771              		.loc 1 417 39 is_stmt 0 discriminator 3 view .LVU216
 772 001c 1268     		ldr	r2, [r2]
 773              	.LVL62:
 417:Middlewares/Third_Party/LwIP/src/core/timeouts.c ****     t->time = (t->time - base) + now;
 774              		.loc 1 417 39 discriminator 3 view .LVU217
 775 001e F8E7     		b	.L67
 776              	.LVL63:
 777              	.L65:
 419:Middlewares/Third_Party/LwIP/src/core/timeouts.c ****   }
 420:Middlewares/Third_Party/LwIP/src/core/timeouts.c **** }
 778              		.loc 1 420 1 view .LVU218
 779 0020 08BD     		pop	{r3, pc}
 780              	.L71:
 781 0022 00BF     		.align	2
 782              	.L70:
 783 0024 00000000 		.word	.LANCHOR0
 784              		.cfi_endproc
 785              	.LFE38:
 787              		.section	.rodata.sys_timeouts_sleeptime.str1.4,"aMS",%progbits,1
 788              		.align	2
 789              	.LC4:
 790 0000 696E7661 		.ascii	"invalid sleeptime\000"
 790      6C696420 
 790      736C6565 
 790      7074696D 
 790      6500
 791              		.section	.text.sys_timeouts_sleeptime,"ax",%progbits
 792              		.align	1
 793              		.global	sys_timeouts_sleeptime
 794              		.syntax unified
 795              		.thumb
 796              		.thumb_func
 797              		.fpu fpv5-sp-d16
 799              	sys_timeouts_sleeptime:
 800              	.LFB39:
 421:Middlewares/Third_Party/LwIP/src/core/timeouts.c **** 
 422:Middlewares/Third_Party/LwIP/src/core/timeouts.c **** /** Return the time left before the next timeout is due. If no timeouts are
 423:Middlewares/Third_Party/LwIP/src/core/timeouts.c ****  * enqueued, returns 0xffffffff
ARM GAS  D:\Dev\msys64\tmp\cc8YIWiN.s 			page 24


 424:Middlewares/Third_Party/LwIP/src/core/timeouts.c ****  */
 425:Middlewares/Third_Party/LwIP/src/core/timeouts.c **** u32_t
 426:Middlewares/Third_Party/LwIP/src/core/timeouts.c **** sys_timeouts_sleeptime(void)
 427:Middlewares/Third_Party/LwIP/src/core/timeouts.c **** {
 801              		.loc 1 427 1 is_stmt 1 view -0
 802              		.cfi_startproc
 803              		@ args = 0, pretend = 0, frame = 0
 804              		@ frame_needed = 0, uses_anonymous_args = 0
 805 0000 10B5     		push	{r4, lr}
 806              	.LCFI9:
 807              		.cfi_def_cfa_offset 8
 808              		.cfi_offset 4, -8
 809              		.cfi_offset 14, -4
 428:Middlewares/Third_Party/LwIP/src/core/timeouts.c ****   u32_t now;
 810              		.loc 1 428 3 view .LVU220
 429:Middlewares/Third_Party/LwIP/src/core/timeouts.c **** 
 430:Middlewares/Third_Party/LwIP/src/core/timeouts.c ****   LWIP_ASSERT_CORE_LOCKED();
 811              		.loc 1 430 28 view .LVU221
 431:Middlewares/Third_Party/LwIP/src/core/timeouts.c **** 
 432:Middlewares/Third_Party/LwIP/src/core/timeouts.c ****   if (next_timeout == NULL) {
 812              		.loc 1 432 3 view .LVU222
 813              		.loc 1 432 20 is_stmt 0 view .LVU223
 814 0002 0D4B     		ldr	r3, .L78
 815 0004 1B68     		ldr	r3, [r3]
 816              		.loc 1 432 6 view .LVU224
 817 0006 83B1     		cbz	r3, .L75
 433:Middlewares/Third_Party/LwIP/src/core/timeouts.c ****     return SYS_TIMEOUTS_SLEEPTIME_INFINITE;
 434:Middlewares/Third_Party/LwIP/src/core/timeouts.c ****   }
 435:Middlewares/Third_Party/LwIP/src/core/timeouts.c ****   now = sys_now();
 818              		.loc 1 435 3 is_stmt 1 view .LVU225
 819              		.loc 1 435 9 is_stmt 0 view .LVU226
 820 0008 FFF7FEFF 		bl	sys_now
 821              	.LVL64:
 436:Middlewares/Third_Party/LwIP/src/core/timeouts.c ****   if (TIME_LESS_THAN(next_timeout->time, now)) {
 822              		.loc 1 436 3 is_stmt 1 view .LVU227
 823              		.loc 1 436 7 is_stmt 0 view .LVU228
 824 000c 0A4B     		ldr	r3, .L78
 825 000e 1B68     		ldr	r3, [r3]
 826 0010 5C68     		ldr	r4, [r3, #4]
 827              		.loc 1 436 6 view .LVU229
 828 0012 241A     		subs	r4, r4, r0
 829 0014 0CD4     		bmi	.L76
 830              	.LBB3:
 437:Middlewares/Third_Party/LwIP/src/core/timeouts.c ****     return 0;
 438:Middlewares/Third_Party/LwIP/src/core/timeouts.c ****   } else {
 439:Middlewares/Third_Party/LwIP/src/core/timeouts.c ****     u32_t ret = (u32_t)(next_timeout->time - now);
 831              		.loc 1 439 5 is_stmt 1 view .LVU230
 832              	.LVL65:
 440:Middlewares/Third_Party/LwIP/src/core/timeouts.c ****     LWIP_ASSERT("invalid sleeptime", ret <= LWIP_MAX_TIMEOUT);
 833              		.loc 1 440 5 view .LVU231
 834              		.loc 1 440 5 view .LVU232
 835 0016 002C     		cmp	r4, #0
 836 0018 0BDA     		bge	.L72
 837              		.loc 1 440 5 discriminator 1 view .LVU233
 838              		.loc 1 440 5 discriminator 1 view .LVU234
 839 001a 084B     		ldr	r3, .L78+4
 840 001c 4FF4DC72 		mov	r2, #440
ARM GAS  D:\Dev\msys64\tmp\cc8YIWiN.s 			page 25


 841 0020 0749     		ldr	r1, .L78+8
 842 0022 0848     		ldr	r0, .L78+12
 843              	.LVL66:
 844              		.loc 1 440 5 is_stmt 0 discriminator 1 view .LVU235
 845 0024 FFF7FEFF 		bl	printf
 846              	.LVL67:
 847              		.loc 1 440 5 is_stmt 1 discriminator 1 view .LVU236
 848              		.loc 1 440 5 discriminator 1 view .LVU237
 441:Middlewares/Third_Party/LwIP/src/core/timeouts.c ****     return ret;
 849              		.loc 1 441 5 discriminator 1 view .LVU238
 850              		.loc 1 441 12 is_stmt 0 discriminator 1 view .LVU239
 851 0028 03E0     		b	.L72
 852              	.LVL68:
 853              	.L75:
 854              		.loc 1 441 12 discriminator 1 view .LVU240
 855              	.LBE3:
 433:Middlewares/Third_Party/LwIP/src/core/timeouts.c ****   }
 856              		.loc 1 433 12 view .LVU241
 857 002a 4FF0FF34 		mov	r4, #-1
 858 002e 00E0     		b	.L72
 859              	.LVL69:
 860              	.L76:
 437:Middlewares/Third_Party/LwIP/src/core/timeouts.c ****   } else {
 861              		.loc 1 437 12 view .LVU242
 862 0030 0024     		movs	r4, #0
 863              	.LVL70:
 864              	.L72:
 442:Middlewares/Third_Party/LwIP/src/core/timeouts.c ****   }
 443:Middlewares/Third_Party/LwIP/src/core/timeouts.c **** }
 865              		.loc 1 443 1 view .LVU243
 866 0032 2046     		mov	r0, r4
 867 0034 10BD     		pop	{r4, pc}
 868              	.L79:
 869 0036 00BF     		.align	2
 870              	.L78:
 871 0038 00000000 		.word	.LANCHOR0
 872 003c 00000000 		.word	.LC0
 873 0040 00000000 		.word	.LC4
 874 0044 74000000 		.word	.LC2
 875              		.cfi_endproc
 876              	.LFE39:
 878              		.global	lwip_num_cyclic_timers
 879              		.global	lwip_cyclic_timers
 880              		.section	.bss.current_timeout_due_time,"aw",%nobits
 881              		.align	2
 882              		.set	.LANCHOR1,. + 0
 885              	current_timeout_due_time:
 886 0000 00000000 		.space	4
 887              		.section	.bss.next_timeout,"aw",%nobits
 888              		.align	2
 889              		.set	.LANCHOR0,. + 0
 892              	next_timeout:
 893 0000 00000000 		.space	4
 894              		.section	.bss.tcpip_tcp_timer_active,"aw",%nobits
 895              		.align	2
 896              		.set	.LANCHOR2,. + 0
 899              	tcpip_tcp_timer_active:
ARM GAS  D:\Dev\msys64\tmp\cc8YIWiN.s 			page 26


 900 0000 00000000 		.space	4
 901              		.section	.rodata.lwip_cyclic_timers,"a"
 902              		.align	2
 903              		.set	.LANCHOR3,. + 0
 906              	lwip_cyclic_timers:
 907 0000 FA000000 		.word	250
 908 0004 00000000 		.word	tcp_tmr
 909 0008 E8030000 		.word	1000
 910 000c 00000000 		.word	ip_reass_tmr
 911 0010 E8030000 		.word	1000
 912 0014 00000000 		.word	etharp_tmr
 913 0018 60EA0000 		.word	60000
 914 001c 00000000 		.word	dhcp_coarse_tmr
 915 0020 F4010000 		.word	500
 916 0024 00000000 		.word	dhcp_fine_tmr
 917              		.section	.rodata.lwip_num_cyclic_timers,"a"
 918              		.align	2
 921              	lwip_num_cyclic_timers:
 922 0000 05000000 		.word	5
 923              		.text
 924              	.Letext0:
 925              		.file 2 "d:\\dev\\gcc-arm-none-eabi\\9_2019_q4-major\\lib\\gcc\\arm-none-eabi\\9.2.1\\include\\std
 926              		.file 3 "d:\\dev\\gcc-arm-none-eabi\\9_2019_q4-major\\arm-none-eabi\\include\\machine\\_default_ty
 927              		.file 4 "d:\\dev\\gcc-arm-none-eabi\\9_2019_q4-major\\arm-none-eabi\\include\\sys\\lock.h"
 928              		.file 5 "d:\\dev\\gcc-arm-none-eabi\\9_2019_q4-major\\arm-none-eabi\\include\\sys\\_types.h"
 929              		.file 6 "d:\\dev\\gcc-arm-none-eabi\\9_2019_q4-major\\arm-none-eabi\\include\\sys\\reent.h"
 930              		.file 7 "d:\\dev\\gcc-arm-none-eabi\\9_2019_q4-major\\arm-none-eabi\\include\\stdlib.h"
 931              		.file 8 "d:\\dev\\gcc-arm-none-eabi\\9_2019_q4-major\\arm-none-eabi\\include\\sys\\_stdint.h"
 932              		.file 9 "d:\\dev\\gcc-arm-none-eabi\\9_2019_q4-major\\arm-none-eabi\\include\\time.h"
 933              		.file 10 "Middlewares/Third_Party/LwIP/src/include/lwip/arch.h"
 934              		.file 11 "d:\\dev\\gcc-arm-none-eabi\\9_2019_q4-major\\arm-none-eabi\\include\\ctype.h"
 935              		.file 12 "Middlewares/Third_Party/LwIP/src/include/lwip/err.h"
 936              		.file 13 "Core/Inc/FreeRTOSConfig.h"
 937              		.file 14 "Middlewares/Third_Party/FreeRTOS/Source/include/queue.h"
 938              		.file 15 "Middlewares/Third_Party/FreeRTOS/Source/include/semphr.h"
 939              		.file 16 "Middlewares/Third_Party/FreeRTOS/Source/CMSIS_RTOS/cmsis_os.h"
 940              		.file 17 "Middlewares/Third_Party/LwIP/system/arch/sys_arch.h"
 941              		.file 18 "Middlewares/Third_Party/LwIP/src/include/lwip/timeouts.h"
 942              		.file 19 "Middlewares/Third_Party/LwIP/src/include/lwip/tcpbase.h"
 943              		.file 20 "Middlewares/Third_Party/LwIP/src/include/lwip/pbuf.h"
 944              		.file 21 "Middlewares/Third_Party/LwIP/src/include/lwip/ip4_addr.h"
 945              		.file 22 "Middlewares/Third_Party/LwIP/src/include/lwip/ip_addr.h"
 946              		.file 23 "Middlewares/Third_Party/LwIP/src/include/lwip/priv/memp_priv.h"
 947              		.file 24 "Middlewares/Third_Party/LwIP/src/include/lwip/memp.h"
 948              		.file 25 "Middlewares/Third_Party/LwIP/src/include/lwip/netif.h"
 949              		.file 26 "Middlewares/Third_Party/LwIP/src/include/lwip/prot/ip4.h"
 950              		.file 27 "Middlewares/Third_Party/LwIP/src/include/lwip/ip.h"
 951              		.file 28 "Middlewares/Third_Party/LwIP/src/include/lwip/tcp.h"
 952              		.file 29 "Middlewares/Third_Party/LwIP/src/include/lwip/priv/tcp_priv.h"
 953              		.file 30 "Middlewares/Third_Party/LwIP/src/include/lwip/prot/tcp.h"
 954              		.file 31 "Middlewares/Third_Party/LwIP/src/include/lwip/tcpip.h"
 955              		.file 32 "Middlewares/Third_Party/LwIP/src/include/lwip/udp.h"
 956              		.file 33 "d:\\dev\\gcc-arm-none-eabi\\9_2019_q4-major\\arm-none-eabi\\include\\stdio.h"
 957              		.file 34 "Middlewares/Third_Party/LwIP/src/include/lwip/sys.h"
ARM GAS  D:\Dev\msys64\tmp\cc8YIWiN.s 			page 27

