ARM GAS  D:\Dev\msys64\tmp\cco9wmM5.s 			page 1


   1              		.cpu cortex-m7
   2              		.eabi_attribute 27, 1
   3              		.eabi_attribute 28, 1
   4              		.eabi_attribute 20, 1
   5              		.eabi_attribute 21, 1
   6              		.eabi_attribute 23, 3
   7              		.eabi_attribute 24, 1
   8              		.eabi_attribute 25, 1
   9              		.eabi_attribute 26, 1
  10              		.eabi_attribute 30, 1
  11              		.eabi_attribute 34, 1
  12              		.eabi_attribute 18, 4
  13              		.file	"udp.c"
  14              		.text
  15              	.Ltext0:
  16              		.cfi_sections	.debug_frame
  17              		.section	.text.udp_new_port,"ax",%progbits
  18              		.align	1
  19              		.arch armv7e-m
  20              		.syntax unified
  21              		.thumb
  22              		.thumb_func
  23              		.fpu fpv5-sp-d16
  25              	udp_new_port:
  26              	.LFB26:
  27              		.file 1 "Middlewares/Third_Party/LwIP/src/core/udp.c"
   1:Middlewares/Third_Party/LwIP/src/core/udp.c **** /**
   2:Middlewares/Third_Party/LwIP/src/core/udp.c ****  * @file
   3:Middlewares/Third_Party/LwIP/src/core/udp.c ****  * User Datagram Protocol module\n
   4:Middlewares/Third_Party/LwIP/src/core/udp.c ****  * The code for the User Datagram Protocol UDP & UDPLite (RFC 3828).\n
   5:Middlewares/Third_Party/LwIP/src/core/udp.c ****  * See also @ref udp_raw
   6:Middlewares/Third_Party/LwIP/src/core/udp.c ****  *
   7:Middlewares/Third_Party/LwIP/src/core/udp.c ****  * @defgroup udp_raw UDP
   8:Middlewares/Third_Party/LwIP/src/core/udp.c ****  * @ingroup callbackstyle_api
   9:Middlewares/Third_Party/LwIP/src/core/udp.c ****  * User Datagram Protocol module\n
  10:Middlewares/Third_Party/LwIP/src/core/udp.c ****  * @see @ref api
  11:Middlewares/Third_Party/LwIP/src/core/udp.c ****  */
  12:Middlewares/Third_Party/LwIP/src/core/udp.c **** 
  13:Middlewares/Third_Party/LwIP/src/core/udp.c **** /*
  14:Middlewares/Third_Party/LwIP/src/core/udp.c ****  * Copyright (c) 2001-2004 Swedish Institute of Computer Science.
  15:Middlewares/Third_Party/LwIP/src/core/udp.c ****  * All rights reserved.
  16:Middlewares/Third_Party/LwIP/src/core/udp.c ****  *
  17:Middlewares/Third_Party/LwIP/src/core/udp.c ****  * Redistribution and use in source and binary forms, with or without modification,
  18:Middlewares/Third_Party/LwIP/src/core/udp.c ****  * are permitted provided that the following conditions are met:
  19:Middlewares/Third_Party/LwIP/src/core/udp.c ****  *
  20:Middlewares/Third_Party/LwIP/src/core/udp.c ****  * 1. Redistributions of source code must retain the above copyright notice,
  21:Middlewares/Third_Party/LwIP/src/core/udp.c ****  *    this list of conditions and the following disclaimer.
  22:Middlewares/Third_Party/LwIP/src/core/udp.c ****  * 2. Redistributions in binary form must reproduce the above copyright notice,
  23:Middlewares/Third_Party/LwIP/src/core/udp.c ****  *    this list of conditions and the following disclaimer in the documentation
  24:Middlewares/Third_Party/LwIP/src/core/udp.c ****  *    and/or other materials provided with the distribution.
  25:Middlewares/Third_Party/LwIP/src/core/udp.c ****  * 3. The name of the author may not be used to endorse or promote products
  26:Middlewares/Third_Party/LwIP/src/core/udp.c ****  *    derived from this software without specific prior written permission.
  27:Middlewares/Third_Party/LwIP/src/core/udp.c ****  *
  28:Middlewares/Third_Party/LwIP/src/core/udp.c ****  * THIS SOFTWARE IS PROVIDED BY THE AUTHOR ``AS IS'' AND ANY EXPRESS OR IMPLIED
  29:Middlewares/Third_Party/LwIP/src/core/udp.c ****  * WARRANTIES, INCLUDING, BUT NOT LIMITED TO, THE IMPLIED WARRANTIES OF
  30:Middlewares/Third_Party/LwIP/src/core/udp.c ****  * MERCHANTABILITY AND FITNESS FOR A PARTICULAR PURPOSE ARE DISCLAIMED. IN NO EVENT
  31:Middlewares/Third_Party/LwIP/src/core/udp.c ****  * SHALL THE AUTHOR BE LIABLE FOR ANY DIRECT, INDIRECT, INCIDENTAL, SPECIAL,
ARM GAS  D:\Dev\msys64\tmp\cco9wmM5.s 			page 2


  32:Middlewares/Third_Party/LwIP/src/core/udp.c ****  * EXEMPLARY, OR CONSEQUENTIAL DAMAGES (INCLUDING, BUT NOT LIMITED TO, PROCUREMENT
  33:Middlewares/Third_Party/LwIP/src/core/udp.c ****  * OF SUBSTITUTE GOODS OR SERVICES; LOSS OF USE, DATA, OR PROFITS; OR BUSINESS
  34:Middlewares/Third_Party/LwIP/src/core/udp.c ****  * INTERRUPTION) HOWEVER CAUSED AND ON ANY THEORY OF LIABILITY, WHETHER IN
  35:Middlewares/Third_Party/LwIP/src/core/udp.c ****  * CONTRACT, STRICT LIABILITY, OR TORT (INCLUDING NEGLIGENCE OR OTHERWISE) ARISING
  36:Middlewares/Third_Party/LwIP/src/core/udp.c ****  * IN ANY WAY OUT OF THE USE OF THIS SOFTWARE, EVEN IF ADVISED OF THE POSSIBILITY
  37:Middlewares/Third_Party/LwIP/src/core/udp.c ****  * OF SUCH DAMAGE.
  38:Middlewares/Third_Party/LwIP/src/core/udp.c ****  *
  39:Middlewares/Third_Party/LwIP/src/core/udp.c ****  * This file is part of the lwIP TCP/IP stack.
  40:Middlewares/Third_Party/LwIP/src/core/udp.c ****  *
  41:Middlewares/Third_Party/LwIP/src/core/udp.c ****  * Author: Adam Dunkels <adam@sics.se>
  42:Middlewares/Third_Party/LwIP/src/core/udp.c ****  *
  43:Middlewares/Third_Party/LwIP/src/core/udp.c ****  */
  44:Middlewares/Third_Party/LwIP/src/core/udp.c **** 
  45:Middlewares/Third_Party/LwIP/src/core/udp.c **** /* @todo Check the use of '(struct udp_pcb).chksum_len_rx'!
  46:Middlewares/Third_Party/LwIP/src/core/udp.c ****  */
  47:Middlewares/Third_Party/LwIP/src/core/udp.c **** 
  48:Middlewares/Third_Party/LwIP/src/core/udp.c **** #include "lwip/opt.h"
  49:Middlewares/Third_Party/LwIP/src/core/udp.c **** 
  50:Middlewares/Third_Party/LwIP/src/core/udp.c **** #if LWIP_UDP /* don't build if not configured for use in lwipopts.h */
  51:Middlewares/Third_Party/LwIP/src/core/udp.c **** 
  52:Middlewares/Third_Party/LwIP/src/core/udp.c **** #include "lwip/udp.h"
  53:Middlewares/Third_Party/LwIP/src/core/udp.c **** #include "lwip/def.h"
  54:Middlewares/Third_Party/LwIP/src/core/udp.c **** #include "lwip/memp.h"
  55:Middlewares/Third_Party/LwIP/src/core/udp.c **** #include "lwip/inet_chksum.h"
  56:Middlewares/Third_Party/LwIP/src/core/udp.c **** #include "lwip/ip_addr.h"
  57:Middlewares/Third_Party/LwIP/src/core/udp.c **** #include "lwip/ip6.h"
  58:Middlewares/Third_Party/LwIP/src/core/udp.c **** #include "lwip/ip6_addr.h"
  59:Middlewares/Third_Party/LwIP/src/core/udp.c **** #include "lwip/netif.h"
  60:Middlewares/Third_Party/LwIP/src/core/udp.c **** #include "lwip/icmp.h"
  61:Middlewares/Third_Party/LwIP/src/core/udp.c **** #include "lwip/icmp6.h"
  62:Middlewares/Third_Party/LwIP/src/core/udp.c **** #include "lwip/stats.h"
  63:Middlewares/Third_Party/LwIP/src/core/udp.c **** #include "lwip/snmp.h"
  64:Middlewares/Third_Party/LwIP/src/core/udp.c **** #include "lwip/dhcp.h"
  65:Middlewares/Third_Party/LwIP/src/core/udp.c **** 
  66:Middlewares/Third_Party/LwIP/src/core/udp.c **** #include <string.h>
  67:Middlewares/Third_Party/LwIP/src/core/udp.c **** 
  68:Middlewares/Third_Party/LwIP/src/core/udp.c **** #ifndef UDP_LOCAL_PORT_RANGE_START
  69:Middlewares/Third_Party/LwIP/src/core/udp.c **** /* From http://www.iana.org/assignments/port-numbers:
  70:Middlewares/Third_Party/LwIP/src/core/udp.c ****    "The Dynamic and/or Private Ports are those from 49152 through 65535" */
  71:Middlewares/Third_Party/LwIP/src/core/udp.c **** #define UDP_LOCAL_PORT_RANGE_START  0xc000
  72:Middlewares/Third_Party/LwIP/src/core/udp.c **** #define UDP_LOCAL_PORT_RANGE_END    0xffff
  73:Middlewares/Third_Party/LwIP/src/core/udp.c **** #define UDP_ENSURE_LOCAL_PORT_RANGE(port) ((u16_t)(((port) & (u16_t)~UDP_LOCAL_PORT_RANGE_START) + 
  74:Middlewares/Third_Party/LwIP/src/core/udp.c **** #endif
  75:Middlewares/Third_Party/LwIP/src/core/udp.c **** 
  76:Middlewares/Third_Party/LwIP/src/core/udp.c **** /* last local UDP port */
  77:Middlewares/Third_Party/LwIP/src/core/udp.c **** static u16_t udp_port = UDP_LOCAL_PORT_RANGE_START;
  78:Middlewares/Third_Party/LwIP/src/core/udp.c **** 
  79:Middlewares/Third_Party/LwIP/src/core/udp.c **** /* The list of UDP PCBs */
  80:Middlewares/Third_Party/LwIP/src/core/udp.c **** /* exported in udp.h (was static) */
  81:Middlewares/Third_Party/LwIP/src/core/udp.c **** struct udp_pcb *udp_pcbs;
  82:Middlewares/Third_Party/LwIP/src/core/udp.c **** 
  83:Middlewares/Third_Party/LwIP/src/core/udp.c **** /**
  84:Middlewares/Third_Party/LwIP/src/core/udp.c ****  * Initialize this module.
  85:Middlewares/Third_Party/LwIP/src/core/udp.c ****  */
  86:Middlewares/Third_Party/LwIP/src/core/udp.c **** void
  87:Middlewares/Third_Party/LwIP/src/core/udp.c **** udp_init(void)
  88:Middlewares/Third_Party/LwIP/src/core/udp.c **** {
ARM GAS  D:\Dev\msys64\tmp\cco9wmM5.s 			page 3


  89:Middlewares/Third_Party/LwIP/src/core/udp.c **** #ifdef LWIP_RAND
  90:Middlewares/Third_Party/LwIP/src/core/udp.c ****   udp_port = UDP_ENSURE_LOCAL_PORT_RANGE(LWIP_RAND());
  91:Middlewares/Third_Party/LwIP/src/core/udp.c **** #endif /* LWIP_RAND */
  92:Middlewares/Third_Party/LwIP/src/core/udp.c **** }
  93:Middlewares/Third_Party/LwIP/src/core/udp.c **** 
  94:Middlewares/Third_Party/LwIP/src/core/udp.c **** /**
  95:Middlewares/Third_Party/LwIP/src/core/udp.c ****  * Allocate a new local UDP port.
  96:Middlewares/Third_Party/LwIP/src/core/udp.c ****  *
  97:Middlewares/Third_Party/LwIP/src/core/udp.c ****  * @return a new (free) local UDP port number
  98:Middlewares/Third_Party/LwIP/src/core/udp.c ****  */
  99:Middlewares/Third_Party/LwIP/src/core/udp.c **** static u16_t
 100:Middlewares/Third_Party/LwIP/src/core/udp.c **** udp_new_port(void)
 101:Middlewares/Third_Party/LwIP/src/core/udp.c **** {
  28              		.loc 1 101 1 view -0
  29              		.cfi_startproc
  30              		@ args = 0, pretend = 0, frame = 0
  31              		@ frame_needed = 0, uses_anonymous_args = 0
  32              		@ link register save eliminated.
 102:Middlewares/Third_Party/LwIP/src/core/udp.c ****   u16_t n = 0;
  33              		.loc 1 102 3 view .LVU1
  34              	.LVL0:
  35              		.loc 1 102 9 is_stmt 0 view .LVU2
  36 0000 0020     		movs	r0, #0
  37              	.LVL1:
  38              	.L2:
 103:Middlewares/Third_Party/LwIP/src/core/udp.c ****   struct udp_pcb *pcb;
  39              		.loc 1 103 3 is_stmt 1 view .LVU3
 104:Middlewares/Third_Party/LwIP/src/core/udp.c **** 
 105:Middlewares/Third_Party/LwIP/src/core/udp.c **** again:
 106:Middlewares/Third_Party/LwIP/src/core/udp.c ****   if (udp_port++ == UDP_LOCAL_PORT_RANGE_END) {
  40              		.loc 1 106 3 view .LVU4
  41              		.loc 1 106 15 is_stmt 0 view .LVU5
  42 0002 104A     		ldr	r2, .L12
  43 0004 1388     		ldrh	r3, [r2]
  44 0006 591C     		adds	r1, r3, #1
  45 0008 1180     		strh	r1, [r2]	@ movhi
  46              		.loc 1 106 6 view .LVU6
  47 000a 4FF6FF72 		movw	r2, #65535
  48 000e 9342     		cmp	r3, r2
  49 0010 09D0     		beq	.L9
  50              	.L3:
 107:Middlewares/Third_Party/LwIP/src/core/udp.c ****     udp_port = UDP_LOCAL_PORT_RANGE_START;
 108:Middlewares/Third_Party/LwIP/src/core/udp.c ****   }
 109:Middlewares/Third_Party/LwIP/src/core/udp.c ****   /* Check all PCBs. */
 110:Middlewares/Third_Party/LwIP/src/core/udp.c ****   for (pcb = udp_pcbs; pcb != NULL; pcb = pcb->next) {
  51              		.loc 1 110 3 is_stmt 1 view .LVU7
  52              		.loc 1 110 12 is_stmt 0 view .LVU8
  53 0012 0D4B     		ldr	r3, .L12+4
  54 0014 1B68     		ldr	r3, [r3]
  55              	.LVL2:
  56              	.L4:
  57              		.loc 1 110 24 is_stmt 1 discriminator 1 view .LVU9
  58              		.loc 1 110 3 is_stmt 0 discriminator 1 view .LVU10
  59 0016 93B1     		cbz	r3, .L10
 111:Middlewares/Third_Party/LwIP/src/core/udp.c ****     if (pcb->local_port == udp_port) {
  60              		.loc 1 111 5 is_stmt 1 view .LVU11
  61              		.loc 1 111 12 is_stmt 0 view .LVU12
ARM GAS  D:\Dev\msys64\tmp\cco9wmM5.s 			page 4


  62 0018 598A     		ldrh	r1, [r3, #18]
  63              		.loc 1 111 25 view .LVU13
  64 001a 0A4A     		ldr	r2, .L12
  65 001c 1288     		ldrh	r2, [r2]
  66              		.loc 1 111 8 view .LVU14
  67 001e 9142     		cmp	r1, r2
  68 0020 06D0     		beq	.L11
 110:Middlewares/Third_Party/LwIP/src/core/udp.c ****     if (pcb->local_port == udp_port) {
  69              		.loc 1 110 37 is_stmt 1 discriminator 2 view .LVU15
 110:Middlewares/Third_Party/LwIP/src/core/udp.c ****     if (pcb->local_port == udp_port) {
  70              		.loc 1 110 41 is_stmt 0 discriminator 2 view .LVU16
  71 0022 DB68     		ldr	r3, [r3, #12]
  72              	.LVL3:
 110:Middlewares/Third_Party/LwIP/src/core/udp.c ****     if (pcb->local_port == udp_port) {
  73              		.loc 1 110 41 discriminator 2 view .LVU17
  74 0024 F7E7     		b	.L4
  75              	.LVL4:
  76              	.L9:
 107:Middlewares/Third_Party/LwIP/src/core/udp.c ****     udp_port = UDP_LOCAL_PORT_RANGE_START;
  77              		.loc 1 107 5 is_stmt 1 view .LVU18
 107:Middlewares/Third_Party/LwIP/src/core/udp.c ****     udp_port = UDP_LOCAL_PORT_RANGE_START;
  78              		.loc 1 107 14 is_stmt 0 view .LVU19
  79 0026 074B     		ldr	r3, .L12
  80 0028 4FF44042 		mov	r2, #49152
  81 002c 1A80     		strh	r2, [r3]	@ movhi
  82 002e F0E7     		b	.L3
  83              	.LVL5:
  84              	.L11:
 112:Middlewares/Third_Party/LwIP/src/core/udp.c ****       if (++n > (UDP_LOCAL_PORT_RANGE_END - UDP_LOCAL_PORT_RANGE_START)) {
  85              		.loc 1 112 7 is_stmt 1 view .LVU20
  86              		.loc 1 112 10 is_stmt 0 view .LVU21
  87 0030 0130     		adds	r0, r0, #1
  88              	.LVL6:
  89              		.loc 1 112 10 view .LVU22
  90 0032 80B2     		uxth	r0, r0
  91              	.LVL7:
  92              		.loc 1 112 10 view .LVU23
  93 0034 B0F5804F 		cmp	r0, #16384
  94 0038 E3D3     		bcc	.L2
 113:Middlewares/Third_Party/LwIP/src/core/udp.c ****         return 0;
  95              		.loc 1 113 16 view .LVU24
  96 003a 0020     		movs	r0, #0
  97              	.LVL8:
 114:Middlewares/Third_Party/LwIP/src/core/udp.c ****       }
 115:Middlewares/Third_Party/LwIP/src/core/udp.c ****       goto again;
 116:Middlewares/Third_Party/LwIP/src/core/udp.c ****     }
 117:Middlewares/Third_Party/LwIP/src/core/udp.c ****   }
 118:Middlewares/Third_Party/LwIP/src/core/udp.c ****   return udp_port;
 119:Middlewares/Third_Party/LwIP/src/core/udp.c **** }
  98              		.loc 1 119 1 view .LVU25
  99 003c 7047     		bx	lr
 100              	.LVL9:
 101              	.L10:
 118:Middlewares/Third_Party/LwIP/src/core/udp.c **** }
 102              		.loc 1 118 3 is_stmt 1 view .LVU26
 118:Middlewares/Third_Party/LwIP/src/core/udp.c **** }
 103              		.loc 1 118 10 is_stmt 0 view .LVU27
ARM GAS  D:\Dev\msys64\tmp\cco9wmM5.s 			page 5


 104 003e 014B     		ldr	r3, .L12
 105              	.LVL10:
 118:Middlewares/Third_Party/LwIP/src/core/udp.c **** }
 106              		.loc 1 118 10 view .LVU28
 107 0040 1888     		ldrh	r0, [r3]
 108              	.LVL11:
 118:Middlewares/Third_Party/LwIP/src/core/udp.c **** }
 109              		.loc 1 118 10 view .LVU29
 110 0042 7047     		bx	lr
 111              	.L13:
 112              		.align	2
 113              	.L12:
 114 0044 00000000 		.word	.LANCHOR0
 115 0048 00000000 		.word	udp_pcbs
 116              		.cfi_endproc
 117              	.LFE26:
 119              		.section	.rodata.udp_input_local_match.str1.4,"aMS",%progbits,1
 120              		.align	2
 121              	.LC0:
 122 0000 4D696464 		.ascii	"Middlewares/Third_Party/LwIP/src/core/udp.c\000"
 122      6C657761 
 122      7265732F 
 122      54686972 
 122      645F5061 
 123              		.align	2
 124              	.LC1:
 125 002c 7564705F 		.ascii	"udp_input_local_match: invalid pcb\000"
 125      696E7075 
 125      745F6C6F 
 125      63616C5F 
 125      6D617463 
 126 004f 00       		.align	2
 127              	.LC2:
 128 0050 41737365 		.ascii	"Assertion \"%s\" failed at line %d in %s\012\000"
 128      7274696F 
 128      6E202225 
 128      73222066 
 128      61696C65 
 129              		.align	2
 130              	.LC3:
 131 0078 7564705F 		.ascii	"udp_input_local_match: invalid netif\000"
 131      696E7075 
 131      745F6C6F 
 131      63616C5F 
 131      6D617463 
 132              		.section	.text.udp_input_local_match,"ax",%progbits
 133              		.align	1
 134              		.syntax unified
 135              		.thumb
 136              		.thumb_func
 137              		.fpu fpv5-sp-d16
 139              	udp_input_local_match:
 140              	.LVL12:
 141              	.LFB27:
 120:Middlewares/Third_Party/LwIP/src/core/udp.c **** 
 121:Middlewares/Third_Party/LwIP/src/core/udp.c **** /** Common code to see if the current input packet matches the pcb
 122:Middlewares/Third_Party/LwIP/src/core/udp.c ****  * (current input packet is accessed via ip(4/6)_current_* macros)
ARM GAS  D:\Dev\msys64\tmp\cco9wmM5.s 			page 6


 123:Middlewares/Third_Party/LwIP/src/core/udp.c ****  *
 124:Middlewares/Third_Party/LwIP/src/core/udp.c ****  * @param pcb pcb to check
 125:Middlewares/Third_Party/LwIP/src/core/udp.c ****  * @param inp network interface on which the datagram was received (only used for IPv4)
 126:Middlewares/Third_Party/LwIP/src/core/udp.c ****  * @param broadcast 1 if his is an IPv4 broadcast (global or subnet-only), 0 otherwise (only used f
 127:Middlewares/Third_Party/LwIP/src/core/udp.c ****  * @return 1 on match, 0 otherwise
 128:Middlewares/Third_Party/LwIP/src/core/udp.c ****  */
 129:Middlewares/Third_Party/LwIP/src/core/udp.c **** static u8_t
 130:Middlewares/Third_Party/LwIP/src/core/udp.c **** udp_input_local_match(struct udp_pcb *pcb, struct netif *inp, u8_t broadcast)
 131:Middlewares/Third_Party/LwIP/src/core/udp.c **** {
 142              		.loc 1 131 1 is_stmt 1 view -0
 143              		.cfi_startproc
 144              		@ args = 0, pretend = 0, frame = 0
 145              		@ frame_needed = 0, uses_anonymous_args = 0
 146              		.loc 1 131 1 is_stmt 0 view .LVU31
 147 0000 F8B5     		push	{r3, r4, r5, r6, r7, lr}
 148              	.LCFI0:
 149              		.cfi_def_cfa_offset 24
 150              		.cfi_offset 3, -24
 151              		.cfi_offset 4, -20
 152              		.cfi_offset 5, -16
 153              		.cfi_offset 6, -12
 154              		.cfi_offset 7, -8
 155              		.cfi_offset 14, -4
 156 0002 0E46     		mov	r6, r1
 157 0004 1546     		mov	r5, r2
 132:Middlewares/Third_Party/LwIP/src/core/udp.c ****   LWIP_UNUSED_ARG(inp);       /* in IPv6 only case */
 158              		.loc 1 132 3 is_stmt 1 view .LVU32
 133:Middlewares/Third_Party/LwIP/src/core/udp.c ****   LWIP_UNUSED_ARG(broadcast); /* in IPv6 only case */
 159              		.loc 1 133 3 view .LVU33
 134:Middlewares/Third_Party/LwIP/src/core/udp.c **** 
 135:Middlewares/Third_Party/LwIP/src/core/udp.c ****   LWIP_ASSERT("udp_input_local_match: invalid pcb", pcb != NULL);
 160              		.loc 1 135 3 view .LVU34
 161              		.loc 1 135 3 view .LVU35
 162 0006 0746     		mov	r7, r0
 163 0008 C8B1     		cbz	r0, .L29
 164              	.LVL13:
 165              	.L15:
 166              		.loc 1 135 3 discriminator 3 view .LVU36
 167              		.loc 1 135 3 discriminator 3 view .LVU37
 136:Middlewares/Third_Party/LwIP/src/core/udp.c ****   LWIP_ASSERT("udp_input_local_match: invalid netif", inp != NULL);
 168              		.loc 1 136 3 discriminator 3 view .LVU38
 169              		.loc 1 136 3 discriminator 3 view .LVU39
 170 000a FEB1     		cbz	r6, .L30
 171              	.L16:
 172              		.loc 1 136 3 discriminator 3 view .LVU40
 173              		.loc 1 136 3 discriminator 3 view .LVU41
 137:Middlewares/Third_Party/LwIP/src/core/udp.c **** 
 138:Middlewares/Third_Party/LwIP/src/core/udp.c ****   /* check if PCB is bound to specific netif */
 139:Middlewares/Third_Party/LwIP/src/core/udp.c ****   if ((pcb->netif_idx != NETIF_NO_INDEX) &&
 174              		.loc 1 139 3 discriminator 3 view .LVU42
 175              		.loc 1 139 11 is_stmt 0 discriminator 3 view .LVU43
 176 000c 3C7A     		ldrb	r4, [r7, #8]	@ zero_extendqisi2
 177              		.loc 1 139 6 discriminator 3 view .LVU44
 178 000e 3CB1     		cbz	r4, .L17
 140:Middlewares/Third_Party/LwIP/src/core/udp.c ****       (pcb->netif_idx != netif_get_index(ip_data.current_input_netif))) {
 179              		.loc 1 140 26 discriminator 1 view .LVU45
 180 0010 1E4B     		ldr	r3, .L31
ARM GAS  D:\Dev\msys64\tmp\cco9wmM5.s 			page 7


 181 0012 5B68     		ldr	r3, [r3, #4]
 182 0014 93F83430 		ldrb	r3, [r3, #52]	@ zero_extendqisi2
 183 0018 0133     		adds	r3, r3, #1
 184 001a DBB2     		uxtb	r3, r3
 139:Middlewares/Third_Party/LwIP/src/core/udp.c ****       (pcb->netif_idx != netif_get_index(ip_data.current_input_netif))) {
 185              		.loc 1 139 42 discriminator 1 view .LVU46
 186 001c 9C42     		cmp	r4, r3
 187 001e 25D1     		bne	.L20
 188              	.L17:
 141:Middlewares/Third_Party/LwIP/src/core/udp.c ****     return 0;
 142:Middlewares/Third_Party/LwIP/src/core/udp.c ****   }
 143:Middlewares/Third_Party/LwIP/src/core/udp.c **** 
 144:Middlewares/Third_Party/LwIP/src/core/udp.c ****   /* Dual-stack: PCBs listening to any IP type also listen to any IP address */
 145:Middlewares/Third_Party/LwIP/src/core/udp.c ****   if (IP_IS_ANY_TYPE_VAL(pcb->local_ip)) {
 189              		.loc 1 145 3 is_stmt 1 view .LVU47
 146:Middlewares/Third_Party/LwIP/src/core/udp.c **** #if LWIP_IPV4 && IP_SOF_BROADCAST_RECV
 147:Middlewares/Third_Party/LwIP/src/core/udp.c ****     if ((broadcast != 0) && !ip_get_option(pcb, SOF_BROADCAST)) {
 148:Middlewares/Third_Party/LwIP/src/core/udp.c ****       return 0;
 149:Middlewares/Third_Party/LwIP/src/core/udp.c ****     }
 150:Middlewares/Third_Party/LwIP/src/core/udp.c **** #endif /* LWIP_IPV4 && IP_SOF_BROADCAST_RECV */
 151:Middlewares/Third_Party/LwIP/src/core/udp.c ****     return 1;
 152:Middlewares/Third_Party/LwIP/src/core/udp.c ****   }
 153:Middlewares/Third_Party/LwIP/src/core/udp.c **** 
 154:Middlewares/Third_Party/LwIP/src/core/udp.c ****   /* Only need to check PCB if incoming IP version matches PCB IP version */
 155:Middlewares/Third_Party/LwIP/src/core/udp.c ****   if (IP_ADDR_PCB_VERSION_MATCH_EXACT(pcb, ip_current_dest_addr())) {
 190              		.loc 1 155 3 view .LVU48
 156:Middlewares/Third_Party/LwIP/src/core/udp.c **** #if LWIP_IPV4
 157:Middlewares/Third_Party/LwIP/src/core/udp.c ****     /* Special case: IPv4 broadcast: all or broadcasts in my subnet
 158:Middlewares/Third_Party/LwIP/src/core/udp.c ****      * Note: broadcast variable can only be 1 if it is an IPv4 broadcast */
 159:Middlewares/Third_Party/LwIP/src/core/udp.c ****     if (broadcast != 0) {
 191              		.loc 1 159 5 view .LVU49
 192              		.loc 1 159 8 is_stmt 0 view .LVU50
 193 0020 DDB1     		cbz	r5, .L19
 160:Middlewares/Third_Party/LwIP/src/core/udp.c **** #if IP_SOF_BROADCAST_RECV
 161:Middlewares/Third_Party/LwIP/src/core/udp.c ****       if (ip_get_option(pcb, SOF_BROADCAST))
 162:Middlewares/Third_Party/LwIP/src/core/udp.c **** #endif /* IP_SOF_BROADCAST_RECV */
 163:Middlewares/Third_Party/LwIP/src/core/udp.c ****       {
 164:Middlewares/Third_Party/LwIP/src/core/udp.c ****         if (ip4_addr_isany(ip_2_ip4(&pcb->local_ip)) ||
 194              		.loc 1 164 9 is_stmt 1 view .LVU51
 195              		.loc 1 164 12 is_stmt 0 view .LVU52
 196 0022 2FB3     		cbz	r7, .L21
 197              		.loc 1 164 13 discriminator 1 view .LVU53
 198 0024 3B68     		ldr	r3, [r7]
 199 0026 2BB3     		cbz	r3, .L22
 165:Middlewares/Third_Party/LwIP/src/core/udp.c ****             ((ip4_current_dest_addr()->addr == IPADDR_BROADCAST)) ||
 200              		.loc 1 165 38 discriminator 2 view .LVU54
 201 0028 184A     		ldr	r2, .L31
 202 002a 5269     		ldr	r2, [r2, #20]
 164:Middlewares/Third_Party/LwIP/src/core/udp.c ****             ((ip4_current_dest_addr()->addr == IPADDR_BROADCAST)) ||
 203              		.loc 1 164 54 discriminator 2 view .LVU55
 204 002c B2F1FF3F 		cmp	r2, #-1
 205 0030 22D0     		beq	.L23
 166:Middlewares/Third_Party/LwIP/src/core/udp.c ****             ip4_addr_netcmp(ip_2_ip4(&pcb->local_ip), ip4_current_dest_addr(), netif_ip4_netmask(in
 206              		.loc 1 166 13 view .LVU56
 207 0032 B168     		ldr	r1, [r6, #8]
 208 0034 5340     		eors	r3, r3, r2
 165:Middlewares/Third_Party/LwIP/src/core/udp.c ****             ((ip4_current_dest_addr()->addr == IPADDR_BROADCAST)) ||
ARM GAS  D:\Dev\msys64\tmp\cco9wmM5.s 			page 8


 209              		.loc 1 165 67 view .LVU57
 210 0036 0B42     		tst	r3, r1
 211 0038 20D0     		beq	.L24
 167:Middlewares/Third_Party/LwIP/src/core/udp.c ****           return 1;
 168:Middlewares/Third_Party/LwIP/src/core/udp.c ****         }
 169:Middlewares/Third_Party/LwIP/src/core/udp.c ****       }
 170:Middlewares/Third_Party/LwIP/src/core/udp.c ****     } else
 171:Middlewares/Third_Party/LwIP/src/core/udp.c **** #endif /* LWIP_IPV4 */
 172:Middlewares/Third_Party/LwIP/src/core/udp.c ****       /* Handle IPv4 and IPv6: all or exact match */
 173:Middlewares/Third_Party/LwIP/src/core/udp.c ****       if (ip_addr_isany(&pcb->local_ip) || ip_addr_cmp(&pcb->local_ip, ip_current_dest_addr())) {
 174:Middlewares/Third_Party/LwIP/src/core/udp.c ****         return 1;
 175:Middlewares/Third_Party/LwIP/src/core/udp.c ****       }
 176:Middlewares/Third_Party/LwIP/src/core/udp.c ****   }
 177:Middlewares/Third_Party/LwIP/src/core/udp.c **** 
 178:Middlewares/Third_Party/LwIP/src/core/udp.c ****   return 0;
 212              		.loc 1 178 10 view .LVU58
 213 003a 0020     		movs	r0, #0
 214 003c 17E0     		b	.L18
 215              	.LVL14:
 216              	.L29:
 135:Middlewares/Third_Party/LwIP/src/core/udp.c ****   LWIP_ASSERT("udp_input_local_match: invalid netif", inp != NULL);
 217              		.loc 1 135 3 is_stmt 1 discriminator 1 view .LVU59
 135:Middlewares/Third_Party/LwIP/src/core/udp.c ****   LWIP_ASSERT("udp_input_local_match: invalid netif", inp != NULL);
 218              		.loc 1 135 3 discriminator 1 view .LVU60
 219 003e 144B     		ldr	r3, .L31+4
 220 0040 8722     		movs	r2, #135
 221              	.LVL15:
 135:Middlewares/Third_Party/LwIP/src/core/udp.c ****   LWIP_ASSERT("udp_input_local_match: invalid netif", inp != NULL);
 222              		.loc 1 135 3 is_stmt 0 discriminator 1 view .LVU61
 223 0042 1449     		ldr	r1, .L31+8
 224              	.LVL16:
 135:Middlewares/Third_Party/LwIP/src/core/udp.c ****   LWIP_ASSERT("udp_input_local_match: invalid netif", inp != NULL);
 225              		.loc 1 135 3 discriminator 1 view .LVU62
 226 0044 1448     		ldr	r0, .L31+12
 227              	.LVL17:
 135:Middlewares/Third_Party/LwIP/src/core/udp.c ****   LWIP_ASSERT("udp_input_local_match: invalid netif", inp != NULL);
 228              		.loc 1 135 3 discriminator 1 view .LVU63
 229 0046 FFF7FEFF 		bl	printf
 230              	.LVL18:
 231 004a DEE7     		b	.L15
 232              	.L30:
 136:Middlewares/Third_Party/LwIP/src/core/udp.c **** 
 233              		.loc 1 136 3 is_stmt 1 discriminator 1 view .LVU64
 136:Middlewares/Third_Party/LwIP/src/core/udp.c **** 
 234              		.loc 1 136 3 discriminator 1 view .LVU65
 235 004c 104B     		ldr	r3, .L31+4
 236 004e 8822     		movs	r2, #136
 237 0050 1249     		ldr	r1, .L31+16
 238 0052 1148     		ldr	r0, .L31+12
 239 0054 FFF7FEFF 		bl	printf
 240              	.LVL19:
 241 0058 D8E7     		b	.L16
 242              	.L19:
 173:Middlewares/Third_Party/LwIP/src/core/udp.c ****         return 1;
 243              		.loc 1 173 7 view .LVU66
 173:Middlewares/Third_Party/LwIP/src/core/udp.c ****         return 1;
 244              		.loc 1 173 10 is_stmt 0 view .LVU67
ARM GAS  D:\Dev\msys64\tmp\cco9wmM5.s 			page 9


 245 005a 8FB1     		cbz	r7, .L25
 173:Middlewares/Third_Party/LwIP/src/core/udp.c ****         return 1;
 246              		.loc 1 173 11 discriminator 1 view .LVU68
 247 005c 3B68     		ldr	r3, [r7]
 248 005e 8BB1     		cbz	r3, .L26
 173:Middlewares/Third_Party/LwIP/src/core/udp.c ****         return 1;
 249              		.loc 1 173 44 discriminator 2 view .LVU69
 250 0060 0A4A     		ldr	r2, .L31
 251 0062 5269     		ldr	r2, [r2, #20]
 173:Middlewares/Third_Party/LwIP/src/core/udp.c ****         return 1;
 252              		.loc 1 173 41 discriminator 2 view .LVU70
 253 0064 9342     		cmp	r3, r2
 254 0066 0FD0     		beq	.L27
 255              		.loc 1 178 10 view .LVU71
 256 0068 2846     		mov	r0, r5
 257 006a 00E0     		b	.L18
 258              	.L20:
 141:Middlewares/Third_Party/LwIP/src/core/udp.c ****   }
 259              		.loc 1 141 12 view .LVU72
 260 006c 0020     		movs	r0, #0
 261              	.L18:
 179:Middlewares/Third_Party/LwIP/src/core/udp.c **** }
 262              		.loc 1 179 1 view .LVU73
 263 006e F8BD     		pop	{r3, r4, r5, r6, r7, pc}
 264              	.LVL20:
 265              	.L21:
 167:Middlewares/Third_Party/LwIP/src/core/udp.c ****         }
 266              		.loc 1 167 18 view .LVU74
 267 0070 0120     		movs	r0, #1
 268 0072 FCE7     		b	.L18
 269              	.L22:
 167:Middlewares/Third_Party/LwIP/src/core/udp.c ****         }
 270              		.loc 1 167 18 view .LVU75
 271 0074 0120     		movs	r0, #1
 272 0076 FAE7     		b	.L18
 273              	.L23:
 274 0078 0120     		movs	r0, #1
 275 007a F8E7     		b	.L18
 276              	.L24:
 167:Middlewares/Third_Party/LwIP/src/core/udp.c ****         }
 277              		.loc 1 167 18 view .LVU76
 278 007c 0120     		movs	r0, #1
 279 007e F6E7     		b	.L18
 280              	.L25:
 174:Middlewares/Third_Party/LwIP/src/core/udp.c ****       }
 281              		.loc 1 174 16 view .LVU77
 282 0080 0120     		movs	r0, #1
 283 0082 F4E7     		b	.L18
 284              	.L26:
 174:Middlewares/Third_Party/LwIP/src/core/udp.c ****       }
 285              		.loc 1 174 16 view .LVU78
 286 0084 0120     		movs	r0, #1
 287 0086 F2E7     		b	.L18
 288              	.L27:
 289 0088 0120     		movs	r0, #1
 290 008a F0E7     		b	.L18
 291              	.L32:
ARM GAS  D:\Dev\msys64\tmp\cco9wmM5.s 			page 10


 292              		.align	2
 293              	.L31:
 294 008c 00000000 		.word	ip_data
 295 0090 00000000 		.word	.LC0
 296 0094 2C000000 		.word	.LC1
 297 0098 50000000 		.word	.LC2
 298 009c 78000000 		.word	.LC3
 299              		.cfi_endproc
 300              	.LFE27:
 302              		.section	.text.udp_init,"ax",%progbits
 303              		.align	1
 304              		.global	udp_init
 305              		.syntax unified
 306              		.thumb
 307              		.thumb_func
 308              		.fpu fpv5-sp-d16
 310              	udp_init:
 311              	.LFB25:
  88:Middlewares/Third_Party/LwIP/src/core/udp.c **** #ifdef LWIP_RAND
 312              		.loc 1 88 1 is_stmt 1 view -0
 313              		.cfi_startproc
 314              		@ args = 0, pretend = 0, frame = 0
 315              		@ frame_needed = 0, uses_anonymous_args = 0
 316 0000 08B5     		push	{r3, lr}
 317              	.LCFI1:
 318              		.cfi_def_cfa_offset 8
 319              		.cfi_offset 3, -8
 320              		.cfi_offset 14, -4
  90:Middlewares/Third_Party/LwIP/src/core/udp.c **** #endif /* LWIP_RAND */
 321              		.loc 1 90 3 view .LVU80
  90:Middlewares/Third_Party/LwIP/src/core/udp.c **** #endif /* LWIP_RAND */
 322              		.loc 1 90 14 is_stmt 0 view .LVU81
 323 0002 FFF7FEFF 		bl	rand
 324              	.LVL21:
 325 0006 024B     		ldr	r3, .L35
 326 0008 0343     		orrs	r3, r3, r0
  90:Middlewares/Third_Party/LwIP/src/core/udp.c **** #endif /* LWIP_RAND */
 327              		.loc 1 90 12 view .LVU82
 328 000a 024A     		ldr	r2, .L35+4
 329 000c 1380     		strh	r3, [r2]	@ movhi
  92:Middlewares/Third_Party/LwIP/src/core/udp.c **** 
 330              		.loc 1 92 1 view .LVU83
 331 000e 08BD     		pop	{r3, pc}
 332              	.L36:
 333              		.align	2
 334              	.L35:
 335 0010 00C0FFFF 		.word	-16384
 336 0014 00000000 		.word	.LANCHOR0
 337              		.cfi_endproc
 338              	.LFE25:
 340              		.section	.rodata.udp_input.str1.4,"aMS",%progbits,1
 341              		.align	2
 342              	.LC4:
 343 0000 7564705F 		.ascii	"udp_input: invalid pbuf\000"
 343      696E7075 
 343      743A2069 
 343      6E76616C 
ARM GAS  D:\Dev\msys64\tmp\cco9wmM5.s 			page 11


 343      69642070 
 344              		.align	2
 345              	.LC5:
 346 0018 7564705F 		.ascii	"udp_input: invalid netif\000"
 346      696E7075 
 346      743A2069 
 346      6E76616C 
 346      6964206E 
 347 0031 000000   		.align	2
 348              	.LC6:
 349 0034 70627566 		.ascii	"pbuf_remove_header failed\012\000"
 349      5F72656D 
 349      6F76655F 
 349      68656164 
 349      65722066 
 350              		.section	.text.udp_input,"ax",%progbits
 351              		.align	1
 352              		.global	udp_input
 353              		.syntax unified
 354              		.thumb
 355              		.thumb_func
 356              		.fpu fpv5-sp-d16
 358              	udp_input:
 359              	.LVL22:
 360              	.LFB28:
 180:Middlewares/Third_Party/LwIP/src/core/udp.c **** 
 181:Middlewares/Third_Party/LwIP/src/core/udp.c **** /**
 182:Middlewares/Third_Party/LwIP/src/core/udp.c ****  * Process an incoming UDP datagram.
 183:Middlewares/Third_Party/LwIP/src/core/udp.c ****  *
 184:Middlewares/Third_Party/LwIP/src/core/udp.c ****  * Given an incoming UDP datagram (as a chain of pbufs) this function
 185:Middlewares/Third_Party/LwIP/src/core/udp.c ****  * finds a corresponding UDP PCB and hands over the pbuf to the pcbs
 186:Middlewares/Third_Party/LwIP/src/core/udp.c ****  * recv function. If no pcb is found or the datagram is incorrect, the
 187:Middlewares/Third_Party/LwIP/src/core/udp.c ****  * pbuf is freed.
 188:Middlewares/Third_Party/LwIP/src/core/udp.c ****  *
 189:Middlewares/Third_Party/LwIP/src/core/udp.c ****  * @param p pbuf to be demultiplexed to a UDP PCB (p->payload pointing to the UDP header)
 190:Middlewares/Third_Party/LwIP/src/core/udp.c ****  * @param inp network interface on which the datagram was received.
 191:Middlewares/Third_Party/LwIP/src/core/udp.c ****  *
 192:Middlewares/Third_Party/LwIP/src/core/udp.c ****  */
 193:Middlewares/Third_Party/LwIP/src/core/udp.c **** void
 194:Middlewares/Third_Party/LwIP/src/core/udp.c **** udp_input(struct pbuf *p, struct netif *inp)
 195:Middlewares/Third_Party/LwIP/src/core/udp.c **** {
 361              		.loc 1 195 1 is_stmt 1 view -0
 362              		.cfi_startproc
 363              		@ args = 0, pretend = 0, frame = 0
 364              		@ frame_needed = 0, uses_anonymous_args = 0
 365              		.loc 1 195 1 is_stmt 0 view .LVU85
 366 0000 2DE9F04F 		push	{r4, r5, r6, r7, r8, r9, r10, fp, lr}
 367              	.LCFI2:
 368              		.cfi_def_cfa_offset 36
 369              		.cfi_offset 4, -36
 370              		.cfi_offset 5, -32
 371              		.cfi_offset 6, -28
 372              		.cfi_offset 7, -24
 373              		.cfi_offset 8, -20
 374              		.cfi_offset 9, -16
 375              		.cfi_offset 10, -12
 376              		.cfi_offset 11, -8
ARM GAS  D:\Dev\msys64\tmp\cco9wmM5.s 			page 12


 377              		.cfi_offset 14, -4
 378 0004 83B0     		sub	sp, sp, #12
 379              	.LCFI3:
 380              		.cfi_def_cfa_offset 48
 381 0006 0F46     		mov	r7, r1
 196:Middlewares/Third_Party/LwIP/src/core/udp.c ****   struct udp_hdr *udphdr;
 382              		.loc 1 196 3 is_stmt 1 view .LVU86
 197:Middlewares/Third_Party/LwIP/src/core/udp.c ****   struct udp_pcb *pcb, *prev;
 383              		.loc 1 197 3 view .LVU87
 198:Middlewares/Third_Party/LwIP/src/core/udp.c ****   struct udp_pcb *uncon_pcb;
 384              		.loc 1 198 3 view .LVU88
 199:Middlewares/Third_Party/LwIP/src/core/udp.c ****   u16_t src, dest;
 385              		.loc 1 199 3 view .LVU89
 200:Middlewares/Third_Party/LwIP/src/core/udp.c ****   u8_t broadcast;
 386              		.loc 1 200 3 view .LVU90
 201:Middlewares/Third_Party/LwIP/src/core/udp.c ****   u8_t for_us = 0;
 387              		.loc 1 201 3 view .LVU91
 388              	.LVL23:
 202:Middlewares/Third_Party/LwIP/src/core/udp.c **** 
 203:Middlewares/Third_Party/LwIP/src/core/udp.c ****   LWIP_UNUSED_ARG(inp);
 389              		.loc 1 203 3 view .LVU92
 204:Middlewares/Third_Party/LwIP/src/core/udp.c **** 
 205:Middlewares/Third_Party/LwIP/src/core/udp.c ****   LWIP_ASSERT_CORE_LOCKED();
 390              		.loc 1 205 28 view .LVU93
 206:Middlewares/Third_Party/LwIP/src/core/udp.c **** 
 207:Middlewares/Third_Party/LwIP/src/core/udp.c ****   LWIP_ASSERT("udp_input: invalid pbuf", p != NULL);
 391              		.loc 1 207 3 view .LVU94
 392              		.loc 1 207 3 view .LVU95
 393 0008 8146     		mov	r9, r0
 394 000a D0B1     		cbz	r0, .L59
 395              	.LVL24:
 396              	.L38:
 397              		.loc 1 207 3 discriminator 3 view .LVU96
 398              		.loc 1 207 3 discriminator 3 view .LVU97
 208:Middlewares/Third_Party/LwIP/src/core/udp.c ****   LWIP_ASSERT("udp_input: invalid netif", inp != NULL);
 399              		.loc 1 208 3 discriminator 3 view .LVU98
 400              		.loc 1 208 3 discriminator 3 view .LVU99
 401 000c 07B3     		cbz	r7, .L60
 402              	.L39:
 403              		.loc 1 208 3 discriminator 3 view .LVU100
 404              		.loc 1 208 3 discriminator 3 view .LVU101
 209:Middlewares/Third_Party/LwIP/src/core/udp.c **** 
 210:Middlewares/Third_Party/LwIP/src/core/udp.c ****   PERF_START;
 405              		.loc 1 210 13 discriminator 3 view .LVU102
 211:Middlewares/Third_Party/LwIP/src/core/udp.c **** 
 212:Middlewares/Third_Party/LwIP/src/core/udp.c ****   UDP_STATS_INC(udp.recv);
 406              		.loc 1 212 26 discriminator 3 view .LVU103
 213:Middlewares/Third_Party/LwIP/src/core/udp.c **** 
 214:Middlewares/Third_Party/LwIP/src/core/udp.c ****   /* Check minimum length (UDP header) */
 215:Middlewares/Third_Party/LwIP/src/core/udp.c ****   if (p->len < UDP_HLEN) {
 407              		.loc 1 215 3 discriminator 3 view .LVU104
 408              		.loc 1 215 8 is_stmt 0 discriminator 3 view .LVU105
 409 000e B9F80A30 		ldrh	r3, [r9, #10]
 410              		.loc 1 215 6 discriminator 3 view .LVU106
 411 0012 072B     		cmp	r3, #7
 412 0014 23D9     		bls	.L61
 216:Middlewares/Third_Party/LwIP/src/core/udp.c ****     /* drop short packets */
ARM GAS  D:\Dev\msys64\tmp\cco9wmM5.s 			page 13


 217:Middlewares/Third_Party/LwIP/src/core/udp.c ****     LWIP_DEBUGF(UDP_DEBUG,
 218:Middlewares/Third_Party/LwIP/src/core/udp.c ****                 ("udp_input: short UDP datagram (%"U16_F" bytes) discarded\n", p->tot_len));
 219:Middlewares/Third_Party/LwIP/src/core/udp.c ****     UDP_STATS_INC(udp.lenerr);
 220:Middlewares/Third_Party/LwIP/src/core/udp.c ****     UDP_STATS_INC(udp.drop);
 221:Middlewares/Third_Party/LwIP/src/core/udp.c ****     MIB2_STATS_INC(mib2.udpinerrors);
 222:Middlewares/Third_Party/LwIP/src/core/udp.c ****     pbuf_free(p);
 223:Middlewares/Third_Party/LwIP/src/core/udp.c ****     goto end;
 224:Middlewares/Third_Party/LwIP/src/core/udp.c ****   }
 225:Middlewares/Third_Party/LwIP/src/core/udp.c **** 
 226:Middlewares/Third_Party/LwIP/src/core/udp.c ****   udphdr = (struct udp_hdr *)p->payload;
 413              		.loc 1 226 3 is_stmt 1 view .LVU107
 414              		.loc 1 226 10 is_stmt 0 view .LVU108
 415 0016 D9F80440 		ldr	r4, [r9, #4]
 416              	.LVL25:
 227:Middlewares/Third_Party/LwIP/src/core/udp.c **** 
 228:Middlewares/Third_Party/LwIP/src/core/udp.c ****   /* is broadcast packet ? */
 229:Middlewares/Third_Party/LwIP/src/core/udp.c ****   broadcast = ip_addr_isbroadcast(ip_current_dest_addr(), ip_current_netif());
 417              		.loc 1 229 3 is_stmt 1 view .LVU109
 418              		.loc 1 229 15 is_stmt 0 view .LVU110
 419 001a 524B     		ldr	r3, .L67
 420 001c 1968     		ldr	r1, [r3]
 421 001e 5869     		ldr	r0, [r3, #20]
 422 0020 FFF7FEFF 		bl	ip4_addr_isbroadcast_u32
 423              	.LVL26:
 424 0024 8046     		mov	r8, r0
 425              	.LVL27:
 230:Middlewares/Third_Party/LwIP/src/core/udp.c **** 
 231:Middlewares/Third_Party/LwIP/src/core/udp.c ****   LWIP_DEBUGF(UDP_DEBUG, ("udp_input: received datagram of length %"U16_F"\n", p->tot_len));
 426              		.loc 1 231 92 is_stmt 1 view .LVU111
 232:Middlewares/Third_Party/LwIP/src/core/udp.c **** 
 233:Middlewares/Third_Party/LwIP/src/core/udp.c ****   /* convert src and dest ports to host byte order */
 234:Middlewares/Third_Party/LwIP/src/core/udp.c ****   src = lwip_ntohs(udphdr->src);
 427              		.loc 1 234 3 view .LVU112
 428              		.loc 1 234 9 is_stmt 0 view .LVU113
 429 0026 2088     		ldrh	r0, [r4]	@ unaligned
 430 0028 FFF7FEFF 		bl	lwip_htons
 431              	.LVL28:
 432 002c 8246     		mov	r10, r0
 433              	.LVL29:
 235:Middlewares/Third_Party/LwIP/src/core/udp.c ****   dest = lwip_ntohs(udphdr->dest);
 434              		.loc 1 235 3 is_stmt 1 view .LVU114
 435              		.loc 1 235 10 is_stmt 0 view .LVU115
 436 002e 6088     		ldrh	r0, [r4, #2]	@ unaligned
 437 0030 FFF7FEFF 		bl	lwip_htons
 438              	.LVL30:
 439 0034 0546     		mov	r5, r0
 440              	.LVL31:
 236:Middlewares/Third_Party/LwIP/src/core/udp.c **** 
 237:Middlewares/Third_Party/LwIP/src/core/udp.c ****   udp_debug_print(udphdr);
 441              		.loc 1 237 26 is_stmt 1 view .LVU116
 238:Middlewares/Third_Party/LwIP/src/core/udp.c **** 
 239:Middlewares/Third_Party/LwIP/src/core/udp.c ****   /* print the UDP source and destination */
 240:Middlewares/Third_Party/LwIP/src/core/udp.c ****   LWIP_DEBUGF(UDP_DEBUG, ("udp ("));
 442              		.loc 1 240 36 view .LVU117
 241:Middlewares/Third_Party/LwIP/src/core/udp.c ****   ip_addr_debug_print_val(UDP_DEBUG, *ip_current_dest_addr());
 443              		.loc 1 241 62 view .LVU118
 242:Middlewares/Third_Party/LwIP/src/core/udp.c ****   LWIP_DEBUGF(UDP_DEBUG, (", %"U16_F") <-- (", lwip_ntohs(udphdr->dest)));
ARM GAS  D:\Dev\msys64\tmp\cco9wmM5.s 			page 14


 444              		.loc 1 242 74 view .LVU119
 243:Middlewares/Third_Party/LwIP/src/core/udp.c ****   ip_addr_debug_print_val(UDP_DEBUG, *ip_current_src_addr());
 445              		.loc 1 243 61 view .LVU120
 244:Middlewares/Third_Party/LwIP/src/core/udp.c ****   LWIP_DEBUGF(UDP_DEBUG, (", %"U16_F")\n", lwip_ntohs(udphdr->src)));
 446              		.loc 1 244 69 view .LVU121
 245:Middlewares/Third_Party/LwIP/src/core/udp.c **** 
 246:Middlewares/Third_Party/LwIP/src/core/udp.c ****   pcb = NULL;
 447              		.loc 1 246 3 view .LVU122
 247:Middlewares/Third_Party/LwIP/src/core/udp.c ****   prev = NULL;
 448              		.loc 1 247 3 view .LVU123
 248:Middlewares/Third_Party/LwIP/src/core/udp.c ****   uncon_pcb = NULL;
 449              		.loc 1 248 3 view .LVU124
 249:Middlewares/Third_Party/LwIP/src/core/udp.c ****   /* Iterate through the UDP pcb list for a matching pcb.
 250:Middlewares/Third_Party/LwIP/src/core/udp.c ****    * 'Perfect match' pcbs (connected to the remote port & ip address) are
 251:Middlewares/Third_Party/LwIP/src/core/udp.c ****    * preferred. If no perfect match is found, the first unconnected pcb that
 252:Middlewares/Third_Party/LwIP/src/core/udp.c ****    * matches the local port and ip address gets the datagram. */
 253:Middlewares/Third_Party/LwIP/src/core/udp.c ****   for (pcb = udp_pcbs; pcb != NULL; pcb = pcb->next) {
 450              		.loc 1 253 3 view .LVU125
 451              		.loc 1 253 12 is_stmt 0 view .LVU126
 452 0036 4C4B     		ldr	r3, .L67+4
 453 0038 1C68     		ldr	r4, [r3]
 454              	.LVL32:
 248:Middlewares/Third_Party/LwIP/src/core/udp.c ****   uncon_pcb = NULL;
 455              		.loc 1 248 13 view .LVU127
 456 003a 4FF0000B 		mov	fp, #0
 247:Middlewares/Third_Party/LwIP/src/core/udp.c ****   uncon_pcb = NULL;
 457              		.loc 1 247 8 view .LVU128
 458 003e 5E46     		mov	r6, fp
 459              		.loc 1 253 3 view .LVU129
 460 0040 19E0     		b	.L42
 461              	.LVL33:
 462              	.L59:
 207:Middlewares/Third_Party/LwIP/src/core/udp.c ****   LWIP_ASSERT("udp_input: invalid netif", inp != NULL);
 463              		.loc 1 207 3 is_stmt 1 discriminator 1 view .LVU130
 207:Middlewares/Third_Party/LwIP/src/core/udp.c ****   LWIP_ASSERT("udp_input: invalid netif", inp != NULL);
 464              		.loc 1 207 3 discriminator 1 view .LVU131
 465 0042 4A4B     		ldr	r3, .L67+8
 466 0044 CF22     		movs	r2, #207
 467 0046 4A49     		ldr	r1, .L67+12
 468              	.LVL34:
 207:Middlewares/Third_Party/LwIP/src/core/udp.c ****   LWIP_ASSERT("udp_input: invalid netif", inp != NULL);
 469              		.loc 1 207 3 is_stmt 0 discriminator 1 view .LVU132
 470 0048 4A48     		ldr	r0, .L67+16
 471              	.LVL35:
 207:Middlewares/Third_Party/LwIP/src/core/udp.c ****   LWIP_ASSERT("udp_input: invalid netif", inp != NULL);
 472              		.loc 1 207 3 discriminator 1 view .LVU133
 473 004a FFF7FEFF 		bl	printf
 474              	.LVL36:
 475 004e DDE7     		b	.L38
 476              	.L60:
 208:Middlewares/Third_Party/LwIP/src/core/udp.c **** 
 477              		.loc 1 208 3 is_stmt 1 discriminator 1 view .LVU134
 208:Middlewares/Third_Party/LwIP/src/core/udp.c **** 
 478              		.loc 1 208 3 discriminator 1 view .LVU135
 479 0050 464B     		ldr	r3, .L67+8
 480 0052 D022     		movs	r2, #208
 481 0054 4849     		ldr	r1, .L67+20
ARM GAS  D:\Dev\msys64\tmp\cco9wmM5.s 			page 15


 482 0056 4748     		ldr	r0, .L67+16
 483 0058 FFF7FEFF 		bl	printf
 484              	.LVL37:
 485 005c D7E7     		b	.L39
 486              	.L61:
 218:Middlewares/Third_Party/LwIP/src/core/udp.c ****     UDP_STATS_INC(udp.lenerr);
 487              		.loc 1 218 92 view .LVU136
 219:Middlewares/Third_Party/LwIP/src/core/udp.c ****     UDP_STATS_INC(udp.drop);
 488              		.loc 1 219 30 view .LVU137
 220:Middlewares/Third_Party/LwIP/src/core/udp.c ****     MIB2_STATS_INC(mib2.udpinerrors);
 489              		.loc 1 220 28 view .LVU138
 221:Middlewares/Third_Party/LwIP/src/core/udp.c ****     pbuf_free(p);
 490              		.loc 1 221 37 view .LVU139
 222:Middlewares/Third_Party/LwIP/src/core/udp.c ****     goto end;
 491              		.loc 1 222 5 view .LVU140
 492 005e 4846     		mov	r0, r9
 493 0060 FFF7FEFF 		bl	pbuf_free
 494              	.LVL38:
 223:Middlewares/Third_Party/LwIP/src/core/udp.c ****   }
 495              		.loc 1 223 5 view .LVU141
 496              	.L41:
 497              	.L37:
 254:Middlewares/Third_Party/LwIP/src/core/udp.c ****     /* print the PCB local and remote address */
 255:Middlewares/Third_Party/LwIP/src/core/udp.c ****     LWIP_DEBUGF(UDP_DEBUG, ("pcb ("));
 256:Middlewares/Third_Party/LwIP/src/core/udp.c ****     ip_addr_debug_print_val(UDP_DEBUG, pcb->local_ip);
 257:Middlewares/Third_Party/LwIP/src/core/udp.c ****     LWIP_DEBUGF(UDP_DEBUG, (", %"U16_F") <-- (", pcb->local_port));
 258:Middlewares/Third_Party/LwIP/src/core/udp.c ****     ip_addr_debug_print_val(UDP_DEBUG, pcb->remote_ip);
 259:Middlewares/Third_Party/LwIP/src/core/udp.c ****     LWIP_DEBUGF(UDP_DEBUG, (", %"U16_F")\n", pcb->remote_port));
 260:Middlewares/Third_Party/LwIP/src/core/udp.c **** 
 261:Middlewares/Third_Party/LwIP/src/core/udp.c ****     /* compare PCB local addr+port to UDP destination addr+port */
 262:Middlewares/Third_Party/LwIP/src/core/udp.c ****     if ((pcb->local_port == dest) &&
 263:Middlewares/Third_Party/LwIP/src/core/udp.c ****         (udp_input_local_match(pcb, inp, broadcast) != 0)) {
 264:Middlewares/Third_Party/LwIP/src/core/udp.c ****       if ((pcb->flags & UDP_FLAGS_CONNECTED) == 0) {
 265:Middlewares/Third_Party/LwIP/src/core/udp.c ****         if (uncon_pcb == NULL) {
 266:Middlewares/Third_Party/LwIP/src/core/udp.c ****           /* the first unconnected matching PCB */
 267:Middlewares/Third_Party/LwIP/src/core/udp.c ****           uncon_pcb = pcb;
 268:Middlewares/Third_Party/LwIP/src/core/udp.c **** #if LWIP_IPV4
 269:Middlewares/Third_Party/LwIP/src/core/udp.c ****         } else if (broadcast && ip4_current_dest_addr()->addr == IPADDR_BROADCAST) {
 270:Middlewares/Third_Party/LwIP/src/core/udp.c ****           /* global broadcast address (only valid for IPv4; match was checked before) */
 271:Middlewares/Third_Party/LwIP/src/core/udp.c ****           if (!IP_IS_V4_VAL(uncon_pcb->local_ip) || !ip4_addr_cmp(ip_2_ip4(&uncon_pcb->local_ip), n
 272:Middlewares/Third_Party/LwIP/src/core/udp.c ****             /* uncon_pcb does not match the input netif, check this pcb */
 273:Middlewares/Third_Party/LwIP/src/core/udp.c ****             if (IP_IS_V4_VAL(pcb->local_ip) && ip4_addr_cmp(ip_2_ip4(&pcb->local_ip), netif_ip4_add
 274:Middlewares/Third_Party/LwIP/src/core/udp.c ****               /* better match */
 275:Middlewares/Third_Party/LwIP/src/core/udp.c ****               uncon_pcb = pcb;
 276:Middlewares/Third_Party/LwIP/src/core/udp.c ****             }
 277:Middlewares/Third_Party/LwIP/src/core/udp.c ****           }
 278:Middlewares/Third_Party/LwIP/src/core/udp.c **** #endif /* LWIP_IPV4 */
 279:Middlewares/Third_Party/LwIP/src/core/udp.c ****         }
 280:Middlewares/Third_Party/LwIP/src/core/udp.c **** #if SO_REUSE
 281:Middlewares/Third_Party/LwIP/src/core/udp.c ****         else if (!ip_addr_isany(&pcb->local_ip)) {
 282:Middlewares/Third_Party/LwIP/src/core/udp.c ****           /* prefer specific IPs over catch-all */
 283:Middlewares/Third_Party/LwIP/src/core/udp.c ****           uncon_pcb = pcb;
 284:Middlewares/Third_Party/LwIP/src/core/udp.c ****         }
 285:Middlewares/Third_Party/LwIP/src/core/udp.c **** #endif /* SO_REUSE */
 286:Middlewares/Third_Party/LwIP/src/core/udp.c ****       }
 287:Middlewares/Third_Party/LwIP/src/core/udp.c **** 
 288:Middlewares/Third_Party/LwIP/src/core/udp.c ****       /* compare PCB remote addr+port to UDP source addr+port */
ARM GAS  D:\Dev\msys64\tmp\cco9wmM5.s 			page 16


 289:Middlewares/Third_Party/LwIP/src/core/udp.c ****       if ((pcb->remote_port == src) &&
 290:Middlewares/Third_Party/LwIP/src/core/udp.c ****           (ip_addr_isany_val(pcb->remote_ip) ||
 291:Middlewares/Third_Party/LwIP/src/core/udp.c ****            ip_addr_cmp(&pcb->remote_ip, ip_current_src_addr()))) {
 292:Middlewares/Third_Party/LwIP/src/core/udp.c ****         /* the first fully matching PCB */
 293:Middlewares/Third_Party/LwIP/src/core/udp.c ****         if (prev != NULL) {
 294:Middlewares/Third_Party/LwIP/src/core/udp.c ****           /* move the pcb to the front of udp_pcbs so that is
 295:Middlewares/Third_Party/LwIP/src/core/udp.c ****              found faster next time */
 296:Middlewares/Third_Party/LwIP/src/core/udp.c ****           prev->next = pcb->next;
 297:Middlewares/Third_Party/LwIP/src/core/udp.c ****           pcb->next = udp_pcbs;
 298:Middlewares/Third_Party/LwIP/src/core/udp.c ****           udp_pcbs = pcb;
 299:Middlewares/Third_Party/LwIP/src/core/udp.c ****         } else {
 300:Middlewares/Third_Party/LwIP/src/core/udp.c ****           UDP_STATS_INC(udp.cachehit);
 301:Middlewares/Third_Party/LwIP/src/core/udp.c ****         }
 302:Middlewares/Third_Party/LwIP/src/core/udp.c ****         break;
 303:Middlewares/Third_Party/LwIP/src/core/udp.c ****       }
 304:Middlewares/Third_Party/LwIP/src/core/udp.c ****     }
 305:Middlewares/Third_Party/LwIP/src/core/udp.c **** 
 306:Middlewares/Third_Party/LwIP/src/core/udp.c ****     prev = pcb;
 307:Middlewares/Third_Party/LwIP/src/core/udp.c ****   }
 308:Middlewares/Third_Party/LwIP/src/core/udp.c ****   /* no fully matching pcb found? then look for an unconnected pcb */
 309:Middlewares/Third_Party/LwIP/src/core/udp.c ****   if (pcb == NULL) {
 310:Middlewares/Third_Party/LwIP/src/core/udp.c ****     pcb = uncon_pcb;
 311:Middlewares/Third_Party/LwIP/src/core/udp.c ****   }
 312:Middlewares/Third_Party/LwIP/src/core/udp.c **** 
 313:Middlewares/Third_Party/LwIP/src/core/udp.c ****   /* Check checksum if this is a match or if it was directed at us. */
 314:Middlewares/Third_Party/LwIP/src/core/udp.c ****   if (pcb != NULL) {
 315:Middlewares/Third_Party/LwIP/src/core/udp.c ****     for_us = 1;
 316:Middlewares/Third_Party/LwIP/src/core/udp.c ****   } else {
 317:Middlewares/Third_Party/LwIP/src/core/udp.c **** #if LWIP_IPV6
 318:Middlewares/Third_Party/LwIP/src/core/udp.c ****     if (ip_current_is_v6()) {
 319:Middlewares/Third_Party/LwIP/src/core/udp.c ****       for_us = netif_get_ip6_addr_match(inp, ip6_current_dest_addr()) >= 0;
 320:Middlewares/Third_Party/LwIP/src/core/udp.c ****     }
 321:Middlewares/Third_Party/LwIP/src/core/udp.c **** #endif /* LWIP_IPV6 */
 322:Middlewares/Third_Party/LwIP/src/core/udp.c **** #if LWIP_IPV4
 323:Middlewares/Third_Party/LwIP/src/core/udp.c ****     if (!ip_current_is_v6()) {
 324:Middlewares/Third_Party/LwIP/src/core/udp.c ****       for_us = ip4_addr_cmp(netif_ip4_addr(inp), ip4_current_dest_addr());
 325:Middlewares/Third_Party/LwIP/src/core/udp.c ****     }
 326:Middlewares/Third_Party/LwIP/src/core/udp.c **** #endif /* LWIP_IPV4 */
 327:Middlewares/Third_Party/LwIP/src/core/udp.c ****   }
 328:Middlewares/Third_Party/LwIP/src/core/udp.c **** 
 329:Middlewares/Third_Party/LwIP/src/core/udp.c ****   if (for_us) {
 330:Middlewares/Third_Party/LwIP/src/core/udp.c ****     LWIP_DEBUGF(UDP_DEBUG | LWIP_DBG_TRACE, ("udp_input: calculating checksum\n"));
 331:Middlewares/Third_Party/LwIP/src/core/udp.c **** #if CHECKSUM_CHECK_UDP
 332:Middlewares/Third_Party/LwIP/src/core/udp.c ****     IF__NETIF_CHECKSUM_ENABLED(inp, NETIF_CHECKSUM_CHECK_UDP) {
 333:Middlewares/Third_Party/LwIP/src/core/udp.c **** #if LWIP_UDPLITE
 334:Middlewares/Third_Party/LwIP/src/core/udp.c ****       if (ip_current_header_proto() == IP_PROTO_UDPLITE) {
 335:Middlewares/Third_Party/LwIP/src/core/udp.c ****         /* Do the UDP Lite checksum */
 336:Middlewares/Third_Party/LwIP/src/core/udp.c ****         u16_t chklen = lwip_ntohs(udphdr->len);
 337:Middlewares/Third_Party/LwIP/src/core/udp.c ****         if (chklen < sizeof(struct udp_hdr)) {
 338:Middlewares/Third_Party/LwIP/src/core/udp.c ****           if (chklen == 0) {
 339:Middlewares/Third_Party/LwIP/src/core/udp.c ****             /* For UDP-Lite, checksum length of 0 means checksum
 340:Middlewares/Third_Party/LwIP/src/core/udp.c ****                over the complete packet (See RFC 3828 chap. 3.1) */
 341:Middlewares/Third_Party/LwIP/src/core/udp.c ****             chklen = p->tot_len;
 342:Middlewares/Third_Party/LwIP/src/core/udp.c ****           } else {
 343:Middlewares/Third_Party/LwIP/src/core/udp.c ****             /* At least the UDP-Lite header must be covered by the
 344:Middlewares/Third_Party/LwIP/src/core/udp.c ****                checksum! (Again, see RFC 3828 chap. 3.1) */
 345:Middlewares/Third_Party/LwIP/src/core/udp.c ****             goto chkerr;
ARM GAS  D:\Dev\msys64\tmp\cco9wmM5.s 			page 17


 346:Middlewares/Third_Party/LwIP/src/core/udp.c ****           }
 347:Middlewares/Third_Party/LwIP/src/core/udp.c ****         }
 348:Middlewares/Third_Party/LwIP/src/core/udp.c ****         if (ip_chksum_pseudo_partial(p, IP_PROTO_UDPLITE,
 349:Middlewares/Third_Party/LwIP/src/core/udp.c ****                                      p->tot_len, chklen,
 350:Middlewares/Third_Party/LwIP/src/core/udp.c ****                                      ip_current_src_addr(), ip_current_dest_addr()) != 0) {
 351:Middlewares/Third_Party/LwIP/src/core/udp.c ****           goto chkerr;
 352:Middlewares/Third_Party/LwIP/src/core/udp.c ****         }
 353:Middlewares/Third_Party/LwIP/src/core/udp.c ****       } else
 354:Middlewares/Third_Party/LwIP/src/core/udp.c **** #endif /* LWIP_UDPLITE */
 355:Middlewares/Third_Party/LwIP/src/core/udp.c ****       {
 356:Middlewares/Third_Party/LwIP/src/core/udp.c ****         if (udphdr->chksum != 0) {
 357:Middlewares/Third_Party/LwIP/src/core/udp.c ****           if (ip_chksum_pseudo(p, IP_PROTO_UDP, p->tot_len,
 358:Middlewares/Third_Party/LwIP/src/core/udp.c ****                                ip_current_src_addr(),
 359:Middlewares/Third_Party/LwIP/src/core/udp.c ****                                ip_current_dest_addr()) != 0) {
 360:Middlewares/Third_Party/LwIP/src/core/udp.c ****             goto chkerr;
 361:Middlewares/Third_Party/LwIP/src/core/udp.c ****           }
 362:Middlewares/Third_Party/LwIP/src/core/udp.c ****         }
 363:Middlewares/Third_Party/LwIP/src/core/udp.c ****       }
 364:Middlewares/Third_Party/LwIP/src/core/udp.c ****     }
 365:Middlewares/Third_Party/LwIP/src/core/udp.c **** #endif /* CHECKSUM_CHECK_UDP */
 366:Middlewares/Third_Party/LwIP/src/core/udp.c ****     if (pbuf_remove_header(p, UDP_HLEN)) {
 367:Middlewares/Third_Party/LwIP/src/core/udp.c ****       /* Can we cope with this failing? Just assert for now */
 368:Middlewares/Third_Party/LwIP/src/core/udp.c ****       LWIP_ASSERT("pbuf_remove_header failed\n", 0);
 369:Middlewares/Third_Party/LwIP/src/core/udp.c ****       UDP_STATS_INC(udp.drop);
 370:Middlewares/Third_Party/LwIP/src/core/udp.c ****       MIB2_STATS_INC(mib2.udpinerrors);
 371:Middlewares/Third_Party/LwIP/src/core/udp.c ****       pbuf_free(p);
 372:Middlewares/Third_Party/LwIP/src/core/udp.c ****       goto end;
 373:Middlewares/Third_Party/LwIP/src/core/udp.c ****     }
 374:Middlewares/Third_Party/LwIP/src/core/udp.c **** 
 375:Middlewares/Third_Party/LwIP/src/core/udp.c ****     if (pcb != NULL) {
 376:Middlewares/Third_Party/LwIP/src/core/udp.c ****       MIB2_STATS_INC(mib2.udpindatagrams);
 377:Middlewares/Third_Party/LwIP/src/core/udp.c **** #if SO_REUSE && SO_REUSE_RXTOALL
 378:Middlewares/Third_Party/LwIP/src/core/udp.c ****       if (ip_get_option(pcb, SOF_REUSEADDR) &&
 379:Middlewares/Third_Party/LwIP/src/core/udp.c ****           (broadcast || ip_addr_ismulticast(ip_current_dest_addr()))) {
 380:Middlewares/Third_Party/LwIP/src/core/udp.c ****         /* pass broadcast- or multicast packets to all multicast pcbs
 381:Middlewares/Third_Party/LwIP/src/core/udp.c ****            if SOF_REUSEADDR is set on the first match */
 382:Middlewares/Third_Party/LwIP/src/core/udp.c ****         struct udp_pcb *mpcb;
 383:Middlewares/Third_Party/LwIP/src/core/udp.c ****         for (mpcb = udp_pcbs; mpcb != NULL; mpcb = mpcb->next) {
 384:Middlewares/Third_Party/LwIP/src/core/udp.c ****           if (mpcb != pcb) {
 385:Middlewares/Third_Party/LwIP/src/core/udp.c ****             /* compare PCB local addr+port to UDP destination addr+port */
 386:Middlewares/Third_Party/LwIP/src/core/udp.c ****             if ((mpcb->local_port == dest) &&
 387:Middlewares/Third_Party/LwIP/src/core/udp.c ****                 (udp_input_local_match(mpcb, inp, broadcast) != 0)) {
 388:Middlewares/Third_Party/LwIP/src/core/udp.c ****               /* pass a copy of the packet to all local matches */
 389:Middlewares/Third_Party/LwIP/src/core/udp.c ****               if (mpcb->recv != NULL) {
 390:Middlewares/Third_Party/LwIP/src/core/udp.c ****                 struct pbuf *q;
 391:Middlewares/Third_Party/LwIP/src/core/udp.c ****                 q = pbuf_clone(PBUF_RAW, PBUF_POOL, p);
 392:Middlewares/Third_Party/LwIP/src/core/udp.c ****                 if (q != NULL) {
 393:Middlewares/Third_Party/LwIP/src/core/udp.c ****                   mpcb->recv(mpcb->recv_arg, mpcb, q, ip_current_src_addr(), src);
 394:Middlewares/Third_Party/LwIP/src/core/udp.c ****                 }
 395:Middlewares/Third_Party/LwIP/src/core/udp.c ****               }
 396:Middlewares/Third_Party/LwIP/src/core/udp.c ****             }
 397:Middlewares/Third_Party/LwIP/src/core/udp.c ****           }
 398:Middlewares/Third_Party/LwIP/src/core/udp.c ****         }
 399:Middlewares/Third_Party/LwIP/src/core/udp.c ****       }
 400:Middlewares/Third_Party/LwIP/src/core/udp.c **** #endif /* SO_REUSE && SO_REUSE_RXTOALL */
 401:Middlewares/Third_Party/LwIP/src/core/udp.c ****       /* callback */
 402:Middlewares/Third_Party/LwIP/src/core/udp.c ****       if (pcb->recv != NULL) {
ARM GAS  D:\Dev\msys64\tmp\cco9wmM5.s 			page 18


 403:Middlewares/Third_Party/LwIP/src/core/udp.c ****         /* now the recv function is responsible for freeing p */
 404:Middlewares/Third_Party/LwIP/src/core/udp.c ****         pcb->recv(pcb->recv_arg, pcb, p, ip_current_src_addr(), src);
 405:Middlewares/Third_Party/LwIP/src/core/udp.c ****       } else {
 406:Middlewares/Third_Party/LwIP/src/core/udp.c ****         /* no recv function registered? then we have to free the pbuf! */
 407:Middlewares/Third_Party/LwIP/src/core/udp.c ****         pbuf_free(p);
 408:Middlewares/Third_Party/LwIP/src/core/udp.c ****         goto end;
 409:Middlewares/Third_Party/LwIP/src/core/udp.c ****       }
 410:Middlewares/Third_Party/LwIP/src/core/udp.c ****     } else {
 411:Middlewares/Third_Party/LwIP/src/core/udp.c ****       LWIP_DEBUGF(UDP_DEBUG | LWIP_DBG_TRACE, ("udp_input: not for us.\n"));
 412:Middlewares/Third_Party/LwIP/src/core/udp.c **** 
 413:Middlewares/Third_Party/LwIP/src/core/udp.c **** #if LWIP_ICMP || LWIP_ICMP6
 414:Middlewares/Third_Party/LwIP/src/core/udp.c ****       /* No match was found, send ICMP destination port unreachable unless
 415:Middlewares/Third_Party/LwIP/src/core/udp.c ****          destination address was broadcast/multicast. */
 416:Middlewares/Third_Party/LwIP/src/core/udp.c ****       if (!broadcast && !ip_addr_ismulticast(ip_current_dest_addr())) {
 417:Middlewares/Third_Party/LwIP/src/core/udp.c ****         /* move payload pointer back to ip header */
 418:Middlewares/Third_Party/LwIP/src/core/udp.c ****         pbuf_header_force(p, (s16_t)(ip_current_header_tot_len() + UDP_HLEN));
 419:Middlewares/Third_Party/LwIP/src/core/udp.c ****         icmp_port_unreach(ip_current_is_v6(), p);
 420:Middlewares/Third_Party/LwIP/src/core/udp.c ****       }
 421:Middlewares/Third_Party/LwIP/src/core/udp.c **** #endif /* LWIP_ICMP || LWIP_ICMP6 */
 422:Middlewares/Third_Party/LwIP/src/core/udp.c ****       UDP_STATS_INC(udp.proterr);
 423:Middlewares/Third_Party/LwIP/src/core/udp.c ****       UDP_STATS_INC(udp.drop);
 424:Middlewares/Third_Party/LwIP/src/core/udp.c ****       MIB2_STATS_INC(mib2.udpnoports);
 425:Middlewares/Third_Party/LwIP/src/core/udp.c ****       pbuf_free(p);
 426:Middlewares/Third_Party/LwIP/src/core/udp.c ****     }
 427:Middlewares/Third_Party/LwIP/src/core/udp.c ****   } else {
 428:Middlewares/Third_Party/LwIP/src/core/udp.c ****     pbuf_free(p);
 429:Middlewares/Third_Party/LwIP/src/core/udp.c ****   }
 430:Middlewares/Third_Party/LwIP/src/core/udp.c **** end:
 431:Middlewares/Third_Party/LwIP/src/core/udp.c ****   PERF_STOP("udp_input");
 432:Middlewares/Third_Party/LwIP/src/core/udp.c ****   return;
 433:Middlewares/Third_Party/LwIP/src/core/udp.c **** #if CHECKSUM_CHECK_UDP
 434:Middlewares/Third_Party/LwIP/src/core/udp.c **** chkerr:
 435:Middlewares/Third_Party/LwIP/src/core/udp.c ****   LWIP_DEBUGF(UDP_DEBUG | LWIP_DBG_LEVEL_SERIOUS,
 436:Middlewares/Third_Party/LwIP/src/core/udp.c ****               ("udp_input: UDP (or UDP Lite) datagram discarded due to failing checksum\n"));
 437:Middlewares/Third_Party/LwIP/src/core/udp.c ****   UDP_STATS_INC(udp.chkerr);
 438:Middlewares/Third_Party/LwIP/src/core/udp.c ****   UDP_STATS_INC(udp.drop);
 439:Middlewares/Third_Party/LwIP/src/core/udp.c ****   MIB2_STATS_INC(mib2.udpinerrors);
 440:Middlewares/Third_Party/LwIP/src/core/udp.c ****   pbuf_free(p);
 441:Middlewares/Third_Party/LwIP/src/core/udp.c ****   PERF_STOP("udp_input");
 442:Middlewares/Third_Party/LwIP/src/core/udp.c **** #endif /* CHECKSUM_CHECK_UDP */
 443:Middlewares/Third_Party/LwIP/src/core/udp.c **** }
 498              		.loc 1 443 1 is_stmt 0 view .LVU142
 499 0064 03B0     		add	sp, sp, #12
 500              	.LCFI4:
 501              		.cfi_remember_state
 502              		.cfi_def_cfa_offset 36
 503              		@ sp needed
 504 0066 BDE8F08F 		pop	{r4, r5, r6, r7, r8, r9, r10, fp, pc}
 505              	.LVL39:
 506              	.L55:
 507              	.LCFI5:
 508              		.cfi_restore_state
 267:Middlewares/Third_Party/LwIP/src/core/udp.c **** #if LWIP_IPV4
 509              		.loc 1 267 21 view .LVU143
 510 006a A346     		mov	fp, r4
 511              	.LVL40:
 512              	.L44:
ARM GAS  D:\Dev\msys64\tmp\cco9wmM5.s 			page 19


 289:Middlewares/Third_Party/LwIP/src/core/udp.c ****           (ip_addr_isany_val(pcb->remote_ip) ||
 513              		.loc 1 289 7 is_stmt 1 view .LVU144
 289:Middlewares/Third_Party/LwIP/src/core/udp.c ****           (ip_addr_isany_val(pcb->remote_ip) ||
 514              		.loc 1 289 15 is_stmt 0 view .LVU145
 515 006c A38A     		ldrh	r3, [r4, #20]
 289:Middlewares/Third_Party/LwIP/src/core/udp.c ****           (ip_addr_isany_val(pcb->remote_ip) ||
 516              		.loc 1 289 10 view .LVU146
 517 006e 5345     		cmp	r3, r10
 518 0070 26D0     		beq	.L62
 519              	.L43:
 306:Middlewares/Third_Party/LwIP/src/core/udp.c ****   }
 520              		.loc 1 306 5 is_stmt 1 discriminator 2 view .LVU147
 521              	.LVL41:
 253:Middlewares/Third_Party/LwIP/src/core/udp.c ****     /* print the PCB local and remote address */
 522              		.loc 1 253 37 discriminator 2 view .LVU148
 306:Middlewares/Third_Party/LwIP/src/core/udp.c ****   }
 523              		.loc 1 306 10 is_stmt 0 discriminator 2 view .LVU149
 524 0072 2646     		mov	r6, r4
 253:Middlewares/Third_Party/LwIP/src/core/udp.c ****     /* print the PCB local and remote address */
 525              		.loc 1 253 41 discriminator 2 view .LVU150
 526 0074 E468     		ldr	r4, [r4, #12]
 527              	.LVL42:
 528              	.L42:
 253:Middlewares/Third_Party/LwIP/src/core/udp.c ****     /* print the PCB local and remote address */
 529              		.loc 1 253 24 is_stmt 1 discriminator 1 view .LVU151
 253:Middlewares/Third_Party/LwIP/src/core/udp.c ****     /* print the PCB local and remote address */
 530              		.loc 1 253 3 is_stmt 0 discriminator 1 view .LVU152
 531 0076 002C     		cmp	r4, #0
 532 0078 2FD0     		beq	.L46
 255:Middlewares/Third_Party/LwIP/src/core/udp.c ****     ip_addr_debug_print_val(UDP_DEBUG, pcb->local_ip);
 533              		.loc 1 255 38 is_stmt 1 view .LVU153
 256:Middlewares/Third_Party/LwIP/src/core/udp.c ****     LWIP_DEBUGF(UDP_DEBUG, (", %"U16_F") <-- (", pcb->local_port));
 534              		.loc 1 256 54 view .LVU154
 257:Middlewares/Third_Party/LwIP/src/core/udp.c ****     ip_addr_debug_print_val(UDP_DEBUG, pcb->remote_ip);
 535              		.loc 1 257 67 view .LVU155
 258:Middlewares/Third_Party/LwIP/src/core/udp.c ****     LWIP_DEBUGF(UDP_DEBUG, (", %"U16_F")\n", pcb->remote_port));
 536              		.loc 1 258 55 view .LVU156
 259:Middlewares/Third_Party/LwIP/src/core/udp.c **** 
 537              		.loc 1 259 64 view .LVU157
 262:Middlewares/Third_Party/LwIP/src/core/udp.c ****         (udp_input_local_match(pcb, inp, broadcast) != 0)) {
 538              		.loc 1 262 5 view .LVU158
 262:Middlewares/Third_Party/LwIP/src/core/udp.c ****         (udp_input_local_match(pcb, inp, broadcast) != 0)) {
 539              		.loc 1 262 13 is_stmt 0 view .LVU159
 540 007a 638A     		ldrh	r3, [r4, #18]
 262:Middlewares/Third_Party/LwIP/src/core/udp.c ****         (udp_input_local_match(pcb, inp, broadcast) != 0)) {
 541              		.loc 1 262 8 view .LVU160
 542 007c AB42     		cmp	r3, r5
 543 007e F8D1     		bne	.L43
 263:Middlewares/Third_Party/LwIP/src/core/udp.c ****       if ((pcb->flags & UDP_FLAGS_CONNECTED) == 0) {
 544              		.loc 1 263 10 discriminator 1 view .LVU161
 545 0080 4246     		mov	r2, r8
 546 0082 3946     		mov	r1, r7
 547 0084 2046     		mov	r0, r4
 548 0086 FFF7FEFF 		bl	udp_input_local_match
 549              	.LVL43:
 262:Middlewares/Third_Party/LwIP/src/core/udp.c ****         (udp_input_local_match(pcb, inp, broadcast) != 0)) {
 550              		.loc 1 262 35 discriminator 1 view .LVU162
ARM GAS  D:\Dev\msys64\tmp\cco9wmM5.s 			page 20


 551 008a 0028     		cmp	r0, #0
 552 008c F1D0     		beq	.L43
 264:Middlewares/Third_Party/LwIP/src/core/udp.c ****         if (uncon_pcb == NULL) {
 553              		.loc 1 264 7 is_stmt 1 view .LVU163
 264:Middlewares/Third_Party/LwIP/src/core/udp.c ****         if (uncon_pcb == NULL) {
 554              		.loc 1 264 15 is_stmt 0 view .LVU164
 555 008e 237C     		ldrb	r3, [r4, #16]	@ zero_extendqisi2
 264:Middlewares/Third_Party/LwIP/src/core/udp.c ****         if (uncon_pcb == NULL) {
 556              		.loc 1 264 10 view .LVU165
 557 0090 13F0040F 		tst	r3, #4
 558 0094 EAD1     		bne	.L44
 265:Middlewares/Third_Party/LwIP/src/core/udp.c ****           /* the first unconnected matching PCB */
 559              		.loc 1 265 9 is_stmt 1 view .LVU166
 265:Middlewares/Third_Party/LwIP/src/core/udp.c ****           /* the first unconnected matching PCB */
 560              		.loc 1 265 12 is_stmt 0 view .LVU167
 561 0096 BBF1000F 		cmp	fp, #0
 562 009a E6D0     		beq	.L55
 269:Middlewares/Third_Party/LwIP/src/core/udp.c ****           /* global broadcast address (only valid for IPv4; match was checked before) */
 563              		.loc 1 269 16 is_stmt 1 view .LVU168
 269:Middlewares/Third_Party/LwIP/src/core/udp.c ****           /* global broadcast address (only valid for IPv4; match was checked before) */
 564              		.loc 1 269 19 is_stmt 0 view .LVU169
 565 009c B8F1000F 		cmp	r8, #0
 566 00a0 E4D0     		beq	.L44
 269:Middlewares/Third_Party/LwIP/src/core/udp.c ****           /* global broadcast address (only valid for IPv4; match was checked before) */
 567              		.loc 1 269 56 discriminator 1 view .LVU170
 568 00a2 304B     		ldr	r3, .L67
 569 00a4 5B69     		ldr	r3, [r3, #20]
 269:Middlewares/Third_Party/LwIP/src/core/udp.c ****           /* global broadcast address (only valid for IPv4; match was checked before) */
 570              		.loc 1 269 30 discriminator 1 view .LVU171
 571 00a6 B3F1FF3F 		cmp	r3, #-1
 572 00aa DFD1     		bne	.L44
 271:Middlewares/Third_Party/LwIP/src/core/udp.c ****             /* uncon_pcb does not match the input netif, check this pcb */
 573              		.loc 1 271 11 is_stmt 1 view .LVU172
 271:Middlewares/Third_Party/LwIP/src/core/udp.c ****             /* uncon_pcb does not match the input netif, check this pcb */
 574              		.loc 1 271 54 is_stmt 0 view .LVU173
 575 00ac DBF80020 		ldr	r2, [fp]
 576 00b0 7B68     		ldr	r3, [r7, #4]
 271:Middlewares/Third_Party/LwIP/src/core/udp.c ****             /* uncon_pcb does not match the input netif, check this pcb */
 577              		.loc 1 271 14 view .LVU174
 578 00b2 9A42     		cmp	r2, r3
 579 00b4 DAD0     		beq	.L44
 273:Middlewares/Third_Party/LwIP/src/core/udp.c ****               /* better match */
 580              		.loc 1 273 13 is_stmt 1 view .LVU175
 273:Middlewares/Third_Party/LwIP/src/core/udp.c ****               /* better match */
 581              		.loc 1 273 48 is_stmt 0 view .LVU176
 582 00b6 2268     		ldr	r2, [r4]
 273:Middlewares/Third_Party/LwIP/src/core/udp.c ****               /* better match */
 583              		.loc 1 273 16 view .LVU177
 584 00b8 9342     		cmp	r3, r2
 585 00ba D7D1     		bne	.L44
 275:Middlewares/Third_Party/LwIP/src/core/udp.c ****             }
 586              		.loc 1 275 25 view .LVU178
 587 00bc A346     		mov	fp, r4
 588              	.LVL44:
 275:Middlewares/Third_Party/LwIP/src/core/udp.c ****             }
 589              		.loc 1 275 25 view .LVU179
 590 00be D5E7     		b	.L44
ARM GAS  D:\Dev\msys64\tmp\cco9wmM5.s 			page 21


 591              	.LVL45:
 592              	.L62:
 290:Middlewares/Third_Party/LwIP/src/core/udp.c ****            ip_addr_cmp(&pcb->remote_ip, ip_current_src_addr()))) {
 593              		.loc 1 290 12 discriminator 1 view .LVU180
 594 00c0 6368     		ldr	r3, [r4, #4]
 289:Middlewares/Third_Party/LwIP/src/core/udp.c ****           (ip_addr_isany_val(pcb->remote_ip) ||
 595              		.loc 1 289 37 discriminator 1 view .LVU181
 596 00c2 1BB1     		cbz	r3, .L45
 291:Middlewares/Third_Party/LwIP/src/core/udp.c ****         /* the first fully matching PCB */
 597              		.loc 1 291 12 view .LVU182
 598 00c4 274A     		ldr	r2, .L67
 599 00c6 1269     		ldr	r2, [r2, #16]
 290:Middlewares/Third_Party/LwIP/src/core/udp.c ****            ip_addr_cmp(&pcb->remote_ip, ip_current_src_addr()))) {
 600              		.loc 1 290 46 view .LVU183
 601 00c8 9342     		cmp	r3, r2
 602 00ca D2D1     		bne	.L43
 603              	.L45:
 293:Middlewares/Third_Party/LwIP/src/core/udp.c ****           /* move the pcb to the front of udp_pcbs so that is
 604              		.loc 1 293 9 is_stmt 1 view .LVU184
 293:Middlewares/Third_Party/LwIP/src/core/udp.c ****           /* move the pcb to the front of udp_pcbs so that is
 605              		.loc 1 293 12 is_stmt 0 view .LVU185
 606 00cc 2EB1     		cbz	r6, .L46
 296:Middlewares/Third_Party/LwIP/src/core/udp.c ****           pcb->next = udp_pcbs;
 607              		.loc 1 296 11 is_stmt 1 view .LVU186
 296:Middlewares/Third_Party/LwIP/src/core/udp.c ****           pcb->next = udp_pcbs;
 608              		.loc 1 296 27 is_stmt 0 view .LVU187
 609 00ce E368     		ldr	r3, [r4, #12]
 296:Middlewares/Third_Party/LwIP/src/core/udp.c ****           pcb->next = udp_pcbs;
 610              		.loc 1 296 22 view .LVU188
 611 00d0 F360     		str	r3, [r6, #12]
 297:Middlewares/Third_Party/LwIP/src/core/udp.c ****           udp_pcbs = pcb;
 612              		.loc 1 297 11 is_stmt 1 view .LVU189
 297:Middlewares/Third_Party/LwIP/src/core/udp.c ****           udp_pcbs = pcb;
 613              		.loc 1 297 21 is_stmt 0 view .LVU190
 614 00d2 254B     		ldr	r3, .L67+4
 615 00d4 1A68     		ldr	r2, [r3]
 616 00d6 E260     		str	r2, [r4, #12]
 298:Middlewares/Third_Party/LwIP/src/core/udp.c ****         } else {
 617              		.loc 1 298 11 is_stmt 1 view .LVU191
 298:Middlewares/Third_Party/LwIP/src/core/udp.c ****         } else {
 618              		.loc 1 298 20 is_stmt 0 view .LVU192
 619 00d8 1C60     		str	r4, [r3]
 620              	.L46:
 309:Middlewares/Third_Party/LwIP/src/core/udp.c ****     pcb = uncon_pcb;
 621              		.loc 1 309 3 is_stmt 1 view .LVU193
 309:Middlewares/Third_Party/LwIP/src/core/udp.c ****     pcb = uncon_pcb;
 622              		.loc 1 309 6 is_stmt 0 view .LVU194
 623 00da 84B1     		cbz	r4, .L63
 624              	.LVL46:
 625              	.L48:
 314:Middlewares/Third_Party/LwIP/src/core/udp.c ****     for_us = 1;
 626              		.loc 1 314 3 is_stmt 1 view .LVU195
 314:Middlewares/Third_Party/LwIP/src/core/udp.c ****     for_us = 1;
 627              		.loc 1 314 6 is_stmt 0 view .LVU196
 628 00dc 8CB1     		cbz	r4, .L64
 629              	.LVL47:
 630              	.L49:
ARM GAS  D:\Dev\msys64\tmp\cco9wmM5.s 			page 22


 330:Middlewares/Third_Party/LwIP/src/core/udp.c **** #if CHECKSUM_CHECK_UDP
 631              		.loc 1 330 83 is_stmt 1 view .LVU197
 366:Middlewares/Third_Party/LwIP/src/core/udp.c ****       /* Can we cope with this failing? Just assert for now */
 632              		.loc 1 366 5 view .LVU198
 366:Middlewares/Third_Party/LwIP/src/core/udp.c ****       /* Can we cope with this failing? Just assert for now */
 633              		.loc 1 366 9 is_stmt 0 view .LVU199
 634 00de 0821     		movs	r1, #8
 635 00e0 4846     		mov	r0, r9
 636 00e2 FFF7FEFF 		bl	pbuf_remove_header
 637              	.LVL48:
 366:Middlewares/Third_Party/LwIP/src/core/udp.c ****       /* Can we cope with this failing? Just assert for now */
 638              		.loc 1 366 8 view .LVU200
 639 00e6 A8B9     		cbnz	r0, .L65
 375:Middlewares/Third_Party/LwIP/src/core/udp.c ****       MIB2_STATS_INC(mib2.udpindatagrams);
 640              		.loc 1 375 5 is_stmt 1 view .LVU201
 375:Middlewares/Third_Party/LwIP/src/core/udp.c ****       MIB2_STATS_INC(mib2.udpindatagrams);
 641              		.loc 1 375 8 is_stmt 0 view .LVU202
 642 00e8 1CB3     		cbz	r4, .L52
 376:Middlewares/Third_Party/LwIP/src/core/udp.c **** #if SO_REUSE && SO_REUSE_RXTOALL
 643              		.loc 1 376 42 is_stmt 1 view .LVU203
 402:Middlewares/Third_Party/LwIP/src/core/udp.c ****         /* now the recv function is responsible for freeing p */
 644              		.loc 1 402 7 view .LVU204
 402:Middlewares/Third_Party/LwIP/src/core/udp.c ****         /* now the recv function is responsible for freeing p */
 645              		.loc 1 402 14 is_stmt 0 view .LVU205
 646 00ea A569     		ldr	r5, [r4, #24]
 647              	.LVL49:
 402:Middlewares/Third_Party/LwIP/src/core/udp.c ****         /* now the recv function is responsible for freeing p */
 648              		.loc 1 402 10 view .LVU206
 649 00ec EDB1     		cbz	r5, .L53
 404:Middlewares/Third_Party/LwIP/src/core/udp.c ****       } else {
 650              		.loc 1 404 9 is_stmt 1 view .LVU207
 651 00ee E069     		ldr	r0, [r4, #28]
 652 00f0 CDF800A0 		str	r10, [sp]
 653 00f4 214B     		ldr	r3, .L67+24
 654 00f6 4A46     		mov	r2, r9
 655 00f8 2146     		mov	r1, r4
 656 00fa A847     		blx	r5
 657              	.LVL50:
 658 00fc B2E7     		b	.L37
 659              	.LVL51:
 660              	.L63:
 310:Middlewares/Third_Party/LwIP/src/core/udp.c ****   }
 661              		.loc 1 310 9 is_stmt 0 view .LVU208
 662 00fe 5C46     		mov	r4, fp
 663              	.LVL52:
 310:Middlewares/Third_Party/LwIP/src/core/udp.c ****   }
 664              		.loc 1 310 9 view .LVU209
 665 0100 ECE7     		b	.L48
 666              	.LVL53:
 667              	.L64:
 323:Middlewares/Third_Party/LwIP/src/core/udp.c ****       for_us = ip4_addr_cmp(netif_ip4_addr(inp), ip4_current_dest_addr());
 668              		.loc 1 323 5 is_stmt 1 view .LVU210
 324:Middlewares/Third_Party/LwIP/src/core/udp.c ****     }
 669              		.loc 1 324 7 view .LVU211
 324:Middlewares/Third_Party/LwIP/src/core/udp.c ****     }
 670              		.loc 1 324 16 is_stmt 0 view .LVU212
 671 0102 7A68     		ldr	r2, [r7, #4]
ARM GAS  D:\Dev\msys64\tmp\cco9wmM5.s 			page 23


 672 0104 174B     		ldr	r3, .L67
 673 0106 5B69     		ldr	r3, [r3, #20]
 674              	.LVL54:
 329:Middlewares/Third_Party/LwIP/src/core/udp.c ****     LWIP_DEBUGF(UDP_DEBUG | LWIP_DBG_TRACE, ("udp_input: calculating checksum\n"));
 675              		.loc 1 329 3 is_stmt 1 view .LVU213
 329:Middlewares/Third_Party/LwIP/src/core/udp.c ****     LWIP_DEBUGF(UDP_DEBUG | LWIP_DBG_TRACE, ("udp_input: calculating checksum\n"));
 676              		.loc 1 329 6 is_stmt 0 view .LVU214
 677 0108 9A42     		cmp	r2, r3
 678 010a E8D0     		beq	.L49
 428:Middlewares/Third_Party/LwIP/src/core/udp.c ****   }
 679              		.loc 1 428 5 is_stmt 1 view .LVU215
 680 010c 4846     		mov	r0, r9
 681 010e FFF7FEFF 		bl	pbuf_free
 682              	.LVL55:
 431:Middlewares/Third_Party/LwIP/src/core/udp.c ****   return;
 683              		.loc 1 431 25 view .LVU216
 432:Middlewares/Third_Party/LwIP/src/core/udp.c **** #if CHECKSUM_CHECK_UDP
 684              		.loc 1 432 3 view .LVU217
 685 0112 A7E7     		b	.L37
 686              	.L65:
 368:Middlewares/Third_Party/LwIP/src/core/udp.c ****       UDP_STATS_INC(udp.drop);
 687              		.loc 1 368 7 discriminator 1 view .LVU218
 368:Middlewares/Third_Party/LwIP/src/core/udp.c ****       UDP_STATS_INC(udp.drop);
 688              		.loc 1 368 7 discriminator 1 view .LVU219
 368:Middlewares/Third_Party/LwIP/src/core/udp.c ****       UDP_STATS_INC(udp.drop);
 689              		.loc 1 368 7 discriminator 1 view .LVU220
 368:Middlewares/Third_Party/LwIP/src/core/udp.c ****       UDP_STATS_INC(udp.drop);
 690              		.loc 1 368 7 discriminator 1 view .LVU221
 691 0114 154B     		ldr	r3, .L67+8
 692 0116 4FF4B872 		mov	r2, #368
 693 011a 1949     		ldr	r1, .L67+28
 694 011c 1548     		ldr	r0, .L67+16
 695 011e FFF7FEFF 		bl	printf
 696              	.LVL56:
 368:Middlewares/Third_Party/LwIP/src/core/udp.c ****       UDP_STATS_INC(udp.drop);
 697              		.loc 1 368 7 discriminator 1 view .LVU222
 368:Middlewares/Third_Party/LwIP/src/core/udp.c ****       UDP_STATS_INC(udp.drop);
 698              		.loc 1 368 7 discriminator 1 view .LVU223
 369:Middlewares/Third_Party/LwIP/src/core/udp.c ****       MIB2_STATS_INC(mib2.udpinerrors);
 699              		.loc 1 369 30 discriminator 1 view .LVU224
 370:Middlewares/Third_Party/LwIP/src/core/udp.c ****       pbuf_free(p);
 700              		.loc 1 370 39 discriminator 1 view .LVU225
 371:Middlewares/Third_Party/LwIP/src/core/udp.c ****       goto end;
 701              		.loc 1 371 7 discriminator 1 view .LVU226
 702 0122 4846     		mov	r0, r9
 703 0124 FFF7FEFF 		bl	pbuf_free
 704              	.LVL57:
 372:Middlewares/Third_Party/LwIP/src/core/udp.c ****     }
 705              		.loc 1 372 7 discriminator 1 view .LVU227
 706 0128 9CE7     		b	.L37
 707              	.LVL58:
 708              	.L53:
 407:Middlewares/Third_Party/LwIP/src/core/udp.c ****         goto end;
 709              		.loc 1 407 9 view .LVU228
 710 012a 4846     		mov	r0, r9
 711 012c FFF7FEFF 		bl	pbuf_free
 712              	.LVL59:
ARM GAS  D:\Dev\msys64\tmp\cco9wmM5.s 			page 24


 408:Middlewares/Third_Party/LwIP/src/core/udp.c ****       }
 713              		.loc 1 408 9 view .LVU229
 714 0130 98E7     		b	.L37
 715              	.LVL60:
 716              	.L52:
 411:Middlewares/Third_Party/LwIP/src/core/udp.c **** 
 717              		.loc 1 411 76 view .LVU230
 416:Middlewares/Third_Party/LwIP/src/core/udp.c ****         /* move payload pointer back to ip header */
 718              		.loc 1 416 7 view .LVU231
 416:Middlewares/Third_Party/LwIP/src/core/udp.c ****         /* move payload pointer back to ip header */
 719              		.loc 1 416 10 is_stmt 0 view .LVU232
 720 0132 B8F1000F 		cmp	r8, #0
 721 0136 05D1     		bne	.L54
 416:Middlewares/Third_Party/LwIP/src/core/udp.c ****         /* move payload pointer back to ip header */
 722              		.loc 1 416 26 discriminator 1 view .LVU233
 723 0138 0A4B     		ldr	r3, .L67
 724 013a 5B69     		ldr	r3, [r3, #20]
 725 013c 03F0F003 		and	r3, r3, #240
 416:Middlewares/Third_Party/LwIP/src/core/udp.c ****         /* move payload pointer back to ip header */
 726              		.loc 1 416 22 discriminator 1 view .LVU234
 727 0140 E02B     		cmp	r3, #224
 728 0142 03D1     		bne	.L66
 729              	.L54:
 422:Middlewares/Third_Party/LwIP/src/core/udp.c ****       UDP_STATS_INC(udp.drop);
 730              		.loc 1 422 33 is_stmt 1 view .LVU235
 423:Middlewares/Third_Party/LwIP/src/core/udp.c ****       MIB2_STATS_INC(mib2.udpnoports);
 731              		.loc 1 423 30 view .LVU236
 424:Middlewares/Third_Party/LwIP/src/core/udp.c ****       pbuf_free(p);
 732              		.loc 1 424 38 view .LVU237
 425:Middlewares/Third_Party/LwIP/src/core/udp.c ****     }
 733              		.loc 1 425 7 view .LVU238
 734 0144 4846     		mov	r0, r9
 735 0146 FFF7FEFF 		bl	pbuf_free
 736              	.LVL61:
 737 014a 8BE7     		b	.L37
 738              	.L66:
 418:Middlewares/Third_Party/LwIP/src/core/udp.c ****         icmp_port_unreach(ip_current_is_v6(), p);
 739              		.loc 1 418 9 view .LVU239
 418:Middlewares/Third_Party/LwIP/src/core/udp.c ****         icmp_port_unreach(ip_current_is_v6(), p);
 740              		.loc 1 418 38 is_stmt 0 view .LVU240
 741 014c 054B     		ldr	r3, .L67
 742 014e 9989     		ldrh	r1, [r3, #12]
 418:Middlewares/Third_Party/LwIP/src/core/udp.c ****         icmp_port_unreach(ip_current_is_v6(), p);
 743              		.loc 1 418 66 view .LVU241
 744 0150 0831     		adds	r1, r1, #8
 418:Middlewares/Third_Party/LwIP/src/core/udp.c ****         icmp_port_unreach(ip_current_is_v6(), p);
 745              		.loc 1 418 9 view .LVU242
 746 0152 09B2     		sxth	r1, r1
 747 0154 4846     		mov	r0, r9
 748 0156 FFF7FEFF 		bl	pbuf_header_force
 749              	.LVL62:
 419:Middlewares/Third_Party/LwIP/src/core/udp.c ****       }
 750              		.loc 1 419 9 is_stmt 1 view .LVU243
 751 015a 0321     		movs	r1, #3
 752 015c 4846     		mov	r0, r9
 753 015e FFF7FEFF 		bl	icmp_dest_unreach
 754              	.LVL63:
ARM GAS  D:\Dev\msys64\tmp\cco9wmM5.s 			page 25


 755 0162 EFE7     		b	.L54
 756              	.L68:
 757              		.align	2
 758              	.L67:
 759 0164 00000000 		.word	ip_data
 760 0168 00000000 		.word	udp_pcbs
 761 016c 00000000 		.word	.LC0
 762 0170 00000000 		.word	.LC4
 763 0174 50000000 		.word	.LC2
 764 0178 18000000 		.word	.LC5
 765 017c 10000000 		.word	ip_data+16
 766 0180 34000000 		.word	.LC6
 767              		.cfi_endproc
 768              	.LFE28:
 770              		.section	.rodata.udp_bind.str1.4,"aMS",%progbits,1
 771              		.align	2
 772              	.LC7:
 773 0000 7564705F 		.ascii	"udp_bind: invalid pcb\000"
 773      62696E64 
 773      3A20696E 
 773      76616C69 
 773      64207063 
 774              		.section	.text.udp_bind,"ax",%progbits
 775              		.align	1
 776              		.global	udp_bind
 777              		.syntax unified
 778              		.thumb
 779              		.thumb_func
 780              		.fpu fpv5-sp-d16
 782              	udp_bind:
 783              	.LVL64:
 784              	.LFB33:
 444:Middlewares/Third_Party/LwIP/src/core/udp.c **** 
 445:Middlewares/Third_Party/LwIP/src/core/udp.c **** /**
 446:Middlewares/Third_Party/LwIP/src/core/udp.c ****  * @ingroup udp_raw
 447:Middlewares/Third_Party/LwIP/src/core/udp.c ****  * Sends the pbuf p using UDP. The pbuf is not deallocated.
 448:Middlewares/Third_Party/LwIP/src/core/udp.c ****  *
 449:Middlewares/Third_Party/LwIP/src/core/udp.c ****  *
 450:Middlewares/Third_Party/LwIP/src/core/udp.c ****  * @param pcb UDP PCB used to send the data.
 451:Middlewares/Third_Party/LwIP/src/core/udp.c ****  * @param p chain of pbuf's to be sent.
 452:Middlewares/Third_Party/LwIP/src/core/udp.c ****  *
 453:Middlewares/Third_Party/LwIP/src/core/udp.c ****  * The datagram will be sent to the current remote_ip & remote_port
 454:Middlewares/Third_Party/LwIP/src/core/udp.c ****  * stored in pcb. If the pcb is not bound to a port, it will
 455:Middlewares/Third_Party/LwIP/src/core/udp.c ****  * automatically be bound to a random port.
 456:Middlewares/Third_Party/LwIP/src/core/udp.c ****  *
 457:Middlewares/Third_Party/LwIP/src/core/udp.c ****  * @return lwIP error code.
 458:Middlewares/Third_Party/LwIP/src/core/udp.c ****  * - ERR_OK. Successful. No error occurred.
 459:Middlewares/Third_Party/LwIP/src/core/udp.c ****  * - ERR_MEM. Out of memory.
 460:Middlewares/Third_Party/LwIP/src/core/udp.c ****  * - ERR_RTE. Could not find route to destination address.
 461:Middlewares/Third_Party/LwIP/src/core/udp.c ****  * - ERR_VAL. No PCB or PCB is dual-stack
 462:Middlewares/Third_Party/LwIP/src/core/udp.c ****  * - More errors could be returned by lower protocol layers.
 463:Middlewares/Third_Party/LwIP/src/core/udp.c ****  *
 464:Middlewares/Third_Party/LwIP/src/core/udp.c ****  * @see udp_disconnect() udp_sendto()
 465:Middlewares/Third_Party/LwIP/src/core/udp.c ****  */
 466:Middlewares/Third_Party/LwIP/src/core/udp.c **** err_t
 467:Middlewares/Third_Party/LwIP/src/core/udp.c **** udp_send(struct udp_pcb *pcb, struct pbuf *p)
 468:Middlewares/Third_Party/LwIP/src/core/udp.c **** {
ARM GAS  D:\Dev\msys64\tmp\cco9wmM5.s 			page 26


 469:Middlewares/Third_Party/LwIP/src/core/udp.c ****   LWIP_ERROR("udp_send: invalid pcb", pcb != NULL, return ERR_ARG);
 470:Middlewares/Third_Party/LwIP/src/core/udp.c ****   LWIP_ERROR("udp_send: invalid pbuf", p != NULL, return ERR_ARG);
 471:Middlewares/Third_Party/LwIP/src/core/udp.c **** 
 472:Middlewares/Third_Party/LwIP/src/core/udp.c ****   if (IP_IS_ANY_TYPE_VAL(pcb->remote_ip)) {
 473:Middlewares/Third_Party/LwIP/src/core/udp.c ****     return ERR_VAL;
 474:Middlewares/Third_Party/LwIP/src/core/udp.c ****   }
 475:Middlewares/Third_Party/LwIP/src/core/udp.c **** 
 476:Middlewares/Third_Party/LwIP/src/core/udp.c ****   /* send to the packet using remote ip and port stored in the pcb */
 477:Middlewares/Third_Party/LwIP/src/core/udp.c ****   return udp_sendto(pcb, p, &pcb->remote_ip, pcb->remote_port);
 478:Middlewares/Third_Party/LwIP/src/core/udp.c **** }
 479:Middlewares/Third_Party/LwIP/src/core/udp.c **** 
 480:Middlewares/Third_Party/LwIP/src/core/udp.c **** #if LWIP_CHECKSUM_ON_COPY && CHECKSUM_GEN_UDP
 481:Middlewares/Third_Party/LwIP/src/core/udp.c **** /** @ingroup udp_raw
 482:Middlewares/Third_Party/LwIP/src/core/udp.c ****  * Same as udp_send() but with checksum
 483:Middlewares/Third_Party/LwIP/src/core/udp.c ****  */
 484:Middlewares/Third_Party/LwIP/src/core/udp.c **** err_t
 485:Middlewares/Third_Party/LwIP/src/core/udp.c **** udp_send_chksum(struct udp_pcb *pcb, struct pbuf *p,
 486:Middlewares/Third_Party/LwIP/src/core/udp.c ****                 u8_t have_chksum, u16_t chksum)
 487:Middlewares/Third_Party/LwIP/src/core/udp.c **** {
 488:Middlewares/Third_Party/LwIP/src/core/udp.c ****   LWIP_ERROR("udp_send_chksum: invalid pcb", pcb != NULL, return ERR_ARG);
 489:Middlewares/Third_Party/LwIP/src/core/udp.c ****   LWIP_ERROR("udp_send_chksum: invalid pbuf", p != NULL, return ERR_ARG);
 490:Middlewares/Third_Party/LwIP/src/core/udp.c **** 
 491:Middlewares/Third_Party/LwIP/src/core/udp.c ****   if (IP_IS_ANY_TYPE_VAL(pcb->remote_ip)) {
 492:Middlewares/Third_Party/LwIP/src/core/udp.c ****     return ERR_VAL;
 493:Middlewares/Third_Party/LwIP/src/core/udp.c ****   }
 494:Middlewares/Third_Party/LwIP/src/core/udp.c **** 
 495:Middlewares/Third_Party/LwIP/src/core/udp.c ****   /* send to the packet using remote ip and port stored in the pcb */
 496:Middlewares/Third_Party/LwIP/src/core/udp.c ****   return udp_sendto_chksum(pcb, p, &pcb->remote_ip, pcb->remote_port,
 497:Middlewares/Third_Party/LwIP/src/core/udp.c ****                            have_chksum, chksum);
 498:Middlewares/Third_Party/LwIP/src/core/udp.c **** }
 499:Middlewares/Third_Party/LwIP/src/core/udp.c **** #endif /* LWIP_CHECKSUM_ON_COPY && CHECKSUM_GEN_UDP */
 500:Middlewares/Third_Party/LwIP/src/core/udp.c **** 
 501:Middlewares/Third_Party/LwIP/src/core/udp.c **** /**
 502:Middlewares/Third_Party/LwIP/src/core/udp.c ****  * @ingroup udp_raw
 503:Middlewares/Third_Party/LwIP/src/core/udp.c ****  * Send data to a specified address using UDP.
 504:Middlewares/Third_Party/LwIP/src/core/udp.c ****  *
 505:Middlewares/Third_Party/LwIP/src/core/udp.c ****  * @param pcb UDP PCB used to send the data.
 506:Middlewares/Third_Party/LwIP/src/core/udp.c ****  * @param p chain of pbuf's to be sent.
 507:Middlewares/Third_Party/LwIP/src/core/udp.c ****  * @param dst_ip Destination IP address.
 508:Middlewares/Third_Party/LwIP/src/core/udp.c ****  * @param dst_port Destination UDP port.
 509:Middlewares/Third_Party/LwIP/src/core/udp.c ****  *
 510:Middlewares/Third_Party/LwIP/src/core/udp.c ****  * dst_ip & dst_port are expected to be in the same byte order as in the pcb.
 511:Middlewares/Third_Party/LwIP/src/core/udp.c ****  *
 512:Middlewares/Third_Party/LwIP/src/core/udp.c ****  * If the PCB already has a remote address association, it will
 513:Middlewares/Third_Party/LwIP/src/core/udp.c ****  * be restored after the data is sent.
 514:Middlewares/Third_Party/LwIP/src/core/udp.c ****  *
 515:Middlewares/Third_Party/LwIP/src/core/udp.c ****  * @return lwIP error code (@see udp_send for possible error codes)
 516:Middlewares/Third_Party/LwIP/src/core/udp.c ****  *
 517:Middlewares/Third_Party/LwIP/src/core/udp.c ****  * @see udp_disconnect() udp_send()
 518:Middlewares/Third_Party/LwIP/src/core/udp.c ****  */
 519:Middlewares/Third_Party/LwIP/src/core/udp.c **** err_t
 520:Middlewares/Third_Party/LwIP/src/core/udp.c **** udp_sendto(struct udp_pcb *pcb, struct pbuf *p,
 521:Middlewares/Third_Party/LwIP/src/core/udp.c ****            const ip_addr_t *dst_ip, u16_t dst_port)
 522:Middlewares/Third_Party/LwIP/src/core/udp.c **** {
 523:Middlewares/Third_Party/LwIP/src/core/udp.c **** #if LWIP_CHECKSUM_ON_COPY && CHECKSUM_GEN_UDP
 524:Middlewares/Third_Party/LwIP/src/core/udp.c ****   return udp_sendto_chksum(pcb, p, dst_ip, dst_port, 0, 0);
 525:Middlewares/Third_Party/LwIP/src/core/udp.c **** }
ARM GAS  D:\Dev\msys64\tmp\cco9wmM5.s 			page 27


 526:Middlewares/Third_Party/LwIP/src/core/udp.c **** 
 527:Middlewares/Third_Party/LwIP/src/core/udp.c **** /** @ingroup udp_raw
 528:Middlewares/Third_Party/LwIP/src/core/udp.c ****  * Same as udp_sendto(), but with checksum */
 529:Middlewares/Third_Party/LwIP/src/core/udp.c **** err_t
 530:Middlewares/Third_Party/LwIP/src/core/udp.c **** udp_sendto_chksum(struct udp_pcb *pcb, struct pbuf *p, const ip_addr_t *dst_ip,
 531:Middlewares/Third_Party/LwIP/src/core/udp.c ****                   u16_t dst_port, u8_t have_chksum, u16_t chksum)
 532:Middlewares/Third_Party/LwIP/src/core/udp.c **** {
 533:Middlewares/Third_Party/LwIP/src/core/udp.c **** #endif /* LWIP_CHECKSUM_ON_COPY && CHECKSUM_GEN_UDP */
 534:Middlewares/Third_Party/LwIP/src/core/udp.c ****   struct netif *netif;
 535:Middlewares/Third_Party/LwIP/src/core/udp.c **** 
 536:Middlewares/Third_Party/LwIP/src/core/udp.c ****   LWIP_ERROR("udp_sendto: invalid pcb", pcb != NULL, return ERR_ARG);
 537:Middlewares/Third_Party/LwIP/src/core/udp.c ****   LWIP_ERROR("udp_sendto: invalid pbuf", p != NULL, return ERR_ARG);
 538:Middlewares/Third_Party/LwIP/src/core/udp.c ****   LWIP_ERROR("udp_sendto: invalid dst_ip", dst_ip != NULL, return ERR_ARG);
 539:Middlewares/Third_Party/LwIP/src/core/udp.c **** 
 540:Middlewares/Third_Party/LwIP/src/core/udp.c ****   if (!IP_ADDR_PCB_VERSION_MATCH(pcb, dst_ip)) {
 541:Middlewares/Third_Party/LwIP/src/core/udp.c ****     return ERR_VAL;
 542:Middlewares/Third_Party/LwIP/src/core/udp.c ****   }
 543:Middlewares/Third_Party/LwIP/src/core/udp.c **** 
 544:Middlewares/Third_Party/LwIP/src/core/udp.c ****   LWIP_DEBUGF(UDP_DEBUG | LWIP_DBG_TRACE, ("udp_send\n"));
 545:Middlewares/Third_Party/LwIP/src/core/udp.c **** 
 546:Middlewares/Third_Party/LwIP/src/core/udp.c ****   if (pcb->netif_idx != NETIF_NO_INDEX) {
 547:Middlewares/Third_Party/LwIP/src/core/udp.c ****     netif = netif_get_by_index(pcb->netif_idx);
 548:Middlewares/Third_Party/LwIP/src/core/udp.c ****   } else {
 549:Middlewares/Third_Party/LwIP/src/core/udp.c **** #if LWIP_MULTICAST_TX_OPTIONS
 550:Middlewares/Third_Party/LwIP/src/core/udp.c ****     netif = NULL;
 551:Middlewares/Third_Party/LwIP/src/core/udp.c ****     if (ip_addr_ismulticast(dst_ip)) {
 552:Middlewares/Third_Party/LwIP/src/core/udp.c ****       /* For IPv6, the interface to use for packets with a multicast destination
 553:Middlewares/Third_Party/LwIP/src/core/udp.c ****        * is specified using an interface index. The same approach may be used for
 554:Middlewares/Third_Party/LwIP/src/core/udp.c ****        * IPv4 as well, in which case it overrides the IPv4 multicast override
 555:Middlewares/Third_Party/LwIP/src/core/udp.c ****        * address below. Here we have to look up the netif by going through the
 556:Middlewares/Third_Party/LwIP/src/core/udp.c ****        * list, but by doing so we skip a route lookup. If the interface index has
 557:Middlewares/Third_Party/LwIP/src/core/udp.c ****        * gone stale, we fall through and do the regular route lookup after all. */
 558:Middlewares/Third_Party/LwIP/src/core/udp.c ****       if (pcb->mcast_ifindex != NETIF_NO_INDEX) {
 559:Middlewares/Third_Party/LwIP/src/core/udp.c ****         netif = netif_get_by_index(pcb->mcast_ifindex);
 560:Middlewares/Third_Party/LwIP/src/core/udp.c ****       }
 561:Middlewares/Third_Party/LwIP/src/core/udp.c **** #if LWIP_IPV4
 562:Middlewares/Third_Party/LwIP/src/core/udp.c ****       else
 563:Middlewares/Third_Party/LwIP/src/core/udp.c **** #if LWIP_IPV6
 564:Middlewares/Third_Party/LwIP/src/core/udp.c ****         if (IP_IS_V4(dst_ip))
 565:Middlewares/Third_Party/LwIP/src/core/udp.c **** #endif /* LWIP_IPV6 */
 566:Middlewares/Third_Party/LwIP/src/core/udp.c ****         {
 567:Middlewares/Third_Party/LwIP/src/core/udp.c ****           /* IPv4 does not use source-based routing by default, so we use an
 568:Middlewares/Third_Party/LwIP/src/core/udp.c ****              administratively selected interface for multicast by default.
 569:Middlewares/Third_Party/LwIP/src/core/udp.c ****              However, this can be overridden by setting an interface address
 570:Middlewares/Third_Party/LwIP/src/core/udp.c ****              in pcb->mcast_ip4 that is used for routing. If this routing lookup
 571:Middlewares/Third_Party/LwIP/src/core/udp.c ****              fails, we try regular routing as though no override was set. */
 572:Middlewares/Third_Party/LwIP/src/core/udp.c ****           if (!ip4_addr_isany_val(pcb->mcast_ip4) &&
 573:Middlewares/Third_Party/LwIP/src/core/udp.c ****               !ip4_addr_cmp(&pcb->mcast_ip4, IP4_ADDR_BROADCAST)) {
 574:Middlewares/Third_Party/LwIP/src/core/udp.c ****             netif = ip4_route_src(ip_2_ip4(&pcb->local_ip), &pcb->mcast_ip4);
 575:Middlewares/Third_Party/LwIP/src/core/udp.c ****           }
 576:Middlewares/Third_Party/LwIP/src/core/udp.c ****         }
 577:Middlewares/Third_Party/LwIP/src/core/udp.c **** #endif /* LWIP_IPV4 */
 578:Middlewares/Third_Party/LwIP/src/core/udp.c ****     }
 579:Middlewares/Third_Party/LwIP/src/core/udp.c **** 
 580:Middlewares/Third_Party/LwIP/src/core/udp.c ****     if (netif == NULL)
 581:Middlewares/Third_Party/LwIP/src/core/udp.c **** #endif /* LWIP_MULTICAST_TX_OPTIONS */
 582:Middlewares/Third_Party/LwIP/src/core/udp.c ****     {
ARM GAS  D:\Dev\msys64\tmp\cco9wmM5.s 			page 28


 583:Middlewares/Third_Party/LwIP/src/core/udp.c ****       /* find the outgoing network interface for this packet */
 584:Middlewares/Third_Party/LwIP/src/core/udp.c ****       netif = ip_route(&pcb->local_ip, dst_ip);
 585:Middlewares/Third_Party/LwIP/src/core/udp.c ****     }
 586:Middlewares/Third_Party/LwIP/src/core/udp.c ****   }
 587:Middlewares/Third_Party/LwIP/src/core/udp.c **** 
 588:Middlewares/Third_Party/LwIP/src/core/udp.c ****   /* no outgoing network interface could be found? */
 589:Middlewares/Third_Party/LwIP/src/core/udp.c ****   if (netif == NULL) {
 590:Middlewares/Third_Party/LwIP/src/core/udp.c ****     LWIP_DEBUGF(UDP_DEBUG | LWIP_DBG_LEVEL_SERIOUS, ("udp_send: No route to "));
 591:Middlewares/Third_Party/LwIP/src/core/udp.c ****     ip_addr_debug_print(UDP_DEBUG | LWIP_DBG_LEVEL_SERIOUS, dst_ip);
 592:Middlewares/Third_Party/LwIP/src/core/udp.c ****     LWIP_DEBUGF(UDP_DEBUG, ("\n"));
 593:Middlewares/Third_Party/LwIP/src/core/udp.c ****     UDP_STATS_INC(udp.rterr);
 594:Middlewares/Third_Party/LwIP/src/core/udp.c ****     return ERR_RTE;
 595:Middlewares/Third_Party/LwIP/src/core/udp.c ****   }
 596:Middlewares/Third_Party/LwIP/src/core/udp.c **** #if LWIP_CHECKSUM_ON_COPY && CHECKSUM_GEN_UDP
 597:Middlewares/Third_Party/LwIP/src/core/udp.c ****   return udp_sendto_if_chksum(pcb, p, dst_ip, dst_port, netif, have_chksum, chksum);
 598:Middlewares/Third_Party/LwIP/src/core/udp.c **** #else /* LWIP_CHECKSUM_ON_COPY && CHECKSUM_GEN_UDP */
 599:Middlewares/Third_Party/LwIP/src/core/udp.c ****   return udp_sendto_if(pcb, p, dst_ip, dst_port, netif);
 600:Middlewares/Third_Party/LwIP/src/core/udp.c **** #endif /* LWIP_CHECKSUM_ON_COPY && CHECKSUM_GEN_UDP */
 601:Middlewares/Third_Party/LwIP/src/core/udp.c **** }
 602:Middlewares/Third_Party/LwIP/src/core/udp.c **** 
 603:Middlewares/Third_Party/LwIP/src/core/udp.c **** /**
 604:Middlewares/Third_Party/LwIP/src/core/udp.c ****  * @ingroup udp_raw
 605:Middlewares/Third_Party/LwIP/src/core/udp.c ****  * Send data to a specified address using UDP.
 606:Middlewares/Third_Party/LwIP/src/core/udp.c ****  * The netif used for sending can be specified.
 607:Middlewares/Third_Party/LwIP/src/core/udp.c ****  *
 608:Middlewares/Third_Party/LwIP/src/core/udp.c ****  * This function exists mainly for DHCP, to be able to send UDP packets
 609:Middlewares/Third_Party/LwIP/src/core/udp.c ****  * on a netif that is still down.
 610:Middlewares/Third_Party/LwIP/src/core/udp.c ****  *
 611:Middlewares/Third_Party/LwIP/src/core/udp.c ****  * @param pcb UDP PCB used to send the data.
 612:Middlewares/Third_Party/LwIP/src/core/udp.c ****  * @param p chain of pbuf's to be sent.
 613:Middlewares/Third_Party/LwIP/src/core/udp.c ****  * @param dst_ip Destination IP address.
 614:Middlewares/Third_Party/LwIP/src/core/udp.c ****  * @param dst_port Destination UDP port.
 615:Middlewares/Third_Party/LwIP/src/core/udp.c ****  * @param netif the netif used for sending.
 616:Middlewares/Third_Party/LwIP/src/core/udp.c ****  *
 617:Middlewares/Third_Party/LwIP/src/core/udp.c ****  * dst_ip & dst_port are expected to be in the same byte order as in the pcb.
 618:Middlewares/Third_Party/LwIP/src/core/udp.c ****  *
 619:Middlewares/Third_Party/LwIP/src/core/udp.c ****  * @return lwIP error code (@see udp_send for possible error codes)
 620:Middlewares/Third_Party/LwIP/src/core/udp.c ****  *
 621:Middlewares/Third_Party/LwIP/src/core/udp.c ****  * @see udp_disconnect() udp_send()
 622:Middlewares/Third_Party/LwIP/src/core/udp.c ****  */
 623:Middlewares/Third_Party/LwIP/src/core/udp.c **** err_t
 624:Middlewares/Third_Party/LwIP/src/core/udp.c **** udp_sendto_if(struct udp_pcb *pcb, struct pbuf *p,
 625:Middlewares/Third_Party/LwIP/src/core/udp.c ****               const ip_addr_t *dst_ip, u16_t dst_port, struct netif *netif)
 626:Middlewares/Third_Party/LwIP/src/core/udp.c **** {
 627:Middlewares/Third_Party/LwIP/src/core/udp.c **** #if LWIP_CHECKSUM_ON_COPY && CHECKSUM_GEN_UDP
 628:Middlewares/Third_Party/LwIP/src/core/udp.c ****   return udp_sendto_if_chksum(pcb, p, dst_ip, dst_port, netif, 0, 0);
 629:Middlewares/Third_Party/LwIP/src/core/udp.c **** }
 630:Middlewares/Third_Party/LwIP/src/core/udp.c **** 
 631:Middlewares/Third_Party/LwIP/src/core/udp.c **** /** Same as udp_sendto_if(), but with checksum */
 632:Middlewares/Third_Party/LwIP/src/core/udp.c **** err_t
 633:Middlewares/Third_Party/LwIP/src/core/udp.c **** udp_sendto_if_chksum(struct udp_pcb *pcb, struct pbuf *p, const ip_addr_t *dst_ip,
 634:Middlewares/Third_Party/LwIP/src/core/udp.c ****                      u16_t dst_port, struct netif *netif, u8_t have_chksum,
 635:Middlewares/Third_Party/LwIP/src/core/udp.c ****                      u16_t chksum)
 636:Middlewares/Third_Party/LwIP/src/core/udp.c **** {
 637:Middlewares/Third_Party/LwIP/src/core/udp.c **** #endif /* LWIP_CHECKSUM_ON_COPY && CHECKSUM_GEN_UDP */
 638:Middlewares/Third_Party/LwIP/src/core/udp.c ****   const ip_addr_t *src_ip;
 639:Middlewares/Third_Party/LwIP/src/core/udp.c **** 
ARM GAS  D:\Dev\msys64\tmp\cco9wmM5.s 			page 29


 640:Middlewares/Third_Party/LwIP/src/core/udp.c ****   LWIP_ERROR("udp_sendto_if: invalid pcb", pcb != NULL, return ERR_ARG);
 641:Middlewares/Third_Party/LwIP/src/core/udp.c ****   LWIP_ERROR("udp_sendto_if: invalid pbuf", p != NULL, return ERR_ARG);
 642:Middlewares/Third_Party/LwIP/src/core/udp.c ****   LWIP_ERROR("udp_sendto_if: invalid dst_ip", dst_ip != NULL, return ERR_ARG);
 643:Middlewares/Third_Party/LwIP/src/core/udp.c ****   LWIP_ERROR("udp_sendto_if: invalid netif", netif != NULL, return ERR_ARG);
 644:Middlewares/Third_Party/LwIP/src/core/udp.c **** 
 645:Middlewares/Third_Party/LwIP/src/core/udp.c ****   if (!IP_ADDR_PCB_VERSION_MATCH(pcb, dst_ip)) {
 646:Middlewares/Third_Party/LwIP/src/core/udp.c ****     return ERR_VAL;
 647:Middlewares/Third_Party/LwIP/src/core/udp.c ****   }
 648:Middlewares/Third_Party/LwIP/src/core/udp.c **** 
 649:Middlewares/Third_Party/LwIP/src/core/udp.c ****   /* PCB local address is IP_ANY_ADDR or multicast? */
 650:Middlewares/Third_Party/LwIP/src/core/udp.c **** #if LWIP_IPV6
 651:Middlewares/Third_Party/LwIP/src/core/udp.c ****   if (IP_IS_V6(dst_ip)) {
 652:Middlewares/Third_Party/LwIP/src/core/udp.c ****     if (ip6_addr_isany(ip_2_ip6(&pcb->local_ip)) ||
 653:Middlewares/Third_Party/LwIP/src/core/udp.c ****         ip6_addr_ismulticast(ip_2_ip6(&pcb->local_ip))) {
 654:Middlewares/Third_Party/LwIP/src/core/udp.c ****       src_ip = ip6_select_source_address(netif, ip_2_ip6(dst_ip));
 655:Middlewares/Third_Party/LwIP/src/core/udp.c ****       if (src_ip == NULL) {
 656:Middlewares/Third_Party/LwIP/src/core/udp.c ****         /* No suitable source address was found. */
 657:Middlewares/Third_Party/LwIP/src/core/udp.c ****         return ERR_RTE;
 658:Middlewares/Third_Party/LwIP/src/core/udp.c ****       }
 659:Middlewares/Third_Party/LwIP/src/core/udp.c ****     } else {
 660:Middlewares/Third_Party/LwIP/src/core/udp.c ****       /* use UDP PCB local IPv6 address as source address, if still valid. */
 661:Middlewares/Third_Party/LwIP/src/core/udp.c ****       if (netif_get_ip6_addr_match(netif, ip_2_ip6(&pcb->local_ip)) < 0) {
 662:Middlewares/Third_Party/LwIP/src/core/udp.c ****         /* Address isn't valid anymore. */
 663:Middlewares/Third_Party/LwIP/src/core/udp.c ****         return ERR_RTE;
 664:Middlewares/Third_Party/LwIP/src/core/udp.c ****       }
 665:Middlewares/Third_Party/LwIP/src/core/udp.c ****       src_ip = &pcb->local_ip;
 666:Middlewares/Third_Party/LwIP/src/core/udp.c ****     }
 667:Middlewares/Third_Party/LwIP/src/core/udp.c ****   }
 668:Middlewares/Third_Party/LwIP/src/core/udp.c **** #endif /* LWIP_IPV6 */
 669:Middlewares/Third_Party/LwIP/src/core/udp.c **** #if LWIP_IPV4 && LWIP_IPV6
 670:Middlewares/Third_Party/LwIP/src/core/udp.c ****   else
 671:Middlewares/Third_Party/LwIP/src/core/udp.c **** #endif /* LWIP_IPV4 && LWIP_IPV6 */
 672:Middlewares/Third_Party/LwIP/src/core/udp.c **** #if LWIP_IPV4
 673:Middlewares/Third_Party/LwIP/src/core/udp.c ****     if (ip4_addr_isany(ip_2_ip4(&pcb->local_ip)) ||
 674:Middlewares/Third_Party/LwIP/src/core/udp.c ****         ip4_addr_ismulticast(ip_2_ip4(&pcb->local_ip))) {
 675:Middlewares/Third_Party/LwIP/src/core/udp.c ****       /* if the local_ip is any or multicast
 676:Middlewares/Third_Party/LwIP/src/core/udp.c ****        * use the outgoing network interface IP address as source address */
 677:Middlewares/Third_Party/LwIP/src/core/udp.c ****       src_ip = netif_ip_addr4(netif);
 678:Middlewares/Third_Party/LwIP/src/core/udp.c ****     } else {
 679:Middlewares/Third_Party/LwIP/src/core/udp.c ****       /* check if UDP PCB local IP address is correct
 680:Middlewares/Third_Party/LwIP/src/core/udp.c ****        * this could be an old address if netif->ip_addr has changed */
 681:Middlewares/Third_Party/LwIP/src/core/udp.c ****       if (!ip4_addr_cmp(ip_2_ip4(&(pcb->local_ip)), netif_ip4_addr(netif))) {
 682:Middlewares/Third_Party/LwIP/src/core/udp.c ****         /* local_ip doesn't match, drop the packet */
 683:Middlewares/Third_Party/LwIP/src/core/udp.c ****         return ERR_RTE;
 684:Middlewares/Third_Party/LwIP/src/core/udp.c ****       }
 685:Middlewares/Third_Party/LwIP/src/core/udp.c ****       /* use UDP PCB local IP address as source address */
 686:Middlewares/Third_Party/LwIP/src/core/udp.c ****       src_ip = &pcb->local_ip;
 687:Middlewares/Third_Party/LwIP/src/core/udp.c ****     }
 688:Middlewares/Third_Party/LwIP/src/core/udp.c **** #endif /* LWIP_IPV4 */
 689:Middlewares/Third_Party/LwIP/src/core/udp.c **** #if LWIP_CHECKSUM_ON_COPY && CHECKSUM_GEN_UDP
 690:Middlewares/Third_Party/LwIP/src/core/udp.c ****   return udp_sendto_if_src_chksum(pcb, p, dst_ip, dst_port, netif, have_chksum, chksum, src_ip);
 691:Middlewares/Third_Party/LwIP/src/core/udp.c **** #else /* LWIP_CHECKSUM_ON_COPY && CHECKSUM_GEN_UDP */
 692:Middlewares/Third_Party/LwIP/src/core/udp.c ****   return udp_sendto_if_src(pcb, p, dst_ip, dst_port, netif, src_ip);
 693:Middlewares/Third_Party/LwIP/src/core/udp.c **** #endif /* LWIP_CHECKSUM_ON_COPY && CHECKSUM_GEN_UDP */
 694:Middlewares/Third_Party/LwIP/src/core/udp.c **** }
 695:Middlewares/Third_Party/LwIP/src/core/udp.c **** 
 696:Middlewares/Third_Party/LwIP/src/core/udp.c **** /** @ingroup udp_raw
ARM GAS  D:\Dev\msys64\tmp\cco9wmM5.s 			page 30


 697:Middlewares/Third_Party/LwIP/src/core/udp.c ****  * Same as @ref udp_sendto_if, but with source address */
 698:Middlewares/Third_Party/LwIP/src/core/udp.c **** err_t
 699:Middlewares/Third_Party/LwIP/src/core/udp.c **** udp_sendto_if_src(struct udp_pcb *pcb, struct pbuf *p,
 700:Middlewares/Third_Party/LwIP/src/core/udp.c ****                   const ip_addr_t *dst_ip, u16_t dst_port, struct netif *netif, const ip_addr_t *sr
 701:Middlewares/Third_Party/LwIP/src/core/udp.c **** {
 702:Middlewares/Third_Party/LwIP/src/core/udp.c **** #if LWIP_CHECKSUM_ON_COPY && CHECKSUM_GEN_UDP
 703:Middlewares/Third_Party/LwIP/src/core/udp.c ****   return udp_sendto_if_src_chksum(pcb, p, dst_ip, dst_port, netif, 0, 0, src_ip);
 704:Middlewares/Third_Party/LwIP/src/core/udp.c **** }
 705:Middlewares/Third_Party/LwIP/src/core/udp.c **** 
 706:Middlewares/Third_Party/LwIP/src/core/udp.c **** /** Same as udp_sendto_if_src(), but with checksum */
 707:Middlewares/Third_Party/LwIP/src/core/udp.c **** err_t
 708:Middlewares/Third_Party/LwIP/src/core/udp.c **** udp_sendto_if_src_chksum(struct udp_pcb *pcb, struct pbuf *p, const ip_addr_t *dst_ip,
 709:Middlewares/Third_Party/LwIP/src/core/udp.c ****                          u16_t dst_port, struct netif *netif, u8_t have_chksum,
 710:Middlewares/Third_Party/LwIP/src/core/udp.c ****                          u16_t chksum, const ip_addr_t *src_ip)
 711:Middlewares/Third_Party/LwIP/src/core/udp.c **** {
 712:Middlewares/Third_Party/LwIP/src/core/udp.c **** #endif /* LWIP_CHECKSUM_ON_COPY && CHECKSUM_GEN_UDP */
 713:Middlewares/Third_Party/LwIP/src/core/udp.c ****   struct udp_hdr *udphdr;
 714:Middlewares/Third_Party/LwIP/src/core/udp.c ****   err_t err;
 715:Middlewares/Third_Party/LwIP/src/core/udp.c ****   struct pbuf *q; /* q will be sent down the stack */
 716:Middlewares/Third_Party/LwIP/src/core/udp.c ****   u8_t ip_proto;
 717:Middlewares/Third_Party/LwIP/src/core/udp.c ****   u8_t ttl;
 718:Middlewares/Third_Party/LwIP/src/core/udp.c **** 
 719:Middlewares/Third_Party/LwIP/src/core/udp.c ****   LWIP_ASSERT_CORE_LOCKED();
 720:Middlewares/Third_Party/LwIP/src/core/udp.c **** 
 721:Middlewares/Third_Party/LwIP/src/core/udp.c ****   LWIP_ERROR("udp_sendto_if_src: invalid pcb", pcb != NULL, return ERR_ARG);
 722:Middlewares/Third_Party/LwIP/src/core/udp.c ****   LWIP_ERROR("udp_sendto_if_src: invalid pbuf", p != NULL, return ERR_ARG);
 723:Middlewares/Third_Party/LwIP/src/core/udp.c ****   LWIP_ERROR("udp_sendto_if_src: invalid dst_ip", dst_ip != NULL, return ERR_ARG);
 724:Middlewares/Third_Party/LwIP/src/core/udp.c ****   LWIP_ERROR("udp_sendto_if_src: invalid src_ip", src_ip != NULL, return ERR_ARG);
 725:Middlewares/Third_Party/LwIP/src/core/udp.c ****   LWIP_ERROR("udp_sendto_if_src: invalid netif", netif != NULL, return ERR_ARG);
 726:Middlewares/Third_Party/LwIP/src/core/udp.c **** 
 727:Middlewares/Third_Party/LwIP/src/core/udp.c ****   if (!IP_ADDR_PCB_VERSION_MATCH(pcb, src_ip) ||
 728:Middlewares/Third_Party/LwIP/src/core/udp.c ****       !IP_ADDR_PCB_VERSION_MATCH(pcb, dst_ip)) {
 729:Middlewares/Third_Party/LwIP/src/core/udp.c ****     return ERR_VAL;
 730:Middlewares/Third_Party/LwIP/src/core/udp.c ****   }
 731:Middlewares/Third_Party/LwIP/src/core/udp.c **** 
 732:Middlewares/Third_Party/LwIP/src/core/udp.c **** #if LWIP_IPV4 && IP_SOF_BROADCAST
 733:Middlewares/Third_Party/LwIP/src/core/udp.c ****   /* broadcast filter? */
 734:Middlewares/Third_Party/LwIP/src/core/udp.c ****   if (!ip_get_option(pcb, SOF_BROADCAST) &&
 735:Middlewares/Third_Party/LwIP/src/core/udp.c **** #if LWIP_IPV6
 736:Middlewares/Third_Party/LwIP/src/core/udp.c ****       IP_IS_V4(dst_ip) &&
 737:Middlewares/Third_Party/LwIP/src/core/udp.c **** #endif /* LWIP_IPV6 */
 738:Middlewares/Third_Party/LwIP/src/core/udp.c ****       ip_addr_isbroadcast(dst_ip, netif)) {
 739:Middlewares/Third_Party/LwIP/src/core/udp.c ****     LWIP_DEBUGF(UDP_DEBUG | LWIP_DBG_LEVEL_SERIOUS,
 740:Middlewares/Third_Party/LwIP/src/core/udp.c ****                 ("udp_sendto_if: SOF_BROADCAST not enabled on pcb %p\n", (void *)pcb));
 741:Middlewares/Third_Party/LwIP/src/core/udp.c ****     return ERR_VAL;
 742:Middlewares/Third_Party/LwIP/src/core/udp.c ****   }
 743:Middlewares/Third_Party/LwIP/src/core/udp.c **** #endif /* LWIP_IPV4 && IP_SOF_BROADCAST */
 744:Middlewares/Third_Party/LwIP/src/core/udp.c **** 
 745:Middlewares/Third_Party/LwIP/src/core/udp.c ****   /* if the PCB is not yet bound to a port, bind it here */
 746:Middlewares/Third_Party/LwIP/src/core/udp.c ****   if (pcb->local_port == 0) {
 747:Middlewares/Third_Party/LwIP/src/core/udp.c ****     LWIP_DEBUGF(UDP_DEBUG | LWIP_DBG_TRACE, ("udp_send: not yet bound to a port, binding now\n"));
 748:Middlewares/Third_Party/LwIP/src/core/udp.c ****     err = udp_bind(pcb, &pcb->local_ip, pcb->local_port);
 749:Middlewares/Third_Party/LwIP/src/core/udp.c ****     if (err != ERR_OK) {
 750:Middlewares/Third_Party/LwIP/src/core/udp.c ****       LWIP_DEBUGF(UDP_DEBUG | LWIP_DBG_TRACE | LWIP_DBG_LEVEL_SERIOUS, ("udp_send: forced port bind
 751:Middlewares/Third_Party/LwIP/src/core/udp.c ****       return err;
 752:Middlewares/Third_Party/LwIP/src/core/udp.c ****     }
 753:Middlewares/Third_Party/LwIP/src/core/udp.c ****   }
ARM GAS  D:\Dev\msys64\tmp\cco9wmM5.s 			page 31


 754:Middlewares/Third_Party/LwIP/src/core/udp.c **** 
 755:Middlewares/Third_Party/LwIP/src/core/udp.c ****   /* packet too large to add a UDP header without causing an overflow? */
 756:Middlewares/Third_Party/LwIP/src/core/udp.c ****   if ((u16_t)(p->tot_len + UDP_HLEN) < p->tot_len) {
 757:Middlewares/Third_Party/LwIP/src/core/udp.c ****     return ERR_MEM;
 758:Middlewares/Third_Party/LwIP/src/core/udp.c ****   }
 759:Middlewares/Third_Party/LwIP/src/core/udp.c ****   /* not enough space to add an UDP header to first pbuf in given p chain? */
 760:Middlewares/Third_Party/LwIP/src/core/udp.c ****   if (pbuf_add_header(p, UDP_HLEN)) {
 761:Middlewares/Third_Party/LwIP/src/core/udp.c ****     /* allocate header in a separate new pbuf */
 762:Middlewares/Third_Party/LwIP/src/core/udp.c ****     q = pbuf_alloc(PBUF_IP, UDP_HLEN, PBUF_RAM);
 763:Middlewares/Third_Party/LwIP/src/core/udp.c ****     /* new header pbuf could not be allocated? */
 764:Middlewares/Third_Party/LwIP/src/core/udp.c ****     if (q == NULL) {
 765:Middlewares/Third_Party/LwIP/src/core/udp.c ****       LWIP_DEBUGF(UDP_DEBUG | LWIP_DBG_TRACE | LWIP_DBG_LEVEL_SERIOUS, ("udp_send: could not alloca
 766:Middlewares/Third_Party/LwIP/src/core/udp.c ****       return ERR_MEM;
 767:Middlewares/Third_Party/LwIP/src/core/udp.c ****     }
 768:Middlewares/Third_Party/LwIP/src/core/udp.c ****     if (p->tot_len != 0) {
 769:Middlewares/Third_Party/LwIP/src/core/udp.c ****       /* chain header q in front of given pbuf p (only if p contains data) */
 770:Middlewares/Third_Party/LwIP/src/core/udp.c ****       pbuf_chain(q, p);
 771:Middlewares/Third_Party/LwIP/src/core/udp.c ****     }
 772:Middlewares/Third_Party/LwIP/src/core/udp.c ****     /* first pbuf q points to header pbuf */
 773:Middlewares/Third_Party/LwIP/src/core/udp.c ****     LWIP_DEBUGF(UDP_DEBUG,
 774:Middlewares/Third_Party/LwIP/src/core/udp.c ****                 ("udp_send: added header pbuf %p before given pbuf %p\n", (void *)q, (void *)p));
 775:Middlewares/Third_Party/LwIP/src/core/udp.c ****   } else {
 776:Middlewares/Third_Party/LwIP/src/core/udp.c ****     /* adding space for header within p succeeded */
 777:Middlewares/Third_Party/LwIP/src/core/udp.c ****     /* first pbuf q equals given pbuf */
 778:Middlewares/Third_Party/LwIP/src/core/udp.c ****     q = p;
 779:Middlewares/Third_Party/LwIP/src/core/udp.c ****     LWIP_DEBUGF(UDP_DEBUG, ("udp_send: added header in given pbuf %p\n", (void *)p));
 780:Middlewares/Third_Party/LwIP/src/core/udp.c ****   }
 781:Middlewares/Third_Party/LwIP/src/core/udp.c ****   LWIP_ASSERT("check that first pbuf can hold struct udp_hdr",
 782:Middlewares/Third_Party/LwIP/src/core/udp.c ****               (q->len >= sizeof(struct udp_hdr)));
 783:Middlewares/Third_Party/LwIP/src/core/udp.c ****   /* q now represents the packet to be sent */
 784:Middlewares/Third_Party/LwIP/src/core/udp.c ****   udphdr = (struct udp_hdr *)q->payload;
 785:Middlewares/Third_Party/LwIP/src/core/udp.c ****   udphdr->src = lwip_htons(pcb->local_port);
 786:Middlewares/Third_Party/LwIP/src/core/udp.c ****   udphdr->dest = lwip_htons(dst_port);
 787:Middlewares/Third_Party/LwIP/src/core/udp.c ****   /* in UDP, 0 checksum means 'no checksum' */
 788:Middlewares/Third_Party/LwIP/src/core/udp.c ****   udphdr->chksum = 0x0000;
 789:Middlewares/Third_Party/LwIP/src/core/udp.c **** 
 790:Middlewares/Third_Party/LwIP/src/core/udp.c ****   /* Multicast Loop? */
 791:Middlewares/Third_Party/LwIP/src/core/udp.c **** #if LWIP_MULTICAST_TX_OPTIONS
 792:Middlewares/Third_Party/LwIP/src/core/udp.c ****   if (((pcb->flags & UDP_FLAGS_MULTICAST_LOOP) != 0) && ip_addr_ismulticast(dst_ip)) {
 793:Middlewares/Third_Party/LwIP/src/core/udp.c ****     q->flags |= PBUF_FLAG_MCASTLOOP;
 794:Middlewares/Third_Party/LwIP/src/core/udp.c ****   }
 795:Middlewares/Third_Party/LwIP/src/core/udp.c **** #endif /* LWIP_MULTICAST_TX_OPTIONS */
 796:Middlewares/Third_Party/LwIP/src/core/udp.c **** 
 797:Middlewares/Third_Party/LwIP/src/core/udp.c ****   LWIP_DEBUGF(UDP_DEBUG, ("udp_send: sending datagram of length %"U16_F"\n", q->tot_len));
 798:Middlewares/Third_Party/LwIP/src/core/udp.c **** 
 799:Middlewares/Third_Party/LwIP/src/core/udp.c **** #if LWIP_UDPLITE
 800:Middlewares/Third_Party/LwIP/src/core/udp.c ****   /* UDP Lite protocol? */
 801:Middlewares/Third_Party/LwIP/src/core/udp.c ****   if (pcb->flags & UDP_FLAGS_UDPLITE) {
 802:Middlewares/Third_Party/LwIP/src/core/udp.c ****     u16_t chklen, chklen_hdr;
 803:Middlewares/Third_Party/LwIP/src/core/udp.c ****     LWIP_DEBUGF(UDP_DEBUG, ("udp_send: UDP LITE packet length %"U16_F"\n", q->tot_len));
 804:Middlewares/Third_Party/LwIP/src/core/udp.c ****     /* set UDP message length in UDP header */
 805:Middlewares/Third_Party/LwIP/src/core/udp.c ****     chklen_hdr = chklen = pcb->chksum_len_tx;
 806:Middlewares/Third_Party/LwIP/src/core/udp.c ****     if ((chklen < sizeof(struct udp_hdr)) || (chklen > q->tot_len)) {
 807:Middlewares/Third_Party/LwIP/src/core/udp.c ****       if (chklen != 0) {
 808:Middlewares/Third_Party/LwIP/src/core/udp.c ****         LWIP_DEBUGF(UDP_DEBUG, ("udp_send: UDP LITE pcb->chksum_len is illegal: %"U16_F"\n", chklen
 809:Middlewares/Third_Party/LwIP/src/core/udp.c ****       }
 810:Middlewares/Third_Party/LwIP/src/core/udp.c ****       /* For UDP-Lite, checksum length of 0 means checksum
ARM GAS  D:\Dev\msys64\tmp\cco9wmM5.s 			page 32


 811:Middlewares/Third_Party/LwIP/src/core/udp.c ****          over the complete packet. (See RFC 3828 chap. 3.1)
 812:Middlewares/Third_Party/LwIP/src/core/udp.c ****          At least the UDP-Lite header must be covered by the
 813:Middlewares/Third_Party/LwIP/src/core/udp.c ****          checksum, therefore, if chksum_len has an illegal
 814:Middlewares/Third_Party/LwIP/src/core/udp.c ****          value, we generate the checksum over the complete
 815:Middlewares/Third_Party/LwIP/src/core/udp.c ****          packet to be safe. */
 816:Middlewares/Third_Party/LwIP/src/core/udp.c ****       chklen_hdr = 0;
 817:Middlewares/Third_Party/LwIP/src/core/udp.c ****       chklen = q->tot_len;
 818:Middlewares/Third_Party/LwIP/src/core/udp.c ****     }
 819:Middlewares/Third_Party/LwIP/src/core/udp.c ****     udphdr->len = lwip_htons(chklen_hdr);
 820:Middlewares/Third_Party/LwIP/src/core/udp.c ****     /* calculate checksum */
 821:Middlewares/Third_Party/LwIP/src/core/udp.c **** #if CHECKSUM_GEN_UDP
 822:Middlewares/Third_Party/LwIP/src/core/udp.c ****     IF__NETIF_CHECKSUM_ENABLED(netif, NETIF_CHECKSUM_GEN_UDP) {
 823:Middlewares/Third_Party/LwIP/src/core/udp.c **** #if LWIP_CHECKSUM_ON_COPY
 824:Middlewares/Third_Party/LwIP/src/core/udp.c ****       if (have_chksum) {
 825:Middlewares/Third_Party/LwIP/src/core/udp.c ****         chklen = UDP_HLEN;
 826:Middlewares/Third_Party/LwIP/src/core/udp.c ****       }
 827:Middlewares/Third_Party/LwIP/src/core/udp.c **** #endif /* LWIP_CHECKSUM_ON_COPY */
 828:Middlewares/Third_Party/LwIP/src/core/udp.c ****       udphdr->chksum = ip_chksum_pseudo_partial(q, IP_PROTO_UDPLITE,
 829:Middlewares/Third_Party/LwIP/src/core/udp.c ****                        q->tot_len, chklen, src_ip, dst_ip);
 830:Middlewares/Third_Party/LwIP/src/core/udp.c **** #if LWIP_CHECKSUM_ON_COPY
 831:Middlewares/Third_Party/LwIP/src/core/udp.c ****       if (have_chksum) {
 832:Middlewares/Third_Party/LwIP/src/core/udp.c ****         u32_t acc;
 833:Middlewares/Third_Party/LwIP/src/core/udp.c ****         acc = udphdr->chksum + (u16_t)~(chksum);
 834:Middlewares/Third_Party/LwIP/src/core/udp.c ****         udphdr->chksum = FOLD_U32T(acc);
 835:Middlewares/Third_Party/LwIP/src/core/udp.c ****       }
 836:Middlewares/Third_Party/LwIP/src/core/udp.c **** #endif /* LWIP_CHECKSUM_ON_COPY */
 837:Middlewares/Third_Party/LwIP/src/core/udp.c **** 
 838:Middlewares/Third_Party/LwIP/src/core/udp.c ****       /* chksum zero must become 0xffff, as zero means 'no checksum' */
 839:Middlewares/Third_Party/LwIP/src/core/udp.c ****       if (udphdr->chksum == 0x0000) {
 840:Middlewares/Third_Party/LwIP/src/core/udp.c ****         udphdr->chksum = 0xffff;
 841:Middlewares/Third_Party/LwIP/src/core/udp.c ****       }
 842:Middlewares/Third_Party/LwIP/src/core/udp.c ****     }
 843:Middlewares/Third_Party/LwIP/src/core/udp.c **** #endif /* CHECKSUM_GEN_UDP */
 844:Middlewares/Third_Party/LwIP/src/core/udp.c **** 
 845:Middlewares/Third_Party/LwIP/src/core/udp.c ****     ip_proto = IP_PROTO_UDPLITE;
 846:Middlewares/Third_Party/LwIP/src/core/udp.c ****   } else
 847:Middlewares/Third_Party/LwIP/src/core/udp.c **** #endif /* LWIP_UDPLITE */
 848:Middlewares/Third_Party/LwIP/src/core/udp.c ****   {      /* UDP */
 849:Middlewares/Third_Party/LwIP/src/core/udp.c ****     LWIP_DEBUGF(UDP_DEBUG, ("udp_send: UDP packet length %"U16_F"\n", q->tot_len));
 850:Middlewares/Third_Party/LwIP/src/core/udp.c ****     udphdr->len = lwip_htons(q->tot_len);
 851:Middlewares/Third_Party/LwIP/src/core/udp.c ****     /* calculate checksum */
 852:Middlewares/Third_Party/LwIP/src/core/udp.c **** #if CHECKSUM_GEN_UDP
 853:Middlewares/Third_Party/LwIP/src/core/udp.c ****     IF__NETIF_CHECKSUM_ENABLED(netif, NETIF_CHECKSUM_GEN_UDP) {
 854:Middlewares/Third_Party/LwIP/src/core/udp.c ****       /* Checksum is mandatory over IPv6. */
 855:Middlewares/Third_Party/LwIP/src/core/udp.c ****       if (IP_IS_V6(dst_ip) || (pcb->flags & UDP_FLAGS_NOCHKSUM) == 0) {
 856:Middlewares/Third_Party/LwIP/src/core/udp.c ****         u16_t udpchksum;
 857:Middlewares/Third_Party/LwIP/src/core/udp.c **** #if LWIP_CHECKSUM_ON_COPY
 858:Middlewares/Third_Party/LwIP/src/core/udp.c ****         if (have_chksum) {
 859:Middlewares/Third_Party/LwIP/src/core/udp.c ****           u32_t acc;
 860:Middlewares/Third_Party/LwIP/src/core/udp.c ****           udpchksum = ip_chksum_pseudo_partial(q, IP_PROTO_UDP,
 861:Middlewares/Third_Party/LwIP/src/core/udp.c ****                                                q->tot_len, UDP_HLEN, src_ip, dst_ip);
 862:Middlewares/Third_Party/LwIP/src/core/udp.c ****           acc = udpchksum + (u16_t)~(chksum);
 863:Middlewares/Third_Party/LwIP/src/core/udp.c ****           udpchksum = FOLD_U32T(acc);
 864:Middlewares/Third_Party/LwIP/src/core/udp.c ****         } else
 865:Middlewares/Third_Party/LwIP/src/core/udp.c **** #endif /* LWIP_CHECKSUM_ON_COPY */
 866:Middlewares/Third_Party/LwIP/src/core/udp.c ****         {
 867:Middlewares/Third_Party/LwIP/src/core/udp.c ****           udpchksum = ip_chksum_pseudo(q, IP_PROTO_UDP, q->tot_len,
ARM GAS  D:\Dev\msys64\tmp\cco9wmM5.s 			page 33


 868:Middlewares/Third_Party/LwIP/src/core/udp.c ****                                        src_ip, dst_ip);
 869:Middlewares/Third_Party/LwIP/src/core/udp.c ****         }
 870:Middlewares/Third_Party/LwIP/src/core/udp.c **** 
 871:Middlewares/Third_Party/LwIP/src/core/udp.c ****         /* chksum zero must become 0xffff, as zero means 'no checksum' */
 872:Middlewares/Third_Party/LwIP/src/core/udp.c ****         if (udpchksum == 0x0000) {
 873:Middlewares/Third_Party/LwIP/src/core/udp.c ****           udpchksum = 0xffff;
 874:Middlewares/Third_Party/LwIP/src/core/udp.c ****         }
 875:Middlewares/Third_Party/LwIP/src/core/udp.c ****         udphdr->chksum = udpchksum;
 876:Middlewares/Third_Party/LwIP/src/core/udp.c ****       }
 877:Middlewares/Third_Party/LwIP/src/core/udp.c ****     }
 878:Middlewares/Third_Party/LwIP/src/core/udp.c **** #endif /* CHECKSUM_GEN_UDP */
 879:Middlewares/Third_Party/LwIP/src/core/udp.c ****     ip_proto = IP_PROTO_UDP;
 880:Middlewares/Third_Party/LwIP/src/core/udp.c ****   }
 881:Middlewares/Third_Party/LwIP/src/core/udp.c **** 
 882:Middlewares/Third_Party/LwIP/src/core/udp.c ****   /* Determine TTL to use */
 883:Middlewares/Third_Party/LwIP/src/core/udp.c **** #if LWIP_MULTICAST_TX_OPTIONS
 884:Middlewares/Third_Party/LwIP/src/core/udp.c ****   ttl = (ip_addr_ismulticast(dst_ip) ? udp_get_multicast_ttl(pcb) : pcb->ttl);
 885:Middlewares/Third_Party/LwIP/src/core/udp.c **** #else /* LWIP_MULTICAST_TX_OPTIONS */
 886:Middlewares/Third_Party/LwIP/src/core/udp.c ****   ttl = pcb->ttl;
 887:Middlewares/Third_Party/LwIP/src/core/udp.c **** #endif /* LWIP_MULTICAST_TX_OPTIONS */
 888:Middlewares/Third_Party/LwIP/src/core/udp.c **** 
 889:Middlewares/Third_Party/LwIP/src/core/udp.c ****   LWIP_DEBUGF(UDP_DEBUG, ("udp_send: UDP checksum 0x%04"X16_F"\n", udphdr->chksum));
 890:Middlewares/Third_Party/LwIP/src/core/udp.c ****   LWIP_DEBUGF(UDP_DEBUG, ("udp_send: ip_output_if (,,,,0x%02"X16_F",)\n", (u16_t)ip_proto));
 891:Middlewares/Third_Party/LwIP/src/core/udp.c ****   /* output to IP */
 892:Middlewares/Third_Party/LwIP/src/core/udp.c ****   NETIF_SET_HINTS(netif, &(pcb->netif_hints));
 893:Middlewares/Third_Party/LwIP/src/core/udp.c ****   err = ip_output_if_src(q, src_ip, dst_ip, ttl, pcb->tos, ip_proto, netif);
 894:Middlewares/Third_Party/LwIP/src/core/udp.c ****   NETIF_RESET_HINTS(netif);
 895:Middlewares/Third_Party/LwIP/src/core/udp.c **** 
 896:Middlewares/Third_Party/LwIP/src/core/udp.c ****   /* @todo: must this be increased even if error occurred? */
 897:Middlewares/Third_Party/LwIP/src/core/udp.c ****   MIB2_STATS_INC(mib2.udpoutdatagrams);
 898:Middlewares/Third_Party/LwIP/src/core/udp.c **** 
 899:Middlewares/Third_Party/LwIP/src/core/udp.c ****   /* did we chain a separate header pbuf earlier? */
 900:Middlewares/Third_Party/LwIP/src/core/udp.c ****   if (q != p) {
 901:Middlewares/Third_Party/LwIP/src/core/udp.c ****     /* free the header pbuf */
 902:Middlewares/Third_Party/LwIP/src/core/udp.c ****     pbuf_free(q);
 903:Middlewares/Third_Party/LwIP/src/core/udp.c ****     q = NULL;
 904:Middlewares/Third_Party/LwIP/src/core/udp.c ****     /* p is still referenced by the caller, and will live on */
 905:Middlewares/Third_Party/LwIP/src/core/udp.c ****   }
 906:Middlewares/Third_Party/LwIP/src/core/udp.c **** 
 907:Middlewares/Third_Party/LwIP/src/core/udp.c ****   UDP_STATS_INC(udp.xmit);
 908:Middlewares/Third_Party/LwIP/src/core/udp.c ****   return err;
 909:Middlewares/Third_Party/LwIP/src/core/udp.c **** }
 910:Middlewares/Third_Party/LwIP/src/core/udp.c **** 
 911:Middlewares/Third_Party/LwIP/src/core/udp.c **** /**
 912:Middlewares/Third_Party/LwIP/src/core/udp.c ****  * @ingroup udp_raw
 913:Middlewares/Third_Party/LwIP/src/core/udp.c ****  * Bind an UDP PCB.
 914:Middlewares/Third_Party/LwIP/src/core/udp.c ****  * 
 915:Middlewares/Third_Party/LwIP/src/core/udp.c ****  * @param pcb UDP PCB to be bound with a local address ipaddr and port.
 916:Middlewares/Third_Party/LwIP/src/core/udp.c ****  * @param ipaddr local IP address to bind with. Use IP_ANY_TYPE to
 917:Middlewares/Third_Party/LwIP/src/core/udp.c ****  * bind to all local interfaces.
 918:Middlewares/Third_Party/LwIP/src/core/udp.c ****  * @param port local UDP port to bind with. Use 0 to automatically bind
 919:Middlewares/Third_Party/LwIP/src/core/udp.c ****  * to a random port between UDP_LOCAL_PORT_RANGE_START and
 920:Middlewares/Third_Party/LwIP/src/core/udp.c ****  * UDP_LOCAL_PORT_RANGE_END.
 921:Middlewares/Third_Party/LwIP/src/core/udp.c ****  *
 922:Middlewares/Third_Party/LwIP/src/core/udp.c ****  * ipaddr & port are expected to be in the same byte order as in the pcb.
 923:Middlewares/Third_Party/LwIP/src/core/udp.c ****  *
 924:Middlewares/Third_Party/LwIP/src/core/udp.c ****  * @return lwIP error code.
ARM GAS  D:\Dev\msys64\tmp\cco9wmM5.s 			page 34


 925:Middlewares/Third_Party/LwIP/src/core/udp.c ****  * - ERR_OK. Successful. No error occurred.
 926:Middlewares/Third_Party/LwIP/src/core/udp.c ****  * - ERR_USE. The specified ipaddr and port are already bound to by
 927:Middlewares/Third_Party/LwIP/src/core/udp.c ****  * another UDP PCB.
 928:Middlewares/Third_Party/LwIP/src/core/udp.c ****  *
 929:Middlewares/Third_Party/LwIP/src/core/udp.c ****  * @see udp_disconnect()
 930:Middlewares/Third_Party/LwIP/src/core/udp.c ****  */
 931:Middlewares/Third_Party/LwIP/src/core/udp.c **** err_t
 932:Middlewares/Third_Party/LwIP/src/core/udp.c **** udp_bind(struct udp_pcb *pcb, const ip_addr_t *ipaddr, u16_t port)
 933:Middlewares/Third_Party/LwIP/src/core/udp.c **** {
 785              		.loc 1 933 1 view -0
 786              		.cfi_startproc
 787              		@ args = 0, pretend = 0, frame = 0
 788              		@ frame_needed = 0, uses_anonymous_args = 0
 789              		.loc 1 933 1 is_stmt 0 view .LVU245
 790 0000 70B5     		push	{r4, r5, r6, lr}
 791              	.LCFI6:
 792              		.cfi_def_cfa_offset 16
 793              		.cfi_offset 4, -16
 794              		.cfi_offset 5, -12
 795              		.cfi_offset 6, -8
 796              		.cfi_offset 14, -4
 797 0002 0446     		mov	r4, r0
 934:Middlewares/Third_Party/LwIP/src/core/udp.c ****   struct udp_pcb *ipcb;
 798              		.loc 1 934 3 is_stmt 1 view .LVU246
 935:Middlewares/Third_Party/LwIP/src/core/udp.c ****   u8_t rebind;
 799              		.loc 1 935 3 view .LVU247
 936:Middlewares/Third_Party/LwIP/src/core/udp.c **** #if LWIP_IPV6 && LWIP_IPV6_SCOPES
 937:Middlewares/Third_Party/LwIP/src/core/udp.c ****   ip_addr_t zoned_ipaddr;
 938:Middlewares/Third_Party/LwIP/src/core/udp.c **** #endif /* LWIP_IPV6 && LWIP_IPV6_SCOPES */
 939:Middlewares/Third_Party/LwIP/src/core/udp.c **** 
 940:Middlewares/Third_Party/LwIP/src/core/udp.c ****   LWIP_ASSERT_CORE_LOCKED();
 800              		.loc 1 940 28 view .LVU248
 941:Middlewares/Third_Party/LwIP/src/core/udp.c **** 
 942:Middlewares/Third_Party/LwIP/src/core/udp.c **** #if LWIP_IPV4
 943:Middlewares/Third_Party/LwIP/src/core/udp.c ****   /* Don't propagate NULL pointer (IPv4 ANY) to subsequent functions */
 944:Middlewares/Third_Party/LwIP/src/core/udp.c ****   if (ipaddr == NULL) {
 801              		.loc 1 944 3 view .LVU249
 802              		.loc 1 944 6 is_stmt 0 view .LVU250
 803 0004 0D46     		mov	r5, r1
 804 0006 41B1     		cbz	r1, .L92
 805              	.L70:
 806              	.LVL65:
 945:Middlewares/Third_Party/LwIP/src/core/udp.c ****     ipaddr = IP4_ADDR_ANY;
 946:Middlewares/Third_Party/LwIP/src/core/udp.c ****   }
 947:Middlewares/Third_Party/LwIP/src/core/udp.c **** #else /* LWIP_IPV4 */
 948:Middlewares/Third_Party/LwIP/src/core/udp.c ****   LWIP_ERROR("udp_bind: invalid ipaddr", ipaddr != NULL, return ERR_ARG);
 949:Middlewares/Third_Party/LwIP/src/core/udp.c **** #endif /* LWIP_IPV4 */
 950:Middlewares/Third_Party/LwIP/src/core/udp.c **** 
 951:Middlewares/Third_Party/LwIP/src/core/udp.c ****   LWIP_ERROR("udp_bind: invalid pcb", pcb != NULL, return ERR_ARG);
 807              		.loc 1 951 3 is_stmt 1 view .LVU251
 808              		.loc 1 951 3 view .LVU252
 809 0008 4CB1     		cbz	r4, .L93
 810              		.loc 1 951 3 discriminator 2 view .LVU253
 952:Middlewares/Third_Party/LwIP/src/core/udp.c **** 
 953:Middlewares/Third_Party/LwIP/src/core/udp.c ****   LWIP_DEBUGF(UDP_DEBUG | LWIP_DBG_TRACE, ("udp_bind(ipaddr = "));
 811              		.loc 1 953 66 discriminator 2 view .LVU254
 954:Middlewares/Third_Party/LwIP/src/core/udp.c ****   ip_addr_debug_print(UDP_DEBUG | LWIP_DBG_TRACE, ipaddr);
ARM GAS  D:\Dev\msys64\tmp\cco9wmM5.s 			page 35


 812              		.loc 1 954 58 discriminator 2 view .LVU255
 955:Middlewares/Third_Party/LwIP/src/core/udp.c ****   LWIP_DEBUGF(UDP_DEBUG | LWIP_DBG_TRACE, (", port = %"U16_F")\n", port));
 813              		.loc 1 955 74 discriminator 2 view .LVU256
 956:Middlewares/Third_Party/LwIP/src/core/udp.c **** 
 957:Middlewares/Third_Party/LwIP/src/core/udp.c ****   rebind = 0;
 814              		.loc 1 957 3 discriminator 2 view .LVU257
 815              	.LVL66:
 958:Middlewares/Third_Party/LwIP/src/core/udp.c ****   /* Check for double bind and rebind of the same pcb */
 959:Middlewares/Third_Party/LwIP/src/core/udp.c ****   for (ipcb = udp_pcbs; ipcb != NULL; ipcb = ipcb->next) {
 816              		.loc 1 959 3 discriminator 2 view .LVU258
 817              		.loc 1 959 13 is_stmt 0 discriminator 2 view .LVU259
 818 000a 274B     		ldr	r3, .L96
 819 000c 1B68     		ldr	r3, [r3]
 820              	.LVL67:
 821              		.loc 1 959 13 discriminator 2 view .LVU260
 822 000e 1946     		mov	r1, r3
 823              	.LVL68:
 824              	.L73:
 825              		.loc 1 959 25 is_stmt 1 discriminator 1 view .LVU261
 826              		.loc 1 959 3 is_stmt 0 discriminator 1 view .LVU262
 827 0010 79B1     		cbz	r1, .L94
 960:Middlewares/Third_Party/LwIP/src/core/udp.c ****     /* is this UDP PCB already on active list? */
 961:Middlewares/Third_Party/LwIP/src/core/udp.c ****     if (pcb == ipcb) {
 828              		.loc 1 961 5 is_stmt 1 view .LVU263
 829              		.loc 1 961 8 is_stmt 0 view .LVU264
 830 0012 A142     		cmp	r1, r4
 831 0014 1ED0     		beq	.L82
 959:Middlewares/Third_Party/LwIP/src/core/udp.c ****     /* is this UDP PCB already on active list? */
 832              		.loc 1 959 39 is_stmt 1 discriminator 2 view .LVU265
 959:Middlewares/Third_Party/LwIP/src/core/udp.c ****     /* is this UDP PCB already on active list? */
 833              		.loc 1 959 44 is_stmt 0 discriminator 2 view .LVU266
 834 0016 C968     		ldr	r1, [r1, #12]
 835              	.LVL69:
 959:Middlewares/Third_Party/LwIP/src/core/udp.c ****     /* is this UDP PCB already on active list? */
 836              		.loc 1 959 44 discriminator 2 view .LVU267
 837 0018 FAE7     		b	.L73
 838              	.LVL70:
 839              	.L92:
 945:Middlewares/Third_Party/LwIP/src/core/udp.c ****   }
 840              		.loc 1 945 12 view .LVU268
 841 001a 244D     		ldr	r5, .L96+4
 842 001c F4E7     		b	.L70
 843              	.LVL71:
 844              	.L93:
 951:Middlewares/Third_Party/LwIP/src/core/udp.c **** 
 845              		.loc 1 951 3 is_stmt 1 discriminator 1 view .LVU269
 951:Middlewares/Third_Party/LwIP/src/core/udp.c **** 
 846              		.loc 1 951 3 discriminator 1 view .LVU270
 847 001e 244B     		ldr	r3, .L96+8
 848 0020 40F2B732 		movw	r2, #951
 849              	.LVL72:
 951:Middlewares/Third_Party/LwIP/src/core/udp.c **** 
 850              		.loc 1 951 3 is_stmt 0 discriminator 1 view .LVU271
 851 0024 2349     		ldr	r1, .L96+12
 852 0026 2448     		ldr	r0, .L96+16
 853              	.LVL73:
 951:Middlewares/Third_Party/LwIP/src/core/udp.c **** 
ARM GAS  D:\Dev\msys64\tmp\cco9wmM5.s 			page 36


 854              		.loc 1 951 3 discriminator 1 view .LVU272
 855 0028 FFF7FEFF 		bl	printf
 856              	.LVL74:
 951:Middlewares/Third_Party/LwIP/src/core/udp.c **** 
 857              		.loc 1 951 3 is_stmt 1 discriminator 1 view .LVU273
 951:Middlewares/Third_Party/LwIP/src/core/udp.c **** 
 858              		.loc 1 951 3 discriminator 1 view .LVU274
 859 002c 6FF00F00 		mvn	r0, #15
 860 0030 0FE0     		b	.L72
 861              	.LVL75:
 862              	.L94:
 957:Middlewares/Third_Party/LwIP/src/core/udp.c ****   /* Check for double bind and rebind of the same pcb */
 863              		.loc 1 957 10 is_stmt 0 view .LVU275
 864 0032 0026     		movs	r6, #0
 865              	.L74:
 866              	.LVL76:
 962:Middlewares/Third_Party/LwIP/src/core/udp.c ****       rebind = 1;
 963:Middlewares/Third_Party/LwIP/src/core/udp.c ****       break;
 964:Middlewares/Third_Party/LwIP/src/core/udp.c ****     }
 965:Middlewares/Third_Party/LwIP/src/core/udp.c ****   }
 966:Middlewares/Third_Party/LwIP/src/core/udp.c **** 
 967:Middlewares/Third_Party/LwIP/src/core/udp.c **** #if LWIP_IPV6 && LWIP_IPV6_SCOPES
 968:Middlewares/Third_Party/LwIP/src/core/udp.c ****   /* If the given IP address should have a zone but doesn't, assign one now.
 969:Middlewares/Third_Party/LwIP/src/core/udp.c ****    * This is legacy support: scope-aware callers should always provide properly
 970:Middlewares/Third_Party/LwIP/src/core/udp.c ****    * zoned source addresses. Do the zone selection before the address-in-use
 971:Middlewares/Third_Party/LwIP/src/core/udp.c ****    * check below; as such we have to make a temporary copy of the address. */
 972:Middlewares/Third_Party/LwIP/src/core/udp.c ****   if (IP_IS_V6(ipaddr) && ip6_addr_lacks_zone(ip_2_ip6(ipaddr), IP6_UNKNOWN)) {
 973:Middlewares/Third_Party/LwIP/src/core/udp.c ****     ip_addr_copy(zoned_ipaddr, *ipaddr);
 974:Middlewares/Third_Party/LwIP/src/core/udp.c ****     ip6_addr_select_zone(ip_2_ip6(&zoned_ipaddr), ip_2_ip6(&zoned_ipaddr));
 975:Middlewares/Third_Party/LwIP/src/core/udp.c ****     ipaddr = &zoned_ipaddr;
 976:Middlewares/Third_Party/LwIP/src/core/udp.c ****   }
 977:Middlewares/Third_Party/LwIP/src/core/udp.c **** #endif /* LWIP_IPV6 && LWIP_IPV6_SCOPES */
 978:Middlewares/Third_Party/LwIP/src/core/udp.c **** 
 979:Middlewares/Third_Party/LwIP/src/core/udp.c ****   /* no port specified? */
 980:Middlewares/Third_Party/LwIP/src/core/udp.c ****   if (port == 0) {
 867              		.loc 1 980 3 is_stmt 1 view .LVU276
 868              		.loc 1 980 6 is_stmt 0 view .LVU277
 869 0034 8AB9     		cbnz	r2, .L76
 981:Middlewares/Third_Party/LwIP/src/core/udp.c ****     port = udp_new_port();
 870              		.loc 1 981 5 is_stmt 1 view .LVU278
 871              		.loc 1 981 12 is_stmt 0 view .LVU279
 872 0036 FFF7FEFF 		bl	udp_new_port
 873              	.LVL77:
 982:Middlewares/Third_Party/LwIP/src/core/udp.c ****     if (port == 0) {
 874              		.loc 1 982 5 is_stmt 1 view .LVU280
 875              		.loc 1 982 8 is_stmt 0 view .LVU281
 876 003a 0246     		mov	r2, r0
 877 003c 10B3     		cbz	r0, .L95
 878              	.LVL78:
 879              	.L77:
 983:Middlewares/Third_Party/LwIP/src/core/udp.c ****       /* no more ports available in local range */
 984:Middlewares/Third_Party/LwIP/src/core/udp.c ****       LWIP_DEBUGF(UDP_DEBUG, ("udp_bind: out of free UDP ports\n"));
 985:Middlewares/Third_Party/LwIP/src/core/udp.c ****       return ERR_USE;
 986:Middlewares/Third_Party/LwIP/src/core/udp.c ****     }
 987:Middlewares/Third_Party/LwIP/src/core/udp.c ****   } else {
 988:Middlewares/Third_Party/LwIP/src/core/udp.c ****     for (ipcb = udp_pcbs; ipcb != NULL; ipcb = ipcb->next) {
 989:Middlewares/Third_Party/LwIP/src/core/udp.c ****       if (pcb != ipcb) {
ARM GAS  D:\Dev\msys64\tmp\cco9wmM5.s 			page 37


 990:Middlewares/Third_Party/LwIP/src/core/udp.c ****         /* By default, we don't allow to bind to a port that any other udp
 991:Middlewares/Third_Party/LwIP/src/core/udp.c ****            PCB is already bound to, unless *all* PCBs with that port have tha
 992:Middlewares/Third_Party/LwIP/src/core/udp.c ****            REUSEADDR flag set. */
 993:Middlewares/Third_Party/LwIP/src/core/udp.c **** #if SO_REUSE
 994:Middlewares/Third_Party/LwIP/src/core/udp.c ****         if (!ip_get_option(pcb, SOF_REUSEADDR) ||
 995:Middlewares/Third_Party/LwIP/src/core/udp.c ****             !ip_get_option(ipcb, SOF_REUSEADDR))
 996:Middlewares/Third_Party/LwIP/src/core/udp.c **** #endif /* SO_REUSE */
 997:Middlewares/Third_Party/LwIP/src/core/udp.c ****         {
 998:Middlewares/Third_Party/LwIP/src/core/udp.c ****           /* port matches that of PCB in list and REUSEADDR not set -> reject */
 999:Middlewares/Third_Party/LwIP/src/core/udp.c ****           if ((ipcb->local_port == port) &&
1000:Middlewares/Third_Party/LwIP/src/core/udp.c ****               /* IP address matches or any IP used? */
1001:Middlewares/Third_Party/LwIP/src/core/udp.c ****               (ip_addr_cmp(&ipcb->local_ip, ipaddr) || ip_addr_isany(ipaddr) ||
1002:Middlewares/Third_Party/LwIP/src/core/udp.c ****               ip_addr_isany(&ipcb->local_ip))) {
1003:Middlewares/Third_Party/LwIP/src/core/udp.c ****             /* other PCB already binds to this local IP and port */
1004:Middlewares/Third_Party/LwIP/src/core/udp.c ****             LWIP_DEBUGF(UDP_DEBUG,
1005:Middlewares/Third_Party/LwIP/src/core/udp.c ****                         ("udp_bind: local port %"U16_F" already bound by another pcb\n", port));
1006:Middlewares/Third_Party/LwIP/src/core/udp.c ****             return ERR_USE;
1007:Middlewares/Third_Party/LwIP/src/core/udp.c ****           }
1008:Middlewares/Third_Party/LwIP/src/core/udp.c ****         }
1009:Middlewares/Third_Party/LwIP/src/core/udp.c ****       }
1010:Middlewares/Third_Party/LwIP/src/core/udp.c ****     }
1011:Middlewares/Third_Party/LwIP/src/core/udp.c ****   }
1012:Middlewares/Third_Party/LwIP/src/core/udp.c **** 
1013:Middlewares/Third_Party/LwIP/src/core/udp.c ****   ip_addr_set_ipaddr(&pcb->local_ip, ipaddr);
 880              		.loc 1 1013 3 is_stmt 1 view .LVU282
 881 003e FDB1     		cbz	r5, .L89
 882              		.loc 1 1013 3 is_stmt 0 discriminator 1 view .LVU283
 883 0040 2B68     		ldr	r3, [r5]
 884              	.L80:
 885              		.loc 1 1013 3 discriminator 4 view .LVU284
 886 0042 2360     		str	r3, [r4]
1014:Middlewares/Third_Party/LwIP/src/core/udp.c **** 
1015:Middlewares/Third_Party/LwIP/src/core/udp.c ****   pcb->local_port = port;
 887              		.loc 1 1015 3 is_stmt 1 discriminator 4 view .LVU285
 888              		.loc 1 1015 19 is_stmt 0 discriminator 4 view .LVU286
 889 0044 6282     		strh	r2, [r4, #18]	@ movhi
1016:Middlewares/Third_Party/LwIP/src/core/udp.c ****   mib2_udp_bind(pcb);
 890              		.loc 1 1016 21 is_stmt 1 discriminator 4 view .LVU287
1017:Middlewares/Third_Party/LwIP/src/core/udp.c ****   /* pcb not active yet? */
1018:Middlewares/Third_Party/LwIP/src/core/udp.c ****   if (rebind == 0) {
 891              		.loc 1 1018 3 discriminator 4 view .LVU288
 892              		.loc 1 1018 6 is_stmt 0 discriminator 4 view .LVU289
 893 0046 66BB     		cbnz	r6, .L90
1019:Middlewares/Third_Party/LwIP/src/core/udp.c ****     /* place the PCB on the active list if not already there */
1020:Middlewares/Third_Party/LwIP/src/core/udp.c ****     pcb->next = udp_pcbs;
 894              		.loc 1 1020 5 is_stmt 1 view .LVU290
 895              		.loc 1 1020 15 is_stmt 0 view .LVU291
 896 0048 174B     		ldr	r3, .L96
 897 004a 1A68     		ldr	r2, [r3]
 898              	.LVL79:
 899              		.loc 1 1020 15 view .LVU292
 900 004c E260     		str	r2, [r4, #12]
1021:Middlewares/Third_Party/LwIP/src/core/udp.c ****     udp_pcbs = pcb;
 901              		.loc 1 1021 5 is_stmt 1 view .LVU293
 902              		.loc 1 1021 14 is_stmt 0 view .LVU294
 903 004e 1C60     		str	r4, [r3]
1022:Middlewares/Third_Party/LwIP/src/core/udp.c ****   }
ARM GAS  D:\Dev\msys64\tmp\cco9wmM5.s 			page 38


1023:Middlewares/Third_Party/LwIP/src/core/udp.c ****   LWIP_DEBUGF(UDP_DEBUG | LWIP_DBG_TRACE | LWIP_DBG_STATE, ("udp_bind: bound to "));
1024:Middlewares/Third_Party/LwIP/src/core/udp.c ****   ip_addr_debug_print_val(UDP_DEBUG | LWIP_DBG_TRACE | LWIP_DBG_STATE, pcb->local_ip);
1025:Middlewares/Third_Party/LwIP/src/core/udp.c ****   LWIP_DEBUGF(UDP_DEBUG | LWIP_DBG_TRACE | LWIP_DBG_STATE, (", port %"U16_F")\n", pcb->local_port))
1026:Middlewares/Third_Party/LwIP/src/core/udp.c ****   return ERR_OK;
 904              		.loc 1 1026 10 view .LVU295
 905 0050 0020     		movs	r0, #0
 906              	.LVL80:
 907              	.L72:
1027:Middlewares/Third_Party/LwIP/src/core/udp.c **** }
 908              		.loc 1 1027 1 view .LVU296
 909 0052 70BD     		pop	{r4, r5, r6, pc}
 910              	.LVL81:
 911              	.L82:
 962:Middlewares/Third_Party/LwIP/src/core/udp.c ****       break;
 912              		.loc 1 962 14 view .LVU297
 913 0054 0126     		movs	r6, #1
 914 0056 EDE7     		b	.L74
 915              	.LVL82:
 916              	.L78:
 988:Middlewares/Third_Party/LwIP/src/core/udp.c ****       if (pcb != ipcb) {
 917              		.loc 1 988 41 is_stmt 1 discriminator 2 view .LVU298
 988:Middlewares/Third_Party/LwIP/src/core/udp.c ****       if (pcb != ipcb) {
 918              		.loc 1 988 46 is_stmt 0 discriminator 2 view .LVU299
 919 0058 DB68     		ldr	r3, [r3, #12]
 920              	.LVL83:
 921              	.L76:
 988:Middlewares/Third_Party/LwIP/src/core/udp.c ****       if (pcb != ipcb) {
 922              		.loc 1 988 27 is_stmt 1 discriminator 1 view .LVU300
 988:Middlewares/Third_Party/LwIP/src/core/udp.c ****       if (pcb != ipcb) {
 923              		.loc 1 988 5 is_stmt 0 discriminator 1 view .LVU301
 924 005a 002B     		cmp	r3, #0
 925 005c EFD0     		beq	.L77
 989:Middlewares/Third_Party/LwIP/src/core/udp.c ****         /* By default, we don't allow to bind to a port that any other udp
 926              		.loc 1 989 7 is_stmt 1 view .LVU302
 989:Middlewares/Third_Party/LwIP/src/core/udp.c ****         /* By default, we don't allow to bind to a port that any other udp
 927              		.loc 1 989 10 is_stmt 0 view .LVU303
 928 005e A342     		cmp	r3, r4
 929 0060 FAD0     		beq	.L78
 999:Middlewares/Third_Party/LwIP/src/core/udp.c ****               /* IP address matches or any IP used? */
 930              		.loc 1 999 11 is_stmt 1 view .LVU304
 999:Middlewares/Third_Party/LwIP/src/core/udp.c ****               /* IP address matches or any IP used? */
 931              		.loc 1 999 20 is_stmt 0 view .LVU305
 932 0062 598A     		ldrh	r1, [r3, #18]
 999:Middlewares/Third_Party/LwIP/src/core/udp.c ****               /* IP address matches or any IP used? */
 933              		.loc 1 999 14 view .LVU306
 934 0064 9142     		cmp	r1, r2
 935 0066 F7D1     		bne	.L78
1001:Middlewares/Third_Party/LwIP/src/core/udp.c ****               ip_addr_isany(&ipcb->local_ip))) {
 936              		.loc 1 1001 16 discriminator 1 view .LVU307
 937 0068 1868     		ldr	r0, [r3]
 938 006a 2968     		ldr	r1, [r5]
 999:Middlewares/Third_Party/LwIP/src/core/udp.c ****               /* IP address matches or any IP used? */
 939              		.loc 1 999 42 discriminator 1 view .LVU308
 940 006c 8842     		cmp	r0, r1
 941 006e 0CD0     		beq	.L84
1001:Middlewares/Third_Party/LwIP/src/core/udp.c ****               ip_addr_isany(&ipcb->local_ip))) {
 942              		.loc 1 1001 53 view .LVU309
ARM GAS  D:\Dev\msys64\tmp\cco9wmM5.s 			page 39


 943 0070 75B1     		cbz	r5, .L85
1001:Middlewares/Third_Party/LwIP/src/core/udp.c ****               ip_addr_isany(&ipcb->local_ip))) {
 944              		.loc 1 1001 56 discriminator 1 view .LVU310
 945 0072 81B1     		cbz	r1, .L86
1001:Middlewares/Third_Party/LwIP/src/core/udp.c ****               ip_addr_isany(&ipcb->local_ip))) {
 946              		.loc 1 1001 78 discriminator 2 view .LVU311
 947 0074 93B1     		cbz	r3, .L87
1002:Middlewares/Third_Party/LwIP/src/core/udp.c ****             /* other PCB already binds to this local IP and port */
 948              		.loc 1 1002 15 view .LVU312
 949 0076 0028     		cmp	r0, #0
 950 0078 EED1     		bne	.L78
1006:Middlewares/Third_Party/LwIP/src/core/udp.c ****           }
 951              		.loc 1 1006 20 view .LVU313
 952 007a 6FF00700 		mvn	r0, #7
 953 007e E8E7     		b	.L72
 954              	.LVL84:
 955              	.L89:
1013:Middlewares/Third_Party/LwIP/src/core/udp.c **** 
 956              		.loc 1 1013 3 view .LVU314
 957 0080 0023     		movs	r3, #0
 958 0082 DEE7     		b	.L80
 959              	.LVL85:
 960              	.L95:
 985:Middlewares/Third_Party/LwIP/src/core/udp.c ****     }
 961              		.loc 1 985 14 view .LVU315
 962 0084 6FF00700 		mvn	r0, #7
 963              	.LVL86:
 985:Middlewares/Third_Party/LwIP/src/core/udp.c ****     }
 964              		.loc 1 985 14 view .LVU316
 965 0088 E3E7     		b	.L72
 966              	.LVL87:
 967              	.L84:
1006:Middlewares/Third_Party/LwIP/src/core/udp.c ****           }
 968              		.loc 1 1006 20 view .LVU317
 969 008a 6FF00700 		mvn	r0, #7
 970 008e E0E7     		b	.L72
 971              	.L85:
 972 0090 6FF00700 		mvn	r0, #7
 973 0094 DDE7     		b	.L72
 974              	.L86:
 975 0096 6FF00700 		mvn	r0, #7
 976 009a DAE7     		b	.L72
 977              	.L87:
 978 009c 6FF00700 		mvn	r0, #7
 979 00a0 D7E7     		b	.L72
 980              	.LVL88:
 981              	.L90:
1026:Middlewares/Third_Party/LwIP/src/core/udp.c **** }
 982              		.loc 1 1026 10 view .LVU318
 983 00a2 0020     		movs	r0, #0
 984 00a4 D5E7     		b	.L72
 985              	.L97:
 986 00a6 00BF     		.align	2
 987              	.L96:
 988 00a8 00000000 		.word	udp_pcbs
 989 00ac 00000000 		.word	ip_addr_any
 990 00b0 00000000 		.word	.LC0
ARM GAS  D:\Dev\msys64\tmp\cco9wmM5.s 			page 40


 991 00b4 00000000 		.word	.LC7
 992 00b8 50000000 		.word	.LC2
 993              		.cfi_endproc
 994              	.LFE33:
 996              		.section	.rodata.udp_sendto_if_src.str1.4,"aMS",%progbits,1
 997              		.align	2
 998              	.LC8:
 999 0000 7564705F 		.ascii	"udp_sendto_if_src: invalid pcb\000"
 999      73656E64 
 999      746F5F69 
 999      665F7372 
 999      633A2069 
 1000 001f 00       		.align	2
 1001              	.LC9:
 1002 0020 7564705F 		.ascii	"udp_sendto_if_src: invalid pbuf\000"
 1002      73656E64 
 1002      746F5F69 
 1002      665F7372 
 1002      633A2069 
 1003              		.align	2
 1004              	.LC10:
 1005 0040 7564705F 		.ascii	"udp_sendto_if_src: invalid dst_ip\000"
 1005      73656E64 
 1005      746F5F69 
 1005      665F7372 
 1005      633A2069 
 1006 0062 0000     		.align	2
 1007              	.LC11:
 1008 0064 7564705F 		.ascii	"udp_sendto_if_src: invalid src_ip\000"
 1008      73656E64 
 1008      746F5F69 
 1008      665F7372 
 1008      633A2069 
 1009 0086 0000     		.align	2
 1010              	.LC12:
 1011 0088 7564705F 		.ascii	"udp_sendto_if_src: invalid netif\000"
 1011      73656E64 
 1011      746F5F69 
 1011      665F7372 
 1011      633A2069 
 1012 00a9 000000   		.align	2
 1013              	.LC13:
 1014 00ac 63686563 		.ascii	"check that first pbuf can hold struct udp_hdr\000"
 1014      6B207468 
 1014      61742066 
 1014      69727374 
 1014      20706275 
 1015              		.section	.text.udp_sendto_if_src,"ax",%progbits
 1016              		.align	1
 1017              		.global	udp_sendto_if_src
 1018              		.syntax unified
 1019              		.thumb
 1020              		.thumb_func
 1021              		.fpu fpv5-sp-d16
 1023              	udp_sendto_if_src:
 1024              	.LVL89:
 1025              	.LFB32:
ARM GAS  D:\Dev\msys64\tmp\cco9wmM5.s 			page 41


 701:Middlewares/Third_Party/LwIP/src/core/udp.c **** #if LWIP_CHECKSUM_ON_COPY && CHECKSUM_GEN_UDP
 1026              		.loc 1 701 1 is_stmt 1 view -0
 1027              		.cfi_startproc
 1028              		@ args = 8, pretend = 0, frame = 0
 1029              		@ frame_needed = 0, uses_anonymous_args = 0
 701:Middlewares/Third_Party/LwIP/src/core/udp.c **** #if LWIP_CHECKSUM_ON_COPY && CHECKSUM_GEN_UDP
 1030              		.loc 1 701 1 is_stmt 0 view .LVU320
 1031 0000 2DE9F04F 		push	{r4, r5, r6, r7, r8, r9, r10, fp, lr}
 1032              	.LCFI7:
 1033              		.cfi_def_cfa_offset 36
 1034              		.cfi_offset 4, -36
 1035              		.cfi_offset 5, -32
 1036              		.cfi_offset 6, -28
 1037              		.cfi_offset 7, -24
 1038              		.cfi_offset 8, -20
 1039              		.cfi_offset 9, -16
 1040              		.cfi_offset 10, -12
 1041              		.cfi_offset 11, -8
 1042              		.cfi_offset 14, -4
 1043 0004 85B0     		sub	sp, sp, #20
 1044              	.LCFI8:
 1045              		.cfi_def_cfa_offset 56
 1046 0006 DDF838B0 		ldr	fp, [sp, #56]
 1047 000a DDF83CA0 		ldr	r10, [sp, #60]
 713:Middlewares/Third_Party/LwIP/src/core/udp.c ****   err_t err;
 1048              		.loc 1 713 3 is_stmt 1 view .LVU321
 714:Middlewares/Third_Party/LwIP/src/core/udp.c ****   struct pbuf *q; /* q will be sent down the stack */
 1049              		.loc 1 714 3 view .LVU322
 715:Middlewares/Third_Party/LwIP/src/core/udp.c ****   u8_t ip_proto;
 1050              		.loc 1 715 3 view .LVU323
 716:Middlewares/Third_Party/LwIP/src/core/udp.c ****   u8_t ttl;
 1051              		.loc 1 716 3 view .LVU324
 717:Middlewares/Third_Party/LwIP/src/core/udp.c **** 
 1052              		.loc 1 717 3 view .LVU325
 719:Middlewares/Third_Party/LwIP/src/core/udp.c **** 
 1053              		.loc 1 719 28 view .LVU326
 721:Middlewares/Third_Party/LwIP/src/core/udp.c ****   LWIP_ERROR("udp_sendto_if_src: invalid pbuf", p != NULL, return ERR_ARG);
 1054              		.loc 1 721 3 view .LVU327
 721:Middlewares/Third_Party/LwIP/src/core/udp.c ****   LWIP_ERROR("udp_sendto_if_src: invalid pbuf", p != NULL, return ERR_ARG);
 1055              		.loc 1 721 3 view .LVU328
 1056 000e 0028     		cmp	r0, #0
 1057 0010 45D0     		beq	.L112
 1058 0012 0C46     		mov	r4, r1
 1059 0014 9046     		mov	r8, r2
 1060 0016 9946     		mov	r9, r3
 1061 0018 0646     		mov	r6, r0
 721:Middlewares/Third_Party/LwIP/src/core/udp.c ****   LWIP_ERROR("udp_sendto_if_src: invalid pbuf", p != NULL, return ERR_ARG);
 1062              		.loc 1 721 3 discriminator 2 view .LVU329
 722:Middlewares/Third_Party/LwIP/src/core/udp.c ****   LWIP_ERROR("udp_sendto_if_src: invalid dst_ip", dst_ip != NULL, return ERR_ARG);
 1063              		.loc 1 722 3 discriminator 2 view .LVU330
 722:Middlewares/Third_Party/LwIP/src/core/udp.c ****   LWIP_ERROR("udp_sendto_if_src: invalid dst_ip", dst_ip != NULL, return ERR_ARG);
 1064              		.loc 1 722 3 discriminator 2 view .LVU331
 1065 001a 0029     		cmp	r1, #0
 1066 001c 49D0     		beq	.L113
 722:Middlewares/Third_Party/LwIP/src/core/udp.c ****   LWIP_ERROR("udp_sendto_if_src: invalid dst_ip", dst_ip != NULL, return ERR_ARG);
 1067              		.loc 1 722 3 discriminator 2 view .LVU332
 723:Middlewares/Third_Party/LwIP/src/core/udp.c ****   LWIP_ERROR("udp_sendto_if_src: invalid src_ip", src_ip != NULL, return ERR_ARG);
ARM GAS  D:\Dev\msys64\tmp\cco9wmM5.s 			page 42


 1068              		.loc 1 723 3 discriminator 2 view .LVU333
 723:Middlewares/Third_Party/LwIP/src/core/udp.c ****   LWIP_ERROR("udp_sendto_if_src: invalid src_ip", src_ip != NULL, return ERR_ARG);
 1069              		.loc 1 723 3 discriminator 2 view .LVU334
 1070 001e 002A     		cmp	r2, #0
 1071 0020 51D0     		beq	.L114
 723:Middlewares/Third_Party/LwIP/src/core/udp.c ****   LWIP_ERROR("udp_sendto_if_src: invalid src_ip", src_ip != NULL, return ERR_ARG);
 1072              		.loc 1 723 3 discriminator 2 view .LVU335
 724:Middlewares/Third_Party/LwIP/src/core/udp.c ****   LWIP_ERROR("udp_sendto_if_src: invalid netif", netif != NULL, return ERR_ARG);
 1073              		.loc 1 724 3 discriminator 2 view .LVU336
 724:Middlewares/Third_Party/LwIP/src/core/udp.c ****   LWIP_ERROR("udp_sendto_if_src: invalid netif", netif != NULL, return ERR_ARG);
 1074              		.loc 1 724 3 discriminator 2 view .LVU337
 1075 0022 BAF1000F 		cmp	r10, #0
 1076 0026 58D0     		beq	.L115
 724:Middlewares/Third_Party/LwIP/src/core/udp.c ****   LWIP_ERROR("udp_sendto_if_src: invalid netif", netif != NULL, return ERR_ARG);
 1077              		.loc 1 724 3 discriminator 2 view .LVU338
 725:Middlewares/Third_Party/LwIP/src/core/udp.c **** 
 1078              		.loc 1 725 3 discriminator 2 view .LVU339
 725:Middlewares/Third_Party/LwIP/src/core/udp.c **** 
 1079              		.loc 1 725 3 discriminator 2 view .LVU340
 1080 0028 BBF1000F 		cmp	fp, #0
 1081 002c 5FD0     		beq	.L116
 725:Middlewares/Third_Party/LwIP/src/core/udp.c **** 
 1082              		.loc 1 725 3 view .LVU341
 727:Middlewares/Third_Party/LwIP/src/core/udp.c ****       !IP_ADDR_PCB_VERSION_MATCH(pcb, dst_ip)) {
 1083              		.loc 1 727 3 view .LVU342
 746:Middlewares/Third_Party/LwIP/src/core/udp.c ****     LWIP_DEBUGF(UDP_DEBUG | LWIP_DBG_TRACE, ("udp_send: not yet bound to a port, binding now\n"));
 1084              		.loc 1 746 3 view .LVU343
 746:Middlewares/Third_Party/LwIP/src/core/udp.c ****     LWIP_DEBUGF(UDP_DEBUG | LWIP_DBG_TRACE, ("udp_send: not yet bound to a port, binding now\n"));
 1085              		.loc 1 746 10 is_stmt 0 view .LVU344
 1086 002e 428A     		ldrh	r2, [r0, #18]
 1087              	.LVL90:
 746:Middlewares/Third_Party/LwIP/src/core/udp.c ****     LWIP_DEBUGF(UDP_DEBUG | LWIP_DBG_TRACE, ("udp_send: not yet bound to a port, binding now\n"));
 1088              		.loc 1 746 6 view .LVU345
 1089 0030 002A     		cmp	r2, #0
 1090 0032 66D0     		beq	.L117
 1091              	.LVL91:
 1092              	.L105:
 756:Middlewares/Third_Party/LwIP/src/core/udp.c ****     return ERR_MEM;
 1093              		.loc 1 756 3 is_stmt 1 view .LVU346
 756:Middlewares/Third_Party/LwIP/src/core/udp.c ****     return ERR_MEM;
 1094              		.loc 1 756 16 is_stmt 0 view .LVU347
 1095 0034 2289     		ldrh	r2, [r4, #8]
 756:Middlewares/Third_Party/LwIP/src/core/udp.c ****     return ERR_MEM;
 1096              		.loc 1 756 6 view .LVU348
 1097 0036 4FF6F773 		movw	r3, #65527
 1098 003a 9A42     		cmp	r2, r3
 1099 003c 7FD8     		bhi	.L108
 760:Middlewares/Third_Party/LwIP/src/core/udp.c ****     /* allocate header in a separate new pbuf */
 1100              		.loc 1 760 3 is_stmt 1 view .LVU349
 760:Middlewares/Third_Party/LwIP/src/core/udp.c ****     /* allocate header in a separate new pbuf */
 1101              		.loc 1 760 7 is_stmt 0 view .LVU350
 1102 003e 0821     		movs	r1, #8
 1103 0040 2046     		mov	r0, r4
 1104 0042 FFF7FEFF 		bl	pbuf_add_header
 1105              	.LVL92:
 760:Middlewares/Third_Party/LwIP/src/core/udp.c ****     /* allocate header in a separate new pbuf */
 1106              		.loc 1 760 6 view .LVU351
ARM GAS  D:\Dev\msys64\tmp\cco9wmM5.s 			page 43


 1107 0046 0028     		cmp	r0, #0
 1108 0048 62D1     		bne	.L118
 778:Middlewares/Third_Party/LwIP/src/core/udp.c ****     LWIP_DEBUGF(UDP_DEBUG, ("udp_send: added header in given pbuf %p\n", (void *)p));
 1109              		.loc 1 778 7 view .LVU352
 1110 004a 2546     		mov	r5, r4
 1111              	.L106:
 1112              	.LVL93:
 779:Middlewares/Third_Party/LwIP/src/core/udp.c ****   }
 1113              		.loc 1 779 85 is_stmt 1 view .LVU353
 781:Middlewares/Third_Party/LwIP/src/core/udp.c ****               (q->len >= sizeof(struct udp_hdr)));
 1114              		.loc 1 781 3 view .LVU354
 781:Middlewares/Third_Party/LwIP/src/core/udp.c ****               (q->len >= sizeof(struct udp_hdr)));
 1115              		.loc 1 781 3 view .LVU355
 1116 004c 6B89     		ldrh	r3, [r5, #10]
 1117 004e 072B     		cmp	r3, #7
 1118 0050 6DD9     		bls	.L119
 1119              	.L107:
 781:Middlewares/Third_Party/LwIP/src/core/udp.c ****               (q->len >= sizeof(struct udp_hdr)));
 1120              		.loc 1 781 3 discriminator 3 view .LVU356
 781:Middlewares/Third_Party/LwIP/src/core/udp.c ****               (q->len >= sizeof(struct udp_hdr)));
 1121              		.loc 1 781 3 discriminator 3 view .LVU357
 784:Middlewares/Third_Party/LwIP/src/core/udp.c ****   udphdr->src = lwip_htons(pcb->local_port);
 1122              		.loc 1 784 3 discriminator 3 view .LVU358
 784:Middlewares/Third_Party/LwIP/src/core/udp.c ****   udphdr->src = lwip_htons(pcb->local_port);
 1123              		.loc 1 784 10 is_stmt 0 discriminator 3 view .LVU359
 1124 0052 6F68     		ldr	r7, [r5, #4]
 1125              	.LVL94:
 785:Middlewares/Third_Party/LwIP/src/core/udp.c ****   udphdr->dest = lwip_htons(dst_port);
 1126              		.loc 1 785 3 is_stmt 1 discriminator 3 view .LVU360
 785:Middlewares/Third_Party/LwIP/src/core/udp.c ****   udphdr->dest = lwip_htons(dst_port);
 1127              		.loc 1 785 17 is_stmt 0 discriminator 3 view .LVU361
 1128 0054 708A     		ldrh	r0, [r6, #18]
 1129 0056 FFF7FEFF 		bl	lwip_htons
 1130              	.LVL95:
 785:Middlewares/Third_Party/LwIP/src/core/udp.c ****   udphdr->dest = lwip_htons(dst_port);
 1131              		.loc 1 785 15 discriminator 3 view .LVU362
 1132 005a 3880     		strh	r0, [r7]	@ unaligned
 786:Middlewares/Third_Party/LwIP/src/core/udp.c ****   /* in UDP, 0 checksum means 'no checksum' */
 1133              		.loc 1 786 3 is_stmt 1 discriminator 3 view .LVU363
 786:Middlewares/Third_Party/LwIP/src/core/udp.c ****   /* in UDP, 0 checksum means 'no checksum' */
 1134              		.loc 1 786 18 is_stmt 0 discriminator 3 view .LVU364
 1135 005c 4846     		mov	r0, r9
 1136 005e FFF7FEFF 		bl	lwip_htons
 1137              	.LVL96:
 786:Middlewares/Third_Party/LwIP/src/core/udp.c ****   /* in UDP, 0 checksum means 'no checksum' */
 1138              		.loc 1 786 16 discriminator 3 view .LVU365
 1139 0062 7880     		strh	r0, [r7, #2]	@ unaligned
 788:Middlewares/Third_Party/LwIP/src/core/udp.c **** 
 1140              		.loc 1 788 3 is_stmt 1 discriminator 3 view .LVU366
 788:Middlewares/Third_Party/LwIP/src/core/udp.c **** 
 1141              		.loc 1 788 18 is_stmt 0 discriminator 3 view .LVU367
 1142 0064 0023     		movs	r3, #0
 1143 0066 BB71     		strb	r3, [r7, #6]
 1144 0068 FB71     		strb	r3, [r7, #7]
 797:Middlewares/Third_Party/LwIP/src/core/udp.c **** 
 1145              		.loc 1 797 90 is_stmt 1 discriminator 3 view .LVU368
 849:Middlewares/Third_Party/LwIP/src/core/udp.c ****     udphdr->len = lwip_htons(q->tot_len);
ARM GAS  D:\Dev\msys64\tmp\cco9wmM5.s 			page 44


 1146              		.loc 1 849 83 discriminator 3 view .LVU369
 850:Middlewares/Third_Party/LwIP/src/core/udp.c ****     /* calculate checksum */
 1147              		.loc 1 850 5 discriminator 3 view .LVU370
 850:Middlewares/Third_Party/LwIP/src/core/udp.c ****     /* calculate checksum */
 1148              		.loc 1 850 19 is_stmt 0 discriminator 3 view .LVU371
 1149 006a 2889     		ldrh	r0, [r5, #8]
 1150 006c FFF7FEFF 		bl	lwip_htons
 1151              	.LVL97:
 850:Middlewares/Third_Party/LwIP/src/core/udp.c ****     /* calculate checksum */
 1152              		.loc 1 850 17 discriminator 3 view .LVU372
 1153 0070 B880     		strh	r0, [r7, #4]	@ unaligned
 879:Middlewares/Third_Party/LwIP/src/core/udp.c ****   }
 1154              		.loc 1 879 5 is_stmt 1 discriminator 3 view .LVU373
 1155              	.LVL98:
 886:Middlewares/Third_Party/LwIP/src/core/udp.c **** #endif /* LWIP_MULTICAST_TX_OPTIONS */
 1156              		.loc 1 886 3 discriminator 3 view .LVU374
 889:Middlewares/Third_Party/LwIP/src/core/udp.c ****   LWIP_DEBUGF(UDP_DEBUG, ("udp_send: ip_output_if (,,,,0x%02"X16_F",)\n", (u16_t)ip_proto));
 1157              		.loc 1 889 84 discriminator 3 view .LVU375
 890:Middlewares/Third_Party/LwIP/src/core/udp.c ****   /* output to IP */
 1158              		.loc 1 890 92 discriminator 3 view .LVU376
 892:Middlewares/Third_Party/LwIP/src/core/udp.c ****   err = ip_output_if_src(q, src_ip, dst_ip, ttl, pcb->tos, ip_proto, netif);
 1159              		.loc 1 892 46 discriminator 3 view .LVU377
 893:Middlewares/Third_Party/LwIP/src/core/udp.c ****   NETIF_RESET_HINTS(netif);
 1160              		.loc 1 893 3 discriminator 3 view .LVU378
 893:Middlewares/Third_Party/LwIP/src/core/udp.c ****   NETIF_RESET_HINTS(netif);
 1161              		.loc 1 893 9 is_stmt 0 discriminator 3 view .LVU379
 1162 0072 CDF808B0 		str	fp, [sp, #8]
 1163              	.LVL99:
 893:Middlewares/Third_Party/LwIP/src/core/udp.c ****   NETIF_RESET_HINTS(netif);
 1164              		.loc 1 893 9 discriminator 3 view .LVU380
 1165 0076 1123     		movs	r3, #17
 1166 0078 0193     		str	r3, [sp, #4]
 1167 007a B37A     		ldrb	r3, [r6, #10]	@ zero_extendqisi2
 1168 007c 0093     		str	r3, [sp]
 1169 007e F37A     		ldrb	r3, [r6, #11]	@ zero_extendqisi2
 1170 0080 4246     		mov	r2, r8
 1171 0082 5146     		mov	r1, r10
 1172 0084 2846     		mov	r0, r5
 1173 0086 FFF7FEFF 		bl	ip4_output_if_src
 1174              	.LVL100:
 1175 008a 0746     		mov	r7, r0
 1176              	.LVL101:
 894:Middlewares/Third_Party/LwIP/src/core/udp.c **** 
 1177              		.loc 1 894 27 is_stmt 1 discriminator 3 view .LVU381
 897:Middlewares/Third_Party/LwIP/src/core/udp.c **** 
 1178              		.loc 1 897 39 discriminator 3 view .LVU382
 900:Middlewares/Third_Party/LwIP/src/core/udp.c ****     /* free the header pbuf */
 1179              		.loc 1 900 3 discriminator 3 view .LVU383
 900:Middlewares/Third_Party/LwIP/src/core/udp.c ****     /* free the header pbuf */
 1180              		.loc 1 900 6 is_stmt 0 discriminator 3 view .LVU384
 1181 008c A542     		cmp	r5, r4
 1182 008e 02D0     		beq	.L100
 902:Middlewares/Third_Party/LwIP/src/core/udp.c ****     q = NULL;
 1183              		.loc 1 902 5 is_stmt 1 view .LVU385
 1184 0090 2846     		mov	r0, r5
 1185 0092 FFF7FEFF 		bl	pbuf_free
 1186              	.LVL102:
ARM GAS  D:\Dev\msys64\tmp\cco9wmM5.s 			page 45


 903:Middlewares/Third_Party/LwIP/src/core/udp.c ****     /* p is still referenced by the caller, and will live on */
 1187              		.loc 1 903 5 view .LVU386
 1188              	.L100:
 909:Middlewares/Third_Party/LwIP/src/core/udp.c **** 
 1189              		.loc 1 909 1 is_stmt 0 view .LVU387
 1190 0096 3846     		mov	r0, r7
 1191 0098 05B0     		add	sp, sp, #20
 1192              	.LCFI9:
 1193              		.cfi_remember_state
 1194              		.cfi_def_cfa_offset 36
 1195              		@ sp needed
 1196 009a BDE8F08F 		pop	{r4, r5, r6, r7, r8, r9, r10, fp, pc}
 1197              	.LVL103:
 1198              	.L112:
 1199              	.LCFI10:
 1200              		.cfi_restore_state
 721:Middlewares/Third_Party/LwIP/src/core/udp.c ****   LWIP_ERROR("udp_sendto_if_src: invalid pbuf", p != NULL, return ERR_ARG);
 1201              		.loc 1 721 3 is_stmt 1 discriminator 1 view .LVU388
 721:Middlewares/Third_Party/LwIP/src/core/udp.c ****   LWIP_ERROR("udp_sendto_if_src: invalid pbuf", p != NULL, return ERR_ARG);
 1202              		.loc 1 721 3 discriminator 1 view .LVU389
 1203 009e 2B4B     		ldr	r3, .L120
 1204              	.LVL104:
 721:Middlewares/Third_Party/LwIP/src/core/udp.c ****   LWIP_ERROR("udp_sendto_if_src: invalid pbuf", p != NULL, return ERR_ARG);
 1205              		.loc 1 721 3 is_stmt 0 discriminator 1 view .LVU390
 1206 00a0 40F2D122 		movw	r2, #721
 1207              	.LVL105:
 721:Middlewares/Third_Party/LwIP/src/core/udp.c ****   LWIP_ERROR("udp_sendto_if_src: invalid pbuf", p != NULL, return ERR_ARG);
 1208              		.loc 1 721 3 discriminator 1 view .LVU391
 1209 00a4 2A49     		ldr	r1, .L120+4
 1210              	.LVL106:
 721:Middlewares/Third_Party/LwIP/src/core/udp.c ****   LWIP_ERROR("udp_sendto_if_src: invalid pbuf", p != NULL, return ERR_ARG);
 1211              		.loc 1 721 3 discriminator 1 view .LVU392
 1212 00a6 2B48     		ldr	r0, .L120+8
 1213              	.LVL107:
 721:Middlewares/Third_Party/LwIP/src/core/udp.c ****   LWIP_ERROR("udp_sendto_if_src: invalid pbuf", p != NULL, return ERR_ARG);
 1214              		.loc 1 721 3 discriminator 1 view .LVU393
 1215 00a8 FFF7FEFF 		bl	printf
 1216              	.LVL108:
 721:Middlewares/Third_Party/LwIP/src/core/udp.c ****   LWIP_ERROR("udp_sendto_if_src: invalid pbuf", p != NULL, return ERR_ARG);
 1217              		.loc 1 721 3 is_stmt 1 discriminator 1 view .LVU394
 721:Middlewares/Third_Party/LwIP/src/core/udp.c ****   LWIP_ERROR("udp_sendto_if_src: invalid pbuf", p != NULL, return ERR_ARG);
 1218              		.loc 1 721 3 discriminator 1 view .LVU395
 1219 00ac 6FF00F07 		mvn	r7, #15
 1220 00b0 F1E7     		b	.L100
 1221              	.LVL109:
 1222              	.L113:
 722:Middlewares/Third_Party/LwIP/src/core/udp.c ****   LWIP_ERROR("udp_sendto_if_src: invalid dst_ip", dst_ip != NULL, return ERR_ARG);
 1223              		.loc 1 722 3 discriminator 1 view .LVU396
 722:Middlewares/Third_Party/LwIP/src/core/udp.c ****   LWIP_ERROR("udp_sendto_if_src: invalid dst_ip", dst_ip != NULL, return ERR_ARG);
 1224              		.loc 1 722 3 discriminator 1 view .LVU397
 1225 00b2 264B     		ldr	r3, .L120
 1226              	.LVL110:
 722:Middlewares/Third_Party/LwIP/src/core/udp.c ****   LWIP_ERROR("udp_sendto_if_src: invalid dst_ip", dst_ip != NULL, return ERR_ARG);
 1227              		.loc 1 722 3 is_stmt 0 discriminator 1 view .LVU398
 1228 00b4 40F2D222 		movw	r2, #722
 1229              	.LVL111:
 722:Middlewares/Third_Party/LwIP/src/core/udp.c ****   LWIP_ERROR("udp_sendto_if_src: invalid dst_ip", dst_ip != NULL, return ERR_ARG);
ARM GAS  D:\Dev\msys64\tmp\cco9wmM5.s 			page 46


 1230              		.loc 1 722 3 discriminator 1 view .LVU399
 1231 00b8 2749     		ldr	r1, .L120+12
 1232              	.LVL112:
 722:Middlewares/Third_Party/LwIP/src/core/udp.c ****   LWIP_ERROR("udp_sendto_if_src: invalid dst_ip", dst_ip != NULL, return ERR_ARG);
 1233              		.loc 1 722 3 discriminator 1 view .LVU400
 1234 00ba 2648     		ldr	r0, .L120+8
 1235              	.LVL113:
 722:Middlewares/Third_Party/LwIP/src/core/udp.c ****   LWIP_ERROR("udp_sendto_if_src: invalid dst_ip", dst_ip != NULL, return ERR_ARG);
 1236              		.loc 1 722 3 discriminator 1 view .LVU401
 1237 00bc FFF7FEFF 		bl	printf
 1238              	.LVL114:
 722:Middlewares/Third_Party/LwIP/src/core/udp.c ****   LWIP_ERROR("udp_sendto_if_src: invalid dst_ip", dst_ip != NULL, return ERR_ARG);
 1239              		.loc 1 722 3 is_stmt 1 discriminator 1 view .LVU402
 722:Middlewares/Third_Party/LwIP/src/core/udp.c ****   LWIP_ERROR("udp_sendto_if_src: invalid dst_ip", dst_ip != NULL, return ERR_ARG);
 1240              		.loc 1 722 3 discriminator 1 view .LVU403
 1241 00c0 6FF00F07 		mvn	r7, #15
 1242 00c4 E7E7     		b	.L100
 1243              	.LVL115:
 1244              	.L114:
 723:Middlewares/Third_Party/LwIP/src/core/udp.c ****   LWIP_ERROR("udp_sendto_if_src: invalid src_ip", src_ip != NULL, return ERR_ARG);
 1245              		.loc 1 723 3 discriminator 1 view .LVU404
 723:Middlewares/Third_Party/LwIP/src/core/udp.c ****   LWIP_ERROR("udp_sendto_if_src: invalid src_ip", src_ip != NULL, return ERR_ARG);
 1246              		.loc 1 723 3 discriminator 1 view .LVU405
 1247 00c6 214B     		ldr	r3, .L120
 1248              	.LVL116:
 723:Middlewares/Third_Party/LwIP/src/core/udp.c ****   LWIP_ERROR("udp_sendto_if_src: invalid src_ip", src_ip != NULL, return ERR_ARG);
 1249              		.loc 1 723 3 is_stmt 0 discriminator 1 view .LVU406
 1250 00c8 40F2D322 		movw	r2, #723
 1251              	.LVL117:
 723:Middlewares/Third_Party/LwIP/src/core/udp.c ****   LWIP_ERROR("udp_sendto_if_src: invalid src_ip", src_ip != NULL, return ERR_ARG);
 1252              		.loc 1 723 3 discriminator 1 view .LVU407
 1253 00cc 2349     		ldr	r1, .L120+16
 1254              	.LVL118:
 723:Middlewares/Third_Party/LwIP/src/core/udp.c ****   LWIP_ERROR("udp_sendto_if_src: invalid src_ip", src_ip != NULL, return ERR_ARG);
 1255              		.loc 1 723 3 discriminator 1 view .LVU408
 1256 00ce 2148     		ldr	r0, .L120+8
 1257              	.LVL119:
 723:Middlewares/Third_Party/LwIP/src/core/udp.c ****   LWIP_ERROR("udp_sendto_if_src: invalid src_ip", src_ip != NULL, return ERR_ARG);
 1258              		.loc 1 723 3 discriminator 1 view .LVU409
 1259 00d0 FFF7FEFF 		bl	printf
 1260              	.LVL120:
 723:Middlewares/Third_Party/LwIP/src/core/udp.c ****   LWIP_ERROR("udp_sendto_if_src: invalid src_ip", src_ip != NULL, return ERR_ARG);
 1261              		.loc 1 723 3 is_stmt 1 discriminator 1 view .LVU410
 723:Middlewares/Third_Party/LwIP/src/core/udp.c ****   LWIP_ERROR("udp_sendto_if_src: invalid src_ip", src_ip != NULL, return ERR_ARG);
 1262              		.loc 1 723 3 discriminator 1 view .LVU411
 1263 00d4 6FF00F07 		mvn	r7, #15
 1264 00d8 DDE7     		b	.L100
 1265              	.LVL121:
 1266              	.L115:
 724:Middlewares/Third_Party/LwIP/src/core/udp.c ****   LWIP_ERROR("udp_sendto_if_src: invalid netif", netif != NULL, return ERR_ARG);
 1267              		.loc 1 724 3 discriminator 1 view .LVU412
 724:Middlewares/Third_Party/LwIP/src/core/udp.c ****   LWIP_ERROR("udp_sendto_if_src: invalid netif", netif != NULL, return ERR_ARG);
 1268              		.loc 1 724 3 discriminator 1 view .LVU413
 1269 00da 1C4B     		ldr	r3, .L120
 1270              	.LVL122:
 724:Middlewares/Third_Party/LwIP/src/core/udp.c ****   LWIP_ERROR("udp_sendto_if_src: invalid netif", netif != NULL, return ERR_ARG);
 1271              		.loc 1 724 3 is_stmt 0 discriminator 1 view .LVU414
ARM GAS  D:\Dev\msys64\tmp\cco9wmM5.s 			page 47


 1272 00dc 4FF43572 		mov	r2, #724
 1273              	.LVL123:
 724:Middlewares/Third_Party/LwIP/src/core/udp.c ****   LWIP_ERROR("udp_sendto_if_src: invalid netif", netif != NULL, return ERR_ARG);
 1274              		.loc 1 724 3 discriminator 1 view .LVU415
 1275 00e0 1F49     		ldr	r1, .L120+20
 1276              	.LVL124:
 724:Middlewares/Third_Party/LwIP/src/core/udp.c ****   LWIP_ERROR("udp_sendto_if_src: invalid netif", netif != NULL, return ERR_ARG);
 1277              		.loc 1 724 3 discriminator 1 view .LVU416
 1278 00e2 1C48     		ldr	r0, .L120+8
 1279              	.LVL125:
 724:Middlewares/Third_Party/LwIP/src/core/udp.c ****   LWIP_ERROR("udp_sendto_if_src: invalid netif", netif != NULL, return ERR_ARG);
 1280              		.loc 1 724 3 discriminator 1 view .LVU417
 1281 00e4 FFF7FEFF 		bl	printf
 1282              	.LVL126:
 724:Middlewares/Third_Party/LwIP/src/core/udp.c ****   LWIP_ERROR("udp_sendto_if_src: invalid netif", netif != NULL, return ERR_ARG);
 1283              		.loc 1 724 3 is_stmt 1 discriminator 1 view .LVU418
 724:Middlewares/Third_Party/LwIP/src/core/udp.c ****   LWIP_ERROR("udp_sendto_if_src: invalid netif", netif != NULL, return ERR_ARG);
 1284              		.loc 1 724 3 discriminator 1 view .LVU419
 1285 00e8 6FF00F07 		mvn	r7, #15
 1286 00ec D3E7     		b	.L100
 1287              	.LVL127:
 1288              	.L116:
 725:Middlewares/Third_Party/LwIP/src/core/udp.c **** 
 1289              		.loc 1 725 3 discriminator 1 view .LVU420
 725:Middlewares/Third_Party/LwIP/src/core/udp.c **** 
 1290              		.loc 1 725 3 discriminator 1 view .LVU421
 1291 00ee 174B     		ldr	r3, .L120
 1292              	.LVL128:
 725:Middlewares/Third_Party/LwIP/src/core/udp.c **** 
 1293              		.loc 1 725 3 is_stmt 0 discriminator 1 view .LVU422
 1294 00f0 40F2D522 		movw	r2, #725
 1295              	.LVL129:
 725:Middlewares/Third_Party/LwIP/src/core/udp.c **** 
 1296              		.loc 1 725 3 discriminator 1 view .LVU423
 1297 00f4 1B49     		ldr	r1, .L120+24
 1298              	.LVL130:
 725:Middlewares/Third_Party/LwIP/src/core/udp.c **** 
 1299              		.loc 1 725 3 discriminator 1 view .LVU424
 1300 00f6 1748     		ldr	r0, .L120+8
 1301              	.LVL131:
 725:Middlewares/Third_Party/LwIP/src/core/udp.c **** 
 1302              		.loc 1 725 3 discriminator 1 view .LVU425
 1303 00f8 FFF7FEFF 		bl	printf
 1304              	.LVL132:
 725:Middlewares/Third_Party/LwIP/src/core/udp.c **** 
 1305              		.loc 1 725 3 is_stmt 1 discriminator 1 view .LVU426
 725:Middlewares/Third_Party/LwIP/src/core/udp.c **** 
 1306              		.loc 1 725 3 discriminator 1 view .LVU427
 1307 00fc 6FF00F07 		mvn	r7, #15
 1308 0100 C9E7     		b	.L100
 1309              	.LVL133:
 1310              	.L117:
 747:Middlewares/Third_Party/LwIP/src/core/udp.c ****     err = udp_bind(pcb, &pcb->local_ip, pcb->local_port);
 1311              		.loc 1 747 98 view .LVU428
 748:Middlewares/Third_Party/LwIP/src/core/udp.c ****     if (err != ERR_OK) {
 1312              		.loc 1 748 5 view .LVU429
 748:Middlewares/Third_Party/LwIP/src/core/udp.c ****     if (err != ERR_OK) {
ARM GAS  D:\Dev\msys64\tmp\cco9wmM5.s 			page 48


 1313              		.loc 1 748 11 is_stmt 0 view .LVU430
 1314 0102 0146     		mov	r1, r0
 1315              	.LVL134:
 748:Middlewares/Third_Party/LwIP/src/core/udp.c ****     if (err != ERR_OK) {
 1316              		.loc 1 748 11 view .LVU431
 1317 0104 FFF7FEFF 		bl	udp_bind
 1318              	.LVL135:
 749:Middlewares/Third_Party/LwIP/src/core/udp.c ****       LWIP_DEBUGF(UDP_DEBUG | LWIP_DBG_TRACE | LWIP_DBG_LEVEL_SERIOUS, ("udp_send: forced port bind
 1319              		.loc 1 749 5 is_stmt 1 view .LVU432
 749:Middlewares/Third_Party/LwIP/src/core/udp.c ****       LWIP_DEBUGF(UDP_DEBUG | LWIP_DBG_TRACE | LWIP_DBG_LEVEL_SERIOUS, ("udp_send: forced port bind
 1320              		.loc 1 749 8 is_stmt 0 view .LVU433
 1321 0108 0746     		mov	r7, r0
 1322 010a 0028     		cmp	r0, #0
 1323 010c 92D0     		beq	.L105
 1324 010e C2E7     		b	.L100
 1325              	.LVL136:
 1326              	.L118:
 762:Middlewares/Third_Party/LwIP/src/core/udp.c ****     /* new header pbuf could not be allocated? */
 1327              		.loc 1 762 5 is_stmt 1 view .LVU434
 762:Middlewares/Third_Party/LwIP/src/core/udp.c ****     /* new header pbuf could not be allocated? */
 1328              		.loc 1 762 9 is_stmt 0 view .LVU435
 1329 0110 4FF42072 		mov	r2, #640
 1330 0114 0821     		movs	r1, #8
 1331 0116 2220     		movs	r0, #34
 1332 0118 FFF7FEFF 		bl	pbuf_alloc
 1333              	.LVL137:
 764:Middlewares/Third_Party/LwIP/src/core/udp.c ****       LWIP_DEBUGF(UDP_DEBUG | LWIP_DBG_TRACE | LWIP_DBG_LEVEL_SERIOUS, ("udp_send: could not alloca
 1334              		.loc 1 764 5 is_stmt 1 view .LVU436
 764:Middlewares/Third_Party/LwIP/src/core/udp.c ****       LWIP_DEBUGF(UDP_DEBUG | LWIP_DBG_TRACE | LWIP_DBG_LEVEL_SERIOUS, ("udp_send: could not alloca
 1335              		.loc 1 764 8 is_stmt 0 view .LVU437
 1336 011c 0546     		mov	r5, r0
 1337 011e 88B1     		cbz	r0, .L110
 768:Middlewares/Third_Party/LwIP/src/core/udp.c ****       /* chain header q in front of given pbuf p (only if p contains data) */
 1338              		.loc 1 768 5 is_stmt 1 view .LVU438
 768:Middlewares/Third_Party/LwIP/src/core/udp.c ****       /* chain header q in front of given pbuf p (only if p contains data) */
 1339              		.loc 1 768 10 is_stmt 0 view .LVU439
 1340 0120 2389     		ldrh	r3, [r4, #8]
 768:Middlewares/Third_Party/LwIP/src/core/udp.c ****       /* chain header q in front of given pbuf p (only if p contains data) */
 1341              		.loc 1 768 8 view .LVU440
 1342 0122 002B     		cmp	r3, #0
 1343 0124 92D0     		beq	.L106
 770:Middlewares/Third_Party/LwIP/src/core/udp.c ****     }
 1344              		.loc 1 770 7 is_stmt 1 view .LVU441
 1345 0126 2146     		mov	r1, r4
 1346 0128 FFF7FEFF 		bl	pbuf_chain
 1347              	.LVL138:
 770:Middlewares/Third_Party/LwIP/src/core/udp.c ****     }
 1348              		.loc 1 770 7 is_stmt 0 view .LVU442
 1349 012c 8EE7     		b	.L106
 1350              	.L119:
 781:Middlewares/Third_Party/LwIP/src/core/udp.c ****               (q->len >= sizeof(struct udp_hdr)));
 1351              		.loc 1 781 3 is_stmt 1 discriminator 1 view .LVU443
 781:Middlewares/Third_Party/LwIP/src/core/udp.c ****               (q->len >= sizeof(struct udp_hdr)));
 1352              		.loc 1 781 3 discriminator 1 view .LVU444
 1353 012e 074B     		ldr	r3, .L120
 1354 0130 40F20D32 		movw	r2, #781
 1355 0134 0C49     		ldr	r1, .L120+28
ARM GAS  D:\Dev\msys64\tmp\cco9wmM5.s 			page 49


 1356 0136 0748     		ldr	r0, .L120+8
 1357 0138 FFF7FEFF 		bl	printf
 1358              	.LVL139:
 1359 013c 89E7     		b	.L107
 1360              	.LVL140:
 1361              	.L108:
 757:Middlewares/Third_Party/LwIP/src/core/udp.c ****   }
 1362              		.loc 1 757 12 is_stmt 0 view .LVU445
 1363 013e 4FF0FF37 		mov	r7, #-1
 1364 0142 A8E7     		b	.L100
 1365              	.LVL141:
 1366              	.L110:
 766:Middlewares/Third_Party/LwIP/src/core/udp.c ****     }
 1367              		.loc 1 766 14 view .LVU446
 1368 0144 4FF0FF37 		mov	r7, #-1
 1369 0148 A5E7     		b	.L100
 1370              	.L121:
 1371 014a 00BF     		.align	2
 1372              	.L120:
 1373 014c 00000000 		.word	.LC0
 1374 0150 00000000 		.word	.LC8
 1375 0154 50000000 		.word	.LC2
 1376 0158 20000000 		.word	.LC9
 1377 015c 40000000 		.word	.LC10
 1378 0160 64000000 		.word	.LC11
 1379 0164 88000000 		.word	.LC12
 1380 0168 AC000000 		.word	.LC13
 1381              		.cfi_endproc
 1382              	.LFE32:
 1384              		.section	.rodata.udp_sendto_if.str1.4,"aMS",%progbits,1
 1385              		.align	2
 1386              	.LC14:
 1387 0000 7564705F 		.ascii	"udp_sendto_if: invalid pcb\000"
 1387      73656E64 
 1387      746F5F69 
 1387      663A2069 
 1387      6E76616C 
 1388 001b 00       		.align	2
 1389              	.LC15:
 1390 001c 7564705F 		.ascii	"udp_sendto_if: invalid pbuf\000"
 1390      73656E64 
 1390      746F5F69 
 1390      663A2069 
 1390      6E76616C 
 1391              		.align	2
 1392              	.LC16:
 1393 0038 7564705F 		.ascii	"udp_sendto_if: invalid dst_ip\000"
 1393      73656E64 
 1393      746F5F69 
 1393      663A2069 
 1393      6E76616C 
 1394 0056 0000     		.align	2
 1395              	.LC17:
 1396 0058 7564705F 		.ascii	"udp_sendto_if: invalid netif\000"
 1396      73656E64 
 1396      746F5F69 
 1396      663A2069 
ARM GAS  D:\Dev\msys64\tmp\cco9wmM5.s 			page 50


 1396      6E76616C 
 1397              		.section	.text.udp_sendto_if,"ax",%progbits
 1398              		.align	1
 1399              		.global	udp_sendto_if
 1400              		.syntax unified
 1401              		.thumb
 1402              		.thumb_func
 1403              		.fpu fpv5-sp-d16
 1405              	udp_sendto_if:
 1406              	.LVL142:
 1407              	.LFB31:
 626:Middlewares/Third_Party/LwIP/src/core/udp.c **** #if LWIP_CHECKSUM_ON_COPY && CHECKSUM_GEN_UDP
 1408              		.loc 1 626 1 is_stmt 1 view -0
 1409              		.cfi_startproc
 1410              		@ args = 4, pretend = 0, frame = 0
 1411              		@ frame_needed = 0, uses_anonymous_args = 0
 626:Middlewares/Third_Party/LwIP/src/core/udp.c **** #if LWIP_CHECKSUM_ON_COPY && CHECKSUM_GEN_UDP
 1412              		.loc 1 626 1 is_stmt 0 view .LVU448
 1413 0000 F0B5     		push	{r4, r5, r6, r7, lr}
 1414              	.LCFI11:
 1415              		.cfi_def_cfa_offset 20
 1416              		.cfi_offset 4, -20
 1417              		.cfi_offset 5, -16
 1418              		.cfi_offset 6, -12
 1419              		.cfi_offset 7, -8
 1420              		.cfi_offset 14, -4
 1421 0002 83B0     		sub	sp, sp, #12
 1422              	.LCFI12:
 1423              		.cfi_def_cfa_offset 32
 1424 0004 089D     		ldr	r5, [sp, #32]
 638:Middlewares/Third_Party/LwIP/src/core/udp.c **** 
 1425              		.loc 1 638 3 is_stmt 1 view .LVU449
 640:Middlewares/Third_Party/LwIP/src/core/udp.c ****   LWIP_ERROR("udp_sendto_if: invalid pbuf", p != NULL, return ERR_ARG);
 1426              		.loc 1 640 3 view .LVU450
 640:Middlewares/Third_Party/LwIP/src/core/udp.c ****   LWIP_ERROR("udp_sendto_if: invalid pbuf", p != NULL, return ERR_ARG);
 1427              		.loc 1 640 3 view .LVU451
 1428 0006 88B1     		cbz	r0, .L133
 1429 0008 0446     		mov	r4, r0
 640:Middlewares/Third_Party/LwIP/src/core/udp.c ****   LWIP_ERROR("udp_sendto_if: invalid pbuf", p != NULL, return ERR_ARG);
 1430              		.loc 1 640 3 discriminator 2 view .LVU452
 641:Middlewares/Third_Party/LwIP/src/core/udp.c ****   LWIP_ERROR("udp_sendto_if: invalid dst_ip", dst_ip != NULL, return ERR_ARG);
 1431              		.loc 1 641 3 discriminator 2 view .LVU453
 641:Middlewares/Third_Party/LwIP/src/core/udp.c ****   LWIP_ERROR("udp_sendto_if: invalid dst_ip", dst_ip != NULL, return ERR_ARG);
 1432              		.loc 1 641 3 discriminator 2 view .LVU454
 1433 000a C9B1     		cbz	r1, .L134
 641:Middlewares/Third_Party/LwIP/src/core/udp.c ****   LWIP_ERROR("udp_sendto_if: invalid dst_ip", dst_ip != NULL, return ERR_ARG);
 1434              		.loc 1 641 3 discriminator 2 view .LVU455
 642:Middlewares/Third_Party/LwIP/src/core/udp.c ****   LWIP_ERROR("udp_sendto_if: invalid netif", netif != NULL, return ERR_ARG);
 1435              		.loc 1 642 3 discriminator 2 view .LVU456
 642:Middlewares/Third_Party/LwIP/src/core/udp.c ****   LWIP_ERROR("udp_sendto_if: invalid netif", netif != NULL, return ERR_ARG);
 1436              		.loc 1 642 3 discriminator 2 view .LVU457
 1437 000c 12B3     		cbz	r2, .L135
 642:Middlewares/Third_Party/LwIP/src/core/udp.c ****   LWIP_ERROR("udp_sendto_if: invalid netif", netif != NULL, return ERR_ARG);
 1438              		.loc 1 642 3 discriminator 2 view .LVU458
 643:Middlewares/Third_Party/LwIP/src/core/udp.c **** 
 1439              		.loc 1 643 3 discriminator 2 view .LVU459
 643:Middlewares/Third_Party/LwIP/src/core/udp.c **** 
ARM GAS  D:\Dev\msys64\tmp\cco9wmM5.s 			page 51


 1440              		.loc 1 643 3 discriminator 2 view .LVU460
 1441 000e 5DB3     		cbz	r5, .L136
 643:Middlewares/Third_Party/LwIP/src/core/udp.c **** 
 1442              		.loc 1 643 3 view .LVU461
 645:Middlewares/Third_Party/LwIP/src/core/udp.c ****     return ERR_VAL;
 1443              		.loc 1 645 3 view .LVU462
 673:Middlewares/Third_Party/LwIP/src/core/udp.c ****         ip4_addr_ismulticast(ip_2_ip4(&pcb->local_ip))) {
 1444              		.loc 1 673 5 view .LVU463
 673:Middlewares/Third_Party/LwIP/src/core/udp.c ****         ip4_addr_ismulticast(ip_2_ip4(&pcb->local_ip))) {
 1445              		.loc 1 673 8 is_stmt 0 view .LVU464
 1446 0010 0028     		cmp	r0, #0
 1447 0012 33D0     		beq	.L128
 673:Middlewares/Third_Party/LwIP/src/core/udp.c ****         ip4_addr_ismulticast(ip_2_ip4(&pcb->local_ip))) {
 1448              		.loc 1 673 9 discriminator 1 view .LVU465
 1449 0014 0668     		ldr	r6, [r0]
 1450 0016 8EB3     		cbz	r6, .L128
 674:Middlewares/Third_Party/LwIP/src/core/udp.c ****       /* if the local_ip is any or multicast
 1451              		.loc 1 674 9 discriminator 2 view .LVU466
 1452 0018 06F0F007 		and	r7, r6, #240
 673:Middlewares/Third_Party/LwIP/src/core/udp.c ****         ip4_addr_ismulticast(ip_2_ip4(&pcb->local_ip))) {
 1453              		.loc 1 673 50 discriminator 2 view .LVU467
 1454 001c E02F     		cmp	r7, #224
 1455 001e 2DD0     		beq	.L128
 681:Middlewares/Third_Party/LwIP/src/core/udp.c ****         /* local_ip doesn't match, drop the packet */
 1456              		.loc 1 681 7 is_stmt 1 view .LVU468
 681:Middlewares/Third_Party/LwIP/src/core/udp.c ****         /* local_ip doesn't match, drop the packet */
 1457              		.loc 1 681 12 is_stmt 0 view .LVU469
 1458 0020 6F68     		ldr	r7, [r5, #4]
 681:Middlewares/Third_Party/LwIP/src/core/udp.c ****         /* local_ip doesn't match, drop the packet */
 1459              		.loc 1 681 10 view .LVU470
 1460 0022 BE42     		cmp	r6, r7
 1461 0024 2BD0     		beq	.L130
 683:Middlewares/Third_Party/LwIP/src/core/udp.c ****       }
 1462              		.loc 1 683 16 view .LVU471
 1463 0026 6FF00300 		mvn	r0, #3
 1464              	.LVL143:
 683:Middlewares/Third_Party/LwIP/src/core/udp.c ****       }
 1465              		.loc 1 683 16 view .LVU472
 1466 002a 2DE0     		b	.L124
 1467              	.LVL144:
 1468              	.L133:
 640:Middlewares/Third_Party/LwIP/src/core/udp.c ****   LWIP_ERROR("udp_sendto_if: invalid pbuf", p != NULL, return ERR_ARG);
 1469              		.loc 1 640 3 is_stmt 1 discriminator 1 view .LVU473
 640:Middlewares/Third_Party/LwIP/src/core/udp.c ****   LWIP_ERROR("udp_sendto_if: invalid pbuf", p != NULL, return ERR_ARG);
 1470              		.loc 1 640 3 discriminator 1 view .LVU474
 1471 002c 174B     		ldr	r3, .L137
 1472              	.LVL145:
 640:Middlewares/Third_Party/LwIP/src/core/udp.c ****   LWIP_ERROR("udp_sendto_if: invalid pbuf", p != NULL, return ERR_ARG);
 1473              		.loc 1 640 3 is_stmt 0 discriminator 1 view .LVU475
 1474 002e 4FF42072 		mov	r2, #640
 1475              	.LVL146:
 640:Middlewares/Third_Party/LwIP/src/core/udp.c ****   LWIP_ERROR("udp_sendto_if: invalid pbuf", p != NULL, return ERR_ARG);
 1476              		.loc 1 640 3 discriminator 1 view .LVU476
 1477 0032 1749     		ldr	r1, .L137+4
 1478              	.LVL147:
 640:Middlewares/Third_Party/LwIP/src/core/udp.c ****   LWIP_ERROR("udp_sendto_if: invalid pbuf", p != NULL, return ERR_ARG);
 1479              		.loc 1 640 3 discriminator 1 view .LVU477
ARM GAS  D:\Dev\msys64\tmp\cco9wmM5.s 			page 52


 1480 0034 1748     		ldr	r0, .L137+8
 1481              	.LVL148:
 640:Middlewares/Third_Party/LwIP/src/core/udp.c ****   LWIP_ERROR("udp_sendto_if: invalid pbuf", p != NULL, return ERR_ARG);
 1482              		.loc 1 640 3 discriminator 1 view .LVU478
 1483 0036 FFF7FEFF 		bl	printf
 1484              	.LVL149:
 640:Middlewares/Third_Party/LwIP/src/core/udp.c ****   LWIP_ERROR("udp_sendto_if: invalid pbuf", p != NULL, return ERR_ARG);
 1485              		.loc 1 640 3 is_stmt 1 discriminator 1 view .LVU479
 640:Middlewares/Third_Party/LwIP/src/core/udp.c ****   LWIP_ERROR("udp_sendto_if: invalid pbuf", p != NULL, return ERR_ARG);
 1486              		.loc 1 640 3 discriminator 1 view .LVU480
 1487 003a 6FF00F00 		mvn	r0, #15
 1488 003e 23E0     		b	.L124
 1489              	.LVL150:
 1490              	.L134:
 641:Middlewares/Third_Party/LwIP/src/core/udp.c ****   LWIP_ERROR("udp_sendto_if: invalid dst_ip", dst_ip != NULL, return ERR_ARG);
 1491              		.loc 1 641 3 discriminator 1 view .LVU481
 641:Middlewares/Third_Party/LwIP/src/core/udp.c ****   LWIP_ERROR("udp_sendto_if: invalid dst_ip", dst_ip != NULL, return ERR_ARG);
 1492              		.loc 1 641 3 discriminator 1 view .LVU482
 1493 0040 124B     		ldr	r3, .L137
 1494              	.LVL151:
 641:Middlewares/Third_Party/LwIP/src/core/udp.c ****   LWIP_ERROR("udp_sendto_if: invalid dst_ip", dst_ip != NULL, return ERR_ARG);
 1495              		.loc 1 641 3 is_stmt 0 discriminator 1 view .LVU483
 1496 0042 40F28122 		movw	r2, #641
 1497              	.LVL152:
 641:Middlewares/Third_Party/LwIP/src/core/udp.c ****   LWIP_ERROR("udp_sendto_if: invalid dst_ip", dst_ip != NULL, return ERR_ARG);
 1498              		.loc 1 641 3 discriminator 1 view .LVU484
 1499 0046 1449     		ldr	r1, .L137+12
 1500              	.LVL153:
 641:Middlewares/Third_Party/LwIP/src/core/udp.c ****   LWIP_ERROR("udp_sendto_if: invalid dst_ip", dst_ip != NULL, return ERR_ARG);
 1501              		.loc 1 641 3 discriminator 1 view .LVU485
 1502 0048 1248     		ldr	r0, .L137+8
 1503              	.LVL154:
 641:Middlewares/Third_Party/LwIP/src/core/udp.c ****   LWIP_ERROR("udp_sendto_if: invalid dst_ip", dst_ip != NULL, return ERR_ARG);
 1504              		.loc 1 641 3 discriminator 1 view .LVU486
 1505 004a FFF7FEFF 		bl	printf
 1506              	.LVL155:
 641:Middlewares/Third_Party/LwIP/src/core/udp.c ****   LWIP_ERROR("udp_sendto_if: invalid dst_ip", dst_ip != NULL, return ERR_ARG);
 1507              		.loc 1 641 3 is_stmt 1 discriminator 1 view .LVU487
 641:Middlewares/Third_Party/LwIP/src/core/udp.c ****   LWIP_ERROR("udp_sendto_if: invalid dst_ip", dst_ip != NULL, return ERR_ARG);
 1508              		.loc 1 641 3 discriminator 1 view .LVU488
 1509 004e 6FF00F00 		mvn	r0, #15
 1510 0052 19E0     		b	.L124
 1511              	.LVL156:
 1512              	.L135:
 642:Middlewares/Third_Party/LwIP/src/core/udp.c ****   LWIP_ERROR("udp_sendto_if: invalid netif", netif != NULL, return ERR_ARG);
 1513              		.loc 1 642 3 discriminator 1 view .LVU489
 642:Middlewares/Third_Party/LwIP/src/core/udp.c ****   LWIP_ERROR("udp_sendto_if: invalid netif", netif != NULL, return ERR_ARG);
 1514              		.loc 1 642 3 discriminator 1 view .LVU490
 1515 0054 0D4B     		ldr	r3, .L137
 1516              	.LVL157:
 642:Middlewares/Third_Party/LwIP/src/core/udp.c ****   LWIP_ERROR("udp_sendto_if: invalid netif", netif != NULL, return ERR_ARG);
 1517              		.loc 1 642 3 is_stmt 0 discriminator 1 view .LVU491
 1518 0056 40F28222 		movw	r2, #642
 1519              	.LVL158:
 642:Middlewares/Third_Party/LwIP/src/core/udp.c ****   LWIP_ERROR("udp_sendto_if: invalid netif", netif != NULL, return ERR_ARG);
 1520              		.loc 1 642 3 discriminator 1 view .LVU492
 1521 005a 1049     		ldr	r1, .L137+16
ARM GAS  D:\Dev\msys64\tmp\cco9wmM5.s 			page 53


 1522              	.LVL159:
 642:Middlewares/Third_Party/LwIP/src/core/udp.c ****   LWIP_ERROR("udp_sendto_if: invalid netif", netif != NULL, return ERR_ARG);
 1523              		.loc 1 642 3 discriminator 1 view .LVU493
 1524 005c 0D48     		ldr	r0, .L137+8
 1525              	.LVL160:
 642:Middlewares/Third_Party/LwIP/src/core/udp.c ****   LWIP_ERROR("udp_sendto_if: invalid netif", netif != NULL, return ERR_ARG);
 1526              		.loc 1 642 3 discriminator 1 view .LVU494
 1527 005e FFF7FEFF 		bl	printf
 1528              	.LVL161:
 642:Middlewares/Third_Party/LwIP/src/core/udp.c ****   LWIP_ERROR("udp_sendto_if: invalid netif", netif != NULL, return ERR_ARG);
 1529              		.loc 1 642 3 is_stmt 1 discriminator 1 view .LVU495
 642:Middlewares/Third_Party/LwIP/src/core/udp.c ****   LWIP_ERROR("udp_sendto_if: invalid netif", netif != NULL, return ERR_ARG);
 1530              		.loc 1 642 3 discriminator 1 view .LVU496
 1531 0062 6FF00F00 		mvn	r0, #15
 1532 0066 0FE0     		b	.L124
 1533              	.LVL162:
 1534              	.L136:
 643:Middlewares/Third_Party/LwIP/src/core/udp.c **** 
 1535              		.loc 1 643 3 discriminator 1 view .LVU497
 643:Middlewares/Third_Party/LwIP/src/core/udp.c **** 
 1536              		.loc 1 643 3 discriminator 1 view .LVU498
 1537 0068 084B     		ldr	r3, .L137
 1538              	.LVL163:
 643:Middlewares/Third_Party/LwIP/src/core/udp.c **** 
 1539              		.loc 1 643 3 is_stmt 0 discriminator 1 view .LVU499
 1540 006a 40F28322 		movw	r2, #643
 1541              	.LVL164:
 643:Middlewares/Third_Party/LwIP/src/core/udp.c **** 
 1542              		.loc 1 643 3 discriminator 1 view .LVU500
 1543 006e 0C49     		ldr	r1, .L137+20
 1544              	.LVL165:
 643:Middlewares/Third_Party/LwIP/src/core/udp.c **** 
 1545              		.loc 1 643 3 discriminator 1 view .LVU501
 1546 0070 0848     		ldr	r0, .L137+8
 1547              	.LVL166:
 643:Middlewares/Third_Party/LwIP/src/core/udp.c **** 
 1548              		.loc 1 643 3 discriminator 1 view .LVU502
 1549 0072 FFF7FEFF 		bl	printf
 1550              	.LVL167:
 643:Middlewares/Third_Party/LwIP/src/core/udp.c **** 
 1551              		.loc 1 643 3 is_stmt 1 discriminator 1 view .LVU503
 643:Middlewares/Third_Party/LwIP/src/core/udp.c **** 
 1552              		.loc 1 643 3 discriminator 1 view .LVU504
 1553 0076 6FF00F00 		mvn	r0, #15
 1554 007a 05E0     		b	.L124
 1555              	.LVL168:
 1556              	.L128:
 677:Middlewares/Third_Party/LwIP/src/core/udp.c ****     } else {
 1557              		.loc 1 677 7 view .LVU505
 677:Middlewares/Third_Party/LwIP/src/core/udp.c ****     } else {
 1558              		.loc 1 677 14 is_stmt 0 view .LVU506
 1559 007c 281D     		adds	r0, r5, #4
 1560              	.LVL169:
 1561              	.L130:
 692:Middlewares/Third_Party/LwIP/src/core/udp.c **** #endif /* LWIP_CHECKSUM_ON_COPY && CHECKSUM_GEN_UDP */
 1562              		.loc 1 692 3 is_stmt 1 view .LVU507
 692:Middlewares/Third_Party/LwIP/src/core/udp.c **** #endif /* LWIP_CHECKSUM_ON_COPY && CHECKSUM_GEN_UDP */
ARM GAS  D:\Dev\msys64\tmp\cco9wmM5.s 			page 54


 1563              		.loc 1 692 10 is_stmt 0 view .LVU508
 1564 007e 0190     		str	r0, [sp, #4]
 1565 0080 0095     		str	r5, [sp]
 1566 0082 2046     		mov	r0, r4
 1567              	.LVL170:
 692:Middlewares/Third_Party/LwIP/src/core/udp.c **** #endif /* LWIP_CHECKSUM_ON_COPY && CHECKSUM_GEN_UDP */
 1568              		.loc 1 692 10 view .LVU509
 1569 0084 FFF7FEFF 		bl	udp_sendto_if_src
 1570              	.LVL171:
 1571              	.L124:
 694:Middlewares/Third_Party/LwIP/src/core/udp.c **** 
 1572              		.loc 1 694 1 view .LVU510
 1573 0088 03B0     		add	sp, sp, #12
 1574              	.LCFI13:
 1575              		.cfi_def_cfa_offset 20
 1576              		@ sp needed
 1577 008a F0BD     		pop	{r4, r5, r6, r7, pc}
 1578              	.LVL172:
 1579              	.L138:
 694:Middlewares/Third_Party/LwIP/src/core/udp.c **** 
 1580              		.loc 1 694 1 view .LVU511
 1581              		.align	2
 1582              	.L137:
 1583 008c 00000000 		.word	.LC0
 1584 0090 00000000 		.word	.LC14
 1585 0094 50000000 		.word	.LC2
 1586 0098 1C000000 		.word	.LC15
 1587 009c 38000000 		.word	.LC16
 1588 00a0 58000000 		.word	.LC17
 1589              		.cfi_endproc
 1590              	.LFE31:
 1592              		.section	.rodata.udp_sendto.str1.4,"aMS",%progbits,1
 1593              		.align	2
 1594              	.LC18:
 1595 0000 7564705F 		.ascii	"udp_sendto: invalid pcb\000"
 1595      73656E64 
 1595      746F3A20 
 1595      696E7661 
 1595      6C696420 
 1596              		.align	2
 1597              	.LC19:
 1598 0018 7564705F 		.ascii	"udp_sendto: invalid pbuf\000"
 1598      73656E64 
 1598      746F3A20 
 1598      696E7661 
 1598      6C696420 
 1599 0031 000000   		.align	2
 1600              	.LC20:
 1601 0034 7564705F 		.ascii	"udp_sendto: invalid dst_ip\000"
 1601      73656E64 
 1601      746F3A20 
 1601      696E7661 
 1601      6C696420 
 1602              		.section	.text.udp_sendto,"ax",%progbits
 1603              		.align	1
 1604              		.global	udp_sendto
 1605              		.syntax unified
ARM GAS  D:\Dev\msys64\tmp\cco9wmM5.s 			page 55


 1606              		.thumb
 1607              		.thumb_func
 1608              		.fpu fpv5-sp-d16
 1610              	udp_sendto:
 1611              	.LVL173:
 1612              	.LFB30:
 522:Middlewares/Third_Party/LwIP/src/core/udp.c **** #if LWIP_CHECKSUM_ON_COPY && CHECKSUM_GEN_UDP
 1613              		.loc 1 522 1 is_stmt 1 view -0
 1614              		.cfi_startproc
 1615              		@ args = 0, pretend = 0, frame = 0
 1616              		@ frame_needed = 0, uses_anonymous_args = 0
 522:Middlewares/Third_Party/LwIP/src/core/udp.c **** #if LWIP_CHECKSUM_ON_COPY && CHECKSUM_GEN_UDP
 1617              		.loc 1 522 1 is_stmt 0 view .LVU513
 1618 0000 F0B5     		push	{r4, r5, r6, r7, lr}
 1619              	.LCFI14:
 1620              		.cfi_def_cfa_offset 20
 1621              		.cfi_offset 4, -20
 1622              		.cfi_offset 5, -16
 1623              		.cfi_offset 6, -12
 1624              		.cfi_offset 7, -8
 1625              		.cfi_offset 14, -4
 1626 0002 83B0     		sub	sp, sp, #12
 1627              	.LCFI15:
 1628              		.cfi_def_cfa_offset 32
 534:Middlewares/Third_Party/LwIP/src/core/udp.c **** 
 1629              		.loc 1 534 3 is_stmt 1 view .LVU514
 536:Middlewares/Third_Party/LwIP/src/core/udp.c ****   LWIP_ERROR("udp_sendto: invalid pbuf", p != NULL, return ERR_ARG);
 1630              		.loc 1 536 3 view .LVU515
 536:Middlewares/Third_Party/LwIP/src/core/udp.c ****   LWIP_ERROR("udp_sendto: invalid pbuf", p != NULL, return ERR_ARG);
 1631              		.loc 1 536 3 view .LVU516
 1632 0004 98B1     		cbz	r0, .L148
 1633 0006 0D46     		mov	r5, r1
 1634 0008 1446     		mov	r4, r2
 1635 000a 1E46     		mov	r6, r3
 1636 000c 0746     		mov	r7, r0
 536:Middlewares/Third_Party/LwIP/src/core/udp.c ****   LWIP_ERROR("udp_sendto: invalid pbuf", p != NULL, return ERR_ARG);
 1637              		.loc 1 536 3 discriminator 2 view .LVU517
 537:Middlewares/Third_Party/LwIP/src/core/udp.c ****   LWIP_ERROR("udp_sendto: invalid dst_ip", dst_ip != NULL, return ERR_ARG);
 1638              		.loc 1 537 3 discriminator 2 view .LVU518
 537:Middlewares/Third_Party/LwIP/src/core/udp.c ****   LWIP_ERROR("udp_sendto: invalid dst_ip", dst_ip != NULL, return ERR_ARG);
 1639              		.loc 1 537 3 discriminator 2 view .LVU519
 1640 000e C1B1     		cbz	r1, .L149
 537:Middlewares/Third_Party/LwIP/src/core/udp.c ****   LWIP_ERROR("udp_sendto: invalid dst_ip", dst_ip != NULL, return ERR_ARG);
 1641              		.loc 1 537 3 discriminator 2 view .LVU520
 538:Middlewares/Third_Party/LwIP/src/core/udp.c **** 
 1642              		.loc 1 538 3 discriminator 2 view .LVU521
 538:Middlewares/Third_Party/LwIP/src/core/udp.c **** 
 1643              		.loc 1 538 3 discriminator 2 view .LVU522
 1644 0010 0AB3     		cbz	r2, .L150
 538:Middlewares/Third_Party/LwIP/src/core/udp.c **** 
 1645              		.loc 1 538 3 view .LVU523
 540:Middlewares/Third_Party/LwIP/src/core/udp.c ****     return ERR_VAL;
 1646              		.loc 1 540 3 view .LVU524
 544:Middlewares/Third_Party/LwIP/src/core/udp.c **** 
 1647              		.loc 1 544 58 view .LVU525
 546:Middlewares/Third_Party/LwIP/src/core/udp.c ****     netif = netif_get_by_index(pcb->netif_idx);
 1648              		.loc 1 546 3 view .LVU526
ARM GAS  D:\Dev\msys64\tmp\cco9wmM5.s 			page 56


 546:Middlewares/Third_Party/LwIP/src/core/udp.c ****     netif = netif_get_by_index(pcb->netif_idx);
 1649              		.loc 1 546 10 is_stmt 0 view .LVU527
 1650 0012 007A     		ldrb	r0, [r0, #8]	@ zero_extendqisi2
 1651              	.LVL174:
 546:Middlewares/Third_Party/LwIP/src/core/udp.c ****     netif = netif_get_by_index(pcb->netif_idx);
 1652              		.loc 1 546 6 view .LVU528
 1653 0014 48B3     		cbz	r0, .L144
 547:Middlewares/Third_Party/LwIP/src/core/udp.c ****   } else {
 1654              		.loc 1 547 5 is_stmt 1 view .LVU529
 547:Middlewares/Third_Party/LwIP/src/core/udp.c ****   } else {
 1655              		.loc 1 547 13 is_stmt 0 view .LVU530
 1656 0016 FFF7FEFF 		bl	netif_get_by_index
 1657              	.LVL175:
 1658              	.L145:
 589:Middlewares/Third_Party/LwIP/src/core/udp.c ****     LWIP_DEBUGF(UDP_DEBUG | LWIP_DBG_LEVEL_SERIOUS, ("udp_send: No route to "));
 1659              		.loc 1 589 3 is_stmt 1 view .LVU531
 589:Middlewares/Third_Party/LwIP/src/core/udp.c ****     LWIP_DEBUGF(UDP_DEBUG | LWIP_DBG_LEVEL_SERIOUS, ("udp_send: No route to "));
 1660              		.loc 1 589 6 is_stmt 0 view .LVU532
 1661 001a 50B3     		cbz	r0, .L146
 599:Middlewares/Third_Party/LwIP/src/core/udp.c **** #endif /* LWIP_CHECKSUM_ON_COPY && CHECKSUM_GEN_UDP */
 1662              		.loc 1 599 3 is_stmt 1 view .LVU533
 599:Middlewares/Third_Party/LwIP/src/core/udp.c **** #endif /* LWIP_CHECKSUM_ON_COPY && CHECKSUM_GEN_UDP */
 1663              		.loc 1 599 10 is_stmt 0 view .LVU534
 1664 001c 0090     		str	r0, [sp]
 1665 001e 3346     		mov	r3, r6
 1666 0020 2246     		mov	r2, r4
 1667 0022 2946     		mov	r1, r5
 1668 0024 3846     		mov	r0, r7
 1669              	.LVL176:
 599:Middlewares/Third_Party/LwIP/src/core/udp.c **** #endif /* LWIP_CHECKSUM_ON_COPY && CHECKSUM_GEN_UDP */
 1670              		.loc 1 599 10 view .LVU535
 1671 0026 FFF7FEFF 		bl	udp_sendto_if
 1672              	.LVL177:
 1673              	.L141:
 601:Middlewares/Third_Party/LwIP/src/core/udp.c **** 
 1674              		.loc 1 601 1 view .LVU536
 1675 002a 03B0     		add	sp, sp, #12
 1676              	.LCFI16:
 1677              		.cfi_remember_state
 1678              		.cfi_def_cfa_offset 20
 1679              		@ sp needed
 1680 002c F0BD     		pop	{r4, r5, r6, r7, pc}
 1681              	.LVL178:
 1682              	.L148:
 1683              	.LCFI17:
 1684              		.cfi_restore_state
 536:Middlewares/Third_Party/LwIP/src/core/udp.c ****   LWIP_ERROR("udp_sendto: invalid pbuf", p != NULL, return ERR_ARG);
 1685              		.loc 1 536 3 is_stmt 1 discriminator 1 view .LVU537
 536:Middlewares/Third_Party/LwIP/src/core/udp.c ****   LWIP_ERROR("udp_sendto: invalid pbuf", p != NULL, return ERR_ARG);
 1686              		.loc 1 536 3 discriminator 1 view .LVU538
 1687 002e 124B     		ldr	r3, .L151
 1688              	.LVL179:
 536:Middlewares/Third_Party/LwIP/src/core/udp.c ****   LWIP_ERROR("udp_sendto: invalid pbuf", p != NULL, return ERR_ARG);
 1689              		.loc 1 536 3 is_stmt 0 discriminator 1 view .LVU539
 1690 0030 4FF40672 		mov	r2, #536
 1691              	.LVL180:
 536:Middlewares/Third_Party/LwIP/src/core/udp.c ****   LWIP_ERROR("udp_sendto: invalid pbuf", p != NULL, return ERR_ARG);
ARM GAS  D:\Dev\msys64\tmp\cco9wmM5.s 			page 57


 1692              		.loc 1 536 3 discriminator 1 view .LVU540
 1693 0034 1149     		ldr	r1, .L151+4
 1694              	.LVL181:
 536:Middlewares/Third_Party/LwIP/src/core/udp.c ****   LWIP_ERROR("udp_sendto: invalid pbuf", p != NULL, return ERR_ARG);
 1695              		.loc 1 536 3 discriminator 1 view .LVU541
 1696 0036 1248     		ldr	r0, .L151+8
 1697              	.LVL182:
 536:Middlewares/Third_Party/LwIP/src/core/udp.c ****   LWIP_ERROR("udp_sendto: invalid pbuf", p != NULL, return ERR_ARG);
 1698              		.loc 1 536 3 discriminator 1 view .LVU542
 1699 0038 FFF7FEFF 		bl	printf
 1700              	.LVL183:
 536:Middlewares/Third_Party/LwIP/src/core/udp.c ****   LWIP_ERROR("udp_sendto: invalid pbuf", p != NULL, return ERR_ARG);
 1701              		.loc 1 536 3 is_stmt 1 discriminator 1 view .LVU543
 536:Middlewares/Third_Party/LwIP/src/core/udp.c ****   LWIP_ERROR("udp_sendto: invalid pbuf", p != NULL, return ERR_ARG);
 1702              		.loc 1 536 3 discriminator 1 view .LVU544
 1703 003c 6FF00F00 		mvn	r0, #15
 1704 0040 F3E7     		b	.L141
 1705              	.LVL184:
 1706              	.L149:
 537:Middlewares/Third_Party/LwIP/src/core/udp.c ****   LWIP_ERROR("udp_sendto: invalid dst_ip", dst_ip != NULL, return ERR_ARG);
 1707              		.loc 1 537 3 discriminator 1 view .LVU545
 537:Middlewares/Third_Party/LwIP/src/core/udp.c ****   LWIP_ERROR("udp_sendto: invalid dst_ip", dst_ip != NULL, return ERR_ARG);
 1708              		.loc 1 537 3 discriminator 1 view .LVU546
 1709 0042 0D4B     		ldr	r3, .L151
 1710              	.LVL185:
 537:Middlewares/Third_Party/LwIP/src/core/udp.c ****   LWIP_ERROR("udp_sendto: invalid dst_ip", dst_ip != NULL, return ERR_ARG);
 1711              		.loc 1 537 3 is_stmt 0 discriminator 1 view .LVU547
 1712 0044 40F21922 		movw	r2, #537
 1713              	.LVL186:
 537:Middlewares/Third_Party/LwIP/src/core/udp.c ****   LWIP_ERROR("udp_sendto: invalid dst_ip", dst_ip != NULL, return ERR_ARG);
 1714              		.loc 1 537 3 discriminator 1 view .LVU548
 1715 0048 0E49     		ldr	r1, .L151+12
 1716              	.LVL187:
 537:Middlewares/Third_Party/LwIP/src/core/udp.c ****   LWIP_ERROR("udp_sendto: invalid dst_ip", dst_ip != NULL, return ERR_ARG);
 1717              		.loc 1 537 3 discriminator 1 view .LVU549
 1718 004a 0D48     		ldr	r0, .L151+8
 1719              	.LVL188:
 537:Middlewares/Third_Party/LwIP/src/core/udp.c ****   LWIP_ERROR("udp_sendto: invalid dst_ip", dst_ip != NULL, return ERR_ARG);
 1720              		.loc 1 537 3 discriminator 1 view .LVU550
 1721 004c FFF7FEFF 		bl	printf
 1722              	.LVL189:
 537:Middlewares/Third_Party/LwIP/src/core/udp.c ****   LWIP_ERROR("udp_sendto: invalid dst_ip", dst_ip != NULL, return ERR_ARG);
 1723              		.loc 1 537 3 is_stmt 1 discriminator 1 view .LVU551
 537:Middlewares/Third_Party/LwIP/src/core/udp.c ****   LWIP_ERROR("udp_sendto: invalid dst_ip", dst_ip != NULL, return ERR_ARG);
 1724              		.loc 1 537 3 discriminator 1 view .LVU552
 1725 0050 6FF00F00 		mvn	r0, #15
 1726 0054 E9E7     		b	.L141
 1727              	.LVL190:
 1728              	.L150:
 538:Middlewares/Third_Party/LwIP/src/core/udp.c **** 
 1729              		.loc 1 538 3 discriminator 1 view .LVU553
 538:Middlewares/Third_Party/LwIP/src/core/udp.c **** 
 1730              		.loc 1 538 3 discriminator 1 view .LVU554
 1731 0056 084B     		ldr	r3, .L151
 1732              	.LVL191:
 538:Middlewares/Third_Party/LwIP/src/core/udp.c **** 
 1733              		.loc 1 538 3 is_stmt 0 discriminator 1 view .LVU555
ARM GAS  D:\Dev\msys64\tmp\cco9wmM5.s 			page 58


 1734 0058 40F21A22 		movw	r2, #538
 1735              	.LVL192:
 538:Middlewares/Third_Party/LwIP/src/core/udp.c **** 
 1736              		.loc 1 538 3 discriminator 1 view .LVU556
 1737 005c 0A49     		ldr	r1, .L151+16
 1738              	.LVL193:
 538:Middlewares/Third_Party/LwIP/src/core/udp.c **** 
 1739              		.loc 1 538 3 discriminator 1 view .LVU557
 1740 005e 0848     		ldr	r0, .L151+8
 1741              	.LVL194:
 538:Middlewares/Third_Party/LwIP/src/core/udp.c **** 
 1742              		.loc 1 538 3 discriminator 1 view .LVU558
 1743 0060 FFF7FEFF 		bl	printf
 1744              	.LVL195:
 538:Middlewares/Third_Party/LwIP/src/core/udp.c **** 
 1745              		.loc 1 538 3 is_stmt 1 discriminator 1 view .LVU559
 538:Middlewares/Third_Party/LwIP/src/core/udp.c **** 
 1746              		.loc 1 538 3 discriminator 1 view .LVU560
 1747 0064 6FF00F00 		mvn	r0, #15
 1748 0068 DFE7     		b	.L141
 1749              	.LVL196:
 1750              	.L144:
 584:Middlewares/Third_Party/LwIP/src/core/udp.c ****     }
 1751              		.loc 1 584 7 view .LVU561
 584:Middlewares/Third_Party/LwIP/src/core/udp.c ****     }
 1752              		.loc 1 584 15 is_stmt 0 view .LVU562
 1753 006a 1046     		mov	r0, r2
 1754 006c FFF7FEFF 		bl	ip4_route
 1755              	.LVL197:
 584:Middlewares/Third_Party/LwIP/src/core/udp.c ****     }
 1756              		.loc 1 584 15 view .LVU563
 1757 0070 D3E7     		b	.L145
 1758              	.L146:
 594:Middlewares/Third_Party/LwIP/src/core/udp.c ****   }
 1759              		.loc 1 594 12 view .LVU564
 1760 0072 6FF00300 		mvn	r0, #3
 1761              	.LVL198:
 594:Middlewares/Third_Party/LwIP/src/core/udp.c ****   }
 1762              		.loc 1 594 12 view .LVU565
 1763 0076 D8E7     		b	.L141
 1764              	.L152:
 1765              		.align	2
 1766              	.L151:
 1767 0078 00000000 		.word	.LC0
 1768 007c 00000000 		.word	.LC18
 1769 0080 50000000 		.word	.LC2
 1770 0084 18000000 		.word	.LC19
 1771 0088 34000000 		.word	.LC20
 1772              		.cfi_endproc
 1773              	.LFE30:
 1775              		.section	.rodata.udp_send.str1.4,"aMS",%progbits,1
 1776              		.align	2
 1777              	.LC21:
 1778 0000 7564705F 		.ascii	"udp_send: invalid pcb\000"
 1778      73656E64 
 1778      3A20696E 
 1778      76616C69 
ARM GAS  D:\Dev\msys64\tmp\cco9wmM5.s 			page 59


 1778      64207063 
 1779 0016 0000     		.align	2
 1780              	.LC22:
 1781 0018 7564705F 		.ascii	"udp_send: invalid pbuf\000"
 1781      73656E64 
 1781      3A20696E 
 1781      76616C69 
 1781      64207062 
 1782              		.section	.text.udp_send,"ax",%progbits
 1783              		.align	1
 1784              		.global	udp_send
 1785              		.syntax unified
 1786              		.thumb
 1787              		.thumb_func
 1788              		.fpu fpv5-sp-d16
 1790              	udp_send:
 1791              	.LVL199:
 1792              	.LFB29:
 468:Middlewares/Third_Party/LwIP/src/core/udp.c ****   LWIP_ERROR("udp_send: invalid pcb", pcb != NULL, return ERR_ARG);
 1793              		.loc 1 468 1 is_stmt 1 view -0
 1794              		.cfi_startproc
 1795              		@ args = 0, pretend = 0, frame = 0
 1796              		@ frame_needed = 0, uses_anonymous_args = 0
 468:Middlewares/Third_Party/LwIP/src/core/udp.c ****   LWIP_ERROR("udp_send: invalid pcb", pcb != NULL, return ERR_ARG);
 1797              		.loc 1 468 1 is_stmt 0 view .LVU567
 1798 0000 10B5     		push	{r4, lr}
 1799              	.LCFI18:
 1800              		.cfi_def_cfa_offset 8
 1801              		.cfi_offset 4, -8
 1802              		.cfi_offset 14, -4
 469:Middlewares/Third_Party/LwIP/src/core/udp.c ****   LWIP_ERROR("udp_send: invalid pbuf", p != NULL, return ERR_ARG);
 1803              		.loc 1 469 3 is_stmt 1 view .LVU568
 469:Middlewares/Third_Party/LwIP/src/core/udp.c ****   LWIP_ERROR("udp_send: invalid pbuf", p != NULL, return ERR_ARG);
 1804              		.loc 1 469 3 view .LVU569
 1805 0002 28B1     		cbz	r0, .L158
 469:Middlewares/Third_Party/LwIP/src/core/udp.c ****   LWIP_ERROR("udp_send: invalid pbuf", p != NULL, return ERR_ARG);
 1806              		.loc 1 469 3 discriminator 2 view .LVU570
 470:Middlewares/Third_Party/LwIP/src/core/udp.c **** 
 1807              		.loc 1 470 3 discriminator 2 view .LVU571
 470:Middlewares/Third_Party/LwIP/src/core/udp.c **** 
 1808              		.loc 1 470 3 discriminator 2 view .LVU572
 1809 0004 71B1     		cbz	r1, .L159
 470:Middlewares/Third_Party/LwIP/src/core/udp.c **** 
 1810              		.loc 1 470 3 view .LVU573
 472:Middlewares/Third_Party/LwIP/src/core/udp.c ****     return ERR_VAL;
 1811              		.loc 1 472 3 view .LVU574
 477:Middlewares/Third_Party/LwIP/src/core/udp.c **** }
 1812              		.loc 1 477 3 view .LVU575
 477:Middlewares/Third_Party/LwIP/src/core/udp.c **** }
 1813              		.loc 1 477 10 is_stmt 0 view .LVU576
 1814 0006 838A     		ldrh	r3, [r0, #20]
 1815 0008 021D     		adds	r2, r0, #4
 1816 000a FFF7FEFF 		bl	udp_sendto
 1817              	.LVL200:
 1818              	.L155:
 478:Middlewares/Third_Party/LwIP/src/core/udp.c **** 
 1819              		.loc 1 478 1 view .LVU577
ARM GAS  D:\Dev\msys64\tmp\cco9wmM5.s 			page 60


 1820 000e 10BD     		pop	{r4, pc}
 1821              	.LVL201:
 1822              	.L158:
 469:Middlewares/Third_Party/LwIP/src/core/udp.c ****   LWIP_ERROR("udp_send: invalid pbuf", p != NULL, return ERR_ARG);
 1823              		.loc 1 469 3 is_stmt 1 discriminator 1 view .LVU578
 469:Middlewares/Third_Party/LwIP/src/core/udp.c ****   LWIP_ERROR("udp_send: invalid pbuf", p != NULL, return ERR_ARG);
 1824              		.loc 1 469 3 discriminator 1 view .LVU579
 1825 0010 094B     		ldr	r3, .L160
 1826 0012 40F2D512 		movw	r2, #469
 1827 0016 0949     		ldr	r1, .L160+4
 1828              	.LVL202:
 469:Middlewares/Third_Party/LwIP/src/core/udp.c ****   LWIP_ERROR("udp_send: invalid pbuf", p != NULL, return ERR_ARG);
 1829              		.loc 1 469 3 is_stmt 0 discriminator 1 view .LVU580
 1830 0018 0948     		ldr	r0, .L160+8
 1831              	.LVL203:
 469:Middlewares/Third_Party/LwIP/src/core/udp.c ****   LWIP_ERROR("udp_send: invalid pbuf", p != NULL, return ERR_ARG);
 1832              		.loc 1 469 3 discriminator 1 view .LVU581
 1833 001a FFF7FEFF 		bl	printf
 1834              	.LVL204:
 469:Middlewares/Third_Party/LwIP/src/core/udp.c ****   LWIP_ERROR("udp_send: invalid pbuf", p != NULL, return ERR_ARG);
 1835              		.loc 1 469 3 is_stmt 1 discriminator 1 view .LVU582
 469:Middlewares/Third_Party/LwIP/src/core/udp.c ****   LWIP_ERROR("udp_send: invalid pbuf", p != NULL, return ERR_ARG);
 1836              		.loc 1 469 3 discriminator 1 view .LVU583
 1837 001e 6FF00F00 		mvn	r0, #15
 1838 0022 F4E7     		b	.L155
 1839              	.LVL205:
 1840              	.L159:
 470:Middlewares/Third_Party/LwIP/src/core/udp.c **** 
 1841              		.loc 1 470 3 discriminator 1 view .LVU584
 470:Middlewares/Third_Party/LwIP/src/core/udp.c **** 
 1842              		.loc 1 470 3 discriminator 1 view .LVU585
 1843 0024 044B     		ldr	r3, .L160
 1844 0026 4FF4EB72 		mov	r2, #470
 1845 002a 0649     		ldr	r1, .L160+12
 1846              	.LVL206:
 470:Middlewares/Third_Party/LwIP/src/core/udp.c **** 
 1847              		.loc 1 470 3 is_stmt 0 discriminator 1 view .LVU586
 1848 002c 0448     		ldr	r0, .L160+8
 1849              	.LVL207:
 470:Middlewares/Third_Party/LwIP/src/core/udp.c **** 
 1850              		.loc 1 470 3 discriminator 1 view .LVU587
 1851 002e FFF7FEFF 		bl	printf
 1852              	.LVL208:
 470:Middlewares/Third_Party/LwIP/src/core/udp.c **** 
 1853              		.loc 1 470 3 is_stmt 1 discriminator 1 view .LVU588
 470:Middlewares/Third_Party/LwIP/src/core/udp.c **** 
 1854              		.loc 1 470 3 discriminator 1 view .LVU589
 1855 0032 6FF00F00 		mvn	r0, #15
 1856 0036 EAE7     		b	.L155
 1857              	.L161:
 1858              		.align	2
 1859              	.L160:
 1860 0038 00000000 		.word	.LC0
 1861 003c 00000000 		.word	.LC21
 1862 0040 50000000 		.word	.LC2
 1863 0044 18000000 		.word	.LC22
 1864              		.cfi_endproc
ARM GAS  D:\Dev\msys64\tmp\cco9wmM5.s 			page 61


 1865              	.LFE29:
 1867              		.section	.text.udp_bind_netif,"ax",%progbits
 1868              		.align	1
 1869              		.global	udp_bind_netif
 1870              		.syntax unified
 1871              		.thumb
 1872              		.thumb_func
 1873              		.fpu fpv5-sp-d16
 1875              	udp_bind_netif:
 1876              	.LVL209:
 1877              	.LFB34:
1028:Middlewares/Third_Party/LwIP/src/core/udp.c **** 
1029:Middlewares/Third_Party/LwIP/src/core/udp.c **** /**
1030:Middlewares/Third_Party/LwIP/src/core/udp.c ****  * @ingroup udp_raw
1031:Middlewares/Third_Party/LwIP/src/core/udp.c ****  * Bind an UDP PCB to a specific netif.
1032:Middlewares/Third_Party/LwIP/src/core/udp.c ****  * After calling this function, all packets received via this PCB
1033:Middlewares/Third_Party/LwIP/src/core/udp.c ****  * are guaranteed to have come in via the specified netif, and all
1034:Middlewares/Third_Party/LwIP/src/core/udp.c ****  * outgoing packets will go out via the specified netif.
1035:Middlewares/Third_Party/LwIP/src/core/udp.c ****  *
1036:Middlewares/Third_Party/LwIP/src/core/udp.c ****  * @param pcb UDP PCB to be bound.
1037:Middlewares/Third_Party/LwIP/src/core/udp.c ****  * @param netif netif to bind udp pcb to. Can be NULL.
1038:Middlewares/Third_Party/LwIP/src/core/udp.c ****  *
1039:Middlewares/Third_Party/LwIP/src/core/udp.c ****  * @see udp_disconnect()
1040:Middlewares/Third_Party/LwIP/src/core/udp.c ****  */
1041:Middlewares/Third_Party/LwIP/src/core/udp.c **** void
1042:Middlewares/Third_Party/LwIP/src/core/udp.c **** udp_bind_netif(struct udp_pcb *pcb, const struct netif *netif)
1043:Middlewares/Third_Party/LwIP/src/core/udp.c **** {
 1878              		.loc 1 1043 1 view -0
 1879              		.cfi_startproc
 1880              		@ args = 0, pretend = 0, frame = 0
 1881              		@ frame_needed = 0, uses_anonymous_args = 0
 1882              		@ link register save eliminated.
1044:Middlewares/Third_Party/LwIP/src/core/udp.c ****   LWIP_ASSERT_CORE_LOCKED();
 1883              		.loc 1 1044 28 view .LVU591
1045:Middlewares/Third_Party/LwIP/src/core/udp.c **** 
1046:Middlewares/Third_Party/LwIP/src/core/udp.c ****   if (netif != NULL) {
 1884              		.loc 1 1046 3 view .LVU592
 1885              		.loc 1 1046 6 is_stmt 0 view .LVU593
 1886 0000 21B1     		cbz	r1, .L163
1047:Middlewares/Third_Party/LwIP/src/core/udp.c ****     pcb->netif_idx = netif_get_index(netif);
 1887              		.loc 1 1047 5 is_stmt 1 view .LVU594
 1888              		.loc 1 1047 22 is_stmt 0 view .LVU595
 1889 0002 91F83430 		ldrb	r3, [r1, #52]	@ zero_extendqisi2
 1890 0006 0133     		adds	r3, r3, #1
 1891              		.loc 1 1047 20 view .LVU596
 1892 0008 0372     		strb	r3, [r0, #8]
 1893 000a 7047     		bx	lr
 1894              	.L163:
1048:Middlewares/Third_Party/LwIP/src/core/udp.c ****   } else {
1049:Middlewares/Third_Party/LwIP/src/core/udp.c ****     pcb->netif_idx = NETIF_NO_INDEX;
 1895              		.loc 1 1049 5 is_stmt 1 view .LVU597
 1896              		.loc 1 1049 20 is_stmt 0 view .LVU598
 1897 000c 0023     		movs	r3, #0
 1898 000e 0372     		strb	r3, [r0, #8]
1050:Middlewares/Third_Party/LwIP/src/core/udp.c ****   }
1051:Middlewares/Third_Party/LwIP/src/core/udp.c **** }
 1899              		.loc 1 1051 1 view .LVU599
ARM GAS  D:\Dev\msys64\tmp\cco9wmM5.s 			page 62


 1900 0010 7047     		bx	lr
 1901              		.cfi_endproc
 1902              	.LFE34:
 1904              		.section	.rodata.udp_connect.str1.4,"aMS",%progbits,1
 1905              		.align	2
 1906              	.LC23:
 1907 0000 7564705F 		.ascii	"udp_connect: invalid pcb\000"
 1907      636F6E6E 
 1907      6563743A 
 1907      20696E76 
 1907      616C6964 
 1908 0019 000000   		.align	2
 1909              	.LC24:
 1910 001c 7564705F 		.ascii	"udp_connect: invalid ipaddr\000"
 1910      636F6E6E 
 1910      6563743A 
 1910      20696E76 
 1910      616C6964 
 1911              		.section	.text.udp_connect,"ax",%progbits
 1912              		.align	1
 1913              		.global	udp_connect
 1914              		.syntax unified
 1915              		.thumb
 1916              		.thumb_func
 1917              		.fpu fpv5-sp-d16
 1919              	udp_connect:
 1920              	.LVL210:
 1921              	.LFB35:
1052:Middlewares/Third_Party/LwIP/src/core/udp.c **** 
1053:Middlewares/Third_Party/LwIP/src/core/udp.c **** /**
1054:Middlewares/Third_Party/LwIP/src/core/udp.c ****  * @ingroup udp_raw
1055:Middlewares/Third_Party/LwIP/src/core/udp.c ****  * Sets the remote end of the pcb. This function does not generate any
1056:Middlewares/Third_Party/LwIP/src/core/udp.c ****  * network traffic, but only sets the remote address of the pcb.
1057:Middlewares/Third_Party/LwIP/src/core/udp.c ****  *
1058:Middlewares/Third_Party/LwIP/src/core/udp.c ****  * @param pcb UDP PCB to be connected with remote address ipaddr and port.
1059:Middlewares/Third_Party/LwIP/src/core/udp.c ****  * @param ipaddr remote IP address to connect with.
1060:Middlewares/Third_Party/LwIP/src/core/udp.c ****  * @param port remote UDP port to connect with.
1061:Middlewares/Third_Party/LwIP/src/core/udp.c ****  *
1062:Middlewares/Third_Party/LwIP/src/core/udp.c ****  * @return lwIP error code
1063:Middlewares/Third_Party/LwIP/src/core/udp.c ****  *
1064:Middlewares/Third_Party/LwIP/src/core/udp.c ****  * ipaddr & port are expected to be in the same byte order as in the pcb.
1065:Middlewares/Third_Party/LwIP/src/core/udp.c ****  *
1066:Middlewares/Third_Party/LwIP/src/core/udp.c ****  * The udp pcb is bound to a random local port if not already bound.
1067:Middlewares/Third_Party/LwIP/src/core/udp.c ****  *
1068:Middlewares/Third_Party/LwIP/src/core/udp.c ****  * @see udp_disconnect()
1069:Middlewares/Third_Party/LwIP/src/core/udp.c ****  */
1070:Middlewares/Third_Party/LwIP/src/core/udp.c **** err_t
1071:Middlewares/Third_Party/LwIP/src/core/udp.c **** udp_connect(struct udp_pcb *pcb, const ip_addr_t *ipaddr, u16_t port)
1072:Middlewares/Third_Party/LwIP/src/core/udp.c **** {
 1922              		.loc 1 1072 1 is_stmt 1 view -0
 1923              		.cfi_startproc
 1924              		@ args = 0, pretend = 0, frame = 0
 1925              		@ frame_needed = 0, uses_anonymous_args = 0
 1926              		.loc 1 1072 1 is_stmt 0 view .LVU601
 1927 0000 70B5     		push	{r4, r5, r6, lr}
 1928              	.LCFI19:
 1929              		.cfi_def_cfa_offset 16
ARM GAS  D:\Dev\msys64\tmp\cco9wmM5.s 			page 63


 1930              		.cfi_offset 4, -16
 1931              		.cfi_offset 5, -12
 1932              		.cfi_offset 6, -8
 1933              		.cfi_offset 14, -4
1073:Middlewares/Third_Party/LwIP/src/core/udp.c ****   struct udp_pcb *ipcb;
 1934              		.loc 1 1073 3 is_stmt 1 view .LVU602
1074:Middlewares/Third_Party/LwIP/src/core/udp.c **** 
1075:Middlewares/Third_Party/LwIP/src/core/udp.c ****   LWIP_ASSERT_CORE_LOCKED();
 1935              		.loc 1 1075 28 view .LVU603
1076:Middlewares/Third_Party/LwIP/src/core/udp.c **** 
1077:Middlewares/Third_Party/LwIP/src/core/udp.c ****   LWIP_ERROR("udp_connect: invalid pcb", pcb != NULL, return ERR_ARG);
 1936              		.loc 1 1077 3 view .LVU604
 1937              		.loc 1 1077 3 view .LVU605
 1938 0002 A0B1     		cbz	r0, .L174
 1939 0004 0D46     		mov	r5, r1
 1940 0006 1646     		mov	r6, r2
 1941 0008 0446     		mov	r4, r0
 1942              		.loc 1 1077 3 discriminator 2 view .LVU606
1078:Middlewares/Third_Party/LwIP/src/core/udp.c ****   LWIP_ERROR("udp_connect: invalid ipaddr", ipaddr != NULL, return ERR_ARG);
 1943              		.loc 1 1078 3 discriminator 2 view .LVU607
 1944              		.loc 1 1078 3 discriminator 2 view .LVU608
 1945 000a D1B1     		cbz	r1, .L175
 1946              		.loc 1 1078 3 discriminator 2 view .LVU609
1079:Middlewares/Third_Party/LwIP/src/core/udp.c **** 
1080:Middlewares/Third_Party/LwIP/src/core/udp.c ****   if (pcb->local_port == 0) {
 1947              		.loc 1 1080 3 discriminator 2 view .LVU610
 1948              		.loc 1 1080 10 is_stmt 0 discriminator 2 view .LVU611
 1949 000c 428A     		ldrh	r2, [r0, #18]
 1950              	.LVL211:
 1951              		.loc 1 1080 6 discriminator 2 view .LVU612
 1952 000e 12B3     		cbz	r2, .L176
 1953              	.LVL212:
 1954              	.L169:
1081:Middlewares/Third_Party/LwIP/src/core/udp.c ****     err_t err = udp_bind(pcb, &pcb->local_ip, pcb->local_port);
1082:Middlewares/Third_Party/LwIP/src/core/udp.c ****     if (err != ERR_OK) {
1083:Middlewares/Third_Party/LwIP/src/core/udp.c ****       return err;
1084:Middlewares/Third_Party/LwIP/src/core/udp.c ****     }
1085:Middlewares/Third_Party/LwIP/src/core/udp.c ****   }
1086:Middlewares/Third_Party/LwIP/src/core/udp.c **** 
1087:Middlewares/Third_Party/LwIP/src/core/udp.c ****   ip_addr_set_ipaddr(&pcb->remote_ip, ipaddr);
 1955              		.loc 1 1087 3 is_stmt 1 view .LVU613
 1956 0010 2B68     		ldr	r3, [r5]
 1957 0012 6360     		str	r3, [r4, #4]
1088:Middlewares/Third_Party/LwIP/src/core/udp.c **** #if LWIP_IPV6 && LWIP_IPV6_SCOPES
1089:Middlewares/Third_Party/LwIP/src/core/udp.c ****   /* If the given IP address should have a zone but doesn't, assign one now,
1090:Middlewares/Third_Party/LwIP/src/core/udp.c ****    * using the bound address to make a more informed decision when possible. */
1091:Middlewares/Third_Party/LwIP/src/core/udp.c ****   if (IP_IS_V6(&pcb->remote_ip) &&
1092:Middlewares/Third_Party/LwIP/src/core/udp.c ****       ip6_addr_lacks_zone(ip_2_ip6(&pcb->remote_ip), IP6_UNKNOWN)) {
1093:Middlewares/Third_Party/LwIP/src/core/udp.c ****     ip6_addr_select_zone(ip_2_ip6(&pcb->remote_ip), ip_2_ip6(&pcb->local_ip));
1094:Middlewares/Third_Party/LwIP/src/core/udp.c ****   }
1095:Middlewares/Third_Party/LwIP/src/core/udp.c **** #endif /* LWIP_IPV6 && LWIP_IPV6_SCOPES */
1096:Middlewares/Third_Party/LwIP/src/core/udp.c **** 
1097:Middlewares/Third_Party/LwIP/src/core/udp.c ****   pcb->remote_port = port;
 1958              		.loc 1 1097 3 view .LVU614
 1959              		.loc 1 1097 20 is_stmt 0 view .LVU615
 1960 0014 A682     		strh	r6, [r4, #20]	@ movhi
1098:Middlewares/Third_Party/LwIP/src/core/udp.c ****   pcb->flags |= UDP_FLAGS_CONNECTED;
ARM GAS  D:\Dev\msys64\tmp\cco9wmM5.s 			page 64


 1961              		.loc 1 1098 3 is_stmt 1 view .LVU616
 1962              		.loc 1 1098 14 is_stmt 0 view .LVU617
 1963 0016 237C     		ldrb	r3, [r4, #16]	@ zero_extendqisi2
 1964 0018 43F00403 		orr	r3, r3, #4
 1965 001c 2374     		strb	r3, [r4, #16]
1099:Middlewares/Third_Party/LwIP/src/core/udp.c **** 
1100:Middlewares/Third_Party/LwIP/src/core/udp.c ****   LWIP_DEBUGF(UDP_DEBUG | LWIP_DBG_TRACE | LWIP_DBG_STATE, ("udp_connect: connected to "));
 1966              		.loc 1 1100 91 is_stmt 1 view .LVU618
1101:Middlewares/Third_Party/LwIP/src/core/udp.c ****   ip_addr_debug_print_val(UDP_DEBUG | LWIP_DBG_TRACE | LWIP_DBG_STATE,
1102:Middlewares/Third_Party/LwIP/src/core/udp.c ****                           pcb->remote_ip);
 1967              		.loc 1 1102 42 view .LVU619
1103:Middlewares/Third_Party/LwIP/src/core/udp.c ****   LWIP_DEBUGF(UDP_DEBUG | LWIP_DBG_TRACE | LWIP_DBG_STATE, (", port %"U16_F")\n", pcb->remote_port)
 1968              		.loc 1 1103 101 view .LVU620
1104:Middlewares/Third_Party/LwIP/src/core/udp.c **** 
1105:Middlewares/Third_Party/LwIP/src/core/udp.c ****   /* Insert UDP PCB into the list of active UDP PCBs. */
1106:Middlewares/Third_Party/LwIP/src/core/udp.c ****   for (ipcb = udp_pcbs; ipcb != NULL; ipcb = ipcb->next) {
 1969              		.loc 1 1106 3 view .LVU621
 1970              		.loc 1 1106 13 is_stmt 0 view .LVU622
 1971 001e 144B     		ldr	r3, .L178
 1972 0020 1A68     		ldr	r2, [r3]
 1973              	.LVL213:
 1974              		.loc 1 1106 13 view .LVU623
 1975 0022 1346     		mov	r3, r2
 1976              	.LVL214:
 1977              	.L170:
 1978              		.loc 1 1106 25 is_stmt 1 discriminator 1 view .LVU624
 1979              		.loc 1 1106 3 is_stmt 0 discriminator 1 view .LVU625
 1980 0024 EBB1     		cbz	r3, .L177
1107:Middlewares/Third_Party/LwIP/src/core/udp.c ****     if (pcb == ipcb) {
 1981              		.loc 1 1107 5 is_stmt 1 view .LVU626
 1982              		.loc 1 1107 8 is_stmt 0 view .LVU627
 1983 0026 A342     		cmp	r3, r4
 1984 0028 20D0     		beq	.L172
1106:Middlewares/Third_Party/LwIP/src/core/udp.c ****     if (pcb == ipcb) {
 1985              		.loc 1 1106 39 is_stmt 1 discriminator 2 view .LVU628
1106:Middlewares/Third_Party/LwIP/src/core/udp.c ****     if (pcb == ipcb) {
 1986              		.loc 1 1106 44 is_stmt 0 discriminator 2 view .LVU629
 1987 002a DB68     		ldr	r3, [r3, #12]
 1988              	.LVL215:
1106:Middlewares/Third_Party/LwIP/src/core/udp.c ****     if (pcb == ipcb) {
 1989              		.loc 1 1106 44 discriminator 2 view .LVU630
 1990 002c FAE7     		b	.L170
 1991              	.LVL216:
 1992              	.L174:
1077:Middlewares/Third_Party/LwIP/src/core/udp.c ****   LWIP_ERROR("udp_connect: invalid ipaddr", ipaddr != NULL, return ERR_ARG);
 1993              		.loc 1 1077 3 is_stmt 1 discriminator 1 view .LVU631
1077:Middlewares/Third_Party/LwIP/src/core/udp.c ****   LWIP_ERROR("udp_connect: invalid ipaddr", ipaddr != NULL, return ERR_ARG);
 1994              		.loc 1 1077 3 discriminator 1 view .LVU632
 1995 002e 114B     		ldr	r3, .L178+4
 1996 0030 40F23542 		movw	r2, #1077
 1997              	.LVL217:
1077:Middlewares/Third_Party/LwIP/src/core/udp.c ****   LWIP_ERROR("udp_connect: invalid ipaddr", ipaddr != NULL, return ERR_ARG);
 1998              		.loc 1 1077 3 is_stmt 0 discriminator 1 view .LVU633
 1999 0034 1049     		ldr	r1, .L178+8
 2000              	.LVL218:
1077:Middlewares/Third_Party/LwIP/src/core/udp.c ****   LWIP_ERROR("udp_connect: invalid ipaddr", ipaddr != NULL, return ERR_ARG);
 2001              		.loc 1 1077 3 discriminator 1 view .LVU634
ARM GAS  D:\Dev\msys64\tmp\cco9wmM5.s 			page 65


 2002 0036 1148     		ldr	r0, .L178+12
 2003              	.LVL219:
1077:Middlewares/Third_Party/LwIP/src/core/udp.c ****   LWIP_ERROR("udp_connect: invalid ipaddr", ipaddr != NULL, return ERR_ARG);
 2004              		.loc 1 1077 3 discriminator 1 view .LVU635
 2005 0038 FFF7FEFF 		bl	printf
 2006              	.LVL220:
1077:Middlewares/Third_Party/LwIP/src/core/udp.c ****   LWIP_ERROR("udp_connect: invalid ipaddr", ipaddr != NULL, return ERR_ARG);
 2007              		.loc 1 1077 3 is_stmt 1 discriminator 1 view .LVU636
1077:Middlewares/Third_Party/LwIP/src/core/udp.c ****   LWIP_ERROR("udp_connect: invalid ipaddr", ipaddr != NULL, return ERR_ARG);
 2008              		.loc 1 1077 3 discriminator 1 view .LVU637
 2009 003c 6FF00F00 		mvn	r0, #15
 2010 0040 13E0     		b	.L167
 2011              	.LVL221:
 2012              	.L175:
1078:Middlewares/Third_Party/LwIP/src/core/udp.c **** 
 2013              		.loc 1 1078 3 discriminator 1 view .LVU638
1078:Middlewares/Third_Party/LwIP/src/core/udp.c **** 
 2014              		.loc 1 1078 3 discriminator 1 view .LVU639
 2015 0042 0C4B     		ldr	r3, .L178+4
 2016 0044 40F23642 		movw	r2, #1078
 2017              	.LVL222:
1078:Middlewares/Third_Party/LwIP/src/core/udp.c **** 
 2018              		.loc 1 1078 3 is_stmt 0 discriminator 1 view .LVU640
 2019 0048 0D49     		ldr	r1, .L178+16
 2020              	.LVL223:
1078:Middlewares/Third_Party/LwIP/src/core/udp.c **** 
 2021              		.loc 1 1078 3 discriminator 1 view .LVU641
 2022 004a 0C48     		ldr	r0, .L178+12
 2023              	.LVL224:
1078:Middlewares/Third_Party/LwIP/src/core/udp.c **** 
 2024              		.loc 1 1078 3 discriminator 1 view .LVU642
 2025 004c FFF7FEFF 		bl	printf
 2026              	.LVL225:
1078:Middlewares/Third_Party/LwIP/src/core/udp.c **** 
 2027              		.loc 1 1078 3 is_stmt 1 discriminator 1 view .LVU643
1078:Middlewares/Third_Party/LwIP/src/core/udp.c **** 
 2028              		.loc 1 1078 3 discriminator 1 view .LVU644
 2029 0050 6FF00F00 		mvn	r0, #15
 2030 0054 09E0     		b	.L167
 2031              	.LVL226:
 2032              	.L176:
 2033              	.LBB2:
1081:Middlewares/Third_Party/LwIP/src/core/udp.c ****     if (err != ERR_OK) {
 2034              		.loc 1 1081 5 view .LVU645
1081:Middlewares/Third_Party/LwIP/src/core/udp.c ****     if (err != ERR_OK) {
 2035              		.loc 1 1081 17 is_stmt 0 view .LVU646
 2036 0056 0146     		mov	r1, r0
 2037              	.LVL227:
1081:Middlewares/Third_Party/LwIP/src/core/udp.c ****     if (err != ERR_OK) {
 2038              		.loc 1 1081 17 view .LVU647
 2039 0058 FFF7FEFF 		bl	udp_bind
 2040              	.LVL228:
1082:Middlewares/Third_Party/LwIP/src/core/udp.c ****       return err;
 2041              		.loc 1 1082 5 is_stmt 1 view .LVU648
1082:Middlewares/Third_Party/LwIP/src/core/udp.c ****       return err;
 2042              		.loc 1 1082 8 is_stmt 0 view .LVU649
 2043 005c 0028     		cmp	r0, #0
ARM GAS  D:\Dev\msys64\tmp\cco9wmM5.s 			page 66


 2044 005e D7D0     		beq	.L169
 2045 0060 03E0     		b	.L167
 2046              	.LVL229:
 2047              	.L177:
1082:Middlewares/Third_Party/LwIP/src/core/udp.c ****       return err;
 2048              		.loc 1 1082 8 view .LVU650
 2049              	.LBE2:
1108:Middlewares/Third_Party/LwIP/src/core/udp.c ****       /* already on the list, just return */
1109:Middlewares/Third_Party/LwIP/src/core/udp.c ****       return ERR_OK;
1110:Middlewares/Third_Party/LwIP/src/core/udp.c ****     }
1111:Middlewares/Third_Party/LwIP/src/core/udp.c ****   }
1112:Middlewares/Third_Party/LwIP/src/core/udp.c ****   /* PCB not yet on the list, add PCB now */
1113:Middlewares/Third_Party/LwIP/src/core/udp.c ****   pcb->next = udp_pcbs;
 2050              		.loc 1 1113 3 is_stmt 1 view .LVU651
 2051              		.loc 1 1113 13 is_stmt 0 view .LVU652
 2052 0062 E260     		str	r2, [r4, #12]
1114:Middlewares/Third_Party/LwIP/src/core/udp.c ****   udp_pcbs = pcb;
 2053              		.loc 1 1114 3 is_stmt 1 view .LVU653
 2054              		.loc 1 1114 12 is_stmt 0 view .LVU654
 2055 0064 024B     		ldr	r3, .L178
 2056              	.LVL230:
 2057              		.loc 1 1114 12 view .LVU655
 2058 0066 1C60     		str	r4, [r3]
1115:Middlewares/Third_Party/LwIP/src/core/udp.c ****   return ERR_OK;
 2059              		.loc 1 1115 3 is_stmt 1 view .LVU656
 2060              		.loc 1 1115 10 is_stmt 0 view .LVU657
 2061 0068 0020     		movs	r0, #0
 2062              	.LVL231:
 2063              	.L167:
1116:Middlewares/Third_Party/LwIP/src/core/udp.c **** }
 2064              		.loc 1 1116 1 view .LVU658
 2065 006a 70BD     		pop	{r4, r5, r6, pc}
 2066              	.LVL232:
 2067              	.L172:
1109:Middlewares/Third_Party/LwIP/src/core/udp.c ****     }
 2068              		.loc 1 1109 14 view .LVU659
 2069 006c 0020     		movs	r0, #0
 2070 006e FCE7     		b	.L167
 2071              	.L179:
 2072              		.align	2
 2073              	.L178:
 2074 0070 00000000 		.word	udp_pcbs
 2075 0074 00000000 		.word	.LC0
 2076 0078 00000000 		.word	.LC23
 2077 007c 50000000 		.word	.LC2
 2078 0080 1C000000 		.word	.LC24
 2079              		.cfi_endproc
 2080              	.LFE35:
 2082              		.section	.rodata.udp_disconnect.str1.4,"aMS",%progbits,1
 2083              		.align	2
 2084              	.LC25:
 2085 0000 7564705F 		.ascii	"udp_disconnect: invalid pcb\000"
 2085      64697363 
 2085      6F6E6E65 
 2085      63743A20 
 2085      696E7661 
 2086              		.section	.text.udp_disconnect,"ax",%progbits
ARM GAS  D:\Dev\msys64\tmp\cco9wmM5.s 			page 67


 2087              		.align	1
 2088              		.global	udp_disconnect
 2089              		.syntax unified
 2090              		.thumb
 2091              		.thumb_func
 2092              		.fpu fpv5-sp-d16
 2094              	udp_disconnect:
 2095              	.LVL233:
 2096              	.LFB36:
1117:Middlewares/Third_Party/LwIP/src/core/udp.c **** 
1118:Middlewares/Third_Party/LwIP/src/core/udp.c **** /**
1119:Middlewares/Third_Party/LwIP/src/core/udp.c ****  * @ingroup udp_raw
1120:Middlewares/Third_Party/LwIP/src/core/udp.c ****  * Remove the remote end of the pcb. This function does not generate
1121:Middlewares/Third_Party/LwIP/src/core/udp.c ****  * any network traffic, but only removes the remote address of the pcb.
1122:Middlewares/Third_Party/LwIP/src/core/udp.c ****  *
1123:Middlewares/Third_Party/LwIP/src/core/udp.c ****  * @param pcb the udp pcb to disconnect.
1124:Middlewares/Third_Party/LwIP/src/core/udp.c ****  */
1125:Middlewares/Third_Party/LwIP/src/core/udp.c **** void
1126:Middlewares/Third_Party/LwIP/src/core/udp.c **** udp_disconnect(struct udp_pcb *pcb)
1127:Middlewares/Third_Party/LwIP/src/core/udp.c **** {
 2097              		.loc 1 1127 1 is_stmt 1 view -0
 2098              		.cfi_startproc
 2099              		@ args = 0, pretend = 0, frame = 0
 2100              		@ frame_needed = 0, uses_anonymous_args = 0
 2101              		.loc 1 1127 1 is_stmt 0 view .LVU661
 2102 0000 08B5     		push	{r3, lr}
 2103              	.LCFI20:
 2104              		.cfi_def_cfa_offset 8
 2105              		.cfi_offset 3, -8
 2106              		.cfi_offset 14, -4
1128:Middlewares/Third_Party/LwIP/src/core/udp.c ****   LWIP_ASSERT_CORE_LOCKED();
 2107              		.loc 1 1128 28 is_stmt 1 view .LVU662
1129:Middlewares/Third_Party/LwIP/src/core/udp.c **** 
1130:Middlewares/Third_Party/LwIP/src/core/udp.c ****   LWIP_ERROR("udp_disconnect: invalid pcb", pcb != NULL, return);
 2108              		.loc 1 1130 3 view .LVU663
 2109              		.loc 1 1130 3 view .LVU664
 2110 0002 40B1     		cbz	r0, .L184
 2111              		.loc 1 1130 3 discriminator 2 view .LVU665
1131:Middlewares/Third_Party/LwIP/src/core/udp.c **** 
1132:Middlewares/Third_Party/LwIP/src/core/udp.c ****   /* reset remote address association */
1133:Middlewares/Third_Party/LwIP/src/core/udp.c **** #if LWIP_IPV4 && LWIP_IPV6
1134:Middlewares/Third_Party/LwIP/src/core/udp.c ****   if (IP_IS_ANY_TYPE_VAL(pcb->local_ip)) {
1135:Middlewares/Third_Party/LwIP/src/core/udp.c ****     ip_addr_copy(pcb->remote_ip, *IP_ANY_TYPE);
1136:Middlewares/Third_Party/LwIP/src/core/udp.c ****   } else {
1137:Middlewares/Third_Party/LwIP/src/core/udp.c **** #endif
1138:Middlewares/Third_Party/LwIP/src/core/udp.c ****     ip_addr_set_any(IP_IS_V6_VAL(pcb->remote_ip), &pcb->remote_ip);
 2112              		.loc 1 1138 5 discriminator 2 view .LVU666
 2113 0004 0022     		movs	r2, #0
 2114 0006 4260     		str	r2, [r0, #4]
1139:Middlewares/Third_Party/LwIP/src/core/udp.c **** #if LWIP_IPV4 && LWIP_IPV6
1140:Middlewares/Third_Party/LwIP/src/core/udp.c ****   }
1141:Middlewares/Third_Party/LwIP/src/core/udp.c **** #endif
1142:Middlewares/Third_Party/LwIP/src/core/udp.c ****   pcb->remote_port = 0;
 2115              		.loc 1 1142 3 discriminator 2 view .LVU667
 2116              		.loc 1 1142 20 is_stmt 0 discriminator 2 view .LVU668
 2117 0008 8282     		strh	r2, [r0, #20]	@ movhi
1143:Middlewares/Third_Party/LwIP/src/core/udp.c ****   pcb->netif_idx = NETIF_NO_INDEX;
ARM GAS  D:\Dev\msys64\tmp\cco9wmM5.s 			page 68


 2118              		.loc 1 1143 3 is_stmt 1 discriminator 2 view .LVU669
 2119              		.loc 1 1143 18 is_stmt 0 discriminator 2 view .LVU670
 2120 000a 0272     		strb	r2, [r0, #8]
1144:Middlewares/Third_Party/LwIP/src/core/udp.c ****   /* mark PCB as unconnected */
1145:Middlewares/Third_Party/LwIP/src/core/udp.c ****   udp_clear_flags(pcb, UDP_FLAGS_CONNECTED);
 2121              		.loc 1 1145 3 is_stmt 1 discriminator 2 view .LVU671
 2122              		.loc 1 1145 3 discriminator 2 view .LVU672
 2123 000c 027C     		ldrb	r2, [r0, #16]	@ zero_extendqisi2
 2124 000e 02F0FB02 		and	r2, r2, #251
 2125 0012 0274     		strb	r2, [r0, #16]
 2126              		.loc 1 1145 3 discriminator 2 view .LVU673
 2127              	.LVL234:
 2128              	.L180:
1146:Middlewares/Third_Party/LwIP/src/core/udp.c **** }
 2129              		.loc 1 1146 1 is_stmt 0 view .LVU674
 2130 0014 08BD     		pop	{r3, pc}
 2131              	.LVL235:
 2132              	.L184:
1130:Middlewares/Third_Party/LwIP/src/core/udp.c **** 
 2133              		.loc 1 1130 3 is_stmt 1 discriminator 1 view .LVU675
1130:Middlewares/Third_Party/LwIP/src/core/udp.c **** 
 2134              		.loc 1 1130 3 discriminator 1 view .LVU676
 2135 0016 044B     		ldr	r3, .L185
 2136 0018 40F26A42 		movw	r2, #1130
 2137 001c 0349     		ldr	r1, .L185+4
 2138 001e 0448     		ldr	r0, .L185+8
 2139              	.LVL236:
1130:Middlewares/Third_Party/LwIP/src/core/udp.c **** 
 2140              		.loc 1 1130 3 is_stmt 0 discriminator 1 view .LVU677
 2141 0020 FFF7FEFF 		bl	printf
 2142              	.LVL237:
1130:Middlewares/Third_Party/LwIP/src/core/udp.c **** 
 2143              		.loc 1 1130 3 is_stmt 1 discriminator 1 view .LVU678
1130:Middlewares/Third_Party/LwIP/src/core/udp.c **** 
 2144              		.loc 1 1130 3 discriminator 1 view .LVU679
 2145 0024 F6E7     		b	.L180
 2146              	.L186:
 2147 0026 00BF     		.align	2
 2148              	.L185:
 2149 0028 00000000 		.word	.LC0
 2150 002c 00000000 		.word	.LC25
 2151 0030 50000000 		.word	.LC2
 2152              		.cfi_endproc
 2153              	.LFE36:
 2155              		.section	.rodata.udp_recv.str1.4,"aMS",%progbits,1
 2156              		.align	2
 2157              	.LC26:
 2158 0000 7564705F 		.ascii	"udp_recv: invalid pcb\000"
 2158      72656376 
 2158      3A20696E 
 2158      76616C69 
 2158      64207063 
 2159              		.section	.text.udp_recv,"ax",%progbits
 2160              		.align	1
 2161              		.global	udp_recv
 2162              		.syntax unified
 2163              		.thumb
ARM GAS  D:\Dev\msys64\tmp\cco9wmM5.s 			page 69


 2164              		.thumb_func
 2165              		.fpu fpv5-sp-d16
 2167              	udp_recv:
 2168              	.LVL238:
 2169              	.LFB37:
1147:Middlewares/Third_Party/LwIP/src/core/udp.c **** 
1148:Middlewares/Third_Party/LwIP/src/core/udp.c **** /**
1149:Middlewares/Third_Party/LwIP/src/core/udp.c ****  * @ingroup udp_raw
1150:Middlewares/Third_Party/LwIP/src/core/udp.c ****  * Set a receive callback for a UDP PCB.
1151:Middlewares/Third_Party/LwIP/src/core/udp.c ****  * This callback will be called when receiving a datagram for the pcb.
1152:Middlewares/Third_Party/LwIP/src/core/udp.c ****  *
1153:Middlewares/Third_Party/LwIP/src/core/udp.c ****  * @param pcb the pcb for which to set the recv callback
1154:Middlewares/Third_Party/LwIP/src/core/udp.c ****  * @param recv function pointer of the callback function
1155:Middlewares/Third_Party/LwIP/src/core/udp.c ****  * @param recv_arg additional argument to pass to the callback function
1156:Middlewares/Third_Party/LwIP/src/core/udp.c ****  */
1157:Middlewares/Third_Party/LwIP/src/core/udp.c **** void
1158:Middlewares/Third_Party/LwIP/src/core/udp.c **** udp_recv(struct udp_pcb *pcb, udp_recv_fn recv, void *recv_arg)
1159:Middlewares/Third_Party/LwIP/src/core/udp.c **** {
 2170              		.loc 1 1159 1 view -0
 2171              		.cfi_startproc
 2172              		@ args = 0, pretend = 0, frame = 0
 2173              		@ frame_needed = 0, uses_anonymous_args = 0
 2174              		.loc 1 1159 1 is_stmt 0 view .LVU681
 2175 0000 08B5     		push	{r3, lr}
 2176              	.LCFI21:
 2177              		.cfi_def_cfa_offset 8
 2178              		.cfi_offset 3, -8
 2179              		.cfi_offset 14, -4
1160:Middlewares/Third_Party/LwIP/src/core/udp.c ****   LWIP_ASSERT_CORE_LOCKED();
 2180              		.loc 1 1160 28 is_stmt 1 view .LVU682
1161:Middlewares/Third_Party/LwIP/src/core/udp.c **** 
1162:Middlewares/Third_Party/LwIP/src/core/udp.c ****   LWIP_ERROR("udp_recv: invalid pcb", pcb != NULL, return);
 2181              		.loc 1 1162 3 view .LVU683
 2182              		.loc 1 1162 3 view .LVU684
 2183 0002 10B1     		cbz	r0, .L191
 2184              		.loc 1 1162 3 discriminator 2 view .LVU685
1163:Middlewares/Third_Party/LwIP/src/core/udp.c **** 
1164:Middlewares/Third_Party/LwIP/src/core/udp.c ****   /* remember recv() callback and user data */
1165:Middlewares/Third_Party/LwIP/src/core/udp.c ****   pcb->recv = recv;
 2185              		.loc 1 1165 3 discriminator 2 view .LVU686
 2186              		.loc 1 1165 13 is_stmt 0 discriminator 2 view .LVU687
 2187 0004 8161     		str	r1, [r0, #24]
1166:Middlewares/Third_Party/LwIP/src/core/udp.c ****   pcb->recv_arg = recv_arg;
 2188              		.loc 1 1166 3 is_stmt 1 discriminator 2 view .LVU688
 2189              		.loc 1 1166 17 is_stmt 0 discriminator 2 view .LVU689
 2190 0006 C261     		str	r2, [r0, #28]
 2191              	.LVL239:
 2192              	.L187:
1167:Middlewares/Third_Party/LwIP/src/core/udp.c **** }
 2193              		.loc 1 1167 1 view .LVU690
 2194 0008 08BD     		pop	{r3, pc}
 2195              	.LVL240:
 2196              	.L191:
1162:Middlewares/Third_Party/LwIP/src/core/udp.c **** 
